
SDCARD_DEMO.elf:     file format elf32-littlenios2
SDCARD_DEMO.elf
architecture: nios2:r1, flags 0x00000112:
EXEC_P, HAS_SYMS, D_PAGED
start address 0x0004022c

Program Header:
    LOAD off    0x00001000 vaddr 0x00040000 paddr 0x00040000 align 2**12
         filesz 0x00000020 memsz 0x00000020 flags r-x
    LOAD off    0x00001020 vaddr 0x00040020 paddr 0x00040020 align 2**12
         filesz 0x00019440 memsz 0x00019440 flags r-x
    LOAD off    0x0001a460 vaddr 0x00059460 paddr 0x0005af50 align 2**12
         filesz 0x00001af0 memsz 0x00001af0 flags rw-
    LOAD off    0x0001ca40 vaddr 0x0005ca40 paddr 0x0005ca40 align 2**12
         filesz 0x00000000 memsz 0x00000198 flags rw-

Sections:
Idx Name          Size      VMA       LMA       File off  Algn
  0 .entry        00000020  00040000  00040000  00001000  2**5
                  CONTENTS, ALLOC, LOAD, READONLY, CODE
  1 .exceptions   0000020c  00040020  00040020  00001020  2**2
                  CONTENTS, ALLOC, LOAD, READONLY, CODE
  2 .text         00018794  0004022c  0004022c  0000122c  2**2
                  CONTENTS, ALLOC, LOAD, READONLY, CODE
  3 .rodata       00000aa0  000589c0  000589c0  000199c0  2**2
                  CONTENTS, ALLOC, LOAD, READONLY, DATA
  4 .rwdata       00001af0  00059460  0005af50  0001a460  2**2
                  CONTENTS, ALLOC, LOAD, DATA, SMALL_DATA
  5 .bss          00000198  0005ca40  0005ca40  0001ca40  2**2
                  ALLOC, SMALL_DATA
  6 .onchip_memory2 00000000  0005cbd8  0005cbd8  0001bf50  2**0
                  CONTENTS
  7 .comment      00000023  00000000  00000000  0001bf50  2**0
                  CONTENTS, READONLY
  8 .debug_aranges 00001008  00000000  00000000  0001bf78  2**3
                  CONTENTS, READONLY, DEBUGGING
  9 .debug_info   0002cfa6  00000000  00000000  0001cf80  2**0
                  CONTENTS, READONLY, DEBUGGING
 10 .debug_abbrev 0000b3fa  00000000  00000000  00049f26  2**0
                  CONTENTS, READONLY, DEBUGGING
 11 .debug_line   0000e953  00000000  00000000  00055320  2**0
                  CONTENTS, READONLY, DEBUGGING
 12 .debug_frame  00003094  00000000  00000000  00063c74  2**2
                  CONTENTS, READONLY, DEBUGGING
 13 .debug_str    00004982  00000000  00000000  00066d08  2**0
                  CONTENTS, READONLY, DEBUGGING
 14 .debug_loc    0001d15a  00000000  00000000  0006b68a  2**0
                  CONTENTS, READONLY, DEBUGGING
 15 .debug_alt_sim_info 00000040  00000000  00000000  000887e4  2**2
                  CONTENTS, READONLY, DEBUGGING
 16 .debug_ranges 000016a0  00000000  00000000  00088828  2**3
                  CONTENTS, READONLY, DEBUGGING
 17 .thread_model 00000003  00000000  00000000  0008de3e  2**0
                  CONTENTS, READONLY
 18 .cpu          0000000a  00000000  00000000  0008de41  2**0
                  CONTENTS, READONLY
 19 .qsys         00000001  00000000  00000000  0008de4b  2**0
                  CONTENTS, READONLY
 20 .simulation_enabled 00000001  00000000  00000000  0008de4c  2**0
                  CONTENTS, READONLY
 21 .sysid_hash   00000004  00000000  00000000  0008de4d  2**0
                  CONTENTS, READONLY
 22 .sysid_base   00000004  00000000  00000000  0008de51  2**0
                  CONTENTS, READONLY
 23 .sysid_time   00000004  00000000  00000000  0008de55  2**0
                  CONTENTS, READONLY
 24 .stderr_dev   00000009  00000000  00000000  0008de59  2**0
                  CONTENTS, READONLY
 25 .stdin_dev    00000009  00000000  00000000  0008de62  2**0
                  CONTENTS, READONLY
 26 .stdout_dev   00000009  00000000  00000000  0008de6b  2**0
                  CONTENTS, READONLY
 27 .sopc_system_name 0000000b  00000000  00000000  0008de74  2**0
                  CONTENTS, READONLY
 28 .quartus_project_dir 0000002b  00000000  00000000  0008de7f  2**0
                  CONTENTS, READONLY
 29 .jdi          0000405d  00000000  00000000  0008deaa  2**0
                  CONTENTS, READONLY
 30 .sopcinfo     0006befe  00000000  00000000  00091f07  2**0
                  CONTENTS, READONLY
SYMBOL TABLE:
00040000 l    d  .entry	00000000 .entry
00040020 l    d  .exceptions	00000000 .exceptions
0004022c l    d  .text	00000000 .text
000589c0 l    d  .rodata	00000000 .rodata
00059460 l    d  .rwdata	00000000 .rwdata
0005ca40 l    d  .bss	00000000 .bss
0005cbd8 l    d  .onchip_memory2	00000000 .onchip_memory2
00000000 l    d  .comment	00000000 .comment
00000000 l    d  .debug_aranges	00000000 .debug_aranges
00000000 l    d  .debug_info	00000000 .debug_info
00000000 l    d  .debug_abbrev	00000000 .debug_abbrev
00000000 l    d  .debug_line	00000000 .debug_line
00000000 l    d  .debug_frame	00000000 .debug_frame
00000000 l    d  .debug_str	00000000 .debug_str
00000000 l    d  .debug_loc	00000000 .debug_loc
00000000 l    d  .debug_alt_sim_info	00000000 .debug_alt_sim_info
00000000 l    d  .debug_ranges	00000000 .debug_ranges
00000000 l    df *ABS*	00000000 ../SDCARD_DEMO_bsp//obj/HAL/src/crt0.o
00040264 l       .text	00000000 alt_after_alt_main
00000000 l    df *ABS*	00000000 alt_irq_handler.c
00000000 l    df *ABS*	00000000 alt_instruction_exception_entry.c
00000000 l    df *ABS*	00000000 main.c
00000000 l    df *ABS*	00000000 FatFileSystem.c
00000000 l    df *ABS*	00000000 FatInternal.c
00000000 l    df *ABS*	00000000 LED.c
00000000 l    df *ABS*	00000000 debug.c
00000000 l    df *ABS*	00000000 crc16.c
00058ba8 l     O .rodata	00000200 crc16tab
00000000 l    df *ABS*	00000000 crc7.c
00058da8 l     O .rodata	00000100 crc7_syndrome_table
00000000 l    df *ABS*	00000000 sd_hal.c
00000000 l    df *ABS*	00000000 sd_lib.c
0005ca78 l     O .bss	00000038 gSdInfo
00000000 l    df *ABS*	00000000 sd_protocol.c
00000000 l    df *ABS*	00000000 lib2-divmod.c
000451f4 l     F .text	0000006c udivmodsi4
00000000 l    df *ABS*	00000000 lib2-mul.c
00000000 l    df *ABS*	00000000 divsf3.c
00000000 l    df *ABS*	00000000 mulsf3.c
00000000 l    df *ABS*	00000000 floatunsisf.c
00000000 l    df *ABS*	00000000 divdf3.c
00000000 l    df *ABS*	00000000 extendsfdf2.c
00000000 l    df *ABS*	00000000 truncdfsf2.c
00000000 l    df *ABS*	00000000 libgcc2.c
00000000 l    df *ABS*	00000000 libgcc2.c
00000000 l    df *ABS*	00000000 malloc.c
00000000 l    df *ABS*	00000000 mallocr.c
00000000 l    df *ABS*	00000000 memcpy.c
00000000 l    df *ABS*	00000000 memset.c
00000000 l    df *ABS*	00000000 printf.c
00000000 l    df *ABS*	00000000 putchar.c
00000000 l    df *ABS*	00000000 puts.c
00000000 l    df *ABS*	00000000 sbrkr.c
00000000 l    df *ABS*	00000000 sprintf.c
00000000 l    df *ABS*	00000000 strcasecmp.c
00000000 l    df *ABS*	00000000 strcmp.c
00000000 l    df *ABS*	00000000 strlen.c
00000000 l    df *ABS*	00000000 vfprintf.c
00058fee l     O .rodata	00000010 zeroes.4166
00058ffe l     O .rodata	00000010 blanks.4165
00000000 l    df *ABS*	00000000 vfprintf.c
0005900e l     O .rodata	00000010 zeroes.4181
0005901e l     O .rodata	00000010 blanks.4180
00000000 l    df *ABS*	00000000 vsnprintf.c
00000000 l    df *ABS*	00000000 wsetup.c
00000000 l    df *ABS*	00000000 ctype_.c
0005912f l     O .rodata	00000180 _ctype_b
00000000 l    df *ABS*	00000000 dtoa.c
0004bbb8 l     F .text	00000228 quorem
00000000 l    df *ABS*	00000000 fflush.c
00000000 l    df *ABS*	00000000 findfp.c
0004d760 l     F .text	00000008 __fp_lock
0004d768 l     F .text	00000008 __fp_unlock
0004d77c l     F .text	000001a0 __sinit.part.1
00000000 l    df *ABS*	00000000 mallocr.c
00000000 l    df *ABS*	00000000 fvwrite.c
00000000 l    df *ABS*	00000000 fwalk.c
00000000 l    df *ABS*	00000000 impure.c
00059868 l     O .rwdata	00000424 impure_data
00000000 l    df *ABS*	00000000 int_errno.c
00000000 l    df *ABS*	00000000 locale.c
00059cac l     O .rwdata	00000020 lc_ctype_charset
00059c8c l     O .rwdata	00000020 lc_message_charset
00059ccc l     O .rwdata	00000038 lconv
00000000 l    df *ABS*	00000000 makebuf.c
00000000 l    df *ABS*	00000000 memchr.c
00000000 l    df *ABS*	00000000 memmove.c
00000000 l    df *ABS*	00000000 mprec.c
000592d0 l     O .rodata	0000000c p05.2678
00000000 l    df *ABS*	00000000 putc.c
00000000 l    df *ABS*	00000000 mallocr.c
00000000 l    df *ABS*	00000000 s_fpclassify.c
00000000 l    df *ABS*	00000000 stdio.c
00000000 l    df *ABS*	00000000 vfprintf.c
000593f4 l     O .rodata	00000010 zeroes.4110
00059404 l     O .rodata	00000010 blanks.4109
00000000 l    df *ABS*	00000000 vfprintf.c
000516b0 l     F .text	000000fc __sprint_r.part.0
00059424 l     O .rodata	00000010 blanks.4125
00059414 l     O .rodata	00000010 zeroes.4126
00000000 l    df *ABS*	00000000 wbuf.c
00000000 l    df *ABS*	00000000 writer.c
00000000 l    df *ABS*	00000000 closer.c
00000000 l    df *ABS*	00000000 mallocr.c
00000000 l    df *ABS*	00000000 fclose.c
00000000 l    df *ABS*	00000000 fputwc.c
00000000 l    df *ABS*	00000000 fstatr.c
00000000 l    df *ABS*	00000000 isattyr.c
00000000 l    df *ABS*	00000000 lseekr.c
00000000 l    df *ABS*	00000000 readr.c
00000000 l    df *ABS*	00000000 wcrtomb.c
00000000 l    df *ABS*	00000000 wctomb_r.c
00000000 l    df *ABS*	00000000 libgcc2.c
00000000 l    df *ABS*	00000000 libgcc2.c
00000000 l    df *ABS*	00000000 adddf3.c
00000000 l    df *ABS*	00000000 eqdf2.c
00000000 l    df *ABS*	00000000 gedf2.c
00000000 l    df *ABS*	00000000 ledf2.c
00000000 l    df *ABS*	00000000 muldf3.c
00000000 l    df *ABS*	00000000 subdf3.c
00000000 l    df *ABS*	00000000 fixdfsi.c
00000000 l    df *ABS*	00000000 floatsidf.c
00000000 l    df *ABS*	00000000 floatunsidf.c
00000000 l    df *ABS*	00000000 alt_close.c
00055fcc l     F .text	00000050 alt_get_errno
00000000 l    df *ABS*	00000000 alt_dev.c
000560f4 l     F .text	0000002c alt_dev_null_write
00000000 l    df *ABS*	00000000 alt_errno.c
00000000 l    df *ABS*	00000000 alt_fstat.c
00056120 l     F .text	00000050 alt_get_errno
00000000 l    df *ABS*	00000000 alt_isatty.c
00056228 l     F .text	00000050 alt_get_errno
00000000 l    df *ABS*	00000000 alt_load.c
00056324 l     F .text	00000064 alt_load_section
00000000 l    df *ABS*	00000000 alt_lseek.c
00056408 l     F .text	00000050 alt_get_errno
00000000 l    df *ABS*	00000000 alt_main.c
00000000 l    df *ABS*	00000000 alt_malloc_lock.c
00000000 l    df *ABS*	00000000 alt_read.c
000565ec l     F .text	00000050 alt_get_errno
00000000 l    df *ABS*	00000000 alt_release_fd.c
00000000 l    df *ABS*	00000000 alt_sbrk.c
0005af40 l     O .rwdata	00000004 heap_end
00000000 l    df *ABS*	00000000 alt_tick.c
00000000 l    df *ABS*	00000000 alt_usleep.c
00000000 l    df *ABS*	00000000 alt_write.c
00056a3c l     F .text	00000050 alt_get_errno
00000000 l    df *ABS*	00000000 alt_sys_init.c
00056b8c l     F .text	00000038 alt_dev_reg
00059eac l     O .rwdata	00001060 jtag_uart
00000000 l    df *ABS*	00000000 altera_avalon_jtag_uart_fd.c
00000000 l    df *ABS*	00000000 altera_avalon_jtag_uart_init.c
00056e80 l     F .text	00000204 altera_avalon_jtag_uart_irq
00057084 l     F .text	000000a8 altera_avalon_jtag_uart_timeout
00000000 l    df *ABS*	00000000 altera_avalon_jtag_uart_ioctl.c
00000000 l    df *ABS*	00000000 altera_avalon_jtag_uart_read.c
00000000 l    df *ABS*	00000000 altera_avalon_jtag_uart_write.c
00000000 l    df *ABS*	00000000 altera_avalon_timer_sc.c
000576a4 l     F .text	00000074 alt_avalon_timer_sc_irq
00000000 l    df *ABS*	00000000 alt_alarm_start.c
00000000 l    df *ABS*	00000000 alt_busy_sleep.c
00000000 l    df *ABS*	00000000 alt_dcache_flush_all.c
00000000 l    df *ABS*	00000000 alt_dev_llist_insert.c
00057a54 l     F .text	00000050 alt_get_errno
00000000 l    df *ABS*	00000000 alt_do_ctors.c
00000000 l    df *ABS*	00000000 alt_do_dtors.c
00000000 l    df *ABS*	00000000 alt_icache_flush_all.c
00000000 l    df *ABS*	00000000 alt_iic.c
00000000 l    df *ABS*	00000000 alt_iic_isr_register.c
00000000 l    df *ABS*	00000000 alt_io_redirect.c
00057eec l     F .text	000000e0 alt_open_fd
00000000 l    df *ABS*	00000000 alt_irq_vars.c
00000000 l    df *ABS*	00000000 alt_open.c
00058044 l     F .text	00000050 alt_get_errno
00058094 l     F .text	000000f4 alt_file_locked
00000000 l    df *ABS*	00000000 altera_nios2_gen2_irq.c
00000000 l    df *ABS*	00000000 alt_find_dev.c
00000000 l    df *ABS*	00000000 alt_find_file.c
00000000 l    df *ABS*	00000000 alt_get_fd.c
00000000 l    df *ABS*	00000000 atexit.c
00000000 l    df *ABS*	00000000 exit.c
00000000 l    df *ABS*	00000000 memcmp.c
00000000 l    df *ABS*	00000000 __atexit.c
00000000 l    df *ABS*	00000000 __call_atexit.c
00000000 l    df *ABS*	00000000 alt_exit.c
0005ca74 g     O .bss	00000004 alt_instruction_exception_handler
00047420 g     F .text	00000018 putchar
0004f8e8 g     F .text	00000074 _mprec_log10
0004f9d4 g     F .text	0000008c __any_on
0005324c g     F .text	00000054 _isatty_r
000592dc g     O .rodata	00000028 __mprec_tinytens
00056534 g     F .text	00000078 alt_main
00047438 g     F .text	000000b8 _puts_r
0004077c g     F .text	0000006c Fat_FileBrowseBegin
0005cad8 g     O .bss	00000100 alt_irq
000532a0 g     F .text	0000005c _lseek_r
0005af50 g       *ABS*	00000000 __flash_rwdata_start
00054a50 g     F .text	00000084 .hidden __eqdf2
00043ad0 g     F .text	00000080 SDLIB_WriteBlock512
0005cbd8 g       *ABS*	00000000 __alt_heap_start
000473dc g     F .text	0000003c printf
00053358 g     F .text	0000009c _wcrtomb_r
00044f58 g     F .text	000001a8 SD_CMD24
000502b4 g     F .text	0000005c __sseek
0004dac4 g     F .text	00000010 __sinit
00052c0c g     F .text	00000154 __swbuf_r
0004e53c g     F .text	0000007c _setlocale_r
0004d91c g     F .text	00000078 __sfmoreglue
000565cc g     F .text	00000020 __malloc_unlock
000407e8 g     F .text	00000430 Fat_FileBrowseNext
00045348 g     F .text	00000450 .hidden __divsf3
00042f44 g     F .text	0000002c SDHAL_IsSupport4Bits
00042e84 g     F .text	00000050 crc7_byte
00042138 g     F .text	000000a8 fatIsValidDir
0004e8bc g     F .text	0000015c memmove
0004daac g     F .text	00000018 _cleanup
0004ea18 g     F .text	000000a8 _Balloc
00042b48 g     F .text	0000002c LED_AllOff
00054ad4 g     F .text	000000e0 .hidden __gtdf2
000582e8 g     F .text	00000020 altera_nios2_gen2_irq_init
00000000  w      *UND*	00000000 __errno
00040000 g     F .entry	0000000c __reset
00043110 g     F .text	00000224 SDHAL_GetResponse
00040020 g       *ABS*	00000000 __flash_exceptions_start
000531f4 g     F .text	00000058 _fstat_r
0005ca4c g     O .bss	00000004 errno
00050230 g     F .text	00000008 __seofread
000504e0 g     F .text	000011d0 ___svfiprintf_internal_r
00041b3c g     F .text	00000180 fatNextCluster
0005ca60 g     O .bss	00000004 alt_argv
00062f0c g       *ABS*	00000000 _gp
00056a0c g     F .text	00000030 usleep
00059d2c g     O .rwdata	00000180 alt_fd_list
00047418 g     F .text	00000008 _putchar_r
00058308 g     F .text	00000090 alt_find_dev
00047154 g     F .text	00000138 memcpy
00042b74 g     F .text	00000040 LED_Display
0004d770 g     F .text	0000000c _cleanup_r
00055e58 g     F .text	000000d0 .hidden __floatsidf
00057fcc g     F .text	00000078 alt_io_redirect
00054bb4 g     F .text	000000e0 .hidden __ltdf2
000589c0 g       *ABS*	00000000 __DTOR_END__
00040ec8 g     F .text	000000b0 Fat_FileExist
000474f0 g     F .text	00000014 puts
00058580 g     F .text	0000009c alt_exception_cause_generated_bad_addr
00050168 g     F .text	00000074 __fpclassifyd
000440d0 g     F .text	00000198 SD_CMD2
0004f844 g     F .text	000000a4 __ratio
00052be8 g     F .text	00000024 __vfiprintf_internal
00057280 g     F .text	0000020c altera_avalon_jtag_uart_read
00046984 g     F .text	00000014 malloc
000473b0 g     F .text	0000002c _printf_r
00045310 g     F .text	00000008 .hidden __udivsi3
00056278 g     F .text	000000ac isatty
0005932c g     O .rodata	000000c8 __mprec_tens
00044c30 g     F .text	00000180 SD_ACMD42
0004e5b8 g     F .text	0000000c __locale_charset
0004ba48 g     F .text	00000040 vsnprintf
0005ca48 g     O .bss	00000004 __malloc_top_pad
0005af20 g     O .rwdata	00000004 __mb_cur_max
0004e5e8 g     F .text	0000000c _localeconv_r
00044784 g     F .text	00000180 SD_CMD7
0004ee40 g     F .text	0000003c __i2b
0004df28 g     F .text	000004a4 __sfvwrite_r
00047504 g     F .text	00000054 _sbrk_r
00044904 g     F .text	000001a0 SD_CMD16
00045180 g     F .text	00000074 ArrayToU32
000532fc g     F .text	0000005c _read_r
0005af38 g     O .rwdata	00000004 alt_max_fd
00042694 g     F .text	0000031c fatMount
00052f04 g     F .text	00000100 _fclose_r
0004d730 g     F .text	00000030 fflush
0005ca44 g     O .bss	00000004 __malloc_max_sbrked_mem
00046678 g     F .text	00000110 .hidden __extendsfdf2
000541b4 g     F .text	0000089c .hidden __adddf3
000421e0 g     F .text	00000048 fatIsUnusedDir
0004f5ec g     F .text	0000011c __b2d
00053b98 g     F .text	0000061c .hidden __umoddi3
00056458 g     F .text	000000dc lseek
0005af18 g     O .rwdata	00000004 _global_impure_ptr
0004fbc8 g     F .text	000005a0 _realloc_r
0005cbd8 g       *ABS*	00000000 __bss_end
00057dfc g     F .text	000000f0 alt_iic_isr_register
00056908 g     F .text	00000104 alt_tick
00053558 g     F .text	00000640 .hidden __udivdi3
00053018 g     F .text	00000184 _fputwc_r
00059304 g     O .rodata	00000028 __mprec_bigtens
0004ec24 g     F .text	00000104 __s2b
00055f28 g     F .text	000000a4 .hidden __floatunsidf
0004f394 g     F .text	00000060 __mcmp
000429b0 g     F .text	0000003c SD_ReadBlock512
0004dae4 g     F .text	00000018 __fp_lock_all
00057db0 g     F .text	0000004c alt_ic_irq_enabled
00040f78 g     F .text	00000220 Fat_FileOpen
00056870 g     F .text	00000098 alt_alarm_stop
0005ca70 g     O .bss	00000004 alt_irq_active
00041e44 g     F .text	000001f8 fatDelClusterList
000400fc g     F .exceptions	000000d0 alt_irq_handler
00059d04 g     O .rwdata	00000028 alt_dev_null
0004300c g     F .text	00000104 SDHAL_SendCmd
00057a38 g     F .text	0000001c alt_dcache_flush_all
0004ed28 g     F .text	00000068 __hi0bits
00043334 g     F .text	00000168 SDHAL_ReadData
00055dd0 g     F .text	00000088 .hidden __fixdfsi
0005af50 g       *ABS*	00000000 __ram_rwdata_end
0005af30 g     O .rwdata	00000008 alt_dev_list
00040680 g     F .text	00000044 Fat_Mount
00056a8c g     F .text	00000100 write
0004fa60 g     F .text	000000a0 _putc_r
00059460 g       *ABS*	00000000 __ram_rodata_end
00056170 g     F .text	000000b8 fstat
00054bb4 g     F .text	000000e0 .hidden __ledf2
00042c5c g     F .text	0000006c myprintf
0004f10c g     F .text	00000140 __pow5mult
000517c4 g     F .text	00001424 ___vfiprintf_internal_r
0005ca58 g     O .bss	00000004 __nlocale_changed
00045318 g     F .text	00000008 .hidden __umodsi3
0005cbd8 g       *ABS*	00000000 end
00042b1c g     F .text	0000002c LED_AllOn
00056dbc g     F .text	000000c4 altera_avalon_jtag_uart_init
000401cc g     F .exceptions	00000060 alt_instruction_exception_entry
000589c0 g       *ABS*	00000000 __CTOR_LIST__
000649f0 g       *ABS*	00000000 __alt_stack_pointer
00057718 g     F .text	00000088 alt_avalon_timer_sc_init
00046920 g     F .text	00000064 .hidden __clzsi2
0005748c g     F .text	00000218 altera_avalon_jtag_uart_write
00041760 g     F .text	00000044 Fat_FileClose
0004dad4 g     F .text	00000004 __sfp_lock_acquire
00040c18 g     F .text	0000006c Fat_FileCount
0004e7d4 g     F .text	000000e8 memchr
00049838 g     F .text	000020fc ___vfprintf_internal_r
00047558 g     F .text	00000058 _sprintf_r
0004dc38 g     F .text	000002f0 _free_r
0004e5c4 g     F .text	00000010 __locale_mb_cur_max
000587f8 g     F .text	00000194 __call_exitprocs
0005ca54 g     O .bss	00000004 __mlocale_changed
0005af0c g     O .rwdata	00000004 __malloc_sbrk_base
0004022c g     F .text	0000003c _start
0005ca68 g     O .bss	00000004 _alt_tick_rate
0004f24c g     F .text	00000148 __lshift
0005ca6c g     O .bss	00000004 _alt_nticks
00043ba0 g     F .text	00000088 SD_CMD0
0005663c g     F .text	00000104 read
00056bf8 g     F .text	00000060 alt_sys_init
00050318 g     F .text	000001c8 __ssprint_r
000586e4 g     F .text	00000114 __register_exitproc
000436bc g     F .text	00000060 SDHAL_DummyClock
00041198 g     F .text	00000044 Fat_FileSize
00042de0 g     F .text	000000a4 crc16
0004ee7c g     F .text	00000290 __multiply
00043b50 g     F .text	00000028 SD_Init
0005712c g     F .text	00000068 altera_avalon_jtag_uart_close
00045320 g     F .text	00000028 .hidden __mulsi3
00059460 g       *ABS*	00000000 __ram_rwdata_start
000589c0 g       *ABS*	00000000 __ram_rodata_start
0005cab0 g     O .bss	00000028 __malloc_current_mallinfo
0004f708 g     F .text	0000013c __d2b
0004761c g     F .text	00000070 strcasecmp
00056c58 g     F .text	00000060 altera_avalon_jtag_uart_read_fd
000584ac g     F .text	000000d4 alt_get_fd
000578e0 g     F .text	00000158 alt_busy_sleep
00052dd8 g     F .text	00000054 _close_r
000411dc g     F .text	00000484 Fat_FileRead
00058668 g     F .text	0000007c memcmp
00056d18 g     F .text	00000050 altera_avalon_jtag_uart_close_fd
0005cbd8 g       *ABS*	00000000 __alt_stack_base
00056d68 g     F .text	00000054 altera_avalon_jtag_uart_ioctl_fd
00042584 g     F .text	00000110 fatFindUnusedDirectory
00042f70 g     F .text	0000009c SDHAL_Init
0004ba88 g     F .text	00000130 __swsetup_r
00045cf8 g     F .text	00000980 .hidden __divdf3
0004d994 g     F .text	00000118 __sfp
0004f95c g     F .text	00000078 __copybits
00059460 g     O .rwdata	00000408 __malloc_av_
0004dae0 g     F .text	00000004 __sinit_lock_release
0004b958 g     F .text	000000f0 _vsnprintf_r
00054c94 g     F .text	0000086c .hidden __muldf3
000501dc g     F .text	00000054 __sread
000417a4 g     F .text	0000021c Fat_SpeedTest
00058398 g     F .text	00000114 alt_find_file
00057aa4 g     F .text	000000a4 alt_dev_llist_insert
000565ac g     F .text	00000020 __malloc_lock
000567c0 g     F .text	000000b0 sbrk
000477c8 g     F .text	00002070 ___svfprintf_internal_r
0004d508 g     F .text	00000228 _fflush_r
00052e2c g     F .text	000000d8 _calloc_r
000424d8 g     F .text	000000ac fatFindDirectory
0005ca40 g       *ABS*	00000000 __bss_start
0004728c g     F .text	00000124 memset
00040518 g     F .text	00000168 main
00042448 g     F .text	00000090 fatReadSecter
0005ca64 g     O .bss	00000004 alt_envp
0005ca40 g     O .bss	00000004 __malloc_max_total_mem
00042cc8 g     F .text	00000088 myprintf_hexarray
00056cb8 g     F .text	00000060 altera_avalon_jtag_uart_write_fd
00052d60 g     F .text	0000001c __swbuf
00050310 g     F .text	00000008 __sclose
00042228 g     F .text	00000198 fatDump
000649f0 g       *ABS*	00000000 __alt_heap_limit
00053004 g     F .text	00000014 fclose
00046788 g     F .text	00000198 .hidden __truncdfsf2
0004bde0 g     F .text	00001728 _dtoa_r
000469ac g     F .text	000007a8 _malloc_r
000534cc g     F .text	00000030 __ascii_wctomb
00045140 g     F .text	00000040 SD_WriteData
0005af3c g     O .rwdata	00000004 alt_errno
0004e3cc g     F .text	000000b8 _fwalk
0004203c g     F .text	0000005c fatDumpDate
00042ed4 g     F .text	00000070 crc7
0004fb00 g     F .text	000000c8 putc
00041660 g     F .text	00000100 Fat_FileSeek
00045260 g     F .text	00000054 .hidden __divsi3
00044aa4 g     F .text	0000018c SD_ACMD6
0004db14 g     F .text	00000124 _malloc_trim_r
000589c0 g       *ABS*	00000000 __CTOR_END__
00045798 g     F .text	00000450 .hidden __mulsf3
0004768c g     F .text	000000a4 strcmp
000429ec g     F .text	0000003c SD_WriteBlock512
000589c0 g       *ABS*	00000000 __flash_rodata_start
000589c0 g       *ABS*	00000000 __DTOR_LIST__
000423c0 g     F .text	00000088 fatArray2Value
00043b78 g     F .text	00000028 SD_IsSupport4Bits
00054a50 g     F .text	00000084 .hidden __nedf2
00041a70 g     F .text	000000cc fat32ClusterType
00056bc4 g     F .text	00000034 alt_irq_init
00056740 g     F .text	00000080 alt_release_fd
000475b0 g     F .text	0000006c sprintf
00058ea8 g     O .rodata	00000100 .hidden __clz_tab
00042c2c g     F .text	00000030 debug_output
0005ca50 g     O .bss	00000004 _PathLocale
00043f34 g     F .text	0000019c SD_ACMD41
0005861c g     F .text	00000014 atexit
00052d7c g     F .text	0000005c _write_r
00043c28 g     F .text	0000018c SD_CMD8
00040d18 g     F .text	000001b0 fatComposeShortFilename
0004e5f4 g     F .text	0000001c setlocale
0005af1c g     O .rwdata	00000004 _impure_ptr
0005ca5c g     O .bss	00000004 alt_argc
00057ba4 g     F .text	0000005c _do_dtors
0004e5e0 g     F .text	00000008 __locale_cjk_lang
00040710 g     F .text	0000006c Fat_Type
00042d50 g     F .text	00000090 myprintf_dwordarray
00040020 g       .exceptions	00000000 alt_irq_entry
0004f58c g     F .text	00000060 __ulp
0004dafc g     F .text	00000018 __fp_unlock_all
00040268 g     F .text	000002b0 Fat_Test
000419c0 g     F .text	000000b0 fat16ClusterType
0005af28 g     O .rwdata	00000008 alt_fs_list
00043db4 g     F .text	00000180 SD_CMD55
000445c4 g     F .text	000001c0 SD_CMD10
00040020 g       *ABS*	00000000 __ram_exceptions_start
0004e610 g     F .text	0000000c localeconv
00040000 g       *ABS*	00000000 __alt_mem_onchip_memory2
00040c84 g     F .text	00000094 fatSameLongFilename
00057c1c g     F .text	00000050 alt_ic_isr_register
0005af50 g       *ABS*	00000000 _edata
00042098 g     F .text	0000005c fatDumpTime
0005cbd8 g       *ABS*	00000000 _end
00044404 g     F .text	000001c0 SD_CMD9
0004022c g       *ABS*	00000000 __ram_exceptions_end
00057194 g     F .text	000000ec altera_avalon_jtag_uart_ioctl
00057d0c g     F .text	000000a4 alt_ic_irq_disable
00050238 g     F .text	0000007c __swrite
0005af10 g     O .rwdata	00000004 __malloc_trim_threshold
0004e5d4 g     F .text	0000000c __locale_msgcharset
00058630 g     F .text	00000038 exit
00042bb4 g     F .text	00000078 LED_LightCount
00042a28 g     F .text	000000f4 fatMountSdcard
0004e484 g     F .text	000000b8 _fwalk_reent
00045be8 g     F .text	00000110 .hidden __floatunsisf
0004f3f4 g     F .text	00000198 __mdiff
000452b4 g     F .text	0000005c .hidden __modsi3
0005af14 g     O .rwdata	00000004 __ctype_ptr__
000649f0 g       *ABS*	00000000 __alt_data_end
00040020 g     F .exceptions	00000000 alt_exception
0004dad8 g     F .text	00000004 __sfp_lock_release
0004371c g     F .text	00000334 SDLIB_Init
0005902e g     O .rodata	00000101 _ctype_
00044db0 g     F .text	000001a8 SD_CMD17
0005898c g     F .text	00000034 _exit
000577a0 g     F .text	00000140 alt_alarm_start
0004e61c g     F .text	000001b8 __smakebuf_r
00047730 g     F .text	00000098 strlen
00058188 g     F .text	00000160 open
00054ad4 g     F .text	000000e0 .hidden __gedf2
0005af24 g     O .rwdata	00000004 __wctomb
000517ac g     F .text	00000018 __sprint_r
00057c00 g     F .text	0000001c alt_icache_flush_all
0005af4c g     O .rwdata	00000004 alt_priority_mask
00057c6c g     F .text	000000a0 alt_ic_irq_enable
0004349c g     F .text	00000220 SDHAL_WriteData
0004b934 g     F .text	00000024 __vfprintf_internal
00041cbc g     F .text	00000188 fatFindUnusedCluster
000534fc g     F .text	0000005c _wctomb_r
00055500 g     F .text	000008d0 .hidden __subdf3
0004ed90 g     F .text	000000b0 __lo0bits
0005af44 g     O .rwdata	00000008 alt_alarm_list
00057b48 g     F .text	0000005c _do_ctors
00045100 g     F .text	00000040 SD_ReadData
000533f4 g     F .text	000000d8 wcrtomb
0005601c g     F .text	000000d8 close
000406c4 g     F .text	0000004c Fat_Unmount
00056388 g     F .text	00000080 alt_load
0005319c g     F .text	00000058 fputwc
00046998 g     F .text	00000014 free
0004dadc g     F .text	00000004 __sinit_lock_acquire
0004eae8 g     F .text	0000013c __multadd
000420f4 g     F .text	00000044 fatIsLastDir
0004eac0 g     F .text	00000028 _Bfree
00044268 g     F .text	0000019c SD_CMD3
00043a50 g     F .text	00000080 SDLIB_ReadBlock512



Disassembly of section .entry:

00040000 <__reset>:
 * Jump to the _start entry point in the .text section if reset code
 * is allowed or if optimizing for RTL simulation.
 */
#if defined(ALT_ALLOW_CODE_AT_RESET) || defined(ALT_SIM_OPTIMIZE)
    /* Jump to the _start entry point in the .text section. */
    movhi r1, %hi(_start)
   40000:	00400134 	movhi	at,4
    ori r1, r1, %lo(_start)
   40004:	08408b14 	ori	at,at,556
    jmp r1
   40008:	0800683a 	jmp	at
	...

Disassembly of section .exceptions:

00040020 <alt_exception>:

#else /* ALT_EXCEPTION_STACK disabled */
        /* 
         * Reserve space on normal stack for registers about to be pushed.
         */
        addi  sp, sp, -76
   40020:	deffed04 	addi	sp,sp,-76
         * documentation for details).
         *
         * Leave a gap in the stack frame at 4(sp) for the muldiv handler to
         * store zero into.
         */
        stw   ra,  0(sp)
   40024:	dfc00015 	stw	ra,0(sp)
        stw   r1,   8(sp)
   40028:	d8400215 	stw	at,8(sp)
        stw   r2,  12(sp)
   4002c:	d8800315 	stw	r2,12(sp)
        stw   r3,  16(sp)
   40030:	d8c00415 	stw	r3,16(sp)
        stw   r4,  20(sp)
   40034:	d9000515 	stw	r4,20(sp)
        stw   r5,  24(sp)
   40038:	d9400615 	stw	r5,24(sp)
        stw   r6,  28(sp)
   4003c:	d9800715 	stw	r6,28(sp)
        stw   r7,  32(sp)
   40040:	d9c00815 	stw	r7,32(sp)
        rdctl r5, estatus   /* Read early to avoid usage stall */
   40044:	000b307a 	rdctl	r5,estatus
        stw   r8,  36(sp)
   40048:	da000915 	stw	r8,36(sp)
        stw   r9,  40(sp)
   4004c:	da400a15 	stw	r9,40(sp)
        stw   r10, 44(sp)
   40050:	da800b15 	stw	r10,44(sp)
        stw   r11, 48(sp)
   40054:	dac00c15 	stw	r11,48(sp)
        stw   r12, 52(sp)
   40058:	db000d15 	stw	r12,52(sp)
        stw   r13, 56(sp)
   4005c:	db400e15 	stw	r13,56(sp)
        stw   r14, 60(sp)
   40060:	db800f15 	stw	r14,60(sp)
        stw   r15, 64(sp)
   40064:	dbc01015 	stw	r15,64(sp)
        /*
         * ea-4 contains the address of the instruction being executed
         * when the exception occured. For interrupt exceptions, we will
         * will be re-issue the isntruction. Store it in 72(sp)
         */
        stw   r5,  68(sp)  /* estatus */
   40068:	d9401115 	stw	r5,68(sp)
        addi  r15, ea, -4  /* instruction that caused exception */
   4006c:	ebffff04 	addi	r15,ea,-4
        stw   r15,  72(sp)
   40070:	dbc01215 	stw	r15,72(sp)
#else
        /*
         * Test to see if the exception was a software exception or caused 
         * by an external interrupt, and vector accordingly.
         */
        rdctl r4, ipending
   40074:	0009313a 	rdctl	r4,ipending
        andi  r2, r5, 1
   40078:	2880004c 	andi	r2,r5,1
        beq   r2, zero, .Lnot_irq
   4007c:	10000326 	beq	r2,zero,4008c <alt_exception+0x6c>
        beq   r4, zero, .Lnot_irq
   40080:	20000226 	beq	r4,zero,4008c <alt_exception+0x6c>
        /*
         * Now that all necessary registers have been preserved, call 
         * alt_irq_handler() to process the interrupts.
         */

        call alt_irq_handler
   40084:	00400fc0 	call	400fc <alt_irq_handler>

        .section .exceptions.irqreturn, "xa"

        br    .Lexception_exit
   40088:	00000706 	br	400a8 <alt_exception+0x88>
         * upon completion, so we write ea (address of instruction *after*
         * the one where the exception occured) into 72(sp). The actual
         * instruction that caused the exception is written in r2, which these
         * handlers will utilize.
         */
        stw   ea,  72(sp)  /* Don't re-issue */
   4008c:	df401215 	stw	ea,72(sp)
        ldhu.n  r2, 0(r4)
        ldhu.n  r3, 2(r4)
        slli.n  r3, r3, 16
        or.n    r2, r2, r3 /* Instruction that caused exception */
#else
        ldw   r2, -4(ea)   /* Instruction that caused exception */
   40090:	e8bfff17 	ldw	r2,-4(ea)
         * debugger is present) or go into an infinite loop since the
         * handling behavior is undefined; in that case we will not return here.
         */

        /* Load exception-causing address as first argument (r4) */
        addi   r4, ea, -4
   40094:	e93fff04 	addi	r4,ea,-4

        /* Call the instruction-exception entry */
        call   alt_instruction_exception_entry
   40098:	00401cc0 	call	401cc <alt_instruction_exception_entry>
         * instruction
         *
         * Return code was 0: Skip. The instruction after the exception is
         * already stored in 72(sp).
         */
        bne   r2, r0, .Lexception_exit
   4009c:	1000021e 	bne	r2,zero,400a8 <alt_exception+0x88>

        /*
         * Otherwise, modify 72(sp) to re-issue the instruction that caused the
         * exception.
         */
        addi  r15, ea, -4  /* instruction that caused exception */
   400a0:	ebffff04 	addi	r15,ea,-4
        stw   r15,  72(sp)
   400a4:	dbc01215 	stw	r15,72(sp)
        /* 
         * Restore the saved registers, so that all general purpose registers 
         * have been restored to their state at the time the interrupt occured.
         */

        ldw   r5,  68(sp)
   400a8:	d9401117 	ldw	r5,68(sp)
        ldw   ea,  72(sp)  /* This becomes the PC once eret is executed */
   400ac:	df401217 	ldw	ea,72(sp)
        ldw   ra,   0(sp)
   400b0:	dfc00017 	ldw	ra,0(sp)

        wrctl estatus, r5
   400b4:	2801707a 	wrctl	estatus,r5

        ldw   r1,   8(sp)
   400b8:	d8400217 	ldw	at,8(sp)
        ldw   r2,  12(sp)
   400bc:	d8800317 	ldw	r2,12(sp)
        ldw   r3,  16(sp)
   400c0:	d8c00417 	ldw	r3,16(sp)
        ldw   r4,  20(sp)
   400c4:	d9000517 	ldw	r4,20(sp)
        ldw   r5,  24(sp)
   400c8:	d9400617 	ldw	r5,24(sp)
        ldw   r6,  28(sp)
   400cc:	d9800717 	ldw	r6,28(sp)
        ldw   r7,  32(sp)
   400d0:	d9c00817 	ldw	r7,32(sp)

#if defined(ALT_EXCEPTION_STACK) && defined(ALT_STACK_CHECK)
        ldw   et, %gprel(alt_exception_old_stack_limit)(gp)
#endif

        ldw   r8,  36(sp)
   400d4:	da000917 	ldw	r8,36(sp)
        ldw   r9,  40(sp)
   400d8:	da400a17 	ldw	r9,40(sp)
        ldw   r10, 44(sp)
   400dc:	da800b17 	ldw	r10,44(sp)
        ldw   r11, 48(sp)
   400e0:	dac00c17 	ldw	r11,48(sp)
        ldw   r12, 52(sp)
   400e4:	db000d17 	ldw	r12,52(sp)
        ldw   r13, 56(sp)
   400e8:	db400e17 	ldw	r13,56(sp)
        ldw   r14, 60(sp)
   400ec:	db800f17 	ldw	r14,60(sp)
        ldw   r15, 64(sp)
   400f0:	dbc01017 	ldw	r15,64(sp)
        stw   et, %gprel(alt_stack_limit_value)(gp)
        stw   zero, %gprel(alt_exception_old_stack_limit)(gp)
#endif /* ALT_STACK_CHECK */
        ldw   sp,  76(sp)
#else /* ALT_EXCEPTION_STACK disabled */
        addi  sp, sp, 76
   400f4:	dec01304 	addi	sp,sp,76

        /*
         * Return to the interrupted instruction.
         */

        eret
   400f8:	ef80083a 	eret

000400fc <alt_irq_handler>:
 * instruction is present if the macro ALT_CI_INTERRUPT_VECTOR defined.
 */

void alt_irq_handler (void) __attribute__ ((section (".exceptions")));
void alt_irq_handler (void)
{
   400fc:	defff904 	addi	sp,sp,-28
   40100:	dfc00615 	stw	ra,24(sp)
   40104:	df000515 	stw	fp,20(sp)
   40108:	df000504 	addi	fp,sp,20
  
  /*
   * Notify the operating system that we are at interrupt level.
   */ 
  
  ALT_OS_INT_ENTER();
   4010c:	0001883a 	nop
#ifndef NIOS2_EIC_PRESENT
static ALT_INLINE alt_u32 ALT_ALWAYS_INLINE alt_irq_pending (void)
{
  alt_u32 active;

  NIOS2_READ_IPENDING (active);
   40110:	0005313a 	rdctl	r2,ipending
   40114:	e0bffe15 	stw	r2,-8(fp)

  return active;
   40118:	e0bffe17 	ldw	r2,-8(fp)
   * Consider the case where the high priority interupt is asserted during
   * the interrupt entry sequence for a lower priority interrupt to see why
   * this is the case.
   */

  active = alt_irq_pending ();
   4011c:	e0bffb15 	stw	r2,-20(fp)

  do
  {
    i = 0;
   40120:	e03ffd15 	stw	zero,-12(fp)
    mask = 1;
   40124:	00800044 	movi	r2,1
   40128:	e0bffc15 	stw	r2,-16(fp)
     * called to clear the interrupt condition.
     */

    do
    {
      if (active & mask)
   4012c:	e0fffb17 	ldw	r3,-20(fp)
   40130:	e0bffc17 	ldw	r2,-16(fp)
   40134:	1884703a 	and	r2,r3,r2
   40138:	10001426 	beq	r2,zero,4018c <alt_irq_handler+0x90>
      { 
#ifdef ALT_ENHANCED_INTERRUPT_API_PRESENT
        alt_irq[i].handler(alt_irq[i].context); 
   4013c:	008001b4 	movhi	r2,6
   40140:	10b2b604 	addi	r2,r2,-13608
   40144:	e0fffd17 	ldw	r3,-12(fp)
   40148:	180690fa 	slli	r3,r3,3
   4014c:	10c5883a 	add	r2,r2,r3
   40150:	10c00017 	ldw	r3,0(r2)
   40154:	008001b4 	movhi	r2,6
   40158:	10b2b604 	addi	r2,r2,-13608
   4015c:	e13ffd17 	ldw	r4,-12(fp)
   40160:	200890fa 	slli	r4,r4,3
   40164:	1105883a 	add	r2,r2,r4
   40168:	10800104 	addi	r2,r2,4
   4016c:	10800017 	ldw	r2,0(r2)
   40170:	1009883a 	mov	r4,r2
   40174:	183ee83a 	callr	r3
#else
        alt_irq[i].handler(alt_irq[i].context, i); 
#endif
        break;
   40178:	0001883a 	nop
#ifndef NIOS2_EIC_PRESENT
static ALT_INLINE alt_u32 ALT_ALWAYS_INLINE alt_irq_pending (void)
{
  alt_u32 active;

  NIOS2_READ_IPENDING (active);
   4017c:	0005313a 	rdctl	r2,ipending
   40180:	e0bfff15 	stw	r2,-4(fp)

  return active;
   40184:	e0bfff17 	ldw	r2,-4(fp)
   40188:	00000706 	br	401a8 <alt_irq_handler+0xac>
      }
      mask <<= 1;
   4018c:	e0bffc17 	ldw	r2,-16(fp)
   40190:	1085883a 	add	r2,r2,r2
   40194:	e0bffc15 	stw	r2,-16(fp)
      i++;
   40198:	e0bffd17 	ldw	r2,-12(fp)
   4019c:	10800044 	addi	r2,r2,1
   401a0:	e0bffd15 	stw	r2,-12(fp)

    } while (1);
   401a4:	003fe106 	br	4012c <__alt_data_end+0xfffdb73c>

    active = alt_irq_pending ();
   401a8:	e0bffb15 	stw	r2,-20(fp)
    
  } while (active);
   401ac:	e0bffb17 	ldw	r2,-20(fp)
   401b0:	103fdb1e 	bne	r2,zero,40120 <__alt_data_end+0xfffdb730>

  /*
   * Notify the operating system that interrupt processing is complete.
   */ 

  ALT_OS_INT_EXIT();
   401b4:	0001883a 	nop
}
   401b8:	e037883a 	mov	sp,fp
   401bc:	dfc00117 	ldw	ra,4(sp)
   401c0:	df000017 	ldw	fp,0(sp)
   401c4:	dec00204 	addi	sp,sp,8
   401c8:	f800283a 	ret

000401cc <alt_instruction_exception_entry>:
 * that handler if it has been registered. Absent a handler, it will
 * break break or hang as discussed below.
 */
int 
alt_instruction_exception_entry (alt_u32 exception_pc)
{
   401cc:	defffb04 	addi	sp,sp,-20
   401d0:	dfc00415 	stw	ra,16(sp)
   401d4:	df000315 	stw	fp,12(sp)
   401d8:	df000304 	addi	fp,sp,12
   401dc:	e13fff15 	stw	r4,-4(fp)
  cause = ( (cause & NIOS2_EXCEPTION_REG_CAUSE_MASK) >>
              NIOS2_EXCEPTION_REG_CAUSE_OFST );

  NIOS2_READ_BADADDR(badaddr);
#else
  cause = NIOS2_EXCEPTION_CAUSE_NOT_PRESENT;
   401e0:	00bfffc4 	movi	r2,-1
   401e4:	e0bffd15 	stw	r2,-12(fp)
  badaddr = 0;
   401e8:	e03ffe15 	stw	zero,-8(fp)
#endif /* NIOS2_HAS_EXTRA_EXCEPTION_INFO */

  if(alt_instruction_exception_handler) {
   401ec:	d0a6da17 	ldw	r2,-25752(gp)
   401f0:	10000726 	beq	r2,zero,40210 <alt_instruction_exception_entry+0x44>
     * Call handler. Its return value indicates whether the exception-causing
     * instruction should be re-issued. The code that called us,
     * alt_eceptions_entry.S, will look at this value and adjust the ea
     * register as necessary
     */
    return alt_instruction_exception_handler(cause, exception_pc, badaddr);
   401f4:	d0a6da17 	ldw	r2,-25752(gp)
   401f8:	e0fffd17 	ldw	r3,-12(fp)
   401fc:	1809883a 	mov	r4,r3
   40200:	e17fff17 	ldw	r5,-4(fp)
   40204:	e1bffe17 	ldw	r6,-8(fp)
   40208:	103ee83a 	callr	r2
   4020c:	00000206 	br	40218 <alt_instruction_exception_entry+0x4c>
   *    (a peripheral which negates its interrupt output before its
   *    interrupt handler has been executed will cause spurious interrupts)
   */
  else {
#ifdef NIOS2_HAS_DEBUG_STUB
    NIOS2_BREAK();
   40210:	003da03a 	break	0
      ;
#endif /* NIOS2_HAS_DEBUG_STUB */
  }

  /* We should not get here. Remove compiler warning. */
  return NIOS2_EXCEPTION_RETURN_REISSUE_INST;
   40214:	0005883a 	mov	r2,zero
}
   40218:	e037883a 	mov	sp,fp
   4021c:	dfc00117 	ldw	ra,4(sp)
   40220:	df000017 	ldw	fp,0(sp)
   40224:	dec00204 	addi	sp,sp,8
   40228:	f800283a 	ret

Disassembly of section .text:

0004022c <_start>:

    /*
     * Now that the caches are initialized, set up the stack pointer and global pointer.
     * The values provided by the linker are assumed to be correctly aligned.
     */
    movhi sp, %hi(__alt_stack_pointer)
   4022c:	06c001b4 	movhi	sp,6
    ori sp, sp, %lo(__alt_stack_pointer)
   40230:	ded27c14 	ori	sp,sp,18928
    movhi gp, %hi(_gp)
   40234:	068001b4 	movhi	gp,6
    ori gp, gp, %lo(_gp)
   40238:	d68bc314 	ori	gp,gp,12044
 */
#ifndef ALT_SIM_OPTIMIZE
    /* Log that the BSS is about to be cleared. */
    ALT_LOG_PUTS(alt_log_msg_bss)

    movhi r2, %hi(__bss_start)
   4023c:	00800174 	movhi	r2,5
    ori r2, r2, %lo(__bss_start)
   40240:	10b29014 	ori	r2,r2,51776

    movhi r3, %hi(__bss_end)
   40244:	00c00174 	movhi	r3,5
    ori r3, r3, %lo(__bss_end)
   40248:	18f2f614 	ori	r3,r3,52184

    beq r2, r3, 1f
   4024c:	10c00326 	beq	r2,r3,4025c <_start+0x30>

0:
    stw zero, (r2)
   40250:	10000015 	stw	zero,0(r2)
    addi r2, r2, 4
   40254:	10800104 	addi	r2,r2,4
    bltu r2, r3, 0b
   40258:	10fffd36 	bltu	r2,r3,40250 <__alt_data_end+0xfffdb860>
     * section aren't defined until alt_load() has been called).
     */
    mov   et, zero
#endif

    call alt_load
   4025c:	00563880 	call	56388 <alt_load>

    /* Log that alt_main is about to be called. */
    ALT_LOG_PUTS(alt_log_msg_alt_main)

    /* Call the C entry point. It should never return. */
    call alt_main
   40260:	00565340 	call	56534 <alt_main>

00040264 <alt_after_alt_main>:

    /* Wait in infinite loop in case alt_main does return. */
alt_after_alt_main:
    br alt_after_alt_main
   40264:	003fff06 	br	40264 <__alt_data_end+0xfffdb874>

00040268 <Fat_Test>:
#include "alt_types.h"
#include "sd_lib.h"
#include "FatFileSystem.h"


bool Fat_Test(FAT_HANDLE hFat, char *pDumpFile){
   40268:	deff6704 	addi	sp,sp,-612
   4026c:	dfc09815 	stw	ra,608(sp)
   40270:	df009715 	stw	fp,604(sp)
   40274:	df009704 	addi	fp,sp,604
   40278:	e13ffe15 	stw	r4,-8(fp)
   4027c:	e17fff15 	stw	r5,-4(fp)
    bool bSuccess;
    int nCount = 0;
   40280:	e03f6a15 	stw	zero,-600(fp)
    FAT_BROWSE_HANDLE hBrowse;
    FILE_CONTEXT FileContext;

    bSuccess = Fat_FileBrowseBegin(hFat, &hBrowse);
   40284:	e0bf7204 	addi	r2,fp,-568
   40288:	e13ffe17 	ldw	r4,-8(fp)
   4028c:	100b883a 	mov	r5,r2
   40290:	004077c0 	call	4077c <Fat_FileBrowseBegin>
   40294:	e0bf6915 	stw	r2,-604(fp)
    if (bSuccess){
   40298:	e0bf6917 	ldw	r2,-604(fp)
   4029c:	10003d26 	beq	r2,zero,40394 <Fat_Test+0x12c>
        while(Fat_FileBrowseNext(&hBrowse, &FileContext)){
   402a0:	00003606 	br	4037c <Fat_Test+0x114>
            if (FileContext.bLongFilename){
   402a4:	e0bfb417 	ldw	r2,-304(fp)
   402a8:	10002b26 	beq	r2,zero,40358 <Fat_Test+0xf0>
                alt_u16 *pData16;
                alt_u8 *pData8;
                pData16 = (alt_u16 *)FileContext.szName;
   402ac:	e0bf7404 	addi	r2,fp,-560
   402b0:	e0bf6b15 	stw	r2,-596(fp)
                pData8 = FileContext.szName;
   402b4:	e0bf7404 	addi	r2,fp,-560
   402b8:	e0bf6c15 	stw	r2,-592(fp)
                printf("[%d]", nCount);
   402bc:	010001b4 	movhi	r4,6
   402c0:	21227004 	addi	r4,r4,-30272
   402c4:	e17f6a17 	ldw	r5,-600(fp)
   402c8:	00473dc0 	call	473dc <printf>
                while(*pData16){
   402cc:	00001b06 	br	4033c <Fat_Test+0xd4>
                    if (*pData8)
   402d0:	e0bf6c17 	ldw	r2,-592(fp)
   402d4:	10800003 	ldbu	r2,0(r2)
   402d8:	10803fcc 	andi	r2,r2,255
   402dc:	10000526 	beq	r2,zero,402f4 <Fat_Test+0x8c>
                        printf("%c", *pData8);
   402e0:	e0bf6c17 	ldw	r2,-592(fp)
   402e4:	10800003 	ldbu	r2,0(r2)
   402e8:	10803fcc 	andi	r2,r2,255
   402ec:	1009883a 	mov	r4,r2
   402f0:	00474200 	call	47420 <putchar>
                    pData8++;
   402f4:	e0bf6c17 	ldw	r2,-592(fp)
   402f8:	10800044 	addi	r2,r2,1
   402fc:	e0bf6c15 	stw	r2,-592(fp)
                    if (*pData8)
   40300:	e0bf6c17 	ldw	r2,-592(fp)
   40304:	10800003 	ldbu	r2,0(r2)
   40308:	10803fcc 	andi	r2,r2,255
   4030c:	10000526 	beq	r2,zero,40324 <Fat_Test+0xbc>
                        printf("%c", *pData8);
   40310:	e0bf6c17 	ldw	r2,-592(fp)
   40314:	10800003 	ldbu	r2,0(r2)
   40318:	10803fcc 	andi	r2,r2,255
   4031c:	1009883a 	mov	r4,r2
   40320:	00474200 	call	47420 <putchar>
                    pData8++;
   40324:	e0bf6c17 	ldw	r2,-592(fp)
   40328:	10800044 	addi	r2,r2,1
   4032c:	e0bf6c15 	stw	r2,-592(fp)
                    //
                    pData16++;
   40330:	e0bf6b17 	ldw	r2,-596(fp)
   40334:	10800084 	addi	r2,r2,2
   40338:	e0bf6b15 	stw	r2,-596(fp)
                alt_u16 *pData16;
                alt_u8 *pData8;
                pData16 = (alt_u16 *)FileContext.szName;
                pData8 = FileContext.szName;
                printf("[%d]", nCount);
                while(*pData16){
   4033c:	e0bf6b17 	ldw	r2,-596(fp)
   40340:	1080000b 	ldhu	r2,0(r2)
   40344:	10bfffcc 	andi	r2,r2,65535
   40348:	103fe11e 	bne	r2,zero,402d0 <__alt_data_end+0xfffdb8e0>
                        printf("%c", *pData8);
                    pData8++;
                    //
                    pData16++;
                }
                printf("\n");
   4034c:	01000284 	movi	r4,10
   40350:	00474200 	call	47420 <putchar>
   40354:	00000606 	br	40370 <Fat_Test+0x108>
            }else{
                printf("[%d]%s\n", nCount, FileContext.szName);
   40358:	e0bf7404 	addi	r2,fp,-560
   4035c:	010001b4 	movhi	r4,6
   40360:	21227204 	addi	r4,r4,-30264
   40364:	e17f6a17 	ldw	r5,-600(fp)
   40368:	100d883a 	mov	r6,r2
   4036c:	00473dc0 	call	473dc <printf>
            }
            nCount++;
   40370:	e0bf6a17 	ldw	r2,-600(fp)
   40374:	10800044 	addi	r2,r2,1
   40378:	e0bf6a15 	stw	r2,-600(fp)
    FAT_BROWSE_HANDLE hBrowse;
    FILE_CONTEXT FileContext;

    bSuccess = Fat_FileBrowseBegin(hFat, &hBrowse);
    if (bSuccess){
        while(Fat_FileBrowseNext(&hBrowse, &FileContext)){
   4037c:	e0ff7204 	addi	r3,fp,-568
   40380:	e0bf7404 	addi	r2,fp,-560
   40384:	1809883a 	mov	r4,r3
   40388:	100b883a 	mov	r5,r2
   4038c:	00407e80 	call	407e8 <Fat_FileBrowseNext>
   40390:	103fc41e 	bne	r2,zero,402a4 <__alt_data_end+0xfffdb8b4>
                printf("[%d]%s\n", nCount, FileContext.szName);
            }
            nCount++;
        }
    }
    if (bSuccess && pDumpFile && strlen(pDumpFile)){
   40394:	e0bf6917 	ldw	r2,-604(fp)
   40398:	10005926 	beq	r2,zero,40500 <Fat_Test+0x298>
   4039c:	e0bfff17 	ldw	r2,-4(fp)
   403a0:	10005726 	beq	r2,zero,40500 <Fat_Test+0x298>
   403a4:	e0bfff17 	ldw	r2,-4(fp)
   403a8:	10800003 	ldbu	r2,0(r2)
   403ac:	10803fcc 	andi	r2,r2,255
   403b0:	1080201c 	xori	r2,r2,128
   403b4:	10bfe004 	addi	r2,r2,-128
   403b8:	10005126 	beq	r2,zero,40500 <Fat_Test+0x298>
        FAT_FILE_HANDLE hFile;
        hFile =  Fat_FileOpen(hFat, pDumpFile);
   403bc:	e13ffe17 	ldw	r4,-8(fp)
   403c0:	e17fff17 	ldw	r5,-4(fp)
   403c4:	0040f780 	call	40f78 <Fat_FileOpen>
   403c8:	e0bf7015 	stw	r2,-576(fp)
        if (hFile){
   403cc:	e0bf7017 	ldw	r2,-576(fp)
   403d0:	10004626 	beq	r2,zero,404ec <Fat_Test+0x284>
            char szRead[256];
            int nReadSize, nFileSize, nTotalReadSize=0;
   403d4:	e03f6e15 	stw	zero,-584(fp)
            nFileSize = Fat_FileSize(hFile);
   403d8:	e13f7017 	ldw	r4,-576(fp)
   403dc:	00411980 	call	41198 <Fat_FileSize>
   403e0:	e0bf7115 	stw	r2,-572(fp)
            if (nReadSize > sizeof(szRead))
   403e4:	e0bf6d17 	ldw	r2,-588(fp)
   403e8:	10804070 	cmpltui	r2,r2,257
   403ec:	1000021e 	bne	r2,zero,403f8 <Fat_Test+0x190>
                nReadSize = sizeof(szRead);
   403f0:	00804004 	movi	r2,256
   403f4:	e0bf6d15 	stw	r2,-588(fp)
            printf("%s dump:\n", pDumpFile);
   403f8:	010001b4 	movhi	r4,6
   403fc:	21227404 	addi	r4,r4,-30256
   40400:	e17fff17 	ldw	r5,-4(fp)
   40404:	00473dc0 	call	473dc <printf>
            while(bSuccess && nTotalReadSize < nFileSize){
   40408:	00002c06 	br	404bc <Fat_Test+0x254>
                nReadSize = sizeof(szRead);
   4040c:	00804004 	movi	r2,256
   40410:	e0bf6d15 	stw	r2,-588(fp)
                if (nReadSize > (nFileSize - nTotalReadSize))
   40414:	e0ff7117 	ldw	r3,-572(fp)
   40418:	e0bf6e17 	ldw	r2,-584(fp)
   4041c:	1887c83a 	sub	r3,r3,r2
   40420:	e0bf6d17 	ldw	r2,-588(fp)
   40424:	1880040e 	bge	r3,r2,40438 <Fat_Test+0x1d0>
                    nReadSize = (nFileSize - nTotalReadSize);
   40428:	e0ff7117 	ldw	r3,-572(fp)
   4042c:	e0bf6e17 	ldw	r2,-584(fp)
   40430:	1885c83a 	sub	r2,r3,r2
   40434:	e0bf6d15 	stw	r2,-588(fp)
                //
                if (Fat_FileRead(hFile, szRead, nReadSize)){
   40438:	e0bfbe04 	addi	r2,fp,-264
   4043c:	e13f7017 	ldw	r4,-576(fp)
   40440:	100b883a 	mov	r5,r2
   40444:	e1bf6d17 	ldw	r6,-588(fp)
   40448:	00411dc0 	call	411dc <Fat_FileRead>
   4044c:	10001626 	beq	r2,zero,404a8 <Fat_Test+0x240>
                    int i;
                    for(i=0;i<nReadSize;i++){
   40450:	e03f6f15 	stw	zero,-580(fp)
   40454:	00000c06 	br	40488 <Fat_Test+0x220>
                        printf("%c", szRead[i]);
   40458:	e0ffbe04 	addi	r3,fp,-264
   4045c:	e0bf6f17 	ldw	r2,-580(fp)
   40460:	1885883a 	add	r2,r3,r2
   40464:	10800003 	ldbu	r2,0(r2)
   40468:	10803fcc 	andi	r2,r2,255
   4046c:	1080201c 	xori	r2,r2,128
   40470:	10bfe004 	addi	r2,r2,-128
   40474:	1009883a 	mov	r4,r2
   40478:	00474200 	call	47420 <putchar>
                if (nReadSize > (nFileSize - nTotalReadSize))
                    nReadSize = (nFileSize - nTotalReadSize);
                //
                if (Fat_FileRead(hFile, szRead, nReadSize)){
                    int i;
                    for(i=0;i<nReadSize;i++){
   4047c:	e0bf6f17 	ldw	r2,-580(fp)
   40480:	10800044 	addi	r2,r2,1
   40484:	e0bf6f15 	stw	r2,-580(fp)
   40488:	e0ff6f17 	ldw	r3,-580(fp)
   4048c:	e0bf6d17 	ldw	r2,-588(fp)
   40490:	18bff116 	blt	r3,r2,40458 <__alt_data_end+0xfffdba68>
                        printf("%c", szRead[i]);
                    }
                    nTotalReadSize += nReadSize;
   40494:	e0ff6e17 	ldw	r3,-584(fp)
   40498:	e0bf6d17 	ldw	r2,-588(fp)
   4049c:	1885883a 	add	r2,r3,r2
   404a0:	e0bf6e15 	stw	r2,-584(fp)
   404a4:	00000506 	br	404bc <Fat_Test+0x254>
                }else{
                    bSuccess = FALSE;
   404a8:	e03f6915 	stw	zero,-604(fp)
                    printf("\nFaied to read the file \"%s\"\n", pDumpFile);
   404ac:	010001b4 	movhi	r4,6
   404b0:	21227704 	addi	r4,r4,-30244
   404b4:	e17fff17 	ldw	r5,-4(fp)
   404b8:	00473dc0 	call	473dc <printf>
            int nReadSize, nFileSize, nTotalReadSize=0;
            nFileSize = Fat_FileSize(hFile);
            if (nReadSize > sizeof(szRead))
                nReadSize = sizeof(szRead);
            printf("%s dump:\n", pDumpFile);
            while(bSuccess && nTotalReadSize < nFileSize){
   404bc:	e0bf6917 	ldw	r2,-604(fp)
   404c0:	10000326 	beq	r2,zero,404d0 <Fat_Test+0x268>
   404c4:	e0ff6e17 	ldw	r3,-584(fp)
   404c8:	e0bf7117 	ldw	r2,-572(fp)
   404cc:	18bfcf16 	blt	r3,r2,4040c <__alt_data_end+0xfffdba1c>
                }else{
                    bSuccess = FALSE;
                    printf("\nFaied to read the file \"%s\"\n", pDumpFile);
                }
            } // while
            if (bSuccess)
   404d0:	e0bf6917 	ldw	r2,-604(fp)
   404d4:	10000226 	beq	r2,zero,404e0 <Fat_Test+0x278>
                printf("\n");
   404d8:	01000284 	movi	r4,10
   404dc:	00474200 	call	47420 <putchar>
            Fat_FileClose(hFile);
   404e0:	e13f7017 	ldw	r4,-576(fp)
   404e4:	00417600 	call	41760 <Fat_FileClose>
   404e8:	00000506 	br	40500 <Fat_Test+0x298>
        }else{
            bSuccess = FALSE;
   404ec:	e03f6915 	stw	zero,-604(fp)
            printf("Cannot find the file \"%s\"\n", pDumpFile);
   404f0:	010001b4 	movhi	r4,6
   404f4:	21227f04 	addi	r4,r4,-30212
   404f8:	e17fff17 	ldw	r5,-4(fp)
   404fc:	00473dc0 	call	473dc <printf>
        }
    }

    return bSuccess;
   40500:	e0bf6917 	ldw	r2,-604(fp)
}
   40504:	e037883a 	mov	sp,fp
   40508:	dfc00117 	ldw	ra,4(sp)
   4050c:	df000017 	ldw	fp,0(sp)
   40510:	dec00204 	addi	sp,sp,8
   40514:	f800283a 	ret

00040518 <main>:

int main()
{
   40518:	defff804 	addi	sp,sp,-32
   4051c:	dfc00715 	stw	ra,28(sp)
   40520:	df000615 	stw	fp,24(sp)
   40524:	df000604 	addi	fp,sp,24
    const alt_u32 LED_TEST_PATTERN = 0xF0;
   40528:	00803c04 	movi	r2,240
   4052c:	e0bffc15 	stw	r2,-16(fp)
    const alt_u32 LED_NG_PATTERN = 0xFF;
   40530:	00803fc4 	movi	r2,255
   40534:	e0bffd15 	stw	r2,-12(fp)
    const alt_u32 LED_PASS_PATTERN = 0x00;
   40538:	e03ffe15 	stw	zero,-8(fp)
    bool bSuccess;
    int i;
    FAT_HANDLE hFat;
    // select 3.3V
    IOWR(SD_SEL_BASE, 0x00, 0x00);
   4053c:	0007883a 	mov	r3,zero
   40540:	00800234 	movhi	r2,8
   40544:	10840804 	addi	r2,r2,4128
   40548:	10c00035 	stwio	r3,0(r2)

    printf("========== DECA SDCARD test ==========\n");
   4054c:	010001b4 	movhi	r4,6
   40550:	21228604 	addi	r4,r4,-30184
   40554:	00474f00 	call	474f0 <puts>
    printf("please ensure the sd card has been inserted into DECA board\n");
   40558:	010001b4 	movhi	r4,6
   4055c:	21229004 	addi	r4,r4,-30144
   40560:	00474f00 	call	474f0 <puts>
    while(1)
    {
        printf("Processing...\r\n");
   40564:	010001b4 	movhi	r4,6
   40568:	21229f04 	addi	r4,r4,-30084
   4056c:	00474f00 	call	474f0 <puts>
        IOWR_ALTERA_AVALON_PIO_DATA(LED_BASE, LED_TEST_PATTERN);
   40570:	e0fffc17 	ldw	r3,-16(fp)
   40574:	00800234 	movhi	r2,8
   40578:	10841c04 	addi	r2,r2,4208
   4057c:	10c00035 	stwio	r3,0(r2)
        bSuccess = SDLIB_Init();
   40580:	004371c0 	call	4371c <SDLIB_Init>
   40584:	e0bffa15 	stw	r2,-24(fp)
       	    for(i=0;i<5 && !bSuccess;i++){ // try 3 time at max
   40588:	e03ffb15 	stw	zero,-20(fp)
   4058c:	00000506 	br	405a4 <main+0x8c>
       	        bSuccess = SDLIB_Init();
   40590:	004371c0 	call	4371c <SDLIB_Init>
   40594:	e0bffa15 	stw	r2,-24(fp)
    while(1)
    {
        printf("Processing...\r\n");
        IOWR_ALTERA_AVALON_PIO_DATA(LED_BASE, LED_TEST_PATTERN);
        bSuccess = SDLIB_Init();
       	    for(i=0;i<5 && !bSuccess;i++){ // try 3 time at max
   40598:	e0bffb17 	ldw	r2,-20(fp)
   4059c:	10800044 	addi	r2,r2,1
   405a0:	e0bffb15 	stw	r2,-20(fp)
   405a4:	e0bffb17 	ldw	r2,-20(fp)
   405a8:	10800148 	cmpgei	r2,r2,5
   405ac:	1000021e 	bne	r2,zero,405b8 <main+0xa0>
   405b0:	e0bffa17 	ldw	r2,-24(fp)
   405b4:	103ff626 	beq	r2,zero,40590 <__alt_data_end+0xfffdbba0>
       	        bSuccess = SDLIB_Init();
       	    }
        hFat = Fat_Mount(FAT_SD_CARD, 0);
   405b8:	0009883a 	mov	r4,zero
   405bc:	000b883a 	mov	r5,zero
   405c0:	00406800 	call	40680 <Fat_Mount>
   405c4:	e0bfff15 	stw	r2,-4(fp)
        if (hFat){
   405c8:	e0bfff17 	ldw	r2,-4(fp)
   405cc:	10001726 	beq	r2,zero,4062c <main+0x114>
            printf("sdcard mount success!\n");
   405d0:	010001b4 	movhi	r4,6
   405d4:	2122a304 	addi	r4,r4,-30068
   405d8:	00474f00 	call	474f0 <puts>
            printf("Root Directory Item Count:%d\n", Fat_FileCount(hFat));
   405dc:	e13fff17 	ldw	r4,-4(fp)
   405e0:	0040c180 	call	40c18 <Fat_FileCount>
   405e4:	010001b4 	movhi	r4,6
   405e8:	2122a904 	addi	r4,r4,-30044
   405ec:	100b883a 	mov	r5,r2
   405f0:	00473dc0 	call	473dc <printf>
            Fat_Test(hFat, "test.txt");
   405f4:	e13fff17 	ldw	r4,-4(fp)
   405f8:	014001b4 	movhi	r5,6
   405fc:	2962b104 	addi	r5,r5,-30012
   40600:	00402680 	call	40268 <Fat_Test>
            Fat_Unmount(hFat);
   40604:	e13fff17 	ldw	r4,-4(fp)
   40608:	00406c40 	call	406c4 <Fat_Unmount>
            IOWR_ALTERA_AVALON_PIO_DATA(LED_BASE, LED_PASS_PATTERN);
   4060c:	e0fffe17 	ldw	r3,-8(fp)
   40610:	00800234 	movhi	r2,8
   40614:	10841c04 	addi	r2,r2,4208
   40618:	10c00035 	stwio	r3,0(r2)
            printf("===== Test Done =====\r\nPress KEY1 to test again.\r\n");
   4061c:	010001b4 	movhi	r4,6
   40620:	2122b404 	addi	r4,r4,-30000
   40624:	00474f00 	call	474f0 <puts>
   40628:	00000706 	br	40648 <main+0x130>
        }else{
            printf("Failed to mount the SDCARD!\r\nPlease insert the SDCARD into DECA board and press KEY1.\r\n");
   4062c:	010001b4 	movhi	r4,6
   40630:	2122c104 	addi	r4,r4,-29948
   40634:	00474f00 	call	474f0 <puts>
            IOWR_ALTERA_AVALON_PIO_DATA(LED_BASE, LED_NG_PATTERN);
   40638:	e0fffd17 	ldw	r3,-12(fp)
   4063c:	00800234 	movhi	r2,8
   40640:	10841c04 	addi	r2,r2,4208
   40644:	10c00035 	stwio	r3,0(r2)
        }
       	//printf("sdcard init %s\r\n", bSuccess?"success":"fail");

        while ((IORD_ALTERA_AVALON_PIO_DATA(KEY_BASE) & 0x02) == 0x02);
   40648:	0001883a 	nop
   4064c:	00800234 	movhi	r2,8
   40650:	10841804 	addi	r2,r2,4192
   40654:	10800037 	ldwio	r2,0(r2)
   40658:	1080008c 	andi	r2,r2,2
   4065c:	103ffb1e 	bne	r2,zero,4064c <__alt_data_end+0xfffdbc5c>
        IOWR_ALTERA_AVALON_PIO_DATA(LED_BASE, LED_TEST_PATTERN);
   40660:	e0fffc17 	ldw	r3,-16(fp)
   40664:	00800234 	movhi	r2,8
   40668:	10841c04 	addi	r2,r2,4208
   4066c:	10c00035 	stwio	r3,0(r2)
        usleep(400*1000); // debounce
   40670:	010001b4 	movhi	r4,6
   40674:	2106a004 	addi	r4,r4,6784
   40678:	0056a0c0 	call	56a0c <usleep>
    } // while
   4067c:	003fb906 	br	40564 <__alt_data_end+0xfffdbb74>

00040680 <Fat_Mount>:
bool fatSameLongFilename(alt_u16 *p1, alt_u16 *p2);




FAT_HANDLE Fat_Mount(FAT_DEVICE FatDevice, DEVICE_HANDLE hUsbDisk){
   40680:	defffb04 	addi	sp,sp,-20
   40684:	dfc00415 	stw	ra,16(sp)
   40688:	df000315 	stw	fp,12(sp)
   4068c:	df000304 	addi	fp,sp,12
   40690:	e13ffe15 	stw	r4,-8(fp)
   40694:	e17fff15 	stw	r5,-4(fp)
    
    //Fat_Unmount();
    FAT_HANDLE hFat = 0;
   40698:	e03ffd15 	stw	zero,-12(fp)
    
    if (FatDevice == FAT_SD_CARD){
   4069c:	e0bffe17 	ldw	r2,-8(fp)
   406a0:	1000021e 	bne	r2,zero,406ac <Fat_Mount+0x2c>
        #ifdef SUPPORT_SD_CARD
        hFat = fatMountSdcard();
   406a4:	0042a280 	call	42a28 <fatMountSdcard>
   406a8:	e0bffd15 	stw	r2,-12(fp)
    }else if (FatDevice == FAT_USB_DISK){
        #ifdef SUPPORT_USB_DISK
        hFat = fatMountUsbDisk(hUsbDisk);
        #endif
    }  
    return hFat;      
   406ac:	e0bffd17 	ldw	r2,-12(fp)
        
}
   406b0:	e037883a 	mov	sp,fp
   406b4:	dfc00117 	ldw	ra,4(sp)
   406b8:	df000017 	ldw	fp,0(sp)
   406bc:	dec00204 	addi	sp,sp,8
   406c0:	f800283a 	ret

000406c4 <Fat_Unmount>:

void Fat_Unmount(FAT_HANDLE Fat){
   406c4:	defffc04 	addi	sp,sp,-16
   406c8:	dfc00315 	stw	ra,12(sp)
   406cc:	df000215 	stw	fp,8(sp)
   406d0:	df000204 	addi	fp,sp,8
   406d4:	e13fff15 	stw	r4,-4(fp)
    VOLUME_INFO *pVol = (VOLUME_INFO *)Fat;
   406d8:	e0bfff17 	ldw	r2,-4(fp)
   406dc:	e0bffe15 	stw	r2,-8(fp)
    if (!pVol)
   406e0:	e0bffe17 	ldw	r2,-8(fp)
   406e4:	1000011e 	bne	r2,zero,406ec <Fat_Unmount+0x28>
        return;
   406e8:	00000406 	br	406fc <Fat_Unmount+0x38>
    if (pVol->szFatTable){
        free(pVol->szFatTable);
        pVol->szFatTable = 0;
    }        
#endif //#ifdef FAT_READONLY
    pVol->bMount = FALSE;
   406ec:	e0bffe17 	ldw	r2,-8(fp)
   406f0:	10000415 	stw	zero,16(r2)
    
    free(pVol);  
   406f4:	e13ffe17 	ldw	r4,-8(fp)
   406f8:	00469980 	call	46998 <free>
}   
   406fc:	e037883a 	mov	sp,fp
   40700:	dfc00117 	ldw	ra,4(sp)
   40704:	df000017 	ldw	fp,0(sp)
   40708:	dec00204 	addi	sp,sp,8
   4070c:	f800283a 	ret

00040710 <Fat_Type>:

FAT_TYPE Fat_Type(FAT_HANDLE Fat){
   40710:	defffc04 	addi	sp,sp,-16
   40714:	df000315 	stw	fp,12(sp)
   40718:	df000304 	addi	fp,sp,12
   4071c:	e13fff15 	stw	r4,-4(fp)
    VOLUME_INFO *pVol = (VOLUME_INFO *)Fat;
   40720:	e0bfff17 	ldw	r2,-4(fp)
   40724:	e0bffe15 	stw	r2,-8(fp)
    FAT_TYPE Type = FAT_UNKNOWN;
   40728:	e03ffd15 	stw	zero,-12(fp)
    if (pVol){
   4072c:	e0bffe17 	ldw	r2,-8(fp)
   40730:	10000d26 	beq	r2,zero,40768 <Fat_Type+0x58>
        if (pVol->Partition_Type == PARTITION_FAT16)
   40734:	e0bffe17 	ldw	r2,-8(fp)
   40738:	10800317 	ldw	r2,12(r2)
   4073c:	10800198 	cmpnei	r2,r2,6
   40740:	1000031e 	bne	r2,zero,40750 <Fat_Type+0x40>
            Type = FAT_FAT16;
   40744:	00800044 	movi	r2,1
   40748:	e0bffd15 	stw	r2,-12(fp)
   4074c:	00000606 	br	40768 <Fat_Type+0x58>
        else if (pVol->Partition_Type == PARTITION_FAT32)
   40750:	e0bffe17 	ldw	r2,-8(fp)
   40754:	10800317 	ldw	r2,12(r2)
   40758:	108002d8 	cmpnei	r2,r2,11
   4075c:	1000021e 	bne	r2,zero,40768 <Fat_Type+0x58>
            Type = FAT_FAT32;
   40760:	00800084 	movi	r2,2
   40764:	e0bffd15 	stw	r2,-12(fp)
    }
    return Type;        
   40768:	e0bffd17 	ldw	r2,-12(fp)
}
   4076c:	e037883a 	mov	sp,fp
   40770:	df000017 	ldw	fp,0(sp)
   40774:	dec00104 	addi	sp,sp,4
   40778:	f800283a 	ret

0004077c <Fat_FileBrowseBegin>:

bool Fat_FileBrowseBegin(FAT_HANDLE hFat, FAT_BROWSE_HANDLE *pFatBrowseHandle){
   4077c:	defffc04 	addi	sp,sp,-16
   40780:	df000315 	stw	fp,12(sp)
   40784:	df000304 	addi	fp,sp,12
   40788:	e13ffe15 	stw	r4,-8(fp)
   4078c:	e17fff15 	stw	r5,-4(fp)
    VOLUME_INFO *pVol = (VOLUME_INFO *)hFat;
   40790:	e0bffe17 	ldw	r2,-8(fp)
   40794:	e0bffd15 	stw	r2,-12(fp)
    if (!pVol)
   40798:	e0bffd17 	ldw	r2,-12(fp)
   4079c:	1000021e 	bne	r2,zero,407a8 <Fat_FileBrowseBegin+0x2c>
        return FALSE;
   407a0:	0005883a 	mov	r2,zero
   407a4:	00000c06 	br	407d8 <Fat_FileBrowseBegin+0x5c>
    if (!pVol->bMount)
   407a8:	e0bffd17 	ldw	r2,-12(fp)
   407ac:	10800417 	ldw	r2,16(r2)
   407b0:	1000021e 	bne	r2,zero,407bc <Fat_FileBrowseBegin+0x40>
        return FALSE;
   407b4:	0005883a 	mov	r2,zero
   407b8:	00000706 	br	407d8 <Fat_FileBrowseBegin+0x5c>
    pFatBrowseHandle->DirectoryIndex = -1;
   407bc:	e0bfff17 	ldw	r2,-4(fp)
   407c0:	00ffffc4 	movi	r3,-1
   407c4:	10c00015 	stw	r3,0(r2)
    pFatBrowseHandle->hFat = hFat;
   407c8:	e0bfff17 	ldw	r2,-4(fp)
   407cc:	e0fffe17 	ldw	r3,-8(fp)
   407d0:	10c00115 	stw	r3,4(r2)
    return TRUE;
   407d4:	00800044 	movi	r2,1
}
   407d8:	e037883a 	mov	sp,fp
   407dc:	df000017 	ldw	fp,0(sp)
   407e0:	dec00104 	addi	sp,sp,4
   407e4:	f800283a 	ret

000407e8 <Fat_FileBrowseNext>:

bool Fat_FileBrowseNext(FAT_BROWSE_HANDLE *pFatBrowseHandle, FILE_CONTEXT *pFileContext){
   407e8:	defff404 	addi	sp,sp,-48
   407ec:	dfc00b15 	stw	ra,44(sp)
   407f0:	df000a15 	stw	fp,40(sp)
   407f4:	df000a04 	addi	fp,sp,40
   407f8:	e13ffe15 	stw	r4,-8(fp)
   407fc:	e17fff15 	stw	r5,-4(fp)
    bool bFind = FALSE, bError=FALSE, bLongFilename = FALSE;
   40800:	e03ff615 	stw	zero,-40(fp)
   40804:	e03ff715 	stw	zero,-36(fp)
   40808:	e03ff815 	stw	zero,-32(fp)
    int OrderValue = 0;
   4080c:	e03ff915 	stw	zero,-28(fp)
    FAT_DIRECTORY *pDir;
    //unsigned int nSecter, nSecterOffset,nByteOffset;
    VOLUME_INFO *pVol = (VOLUME_INFO *)pFatBrowseHandle->hFat;
   40810:	e0bffe17 	ldw	r2,-8(fp)
   40814:	10800117 	ldw	r2,4(r2)
   40818:	e0bffa15 	stw	r2,-24(fp)
    
    if (!pVol)
   4081c:	e0bffa17 	ldw	r2,-24(fp)
   40820:	1000021e 	bne	r2,zero,4082c <Fat_FileBrowseNext+0x44>
        return FALSE;    
   40824:	0005883a 	mov	r2,zero
   40828:	0000f606 	br	40c04 <Fat_FileBrowseNext+0x41c>
    
    if (!pVol->bMount)
   4082c:	e0bffa17 	ldw	r2,-24(fp)
   40830:	10800417 	ldw	r2,16(r2)
   40834:	1000021e 	bne	r2,zero,40840 <Fat_FileBrowseNext+0x58>
        return FALSE;
   40838:	0005883a 	mov	r2,zero
   4083c:	0000f106 	br	40c04 <Fat_FileBrowseNext+0x41c>
    
    
    do{  // search Directory Table
        pFatBrowseHandle->DirectoryIndex++;        
   40840:	e0bffe17 	ldw	r2,-8(fp)
   40844:	10800017 	ldw	r2,0(r2)
   40848:	10c00044 	addi	r3,r2,1
   4084c:	e0bffe17 	ldw	r2,-8(fp)
   40850:	10c00015 	stw	r3,0(r2)
        pDir = fatFindDirectory(pVol,pFatBrowseHandle->DirectoryIndex);
   40854:	e0bffe17 	ldw	r2,-8(fp)
   40858:	10800017 	ldw	r2,0(r2)
   4085c:	e13ffa17 	ldw	r4,-24(fp)
   40860:	100b883a 	mov	r5,r2
   40864:	00424d80 	call	424d8 <fatFindDirectory>
   40868:	e0bffb15 	stw	r2,-20(fp)
        if (!pDir)
   4086c:	e0bffb17 	ldw	r2,-20(fp)
   40870:	1000021e 	bne	r2,zero,4087c <Fat_FileBrowseNext+0x94>
            bError = TRUE;
   40874:	00800044 	movi	r2,1
   40878:	e0bff715 	stw	r2,-36(fp)
            
        if (!bError){                        
   4087c:	e0bff717 	ldw	r2,-36(fp)
   40880:	1000d81e 	bne	r2,zero,40be4 <Fat_FileBrowseNext+0x3fc>
            if (fatIsValidDir(pDir) && !fatIsUnusedDir(pDir)){
   40884:	e13ffb17 	ldw	r4,-20(fp)
   40888:	00421380 	call	42138 <fatIsValidDir>
   4088c:	1000d526 	beq	r2,zero,40be4 <Fat_FileBrowseNext+0x3fc>
   40890:	e13ffb17 	ldw	r4,-20(fp)
   40894:	00421e00 	call	421e0 <fatIsUnusedDir>
   40898:	1000d21e 	bne	r2,zero,40be4 <Fat_FileBrowseNext+0x3fc>
                if ((pDir->Attribute & ATTR_LONG_NAME) == ATTR_LONG_NAME){
   4089c:	e0bffb17 	ldw	r2,-20(fp)
   408a0:	108002c3 	ldbu	r2,11(r2)
   408a4:	10803fcc 	andi	r2,r2,255
   408a8:	108003cc 	andi	r2,r2,15
   408ac:	108003d8 	cmpnei	r2,r2,15
   408b0:	1000531e 	bne	r2,zero,40a00 <Fat_FileBrowseNext+0x218>
                    FAT_LONG_DIRECTORY *pLDIR = (FAT_LONG_DIRECTORY *)pDir;
   408b4:	e0bffb17 	ldw	r2,-20(fp)
   408b8:	e0bffc15 	stw	r2,-16(fp)
                    // check attribute
                    if ((pLDIR->LDIR_Attr & ATTR_LONG_NAME) != ATTR_LONG_NAME){
   408bc:	e0bffc17 	ldw	r2,-16(fp)
   408c0:	108002c3 	ldbu	r2,11(r2)
   408c4:	10803fcc 	andi	r2,r2,255
   408c8:	108003cc 	andi	r2,r2,15
   408cc:	108003e0 	cmpeqi	r2,r2,15
   408d0:	1000031e 	bne	r2,zero,408e0 <Fat_FileBrowseNext+0xf8>
                        bError = TRUE;
   408d4:	00800044 	movi	r2,1
   408d8:	e0bff715 	stw	r2,-36(fp)
   408dc:	00001e06 	br	40958 <Fat_FileBrowseNext+0x170>
                    }else{                        
                        // check order
                        if (OrderValue == 0){
   408e0:	e0bff917 	ldw	r2,-28(fp)
   408e4:	1000141e 	bne	r2,zero,40938 <Fat_FileBrowseNext+0x150>
                            // last entry
                            if (bLongFilename || ((OrderValue & LAST_LONG_ENTRY) != OrderValue))
   408e8:	e0bff817 	ldw	r2,-32(fp)
   408ec:	1000041e 	bne	r2,zero,40900 <Fat_FileBrowseNext+0x118>
   408f0:	e0bff917 	ldw	r2,-28(fp)
   408f4:	10c0100c 	andi	r3,r2,64
   408f8:	e0bff917 	ldw	r2,-28(fp)
   408fc:	18800326 	beq	r3,r2,4090c <Fat_FileBrowseNext+0x124>
                                bError = TRUE;
   40900:	00800044 	movi	r2,1
   40904:	e0bff715 	stw	r2,-36(fp)
   40908:	00000506 	br	40920 <Fat_FileBrowseNext+0x138>
                            else
                                OrderValue = pLDIR->LDIR_Ord & 0x3F;
   4090c:	e0bffc17 	ldw	r2,-16(fp)
   40910:	10800003 	ldbu	r2,0(r2)
   40914:	10803fcc 	andi	r2,r2,255
   40918:	10800fcc 	andi	r2,r2,63
   4091c:	e0bff915 	stw	r2,-28(fp)
                            memset(pFileContext->szName, 0, sizeof(pFileContext->szName));        
   40920:	e0bfff17 	ldw	r2,-4(fp)
   40924:	1009883a 	mov	r4,r2
   40928:	000b883a 	mov	r5,zero
   4092c:	01804004 	movi	r6,256
   40930:	004728c0 	call	4728c <memset>
   40934:	00000806 	br	40958 <Fat_FileBrowseNext+0x170>
                        }else{
                            if ((pLDIR->LDIR_Ord & 0x3F) != OrderValue)
   40938:	e0bffc17 	ldw	r2,-16(fp)
   4093c:	10800003 	ldbu	r2,0(r2)
   40940:	10803fcc 	andi	r2,r2,255
   40944:	10c00fcc 	andi	r3,r2,63
   40948:	e0bff917 	ldw	r2,-28(fp)
   4094c:	18800226 	beq	r3,r2,40958 <Fat_FileBrowseNext+0x170>
                                bError = TRUE;
   40950:	00800044 	movi	r2,1
   40954:	e0bff715 	stw	r2,-36(fp)
                        }
                    }
                    
                    //                        
                    if (!bError){
   40958:	e0bff717 	ldw	r2,-36(fp)
   4095c:	1000271e 	bne	r2,zero,409fc <Fat_FileBrowseNext+0x214>
                        int BaseOffset;
                        bLongFilename = TRUE;
   40960:	00800044 	movi	r2,1
   40964:	e0bff815 	stw	r2,-32(fp)
                        OrderValue--;
   40968:	e0bff917 	ldw	r2,-28(fp)
   4096c:	10bfffc4 	addi	r2,r2,-1
   40970:	e0bff915 	stw	r2,-28(fp)
                        BaseOffset = OrderValue * 26;
   40974:	e13ff917 	ldw	r4,-28(fp)
   40978:	01400684 	movi	r5,26
   4097c:	00453200 	call	45320 <__mulsi3>
   40980:	e0bffd15 	stw	r2,-12(fp)
                        // cast filename
                        memcpy(pFileContext->szName+BaseOffset, pLDIR->LDIR_Name1, 10);
   40984:	e0bffd17 	ldw	r2,-12(fp)
   40988:	e0ffff17 	ldw	r3,-4(fp)
   4098c:	1887883a 	add	r3,r3,r2
   40990:	e0bffc17 	ldw	r2,-16(fp)
   40994:	10800044 	addi	r2,r2,1
   40998:	1809883a 	mov	r4,r3
   4099c:	100b883a 	mov	r5,r2
   409a0:	01800284 	movi	r6,10
   409a4:	00471540 	call	47154 <memcpy>
                        memcpy(pFileContext->szName+BaseOffset+10, pLDIR->LDIR_Name2, 12);
   409a8:	e0bffd17 	ldw	r2,-12(fp)
   409ac:	10800284 	addi	r2,r2,10
   409b0:	e0ffff17 	ldw	r3,-4(fp)
   409b4:	1887883a 	add	r3,r3,r2
   409b8:	e0bffc17 	ldw	r2,-16(fp)
   409bc:	10800384 	addi	r2,r2,14
   409c0:	1809883a 	mov	r4,r3
   409c4:	100b883a 	mov	r5,r2
   409c8:	01800304 	movi	r6,12
   409cc:	00471540 	call	47154 <memcpy>
                        memcpy(pFileContext->szName+BaseOffset+22, pLDIR->LDIR_Name3, 4);
   409d0:	e0bffd17 	ldw	r2,-12(fp)
   409d4:	10800584 	addi	r2,r2,22
   409d8:	e0ffff17 	ldw	r3,-4(fp)
   409dc:	1887883a 	add	r3,r3,r2
   409e0:	e0bffc17 	ldw	r2,-16(fp)
   409e4:	10800704 	addi	r2,r2,28
   409e8:	1809883a 	mov	r4,r3
   409ec:	100b883a 	mov	r5,r2
   409f0:	01800104 	movi	r6,4
   409f4:	00471540 	call	47154 <memcpy>
   409f8:	00007a06 	br	40be4 <Fat_FileBrowseNext+0x3fc>
   409fc:	00007906 	br	40be4 <Fat_FileBrowseNext+0x3fc>
                    }                        
                }else{
                    if (bLongFilename){
   40a00:	e0bff817 	ldw	r2,-32(fp)
   40a04:	10000e26 	beq	r2,zero,40a40 <Fat_FileBrowseNext+0x258>
                        pFileContext->Attribute = ATTR_LONG_NAME;
   40a08:	e0bfff17 	ldw	r2,-4(fp)
   40a0c:	00c003c4 	movi	r3,15
   40a10:	10c04505 	stb	r3,276(r2)
                        if ((pDir->Attribute & (ATTR_ARCHIVE | ATTR_DIRECTORY)) == 0)
   40a14:	e0bffb17 	ldw	r2,-20(fp)
   40a18:	108002c3 	ldbu	r2,11(r2)
   40a1c:	10803fcc 	andi	r2,r2,255
   40a20:	10800c0c 	andi	r2,r2,48
   40a24:	1000031e 	bne	r2,zero,40a34 <Fat_FileBrowseNext+0x24c>
                            bError = TRUE;
   40a28:	00800044 	movi	r2,1
   40a2c:	e0bff715 	stw	r2,-36(fp)
   40a30:	00000906 	br	40a58 <Fat_FileBrowseNext+0x270>
                        else    
                            bFind = TRUE;
   40a34:	00800044 	movi	r2,1
   40a38:	e0bff615 	stw	r2,-40(fp)
   40a3c:	00000606 	br	40a58 <Fat_FileBrowseNext+0x270>
                    }else{
                        fatComposeShortFilename(pDir, pFileContext->szName);
   40a40:	e0bfff17 	ldw	r2,-4(fp)
   40a44:	e13ffb17 	ldw	r4,-20(fp)
   40a48:	100b883a 	mov	r5,r2
   40a4c:	0040d180 	call	40d18 <fatComposeShortFilename>
                        bFind = TRUE;
   40a50:	00800044 	movi	r2,1
   40a54:	e0bff615 	stw	r2,-40(fp)
                    }
                    
                    if (bFind){
   40a58:	e0bff617 	ldw	r2,-40(fp)
   40a5c:	10006126 	beq	r2,zero,40be4 <Fat_FileBrowseNext+0x3fc>
                        // my ext
                        pFileContext->bLongFilename = bLongFilename;
   40a60:	e0bfff17 	ldw	r2,-4(fp)
   40a64:	e0fff817 	ldw	r3,-32(fp)
   40a68:	10c04015 	stw	r3,256(r2)
                        pFileContext->bFile = (pDir->Attribute & ATTR_ARCHIVE)?TRUE:FALSE;
   40a6c:	e0bffb17 	ldw	r2,-20(fp)
   40a70:	108002c3 	ldbu	r2,11(r2)
   40a74:	10803fcc 	andi	r2,r2,255
   40a78:	1080080c 	andi	r2,r2,32
   40a7c:	1004c03a 	cmpne	r2,r2,zero
   40a80:	10c03fcc 	andi	r3,r2,255
   40a84:	e0bfff17 	ldw	r2,-4(fp)
   40a88:	10c04115 	stw	r3,260(r2)
                        pFileContext->bDirectory = (pDir->Attribute & ATTR_DIRECTORY)?TRUE:FALSE;
   40a8c:	e0bffb17 	ldw	r2,-20(fp)
   40a90:	108002c3 	ldbu	r2,11(r2)
   40a94:	10803fcc 	andi	r2,r2,255
   40a98:	1080040c 	andi	r2,r2,16
   40a9c:	1004c03a 	cmpne	r2,r2,zero
   40aa0:	10c03fcc 	andi	r3,r2,255
   40aa4:	e0bfff17 	ldw	r2,-4(fp)
   40aa8:	10c04215 	stw	r3,264(r2)
                        pFileContext->bVolume = (pDir->Attribute & ATTR_VOLUME_ID)?TRUE:FALSE;
   40aac:	e0bffb17 	ldw	r2,-20(fp)
   40ab0:	108002c3 	ldbu	r2,11(r2)
   40ab4:	10803fcc 	andi	r2,r2,255
   40ab8:	1080020c 	andi	r2,r2,8
   40abc:	1004c03a 	cmpne	r2,r2,zero
   40ac0:	10c03fcc 	andi	r3,r2,255
   40ac4:	e0bfff17 	ldw	r2,-4(fp)
   40ac8:	10c04315 	stw	r3,268(r2)
                        pFileContext->DirEntryIndex = pFatBrowseHandle->DirectoryIndex; // add in v2.0.0
   40acc:	e0bffe17 	ldw	r2,-8(fp)
   40ad0:	10c00017 	ldw	r3,0(r2)
   40ad4:	e0bfff17 	ldw	r2,-4(fp)
   40ad8:	10c04415 	stw	r3,272(r2)
                        
                        //
                        pFileContext->Attribute = pDir->Attribute;
   40adc:	e0bffb17 	ldw	r2,-20(fp)
   40ae0:	10c002c3 	ldbu	r3,11(r2)
   40ae4:	e0bfff17 	ldw	r2,-4(fp)
   40ae8:	10c04505 	stb	r3,276(r2)
                        pFileContext->CreateTime = pDir->CreateTime;
   40aec:	e0bffb17 	ldw	r2,-20(fp)
   40af0:	10c00383 	ldbu	r3,14(r2)
   40af4:	108003c3 	ldbu	r2,15(r2)
   40af8:	1004923a 	slli	r2,r2,8
   40afc:	10c4b03a 	or	r2,r2,r3
   40b00:	1007883a 	mov	r3,r2
   40b04:	e0bfff17 	ldw	r2,-4(fp)
   40b08:	10c0458d 	sth	r3,278(r2)
                        pFileContext->LastAccessDate = pDir->LastAccessDate;
   40b0c:	e0bffb17 	ldw	r2,-20(fp)
   40b10:	10c00483 	ldbu	r3,18(r2)
   40b14:	108004c3 	ldbu	r2,19(r2)
   40b18:	1004923a 	slli	r2,r2,8
   40b1c:	10c4b03a 	or	r2,r2,r3
   40b20:	1007883a 	mov	r3,r2
   40b24:	e0bfff17 	ldw	r2,-4(fp)
   40b28:	10c0468d 	sth	r3,282(r2)
                        pFileContext->FirstLogicalClusterHi = pDir->FirstLogicalClusterHi;
   40b2c:	e0bffb17 	ldw	r2,-20(fp)
   40b30:	10c00503 	ldbu	r3,20(r2)
   40b34:	10800543 	ldbu	r2,21(r2)
   40b38:	1004923a 	slli	r2,r2,8
   40b3c:	10c4b03a 	or	r2,r2,r3
   40b40:	1007883a 	mov	r3,r2
   40b44:	e0bfff17 	ldw	r2,-4(fp)
   40b48:	10c0470d 	sth	r3,284(r2)
                        pFileContext->LastWriteTime = pDir->LastWriteTime;
   40b4c:	e0bffb17 	ldw	r2,-20(fp)
   40b50:	10c00583 	ldbu	r3,22(r2)
   40b54:	108005c3 	ldbu	r2,23(r2)
   40b58:	1004923a 	slli	r2,r2,8
   40b5c:	10c4b03a 	or	r2,r2,r3
   40b60:	1007883a 	mov	r3,r2
   40b64:	e0bfff17 	ldw	r2,-4(fp)
   40b68:	10c0478d 	sth	r3,286(r2)
                        pFileContext->LastWriteDate = pDir->LastWriteDate;
   40b6c:	e0bffb17 	ldw	r2,-20(fp)
   40b70:	10c00603 	ldbu	r3,24(r2)
   40b74:	10800643 	ldbu	r2,25(r2)
   40b78:	1004923a 	slli	r2,r2,8
   40b7c:	10c4b03a 	or	r2,r2,r3
   40b80:	1007883a 	mov	r3,r2
   40b84:	e0bfff17 	ldw	r2,-4(fp)
   40b88:	10c0480d 	sth	r3,288(r2)
                        pFileContext->FirstLogicalCluster = pDir->FirstLogicalCluster;
   40b8c:	e0bffb17 	ldw	r2,-20(fp)
   40b90:	10c00683 	ldbu	r3,26(r2)
   40b94:	108006c3 	ldbu	r2,27(r2)
   40b98:	1004923a 	slli	r2,r2,8
   40b9c:	10c4b03a 	or	r2,r2,r3
   40ba0:	1007883a 	mov	r3,r2
   40ba4:	e0bfff17 	ldw	r2,-4(fp)
   40ba8:	10c0488d 	sth	r3,290(r2)
                        pFileContext->FileSize = pDir->FileSize;
   40bac:	e0bffb17 	ldw	r2,-20(fp)
   40bb0:	10c00703 	ldbu	r3,28(r2)
   40bb4:	11000743 	ldbu	r4,29(r2)
   40bb8:	2008923a 	slli	r4,r4,8
   40bbc:	20c6b03a 	or	r3,r4,r3
   40bc0:	11000783 	ldbu	r4,30(r2)
   40bc4:	2008943a 	slli	r4,r4,16
   40bc8:	20c6b03a 	or	r3,r4,r3
   40bcc:	108007c3 	ldbu	r2,31(r2)
   40bd0:	1004963a 	slli	r2,r2,24
   40bd4:	10c4b03a 	or	r2,r2,r3
   40bd8:	1007883a 	mov	r3,r2
   40bdc:	e0bfff17 	ldw	r2,-4(fp)
   40be0:	10c04915 	stw	r3,292(r2)
                    }                        
                }                    
            }                
        }            
    }while (!bFind && !fatIsLastDir(pDir) && !bError);
   40be4:	e0bff617 	ldw	r2,-40(fp)
   40be8:	1000051e 	bne	r2,zero,40c00 <Fat_FileBrowseNext+0x418>
   40bec:	e13ffb17 	ldw	r4,-20(fp)
   40bf0:	00420f40 	call	420f4 <fatIsLastDir>
   40bf4:	1000021e 	bne	r2,zero,40c00 <Fat_FileBrowseNext+0x418>
   40bf8:	e0bff717 	ldw	r2,-36(fp)
   40bfc:	103f1026 	beq	r2,zero,40840 <__alt_data_end+0xfffdbe50>
    
    return bFind;
   40c00:	e0bff617 	ldw	r2,-40(fp)
    
}
   40c04:	e037883a 	mov	sp,fp
   40c08:	dfc00117 	ldw	ra,4(sp)
   40c0c:	df000017 	ldw	fp,0(sp)
   40c10:	dec00204 	addi	sp,sp,8
   40c14:	f800283a 	ret

00040c18 <Fat_FileCount>:


unsigned int Fat_FileCount(FAT_HANDLE Fat){
   40c18:	deffb004 	addi	sp,sp,-320
   40c1c:	dfc04f15 	stw	ra,316(sp)
   40c20:	df004e15 	stw	fp,312(sp)
   40c24:	df004e04 	addi	fp,sp,312
   40c28:	e13fff15 	stw	r4,-4(fp)
    unsigned int nCount = 0;
   40c2c:	e03fb215 	stw	zero,-312(fp)
    FAT_BROWSE_HANDLE hBrowse;
    FILE_CONTEXT FileContext;
    
    if (Fat_FileBrowseBegin(Fat, &hBrowse)){
   40c30:	e0bfb304 	addi	r2,fp,-308
   40c34:	e13fff17 	ldw	r4,-4(fp)
   40c38:	100b883a 	mov	r5,r2
   40c3c:	004077c0 	call	4077c <Fat_FileBrowseBegin>
   40c40:	10000a26 	beq	r2,zero,40c6c <Fat_FileCount+0x54>
        while(Fat_FileBrowseNext(&hBrowse, &FileContext))
   40c44:	00000306 	br	40c54 <Fat_FileCount+0x3c>
            nCount++;
   40c48:	e0bfb217 	ldw	r2,-312(fp)
   40c4c:	10800044 	addi	r2,r2,1
   40c50:	e0bfb215 	stw	r2,-312(fp)
    unsigned int nCount = 0;
    FAT_BROWSE_HANDLE hBrowse;
    FILE_CONTEXT FileContext;
    
    if (Fat_FileBrowseBegin(Fat, &hBrowse)){
        while(Fat_FileBrowseNext(&hBrowse, &FileContext))
   40c54:	e0ffb304 	addi	r3,fp,-308
   40c58:	e0bfb504 	addi	r2,fp,-300
   40c5c:	1809883a 	mov	r4,r3
   40c60:	100b883a 	mov	r5,r2
   40c64:	00407e80 	call	407e8 <Fat_FileBrowseNext>
   40c68:	103ff71e 	bne	r2,zero,40c48 <__alt_data_end+0xfffdc258>
            nCount++;
    }
    
    return nCount;
   40c6c:	e0bfb217 	ldw	r2,-312(fp)
}
   40c70:	e037883a 	mov	sp,fp
   40c74:	dfc00117 	ldw	ra,4(sp)
   40c78:	df000017 	ldw	fp,0(sp)
   40c7c:	dec00204 	addi	sp,sp,8
   40c80:	f800283a 	ret

00040c84 <fatSameLongFilename>:

bool fatSameLongFilename(alt_u16 *p1, alt_u16 *p2){
   40c84:	defffc04 	addi	sp,sp,-16
   40c88:	df000315 	stw	fp,12(sp)
   40c8c:	df000304 	addi	fp,sp,12
   40c90:	e13ffe15 	stw	r4,-8(fp)
   40c94:	e17fff15 	stw	r5,-4(fp)
    bool bSame = TRUE;
   40c98:	00800044 	movi	r2,1
   40c9c:	e0bffd15 	stw	r2,-12(fp)
    
    while(bSame && ((*p1 != 0) || (*p2 != 0))){
   40ca0:	00000e06 	br	40cdc <fatSameLongFilename+0x58>
        if (*p1 != *p2){
   40ca4:	e0bffe17 	ldw	r2,-8(fp)
   40ca8:	10c0000b 	ldhu	r3,0(r2)
   40cac:	e0bfff17 	ldw	r2,-4(fp)
   40cb0:	1080000b 	ldhu	r2,0(r2)
   40cb4:	18ffffcc 	andi	r3,r3,65535
   40cb8:	10bfffcc 	andi	r2,r2,65535
   40cbc:	18800126 	beq	r3,r2,40cc4 <fatSameLongFilename+0x40>
            bSame = FALSE;
   40cc0:	e03ffd15 	stw	zero,-12(fp)
        }
        p1++;
   40cc4:	e0bffe17 	ldw	r2,-8(fp)
   40cc8:	10800084 	addi	r2,r2,2
   40ccc:	e0bffe15 	stw	r2,-8(fp)
        p2++;
   40cd0:	e0bfff17 	ldw	r2,-4(fp)
   40cd4:	10800084 	addi	r2,r2,2
   40cd8:	e0bfff15 	stw	r2,-4(fp)
}

bool fatSameLongFilename(alt_u16 *p1, alt_u16 *p2){
    bool bSame = TRUE;
    
    while(bSame && ((*p1 != 0) || (*p2 != 0))){
   40cdc:	e0bffd17 	ldw	r2,-12(fp)
   40ce0:	10000826 	beq	r2,zero,40d04 <fatSameLongFilename+0x80>
   40ce4:	e0bffe17 	ldw	r2,-8(fp)
   40ce8:	1080000b 	ldhu	r2,0(r2)
   40cec:	10bfffcc 	andi	r2,r2,65535
   40cf0:	103fec1e 	bne	r2,zero,40ca4 <__alt_data_end+0xfffdc2b4>
   40cf4:	e0bfff17 	ldw	r2,-4(fp)
   40cf8:	1080000b 	ldhu	r2,0(r2)
   40cfc:	10bfffcc 	andi	r2,r2,65535
   40d00:	103fe81e 	bne	r2,zero,40ca4 <__alt_data_end+0xfffdc2b4>
        p1++;
        p2++;
        
    }
    
    return bSame;
   40d04:	e0bffd17 	ldw	r2,-12(fp)
}
   40d08:	e037883a 	mov	sp,fp
   40d0c:	df000017 	ldw	fp,0(sp)
   40d10:	dec00104 	addi	sp,sp,4
   40d14:	f800283a 	ret

00040d18 <fatComposeShortFilename>:


void fatComposeShortFilename(FAT_DIRECTORY *pDir, char *szFilename){
   40d18:	defffb04 	addi	sp,sp,-20
   40d1c:	df000415 	stw	fp,16(sp)
   40d20:	df000404 	addi	fp,sp,16
   40d24:	e13ffe15 	stw	r4,-8(fp)
   40d28:	e17fff15 	stw	r5,-4(fp)
    int i,nPos=0;
   40d2c:	e03ffd15 	stw	zero,-12(fp)
    
    i=0;
   40d30:	e03ffc15 	stw	zero,-16(fp)
    while(i < 8 && pDir->Name[i] != 0 && pDir->Name[i] != ' ')
   40d34:	00000d06 	br	40d6c <fatComposeShortFilename+0x54>
        szFilename[nPos++] = pDir->Name[i++];
   40d38:	e0bffd17 	ldw	r2,-12(fp)
   40d3c:	10c00044 	addi	r3,r2,1
   40d40:	e0fffd15 	stw	r3,-12(fp)
   40d44:	1007883a 	mov	r3,r2
   40d48:	e0bfff17 	ldw	r2,-4(fp)
   40d4c:	10c7883a 	add	r3,r2,r3
   40d50:	e0bffc17 	ldw	r2,-16(fp)
   40d54:	11000044 	addi	r4,r2,1
   40d58:	e13ffc15 	stw	r4,-16(fp)
   40d5c:	e13ffe17 	ldw	r4,-8(fp)
   40d60:	2085883a 	add	r2,r4,r2
   40d64:	10800003 	ldbu	r2,0(r2)
   40d68:	18800005 	stb	r2,0(r3)

void fatComposeShortFilename(FAT_DIRECTORY *pDir, char *szFilename){
    int i,nPos=0;
    
    i=0;
    while(i < 8 && pDir->Name[i] != 0 && pDir->Name[i] != ' ')
   40d6c:	e0bffc17 	ldw	r2,-16(fp)
   40d70:	10800208 	cmpgei	r2,r2,8
   40d74:	1000111e 	bne	r2,zero,40dbc <fatComposeShortFilename+0xa4>
   40d78:	e0fffe17 	ldw	r3,-8(fp)
   40d7c:	e0bffc17 	ldw	r2,-16(fp)
   40d80:	1885883a 	add	r2,r3,r2
   40d84:	10800003 	ldbu	r2,0(r2)
   40d88:	10803fcc 	andi	r2,r2,255
   40d8c:	1080201c 	xori	r2,r2,128
   40d90:	10bfe004 	addi	r2,r2,-128
   40d94:	10000926 	beq	r2,zero,40dbc <fatComposeShortFilename+0xa4>
   40d98:	e0fffe17 	ldw	r3,-8(fp)
   40d9c:	e0bffc17 	ldw	r2,-16(fp)
   40da0:	1885883a 	add	r2,r3,r2
   40da4:	10800003 	ldbu	r2,0(r2)
   40da8:	10803fcc 	andi	r2,r2,255
   40dac:	1080201c 	xori	r2,r2,128
   40db0:	10bfe004 	addi	r2,r2,-128
   40db4:	10800818 	cmpnei	r2,r2,32
   40db8:	103fdf1e 	bne	r2,zero,40d38 <__alt_data_end+0xfffdc348>
        szFilename[nPos++] = pDir->Name[i++];
    
    if (pDir->Attribute & (ATTR_ARCHIVE | ATTR_DIRECTORY)){
   40dbc:	e0bffe17 	ldw	r2,-8(fp)
   40dc0:	108002c3 	ldbu	r2,11(r2)
   40dc4:	10803fcc 	andi	r2,r2,255
   40dc8:	10800c0c 	andi	r2,r2,48
   40dcc:	10003326 	beq	r2,zero,40e9c <fatComposeShortFilename+0x184>
        if (pDir->Attribute & (ATTR_ARCHIVE | ATTR_DIRECTORY))     
   40dd0:	e0bffe17 	ldw	r2,-8(fp)
   40dd4:	108002c3 	ldbu	r2,11(r2)
   40dd8:	10803fcc 	andi	r2,r2,255
   40ddc:	10800c0c 	andi	r2,r2,48
   40de0:	10000826 	beq	r2,zero,40e04 <fatComposeShortFilename+0xec>
            szFilename[nPos++] = '.';   
   40de4:	e0bffd17 	ldw	r2,-12(fp)
   40de8:	10c00044 	addi	r3,r2,1
   40dec:	e0fffd15 	stw	r3,-12(fp)
   40df0:	1007883a 	mov	r3,r2
   40df4:	e0bfff17 	ldw	r2,-4(fp)
   40df8:	10c5883a 	add	r2,r2,r3
   40dfc:	00c00b84 	movi	r3,46
   40e00:	10c00005 	stb	r3,0(r2)
        i=0;
   40e04:	e03ffc15 	stw	zero,-16(fp)
        while(i < 3 && pDir->Extension[i] != 0 && pDir->Extension[i] != ' ')
   40e08:	00000e06 	br	40e44 <fatComposeShortFilename+0x12c>
            szFilename[nPos++] = pDir->Extension[i++];
   40e0c:	e0bffd17 	ldw	r2,-12(fp)
   40e10:	10c00044 	addi	r3,r2,1
   40e14:	e0fffd15 	stw	r3,-12(fp)
   40e18:	1007883a 	mov	r3,r2
   40e1c:	e0bfff17 	ldw	r2,-4(fp)
   40e20:	10c7883a 	add	r3,r2,r3
   40e24:	e0bffc17 	ldw	r2,-16(fp)
   40e28:	11000044 	addi	r4,r2,1
   40e2c:	e13ffc15 	stw	r4,-16(fp)
   40e30:	e13ffe17 	ldw	r4,-8(fp)
   40e34:	2085883a 	add	r2,r4,r2
   40e38:	10800204 	addi	r2,r2,8
   40e3c:	10800003 	ldbu	r2,0(r2)
   40e40:	18800005 	stb	r2,0(r3)
    
    if (pDir->Attribute & (ATTR_ARCHIVE | ATTR_DIRECTORY)){
        if (pDir->Attribute & (ATTR_ARCHIVE | ATTR_DIRECTORY))     
            szFilename[nPos++] = '.';   
        i=0;
        while(i < 3 && pDir->Extension[i] != 0 && pDir->Extension[i] != ' ')
   40e44:	e0bffc17 	ldw	r2,-16(fp)
   40e48:	108000c8 	cmpgei	r2,r2,3
   40e4c:	1000131e 	bne	r2,zero,40e9c <fatComposeShortFilename+0x184>
   40e50:	e0fffe17 	ldw	r3,-8(fp)
   40e54:	e0bffc17 	ldw	r2,-16(fp)
   40e58:	1885883a 	add	r2,r3,r2
   40e5c:	10800204 	addi	r2,r2,8
   40e60:	10800003 	ldbu	r2,0(r2)
   40e64:	10803fcc 	andi	r2,r2,255
   40e68:	1080201c 	xori	r2,r2,128
   40e6c:	10bfe004 	addi	r2,r2,-128
   40e70:	10000a26 	beq	r2,zero,40e9c <fatComposeShortFilename+0x184>
   40e74:	e0fffe17 	ldw	r3,-8(fp)
   40e78:	e0bffc17 	ldw	r2,-16(fp)
   40e7c:	1885883a 	add	r2,r3,r2
   40e80:	10800204 	addi	r2,r2,8
   40e84:	10800003 	ldbu	r2,0(r2)
   40e88:	10803fcc 	andi	r2,r2,255
   40e8c:	1080201c 	xori	r2,r2,128
   40e90:	10bfe004 	addi	r2,r2,-128
   40e94:	10800818 	cmpnei	r2,r2,32
   40e98:	103fdc1e 	bne	r2,zero,40e0c <__alt_data_end+0xfffdc41c>
            szFilename[nPos++] = pDir->Extension[i++];
    }            
    szFilename[nPos++] = 0;
   40e9c:	e0bffd17 	ldw	r2,-12(fp)
   40ea0:	10c00044 	addi	r3,r2,1
   40ea4:	e0fffd15 	stw	r3,-12(fp)
   40ea8:	1007883a 	mov	r3,r2
   40eac:	e0bfff17 	ldw	r2,-4(fp)
   40eb0:	10c5883a 	add	r2,r2,r3
   40eb4:	10000005 	stb	zero,0(r2)
}
   40eb8:	e037883a 	mov	sp,fp
   40ebc:	df000017 	ldw	fp,0(sp)
   40ec0:	dec00104 	addi	sp,sp,4
   40ec4:	f800283a 	ret

00040ec8 <Fat_FileExist>:





bool Fat_FileExist(FAT_HANDLE Fat, const char *pFilename){
   40ec8:	deffaf04 	addi	sp,sp,-324
   40ecc:	dfc05015 	stw	ra,320(sp)
   40ed0:	df004f15 	stw	fp,316(sp)
   40ed4:	df004f04 	addi	fp,sp,316
   40ed8:	e13ffe15 	stw	r4,-8(fp)
   40edc:	e17fff15 	stw	r5,-4(fp)
    bool bFind = FALSE;
   40ee0:	e03fb115 	stw	zero,-316(fp)
    FAT_BROWSE_HANDLE hBrowse;     
    FILE_CONTEXT FileContext;
    if (Fat_FileBrowseBegin(Fat, &hBrowse)){
   40ee4:	e0bfb204 	addi	r2,fp,-312
   40ee8:	e13ffe17 	ldw	r4,-8(fp)
   40eec:	100b883a 	mov	r5,r2
   40ef0:	004077c0 	call	4077c <Fat_FileBrowseBegin>
   40ef4:	10001a26 	beq	r2,zero,40f60 <Fat_FileExist+0x98>
        while (!bFind && Fat_FileBrowseNext(&hBrowse, &FileContext)){
   40ef8:	00000f06 	br	40f38 <Fat_FileExist+0x70>
            if (FileContext.bLongFilename){
   40efc:	e0bff417 	ldw	r2,-48(fp)
   40f00:	10000626 	beq	r2,zero,40f1c <Fat_FileExist+0x54>
                bFind = fatSameLongFilename((alt_u16 *)FileContext.szName, (alt_u16 *)pFilename);
   40f04:	e0bfb404 	addi	r2,fp,-304
   40f08:	1009883a 	mov	r4,r2
   40f0c:	e17fff17 	ldw	r5,-4(fp)
   40f10:	0040c840 	call	40c84 <fatSameLongFilename>
   40f14:	e0bfb115 	stw	r2,-316(fp)
   40f18:	00000706 	br	40f38 <Fat_FileExist+0x70>
            }else{
                if (strcmpi(FileContext.szName, pFilename) == 0)
   40f1c:	e0bfb404 	addi	r2,fp,-304
   40f20:	1009883a 	mov	r4,r2
   40f24:	e17fff17 	ldw	r5,-4(fp)
   40f28:	004761c0 	call	4761c <strcasecmp>
   40f2c:	1000021e 	bne	r2,zero,40f38 <Fat_FileExist+0x70>
                    bFind = TRUE;
   40f30:	00800044 	movi	r2,1
   40f34:	e0bfb115 	stw	r2,-316(fp)
bool Fat_FileExist(FAT_HANDLE Fat, const char *pFilename){
    bool bFind = FALSE;
    FAT_BROWSE_HANDLE hBrowse;     
    FILE_CONTEXT FileContext;
    if (Fat_FileBrowseBegin(Fat, &hBrowse)){
        while (!bFind && Fat_FileBrowseNext(&hBrowse, &FileContext)){
   40f38:	e0bfb117 	ldw	r2,-316(fp)
   40f3c:	1000061e 	bne	r2,zero,40f58 <Fat_FileExist+0x90>
   40f40:	e0ffb204 	addi	r3,fp,-312
   40f44:	e0bfb404 	addi	r2,fp,-304
   40f48:	1809883a 	mov	r4,r3
   40f4c:	100b883a 	mov	r5,r2
   40f50:	00407e80 	call	407e8 <Fat_FileBrowseNext>
   40f54:	103fe91e 	bne	r2,zero,40efc <__alt_data_end+0xfffdc50c>
            }else{
                if (strcmpi(FileContext.szName, pFilename) == 0)
                    bFind = TRUE;
            }    
        } // while 
        Fat_FileClose(Fat); 
   40f58:	e13ffe17 	ldw	r4,-8(fp)
   40f5c:	00417600 	call	41760 <Fat_FileClose>
    }
    return bFind;            
   40f60:	e0bfb117 	ldw	r2,-316(fp)
}    
   40f64:	e037883a 	mov	sp,fp
   40f68:	dfc00117 	ldw	ra,4(sp)
   40f6c:	df000017 	ldw	fp,0(sp)
   40f70:	dec00204 	addi	sp,sp,8
   40f74:	f800283a 	ret

00040f78 <Fat_FileOpen>:
 
// File Access
FAT_FILE_HANDLE Fat_FileOpen(FAT_HANDLE Fat, const char *pFilename){
   40f78:	deff6b04 	addi	sp,sp,-596
   40f7c:	dfc09415 	stw	ra,592(sp)
   40f80:	df009315 	stw	fp,588(sp)
   40f84:	df009304 	addi	fp,sp,588
   40f88:	e13ffe15 	stw	r4,-8(fp)
   40f8c:	e17fff15 	stw	r5,-4(fp)
    bool bFind = FALSE;
   40f90:	e03f6d15 	stw	zero,-588(fp)
    FAT_BROWSE_HANDLE hBrowse;     
    FILE_CONTEXT FileContext;
    FAT_FILE_INFO *pFile = 0;
   40f94:	e03f6e15 	stw	zero,-584(fp)
    int nPos = 0;
   40f98:	e03f6f15 	stw	zero,-580(fp)
    char szWaveFilename[MAX_FILENAME_LENGTH];
    
    if (Fat_FileBrowseBegin(Fat, &hBrowse)){
   40f9c:	e0bf7204 	addi	r2,fp,-568
   40fa0:	e13ffe17 	ldw	r4,-8(fp)
   40fa4:	100b883a 	mov	r5,r2
   40fa8:	004077c0 	call	4077c <Fat_FileBrowseBegin>
   40fac:	10007426 	beq	r2,zero,41180 <Fat_FileOpen+0x208>
        while (!bFind && Fat_FileBrowseNext(&hBrowse, &FileContext)){
   40fb0:	00004c06 	br	410e4 <Fat_FileOpen+0x16c>
            if (FileContext.bLongFilename){
   40fb4:	e0bfb417 	ldw	r2,-304(fp)
   40fb8:	10004326 	beq	r2,zero,410c8 <Fat_FileOpen+0x150>
                //bFind = fatSameLongFilename((alt_u16 *)FileContext.szName, (alt_u16 *)pFilename);
                nPos = 0;
   40fbc:	e03f6f15 	stw	zero,-580(fp)
                alt_u16 *pData16;
                alt_u8 *pData8;
                pData16 = (alt_u16 *)FileContext.szName;
   40fc0:	e0bf7404 	addi	r2,fp,-560
   40fc4:	e0bf7015 	stw	r2,-576(fp)
                pData8 = FileContext.szName;
   40fc8:	e0bf7404 	addi	r2,fp,-560
   40fcc:	e0bf7115 	stw	r2,-572(fp)
                while(*pData16){
   40fd0:	00002d06 	br	41088 <Fat_FileOpen+0x110>
                    if (*pData8 && *pData8 != ' ')
   40fd4:	e0bf7117 	ldw	r2,-572(fp)
   40fd8:	10800003 	ldbu	r2,0(r2)
   40fdc:	10803fcc 	andi	r2,r2,255
   40fe0:	10000e26 	beq	r2,zero,4101c <Fat_FileOpen+0xa4>
   40fe4:	e0bf7117 	ldw	r2,-572(fp)
   40fe8:	10800003 	ldbu	r2,0(r2)
   40fec:	10803fcc 	andi	r2,r2,255
   40ff0:	10800820 	cmpeqi	r2,r2,32
   40ff4:	1000091e 	bne	r2,zero,4101c <Fat_FileOpen+0xa4>
                        szWaveFilename[nPos++] = *pData8;
   40ff8:	e0bf6f17 	ldw	r2,-580(fp)
   40ffc:	10c00044 	addi	r3,r2,1
   41000:	e0ff6f15 	stw	r3,-580(fp)
   41004:	e0ff7117 	ldw	r3,-572(fp)
   41008:	18c00003 	ldbu	r3,0(r3)
   4100c:	1809883a 	mov	r4,r3
   41010:	e0ffbe04 	addi	r3,fp,-264
   41014:	1885883a 	add	r2,r3,r2
   41018:	11000005 	stb	r4,0(r2)
                    pData8++;
   4101c:	e0bf7117 	ldw	r2,-572(fp)
   41020:	10800044 	addi	r2,r2,1
   41024:	e0bf7115 	stw	r2,-572(fp)
                    if (*pData8 && *pData8 != ' ')
   41028:	e0bf7117 	ldw	r2,-572(fp)
   4102c:	10800003 	ldbu	r2,0(r2)
   41030:	10803fcc 	andi	r2,r2,255
   41034:	10000e26 	beq	r2,zero,41070 <Fat_FileOpen+0xf8>
   41038:	e0bf7117 	ldw	r2,-572(fp)
   4103c:	10800003 	ldbu	r2,0(r2)
   41040:	10803fcc 	andi	r2,r2,255
   41044:	10800820 	cmpeqi	r2,r2,32
   41048:	1000091e 	bne	r2,zero,41070 <Fat_FileOpen+0xf8>
                        szWaveFilename[nPos++] = *pData8;
   4104c:	e0bf6f17 	ldw	r2,-580(fp)
   41050:	10c00044 	addi	r3,r2,1
   41054:	e0ff6f15 	stw	r3,-580(fp)
   41058:	e0ff7117 	ldw	r3,-572(fp)
   4105c:	18c00003 	ldbu	r3,0(r3)
   41060:	1809883a 	mov	r4,r3
   41064:	e0ffbe04 	addi	r3,fp,-264
   41068:	1885883a 	add	r2,r3,r2
   4106c:	11000005 	stb	r4,0(r2)
                    pData8++;                    
   41070:	e0bf7117 	ldw	r2,-572(fp)
   41074:	10800044 	addi	r2,r2,1
   41078:	e0bf7115 	stw	r2,-572(fp)
                    //    
                    pData16++;
   4107c:	e0bf7017 	ldw	r2,-576(fp)
   41080:	10800084 	addi	r2,r2,2
   41084:	e0bf7015 	stw	r2,-576(fp)
                nPos = 0;
                alt_u16 *pData16;
                alt_u8 *pData8;
                pData16 = (alt_u16 *)FileContext.szName;
                pData8 = FileContext.szName;
                while(*pData16){
   41088:	e0bf7017 	ldw	r2,-576(fp)
   4108c:	1080000b 	ldhu	r2,0(r2)
   41090:	10bfffcc 	andi	r2,r2,65535
   41094:	103fcf1e 	bne	r2,zero,40fd4 <__alt_data_end+0xfffdc5e4>
                        szWaveFilename[nPos++] = *pData8;
                    pData8++;                    
                    //    
                    pData16++;
                }
                szWaveFilename[nPos] = 0;
   41098:	e0ffbe04 	addi	r3,fp,-264
   4109c:	e0bf6f17 	ldw	r2,-580(fp)
   410a0:	1885883a 	add	r2,r3,r2
   410a4:	10000005 	stb	zero,0(r2)
                
                if(strcmp(pFilename,szWaveFilename) == 0)
   410a8:	e0bfbe04 	addi	r2,fp,-264
   410ac:	e13fff17 	ldw	r4,-4(fp)
   410b0:	100b883a 	mov	r5,r2
   410b4:	004768c0 	call	4768c <strcmp>
   410b8:	1000021e 	bne	r2,zero,410c4 <Fat_FileOpen+0x14c>
                    bFind = TRUE;
   410bc:	00800044 	movi	r2,1
   410c0:	e0bf6d15 	stw	r2,-588(fp)
   410c4:	00000706 	br	410e4 <Fat_FileOpen+0x16c>
            }else{
                if (strcmpi(FileContext.szName, pFilename) == 0)
   410c8:	e0bf7404 	addi	r2,fp,-560
   410cc:	1009883a 	mov	r4,r2
   410d0:	e17fff17 	ldw	r5,-4(fp)
   410d4:	004761c0 	call	4761c <strcasecmp>
   410d8:	1000021e 	bne	r2,zero,410e4 <Fat_FileOpen+0x16c>
                    bFind = TRUE;
   410dc:	00800044 	movi	r2,1
   410e0:	e0bf6d15 	stw	r2,-588(fp)
    FAT_FILE_INFO *pFile = 0;
    int nPos = 0;
    char szWaveFilename[MAX_FILENAME_LENGTH];
    
    if (Fat_FileBrowseBegin(Fat, &hBrowse)){
        while (!bFind && Fat_FileBrowseNext(&hBrowse, &FileContext)){
   410e4:	e0bf6d17 	ldw	r2,-588(fp)
   410e8:	1000061e 	bne	r2,zero,41104 <Fat_FileOpen+0x18c>
   410ec:	e0ff7204 	addi	r3,fp,-568
   410f0:	e0bf7404 	addi	r2,fp,-560
   410f4:	1809883a 	mov	r4,r3
   410f8:	100b883a 	mov	r5,r2
   410fc:	00407e80 	call	407e8 <Fat_FileBrowseNext>
   41100:	103fac1e 	bne	r2,zero,40fb4 <__alt_data_end+0xfffdc5c4>
                if (strcmpi(FileContext.szName, pFilename) == 0)
                    bFind = TRUE;
            }    
        } // while 
        
        if (bFind){
   41104:	e0bf6d17 	ldw	r2,-588(fp)
   41108:	10001d26 	beq	r2,zero,41180 <Fat_FileOpen+0x208>
            pFile = malloc(sizeof(FAT_FILE_INFO));
   4110c:	01005004 	movi	r4,320
   41110:	00469840 	call	46984 <malloc>
   41114:	e0bf6e15 	stw	r2,-584(fp)
            if (pFile){
   41118:	e0bf6e17 	ldw	r2,-584(fp)
   4111c:	10001826 	beq	r2,zero,41180 <Fat_FileOpen+0x208>
                pFile->OpenAttribute = FILE_OPEN_READ; 
   41120:	e0bf6e17 	ldw	r2,-584(fp)
   41124:	00c00044 	movi	r3,1
   41128:	10c00115 	stw	r3,4(r2)
                pFile->SeekPos = 0;
   4112c:	e0bf6e17 	ldw	r2,-584(fp)
   41130:	10000215 	stw	zero,8(r2)
                pFile->Directory = FileContext;
   41134:	e0bf6e17 	ldw	r2,-584(fp)
   41138:	11000504 	addi	r4,r2,20
   4113c:	e0ff7404 	addi	r3,fp,-560
   41140:	00804a04 	movi	r2,296
   41144:	180b883a 	mov	r5,r3
   41148:	100d883a 	mov	r6,r2
   4114c:	00471540 	call	47154 <memcpy>
                pFile->IsOpened = TRUE;
   41150:	e0bf6e17 	ldw	r2,-584(fp)
   41154:	00c00044 	movi	r3,1
   41158:	10c00015 	stw	r3,0(r2)
                pFile->Cluster = FileContext.FirstLogicalCluster;
   4115c:	e0bfbc8b 	ldhu	r2,-270(fp)
   41160:	10ffffcc 	andi	r3,r2,65535
   41164:	e0bf6e17 	ldw	r2,-584(fp)
   41168:	10c00315 	stw	r3,12(r2)
                pFile->ClusterSeq = 0;
   4116c:	e0bf6e17 	ldw	r2,-584(fp)
   41170:	10000415 	stw	zero,16(r2)
                pFile->Fat = Fat;
   41174:	e0bf6e17 	ldw	r2,-584(fp)
   41178:	e0fffe17 	ldw	r3,-8(fp)
   4117c:	10c04f15 	stw	r3,316(r2)
            }    
        }    
    }  

    
    return (FAT_FILE_HANDLE)pFile;  
   41180:	e0bf6e17 	ldw	r2,-584(fp)
}
   41184:	e037883a 	mov	sp,fp
   41188:	dfc00117 	ldw	ra,4(sp)
   4118c:	df000017 	ldw	fp,0(sp)
   41190:	dec00204 	addi	sp,sp,8
   41194:	f800283a 	ret

00041198 <Fat_FileSize>:


unsigned int Fat_FileSize(FAT_FILE_HANDLE hFileHandle){
   41198:	defffd04 	addi	sp,sp,-12
   4119c:	df000215 	stw	fp,8(sp)
   411a0:	df000204 	addi	fp,sp,8
   411a4:	e13fff15 	stw	r4,-4(fp)
    FAT_FILE_INFO *f = (FAT_FILE_INFO *)hFileHandle;
   411a8:	e0bfff17 	ldw	r2,-4(fp)
   411ac:	e0bffe15 	stw	r2,-8(fp)
    if (f->IsOpened)
   411b0:	e0bffe17 	ldw	r2,-8(fp)
   411b4:	10800017 	ldw	r2,0(r2)
   411b8:	10000326 	beq	r2,zero,411c8 <Fat_FileSize+0x30>
        return f->Directory.FileSize;
   411bc:	e0bffe17 	ldw	r2,-8(fp)
   411c0:	10804e17 	ldw	r2,312(r2)
   411c4:	00000106 	br	411cc <Fat_FileSize+0x34>
    return 0;        
   411c8:	0005883a 	mov	r2,zero
}
   411cc:	e037883a 	mov	sp,fp
   411d0:	df000017 	ldw	fp,0(sp)
   411d4:	dec00104 	addi	sp,sp,4
   411d8:	f800283a 	ret

000411dc <Fat_FileRead>:


bool Fat_FileRead(FAT_FILE_HANDLE hFileHandle, void *pBuffer, const int nBufferSize){
   411dc:	deffef04 	addi	sp,sp,-68
   411e0:	dfc01015 	stw	ra,64(sp)
   411e4:	df000f15 	stw	fp,60(sp)
   411e8:	df000f04 	addi	fp,sp,60
   411ec:	e13ffd15 	stw	r4,-12(fp)
   411f0:	e17ffe15 	stw	r5,-8(fp)
   411f4:	e1bfff15 	stw	r6,-4(fp)
    FAT_FILE_INFO *f = (FAT_FILE_INFO *)hFileHandle;
   411f8:	e0bffd17 	ldw	r2,-12(fp)
   411fc:	e0bff915 	stw	r2,-28(fp)
    VOLUME_INFO *pVol;
    alt_u32 Pos, PhysicalSecter, NextCluster, Cluster;
    alt_u32 BytesPerCluster, nReadCount=0, nClusterSeq;
   41200:	e03ff415 	stw	zero,-48(fp)
    int s;
    bool bSuccess= TRUE;
   41204:	00800044 	movi	r2,1
   41208:	e0bff715 	stw	r2,-36(fp)
    
    if (!f || !f->Fat)
   4120c:	e0bff917 	ldw	r2,-28(fp)
   41210:	10000326 	beq	r2,zero,41220 <Fat_FileRead+0x44>
   41214:	e0bff917 	ldw	r2,-28(fp)
   41218:	10804f17 	ldw	r2,316(r2)
   4121c:	1000021e 	bne	r2,zero,41228 <Fat_FileRead+0x4c>
        return FALSE;
   41220:	0005883a 	mov	r2,zero
   41224:	00010906 	br	4164c <Fat_FileRead+0x470>
    pVol = (VOLUME_INFO *)f->Fat;        
   41228:	e0bff917 	ldw	r2,-28(fp)
   4122c:	10804f17 	ldw	r2,316(r2)
   41230:	e0bffa15 	stw	r2,-24(fp)
    
    if (!f->IsOpened){
   41234:	e0bff917 	ldw	r2,-28(fp)
   41238:	10800017 	ldw	r2,0(r2)
   4123c:	1000021e 	bne	r2,zero,41248 <Fat_FileRead+0x6c>
        FAT_DEBUG(("[FAT] Fat_FileRead, file not opened\r\n"));
        return bSuccess;
   41240:	e0bff717 	ldw	r2,-36(fp)
   41244:	00010106 	br	4164c <Fat_FileRead+0x470>
    }        
        
    BytesPerCluster = pVol->nBytesPerCluster; //gVolumeInfo.BPB_BytsPerSec * gVolumeInfo.BPB_SecPerCluster;  
   41248:	e0bffa17 	ldw	r2,-24(fp)
   4124c:	10800c17 	ldw	r2,48(r2)
   41250:	e0bffb15 	stw	r2,-20(fp)
    Pos = f->SeekPos;
   41254:	e0bff917 	ldw	r2,-28(fp)
   41258:	10800217 	ldw	r2,8(r2)
   4125c:	e0bff115 	stw	r2,-60(fp)
    if (BytesPerCluster == 32768){
   41260:	e0fffb17 	ldw	r3,-20(fp)
   41264:	00a00014 	movui	r2,32768
   41268:	18800a1e 	bne	r3,r2,41294 <Fat_FileRead+0xb8>
        nClusterSeq = Pos >> 15;
   4126c:	e0bff117 	ldw	r2,-60(fp)
   41270:	1004d3fa 	srli	r2,r2,15
   41274:	e0bff515 	stw	r2,-44(fp)
        Pos -= (f->ClusterSeq << 15);
   41278:	e0bff917 	ldw	r2,-28(fp)
   4127c:	10800417 	ldw	r2,16(r2)
   41280:	100493fa 	slli	r2,r2,15
   41284:	e0fff117 	ldw	r3,-60(fp)
   41288:	1885c83a 	sub	r2,r3,r2
   4128c:	e0bff115 	stw	r2,-60(fp)
   41290:	00002706 	br	41330 <Fat_FileRead+0x154>
    }else if (BytesPerCluster == 16384){
   41294:	e0bffb17 	ldw	r2,-20(fp)
   41298:	10900018 	cmpnei	r2,r2,16384
   4129c:	10000a1e 	bne	r2,zero,412c8 <Fat_FileRead+0xec>
        nClusterSeq = Pos >> 14;
   412a0:	e0bff117 	ldw	r2,-60(fp)
   412a4:	1004d3ba 	srli	r2,r2,14
   412a8:	e0bff515 	stw	r2,-44(fp)
        Pos -= (f->ClusterSeq << 14);
   412ac:	e0bff917 	ldw	r2,-28(fp)
   412b0:	10800417 	ldw	r2,16(r2)
   412b4:	100493ba 	slli	r2,r2,14
   412b8:	e0fff117 	ldw	r3,-60(fp)
   412bc:	1885c83a 	sub	r2,r3,r2
   412c0:	e0bff115 	stw	r2,-60(fp)
   412c4:	00001a06 	br	41330 <Fat_FileRead+0x154>
    }else if (BytesPerCluster == 2048){
   412c8:	e0bffb17 	ldw	r2,-20(fp)
   412cc:	10820018 	cmpnei	r2,r2,2048
   412d0:	10000a1e 	bne	r2,zero,412fc <Fat_FileRead+0x120>
        nClusterSeq = Pos >> 11;
   412d4:	e0bff117 	ldw	r2,-60(fp)
   412d8:	1004d2fa 	srli	r2,r2,11
   412dc:	e0bff515 	stw	r2,-44(fp)
        Pos -= (f->ClusterSeq << 11);
   412e0:	e0bff917 	ldw	r2,-28(fp)
   412e4:	10800417 	ldw	r2,16(r2)
   412e8:	100492fa 	slli	r2,r2,11
   412ec:	e0fff117 	ldw	r3,-60(fp)
   412f0:	1885c83a 	sub	r2,r3,r2
   412f4:	e0bff115 	stw	r2,-60(fp)
   412f8:	00000d06 	br	41330 <Fat_FileRead+0x154>
    }else{        
        nClusterSeq = Pos/BytesPerCluster;
   412fc:	e13ff117 	ldw	r4,-60(fp)
   41300:	e17ffb17 	ldw	r5,-20(fp)
   41304:	00453100 	call	45310 <__udivsi3>
   41308:	e0bff515 	stw	r2,-44(fp)
        Pos -= f->ClusterSeq*BytesPerCluster;
   4130c:	e0bff917 	ldw	r2,-28(fp)
   41310:	10800417 	ldw	r2,16(r2)
   41314:	1009883a 	mov	r4,r2
   41318:	e17ffb17 	ldw	r5,-20(fp)
   4131c:	00453200 	call	45320 <__mulsi3>
   41320:	1007883a 	mov	r3,r2
   41324:	e0bff117 	ldw	r2,-60(fp)
   41328:	10c5c83a 	sub	r2,r2,r3
   4132c:	e0bff115 	stw	r2,-60(fp)
    }    
        
       
    Cluster = f->Cluster;
   41330:	e0bff917 	ldw	r2,-28(fp)
   41334:	10800317 	ldw	r2,12(r2)
   41338:	e0bff315 	stw	r2,-52(fp)
    if (nClusterSeq != f->ClusterSeq){
   4133c:	e0bff917 	ldw	r2,-28(fp)
   41340:	10c00417 	ldw	r3,16(r2)
   41344:	e0bff517 	ldw	r2,-44(fp)
   41348:	18801f26 	beq	r3,r2,413c8 <Fat_FileRead+0x1ec>
        Cluster = f->Cluster;  //11/20/2007, richard
   4134c:	e0bff917 	ldw	r2,-28(fp)
   41350:	10800317 	ldw	r2,12(r2)
   41354:	e0bff315 	stw	r2,-52(fp)
        // move to first clustor for reading
        while (Pos >= BytesPerCluster && bSuccess){
   41358:	00001606 	br	413b4 <Fat_FileRead+0x1d8>
            // go to next cluster
            NextCluster = fatNextCluster(pVol, Cluster); 
   4135c:	e13ffa17 	ldw	r4,-24(fp)
   41360:	e17ff317 	ldw	r5,-52(fp)
   41364:	0041b3c0 	call	41b3c <fatNextCluster>
   41368:	e0bffc15 	stw	r2,-16(fp)
            if (NextCluster == 0){
   4136c:	e0bffc17 	ldw	r2,-16(fp)
   41370:	1000021e 	bne	r2,zero,4137c <Fat_FileRead+0x1a0>
                bSuccess = FALSE;
   41374:	e03ff715 	stw	zero,-36(fp)
   41378:	00000206 	br	41384 <Fat_FileRead+0x1a8>
                FAT_DEBUG(("[FAT] Fat_FileRead, no next Cluster, current Cluster=%d\r\n", Cluster));
            }else{
                Cluster = NextCluster;
   4137c:	e0bffc17 	ldw	r2,-16(fp)
   41380:	e0bff315 	stw	r2,-52(fp)
            }        
            Pos -= BytesPerCluster;
   41384:	e0fff117 	ldw	r3,-60(fp)
   41388:	e0bffb17 	ldw	r2,-20(fp)
   4138c:	1885c83a 	sub	r2,r3,r2
   41390:	e0bff115 	stw	r2,-60(fp)
            f->Cluster = Cluster;
   41394:	e0bff917 	ldw	r2,-28(fp)
   41398:	e0fff317 	ldw	r3,-52(fp)
   4139c:	10c00315 	stw	r3,12(r2)
            f->ClusterSeq++; 
   413a0:	e0bff917 	ldw	r2,-28(fp)
   413a4:	10800417 	ldw	r2,16(r2)
   413a8:	10c00044 	addi	r3,r2,1
   413ac:	e0bff917 	ldw	r2,-28(fp)
   413b0:	10c00415 	stw	r3,16(r2)
       
    Cluster = f->Cluster;
    if (nClusterSeq != f->ClusterSeq){
        Cluster = f->Cluster;  //11/20/2007, richard
        // move to first clustor for reading
        while (Pos >= BytesPerCluster && bSuccess){
   413b4:	e0fff117 	ldw	r3,-60(fp)
   413b8:	e0bffb17 	ldw	r2,-20(fp)
   413bc:	18800236 	bltu	r3,r2,413c8 <Fat_FileRead+0x1ec>
   413c0:	e0bff717 	ldw	r2,-36(fp)
   413c4:	103fe51e 	bne	r2,zero,4135c <__alt_data_end+0xfffdc96c>
            f->ClusterSeq++; 
        }
    }            
    
    // reading
    while(nReadCount < nBufferSize && bSuccess){
   413c8:	00009206 	br	41614 <Fat_FileRead+0x438>
        if (pVol->BPB_SecPerCluster == 32)
   413cc:	e0bffa17 	ldw	r2,-24(fp)
   413d0:	10800717 	ldw	r2,28(r2)
   413d4:	10800818 	cmpnei	r2,r2,32
   413d8:	1000081e 	bne	r2,zero,413fc <Fat_FileRead+0x220>
            PhysicalSecter = ((Cluster-2) << 5) + pVol->DataEntrySecter; // -2: FAT0 & FAT1 are reserved
   413dc:	e0bff317 	ldw	r2,-52(fp)
   413e0:	10bfff84 	addi	r2,r2,-2
   413e4:	1006917a 	slli	r3,r2,5
   413e8:	e0bffa17 	ldw	r2,-24(fp)
   413ec:	10800f17 	ldw	r2,60(r2)
   413f0:	1885883a 	add	r2,r3,r2
   413f4:	e0bff215 	stw	r2,-56(fp)
   413f8:	00001806 	br	4145c <Fat_FileRead+0x280>
        else if (pVol->BPB_SecPerCluster == 64)
   413fc:	e0bffa17 	ldw	r2,-24(fp)
   41400:	10800717 	ldw	r2,28(r2)
   41404:	10801018 	cmpnei	r2,r2,64
   41408:	1000081e 	bne	r2,zero,4142c <Fat_FileRead+0x250>
            PhysicalSecter = ((Cluster-2) << 6) + pVol->DataEntrySecter; // -2: FAT0 & FAT1 are reserved
   4140c:	e0bff317 	ldw	r2,-52(fp)
   41410:	10bfff84 	addi	r2,r2,-2
   41414:	100691ba 	slli	r3,r2,6
   41418:	e0bffa17 	ldw	r2,-24(fp)
   4141c:	10800f17 	ldw	r2,60(r2)
   41420:	1885883a 	add	r2,r3,r2
   41424:	e0bff215 	stw	r2,-56(fp)
   41428:	00000c06 	br	4145c <Fat_FileRead+0x280>
        else
            PhysicalSecter = (Cluster-2)*pVol->BPB_SecPerCluster + pVol->DataEntrySecter; // -2: FAT0 & FAT1 are reserved
   4142c:	e0bff317 	ldw	r2,-52(fp)
   41430:	10ffff84 	addi	r3,r2,-2
   41434:	e0bffa17 	ldw	r2,-24(fp)
   41438:	10800717 	ldw	r2,28(r2)
   4143c:	1809883a 	mov	r4,r3
   41440:	100b883a 	mov	r5,r2
   41444:	00453200 	call	45320 <__mulsi3>
   41448:	1007883a 	mov	r3,r2
   4144c:	e0bffa17 	ldw	r2,-24(fp)
   41450:	10800f17 	ldw	r2,60(r2)
   41454:	1885883a 	add	r2,r3,r2
   41458:	e0bff215 	stw	r2,-56(fp)
        for(s=0;s<pVol->BPB_SecPerCluster && nReadCount < nBufferSize && bSuccess;s++){
   4145c:	e03ff615 	stw	zero,-40(fp)
   41460:	00004e06 	br	4159c <Fat_FileRead+0x3c0>
            if (Pos >= pVol->BPB_BytsPerSec){
   41464:	e0bffa17 	ldw	r2,-24(fp)
   41468:	10800617 	ldw	r2,24(r2)
   4146c:	e0fff117 	ldw	r3,-60(fp)
   41470:	18800636 	bltu	r3,r2,4148c <Fat_FileRead+0x2b0>
                Pos -= pVol->BPB_BytsPerSec;
   41474:	e0bffa17 	ldw	r2,-24(fp)
   41478:	10800617 	ldw	r2,24(r2)
   4147c:	e0fff117 	ldw	r3,-60(fp)
   41480:	1885c83a 	sub	r2,r3,r2
   41484:	e0bff115 	stw	r2,-60(fp)
   41488:	00003e06 	br	41584 <Fat_FileRead+0x3a8>
            }else{
                // read secter data
                bSuccess = fatReadSecter(pVol, PhysicalSecter);
   4148c:	e13ffa17 	ldw	r4,-24(fp)
   41490:	e17ff217 	ldw	r5,-56(fp)
   41494:	00424480 	call	42448 <fatReadSecter>
   41498:	e0bff715 	stw	r2,-36(fp)
                
                if (bSuccess){
   4149c:	e0bff717 	ldw	r2,-36(fp)
   414a0:	10003826 	beq	r2,zero,41584 <Fat_FileRead+0x3a8>
                    // copy data to user buffer
                
                    int nCopyCount;
                    nCopyCount = pVol->BPB_BytsPerSec;
   414a4:	e0bffa17 	ldw	r2,-24(fp)
   414a8:	10800617 	ldw	r2,24(r2)
   414ac:	e0bff815 	stw	r2,-32(fp)
                    if (Pos)
   414b0:	e0bff117 	ldw	r2,-60(fp)
   414b4:	10000426 	beq	r2,zero,414c8 <Fat_FileRead+0x2ec>
                        nCopyCount -= Pos;
   414b8:	e0fff817 	ldw	r3,-32(fp)
   414bc:	e0bff117 	ldw	r2,-60(fp)
   414c0:	1885c83a 	sub	r2,r3,r2
   414c4:	e0bff815 	stw	r2,-32(fp)
                    if (nCopyCount > (nBufferSize-nReadCount))
   414c8:	e0bff817 	ldw	r2,-32(fp)
   414cc:	e13fff17 	ldw	r4,-4(fp)
   414d0:	e0fff417 	ldw	r3,-48(fp)
   414d4:	20c7c83a 	sub	r3,r4,r3
   414d8:	1880042e 	bgeu	r3,r2,414ec <Fat_FileRead+0x310>
                        nCopyCount = nBufferSize-nReadCount;
   414dc:	e0ffff17 	ldw	r3,-4(fp)
   414e0:	e0bff417 	ldw	r2,-48(fp)
   414e4:	1885c83a 	sub	r2,r3,r2
   414e8:	e0bff815 	stw	r2,-32(fp)
                    if (nCopyCount == 512){
   414ec:	e0bff817 	ldw	r2,-32(fp)
   414f0:	10808018 	cmpnei	r2,r2,512
   414f4:	1000111e 	bne	r2,zero,4153c <Fat_FileRead+0x360>
                        memcpy((char *)pBuffer+nReadCount, pVol->Secter_Data, 512);
   414f8:	e0fffe17 	ldw	r3,-8(fp)
   414fc:	e0bff417 	ldw	r2,-48(fp)
   41500:	1887883a 	add	r3,r3,r2
   41504:	e0bffa17 	ldw	r2,-24(fp)
   41508:	10801004 	addi	r2,r2,64
   4150c:	1809883a 	mov	r4,r3
   41510:	100b883a 	mov	r5,r2
   41514:	01808004 	movi	r6,512
   41518:	00471540 	call	47154 <memcpy>
                        nReadCount += nCopyCount;
   4151c:	e0bff817 	ldw	r2,-32(fp)
   41520:	e0fff417 	ldw	r3,-48(fp)
   41524:	1885883a 	add	r2,r3,r2
   41528:	e0bff415 	stw	r2,-48(fp)
                        if (Pos > 0)
   4152c:	e0bff117 	ldw	r2,-60(fp)
   41530:	10001426 	beq	r2,zero,41584 <Fat_FileRead+0x3a8>
                            Pos = 0;
   41534:	e03ff115 	stw	zero,-60(fp)
   41538:	00001206 	br	41584 <Fat_FileRead+0x3a8>
                    }else{
                        memcpy((void *)((char *)pBuffer+nReadCount), pVol->Secter_Data+Pos,nCopyCount);
   4153c:	e0fffe17 	ldw	r3,-8(fp)
   41540:	e0bff417 	ldw	r2,-48(fp)
   41544:	1889883a 	add	r4,r3,r2
   41548:	e0bff117 	ldw	r2,-60(fp)
   4154c:	10801004 	addi	r2,r2,64
   41550:	e0fffa17 	ldw	r3,-24(fp)
   41554:	1887883a 	add	r3,r3,r2
   41558:	e0bff817 	ldw	r2,-32(fp)
   4155c:	180b883a 	mov	r5,r3
   41560:	100d883a 	mov	r6,r2
   41564:	00471540 	call	47154 <memcpy>
                        nReadCount += nCopyCount;
   41568:	e0bff817 	ldw	r2,-32(fp)
   4156c:	e0fff417 	ldw	r3,-48(fp)
   41570:	1885883a 	add	r2,r3,r2
   41574:	e0bff415 	stw	r2,-48(fp)
                        if (Pos > 0)
   41578:	e0bff117 	ldw	r2,-60(fp)
   4157c:	10000126 	beq	r2,zero,41584 <Fat_FileRead+0x3a8>
                            Pos = 0;
   41580:	e03ff115 	stw	zero,-60(fp)
                    }         
                }    // if bSuccess
                    
            }
            PhysicalSecter++;
   41584:	e0bff217 	ldw	r2,-56(fp)
   41588:	10800044 	addi	r2,r2,1
   4158c:	e0bff215 	stw	r2,-56(fp)
            PhysicalSecter = ((Cluster-2) << 5) + pVol->DataEntrySecter; // -2: FAT0 & FAT1 are reserved
        else if (pVol->BPB_SecPerCluster == 64)
            PhysicalSecter = ((Cluster-2) << 6) + pVol->DataEntrySecter; // -2: FAT0 & FAT1 are reserved
        else
            PhysicalSecter = (Cluster-2)*pVol->BPB_SecPerCluster + pVol->DataEntrySecter; // -2: FAT0 & FAT1 are reserved
        for(s=0;s<pVol->BPB_SecPerCluster && nReadCount < nBufferSize && bSuccess;s++){
   41590:	e0bff617 	ldw	r2,-40(fp)
   41594:	10800044 	addi	r2,r2,1
   41598:	e0bff615 	stw	r2,-40(fp)
   4159c:	e0fff617 	ldw	r3,-40(fp)
   415a0:	e0bffa17 	ldw	r2,-24(fp)
   415a4:	10800717 	ldw	r2,28(r2)
   415a8:	1880052e 	bgeu	r3,r2,415c0 <Fat_FileRead+0x3e4>
   415ac:	e0bfff17 	ldw	r2,-4(fp)
   415b0:	e0fff417 	ldw	r3,-48(fp)
   415b4:	1880022e 	bgeu	r3,r2,415c0 <Fat_FileRead+0x3e4>
   415b8:	e0bff717 	ldw	r2,-36(fp)
   415bc:	103fa91e 	bne	r2,zero,41464 <__alt_data_end+0xfffdca74>
            }
            PhysicalSecter++;
        }    
            
        // next cluster
        if (nReadCount < nBufferSize){
   415c0:	e0bfff17 	ldw	r2,-4(fp)
   415c4:	e0fff417 	ldw	r3,-48(fp)
   415c8:	1880122e 	bgeu	r3,r2,41614 <Fat_FileRead+0x438>
            NextCluster = fatNextCluster(pVol, Cluster); 
   415cc:	e13ffa17 	ldw	r4,-24(fp)
   415d0:	e17ff317 	ldw	r5,-52(fp)
   415d4:	0041b3c0 	call	41b3c <fatNextCluster>
   415d8:	e0bffc15 	stw	r2,-16(fp)
            if (NextCluster == 0){
   415dc:	e0bffc17 	ldw	r2,-16(fp)
   415e0:	1000021e 	bne	r2,zero,415ec <Fat_FileRead+0x410>
                bSuccess = FALSE;
   415e4:	e03ff715 	stw	zero,-36(fp)
   415e8:	00000206 	br	415f4 <Fat_FileRead+0x418>
                FAT_DEBUG(("[FAT] Fat_FileRead, no next cluster\r\n"));
            }else{
                Cluster = NextCluster;
   415ec:	e0bffc17 	ldw	r2,-16(fp)
   415f0:	e0bff315 	stw	r2,-52(fp)
            }    
            //    
            f->ClusterSeq++; 
   415f4:	e0bff917 	ldw	r2,-28(fp)
   415f8:	10800417 	ldw	r2,16(r2)
   415fc:	10c00044 	addi	r3,r2,1
   41600:	e0bff917 	ldw	r2,-28(fp)
   41604:	10c00415 	stw	r3,16(r2)
            f->Cluster = Cluster;
   41608:	e0bff917 	ldw	r2,-28(fp)
   4160c:	e0fff317 	ldw	r3,-52(fp)
   41610:	10c00315 	stw	r3,12(r2)
            f->ClusterSeq++; 
        }
    }            
    
    // reading
    while(nReadCount < nBufferSize && bSuccess){
   41614:	e0bfff17 	ldw	r2,-4(fp)
   41618:	e0fff417 	ldw	r3,-48(fp)
   4161c:	1880022e 	bgeu	r3,r2,41628 <Fat_FileRead+0x44c>
   41620:	e0bff717 	ldw	r2,-36(fp)
   41624:	103f691e 	bne	r2,zero,413cc <__alt_data_end+0xfffdc9dc>
            f->ClusterSeq++; 
            f->Cluster = Cluster;
        }                    
    }
    
    if (bSuccess){
   41628:	e0bff717 	ldw	r2,-36(fp)
   4162c:	10000626 	beq	r2,zero,41648 <Fat_FileRead+0x46c>
        f->SeekPos += nBufferSize;
   41630:	e0bff917 	ldw	r2,-28(fp)
   41634:	10c00217 	ldw	r3,8(r2)
   41638:	e0bfff17 	ldw	r2,-4(fp)
   4163c:	1887883a 	add	r3,r3,r2
   41640:	e0bff917 	ldw	r2,-28(fp)
   41644:	10c00215 	stw	r3,8(r2)
    }        
        
    
    return bSuccess;
   41648:	e0bff717 	ldw	r2,-36(fp)
}
   4164c:	e037883a 	mov	sp,fp
   41650:	dfc00117 	ldw	ra,4(sp)
   41654:	df000017 	ldw	fp,0(sp)
   41658:	dec00204 	addi	sp,sp,8
   4165c:	f800283a 	ret

00041660 <Fat_FileSeek>:


bool Fat_FileSeek(FAT_FILE_HANDLE hFileHandle, const FAT_SEEK_POS SeekPos, const int nOffset){
   41660:	defff904 	addi	sp,sp,-28
   41664:	df000615 	stw	fp,24(sp)
   41668:	df000604 	addi	fp,sp,24
   4166c:	e13ffd15 	stw	r4,-12(fp)
   41670:	e17ffe15 	stw	r5,-8(fp)
   41674:	e1bfff15 	stw	r6,-4(fp)
    FAT_FILE_INFO *f = (FAT_FILE_INFO *)hFileHandle;
   41678:	e0bffd17 	ldw	r2,-12(fp)
   4167c:	e0bffb15 	stw	r2,-20(fp)
    VOLUME_INFO *pVol;
    bool bSuccess= TRUE;
   41680:	00800044 	movi	r2,1
   41684:	e0bffa15 	stw	r2,-24(fp)

    if (!f || !f->Fat)
   41688:	e0bffb17 	ldw	r2,-20(fp)
   4168c:	10000326 	beq	r2,zero,4169c <Fat_FileSeek+0x3c>
   41690:	e0bffb17 	ldw	r2,-20(fp)
   41694:	10804f17 	ldw	r2,316(r2)
   41698:	1000021e 	bne	r2,zero,416a4 <Fat_FileSeek+0x44>
        return FALSE;
   4169c:	0005883a 	mov	r2,zero
   416a0:	00002b06 	br	41750 <Fat_FileSeek+0xf0>
    pVol = (VOLUME_INFO *)f->Fat;        
   416a4:	e0bffb17 	ldw	r2,-20(fp)
   416a8:	10804f17 	ldw	r2,316(r2)
   416ac:	e0bffc15 	stw	r2,-16(fp)
    
    if (!f->IsOpened)
   416b0:	e0bffb17 	ldw	r2,-20(fp)
   416b4:	10800017 	ldw	r2,0(r2)
   416b8:	1000021e 	bne	r2,zero,416c4 <Fat_FileSeek+0x64>
        return FALSE;
   416bc:	0005883a 	mov	r2,zero
   416c0:	00002306 	br	41750 <Fat_FileSeek+0xf0>
        
    switch(SeekPos){
   416c4:	e0bffe17 	ldw	r2,-8(fp)
   416c8:	10c00060 	cmpeqi	r3,r2,1
   416cc:	1800081e 	bne	r3,zero,416f0 <Fat_FileSeek+0x90>
   416d0:	0080032e 	bgeu	zero,r2,416e0 <Fat_FileSeek+0x80>
   416d4:	108000a0 	cmpeqi	r2,r2,2
   416d8:	10000c1e 	bne	r2,zero,4170c <Fat_FileSeek+0xac>
   416dc:	00001206 	br	41728 <Fat_FileSeek+0xc8>
        case FILE_SEEK_BEGIN: 
            f->SeekPos = nOffset; 
   416e0:	e0ffff17 	ldw	r3,-4(fp)
   416e4:	e0bffb17 	ldw	r2,-20(fp)
   416e8:	10c00215 	stw	r3,8(r2)
            break;
   416ec:	00001006 	br	41730 <Fat_FileSeek+0xd0>
        case FILE_SEEK_CURRENT: 
            f->SeekPos += nOffset; 
   416f0:	e0bffb17 	ldw	r2,-20(fp)
   416f4:	10c00217 	ldw	r3,8(r2)
   416f8:	e0bfff17 	ldw	r2,-4(fp)
   416fc:	1887883a 	add	r3,r3,r2
   41700:	e0bffb17 	ldw	r2,-20(fp)
   41704:	10c00215 	stw	r3,8(r2)
            break;
   41708:	00000906 	br	41730 <Fat_FileSeek+0xd0>
        case FILE_SEEK_END: 
            f->SeekPos = f->Directory.FileSize+nOffset; 
   4170c:	e0bffb17 	ldw	r2,-20(fp)
   41710:	10c04e17 	ldw	r3,312(r2)
   41714:	e0bfff17 	ldw	r2,-4(fp)
   41718:	1887883a 	add	r3,r3,r2
   4171c:	e0bffb17 	ldw	r2,-20(fp)
   41720:	10c00215 	stw	r3,8(r2)
            break;
   41724:	00000206 	br	41730 <Fat_FileSeek+0xd0>
        default:
            bSuccess = FALSE;
   41728:	e03ffa15 	stw	zero,-24(fp)
            break;    
   4172c:	0001883a 	nop
              
    }
    f->Cluster = f->Directory.FirstLogicalCluster;
   41730:	e0bffb17 	ldw	r2,-20(fp)
   41734:	10804d8b 	ldhu	r2,310(r2)
   41738:	10ffffcc 	andi	r3,r2,65535
   4173c:	e0bffb17 	ldw	r2,-20(fp)
   41740:	10c00315 	stw	r3,12(r2)
    f->ClusterSeq = 0;
   41744:	e0bffb17 	ldw	r2,-20(fp)
   41748:	10000415 	stw	zero,16(r2)
    
    return bSuccess;
   4174c:	e0bffa17 	ldw	r2,-24(fp)
    
}
   41750:	e037883a 	mov	sp,fp
   41754:	df000017 	ldw	fp,0(sp)
   41758:	dec00104 	addi	sp,sp,4
   4175c:	f800283a 	ret

00041760 <Fat_FileClose>:

void Fat_FileClose(FAT_FILE_HANDLE hFileHandle){
   41760:	defffc04 	addi	sp,sp,-16
   41764:	dfc00315 	stw	ra,12(sp)
   41768:	df000215 	stw	fp,8(sp)
   4176c:	df000204 	addi	fp,sp,8
   41770:	e13fff15 	stw	r4,-4(fp)
    FAT_FILE_INFO *f = (FAT_FILE_INFO *)hFileHandle;
   41774:	e0bfff17 	ldw	r2,-4(fp)
   41778:	e0bffe15 	stw	r2,-8(fp)
    if (!f)
   4177c:	e0bffe17 	ldw	r2,-8(fp)
   41780:	1000011e 	bne	r2,zero,41788 <Fat_FileClose+0x28>
        return;
   41784:	00000206 	br	41790 <Fat_FileClose+0x30>
        
    free(f);        
   41788:	e13ffe17 	ldw	r4,-8(fp)
   4178c:	00469980 	call	46998 <free>
}
   41790:	e037883a 	mov	sp,fp
   41794:	dfc00117 	ldw	ra,4(sp)
   41798:	df000017 	ldw	fp,0(sp)
   4179c:	dec00204 	addi	sp,sp,8
   417a0:	f800283a 	ret

000417a4 <Fat_SpeedTest>:



float Fat_SpeedTest(FAT_HANDLE hFat, alt_u32 TestDurInMs){
   417a4:	deff7304 	addi	sp,sp,-564
   417a8:	dfc08c15 	stw	ra,560(sp)
   417ac:	df008b15 	stw	fp,556(sp)
   417b0:	dc008a15 	stw	r16,552(sp)
   417b4:	df008b04 	addi	fp,sp,556
   417b8:	e13ffd15 	stw	r4,-12(fp)
   417bc:	e17ffe15 	stw	r5,-8(fp)
    bool bSuccess = TRUE;
   417c0:	00800044 	movi	r2,1
   417c4:	e0bf7515 	stw	r2,-556(fp)
    alt_u32 time_start, time_finish, time_elapsed, TotalReadBytes=0;
   417c8:	e03f7615 	stw	zero,-552(fp)
    int nSecter = 0;
   417cc:	e03f7715 	stw	zero,-548(fp)
    float fMegaBytePerSec = 0;
   417d0:	e03f7815 	stw	zero,-544(fp)
    char szBlock[512];
    VOLUME_INFO *pVol = (VOLUME_INFO *)hFat;
   417d4:	e0bffd17 	ldw	r2,-12(fp)
   417d8:	e0bf7915 	stw	r2,-540(fp)
    if (!pVol)
   417dc:	e0bf7917 	ldw	r2,-540(fp)
   417e0:	1000021e 	bne	r2,zero,417ec <Fat_SpeedTest+0x48>
        return 0;
   417e4:	0005883a 	mov	r2,zero
   417e8:	00006d06 	br	419a0 <Fat_SpeedTest+0x1fc>
 * alt_nticks() returns the elapsed number of system clock ticks since reset.
 */

static ALT_INLINE alt_u32 ALT_ALWAYS_INLINE alt_nticks (void)
{
  return _alt_nticks;
   417ec:	008001b4 	movhi	r2,6
   417f0:	10b29b04 	addi	r2,r2,-13716
   417f4:	10800017 	ldw	r2,0(r2)
    time_start = alt_nticks();
   417f8:	e0bf7a15 	stw	r2,-536(fp)
   417fc:	008001b4 	movhi	r2,6
   41800:	10b29b04 	addi	r2,r2,-13716
   41804:	14000017 	ldw	r16,0(r2)
    time_finish = alt_nticks() + TestDurInMs * 1000 / alt_ticks_per_second();
   41808:	e13ffe17 	ldw	r4,-8(fp)
   4180c:	0140fa04 	movi	r5,1000
   41810:	00453200 	call	45320 <__mulsi3>
   41814:	1007883a 	mov	r3,r2
 * Obtain the system clock rate in ticks/s. 
 */

static ALT_INLINE alt_u32 ALT_ALWAYS_INLINE alt_ticks_per_second (void)
{
  return _alt_tick_rate;
   41818:	008001b4 	movhi	r2,6
   4181c:	10b29a04 	addi	r2,r2,-13720
   41820:	10800017 	ldw	r2,0(r2)
   41824:	1809883a 	mov	r4,r3
   41828:	100b883a 	mov	r5,r2
   4182c:	00453100 	call	45310 <__udivsi3>
   41830:	8085883a 	add	r2,r16,r2
   41834:	e0bf7b15 	stw	r2,-532(fp)
    while(alt_nticks() < time_finish && bSuccess){
   41838:	00000f06 	br	41878 <Fat_SpeedTest+0xd4>
        bSuccess = pVol->ReadBlock512(pVol->DiskHandle, nSecter, szBlock);
   4183c:	e0bf7917 	ldw	r2,-540(fp)
   41840:	10800117 	ldw	r2,4(r2)
   41844:	e0ff7917 	ldw	r3,-540(fp)
   41848:	19000017 	ldw	r4,0(r3)
   4184c:	e17f7717 	ldw	r5,-548(fp)
   41850:	e0ff7d04 	addi	r3,fp,-524
   41854:	180d883a 	mov	r6,r3
   41858:	103ee83a 	callr	r2
   4185c:	e0bf7515 	stw	r2,-556(fp)
        nSecter++;
   41860:	e0bf7717 	ldw	r2,-548(fp)
   41864:	10800044 	addi	r2,r2,1
   41868:	e0bf7715 	stw	r2,-548(fp)
        TotalReadBytes += sizeof(szBlock);
   4186c:	e0bf7617 	ldw	r2,-552(fp)
   41870:	10808004 	addi	r2,r2,512
   41874:	e0bf7615 	stw	r2,-552(fp)
 * alt_nticks() returns the elapsed number of system clock ticks since reset.
 */

static ALT_INLINE alt_u32 ALT_ALWAYS_INLINE alt_nticks (void)
{
  return _alt_nticks;
   41878:	008001b4 	movhi	r2,6
   4187c:	10b29b04 	addi	r2,r2,-13716
   41880:	10c00017 	ldw	r3,0(r2)
    VOLUME_INFO *pVol = (VOLUME_INFO *)hFat;
    if (!pVol)
        return 0;
    time_start = alt_nticks();
    time_finish = alt_nticks() + TestDurInMs * 1000 / alt_ticks_per_second();
    while(alt_nticks() < time_finish && bSuccess){
   41884:	e0bf7b17 	ldw	r2,-532(fp)
   41888:	1880022e 	bgeu	r3,r2,41894 <Fat_SpeedTest+0xf0>
   4188c:	e0bf7517 	ldw	r2,-556(fp)
   41890:	103fea1e 	bne	r2,zero,4183c <__alt_data_end+0xfffdce4c>
        bSuccess = pVol->ReadBlock512(pVol->DiskHandle, nSecter, szBlock);
        nSecter++;
        TotalReadBytes += sizeof(szBlock);
        
    }        
    if (bSuccess){
   41894:	e0bf7517 	ldw	r2,-556(fp)
   41898:	10003726 	beq	r2,zero,41978 <Fat_SpeedTest+0x1d4>
   4189c:	008001b4 	movhi	r2,6
   418a0:	10b29b04 	addi	r2,r2,-13716
   418a4:	10c00017 	ldw	r3,0(r2)
        time_elapsed = alt_nticks() - time_start;
   418a8:	e0bf7a17 	ldw	r2,-536(fp)
   418ac:	1885c83a 	sub	r2,r3,r2
   418b0:	e0bf7c15 	stw	r2,-528(fp)
        fMegaBytePerSec = (float)TotalReadBytes * (float)alt_ticks_per_second() / (float)time_elapsed / 1024.0 / 1024.0;
   418b4:	e13f7617 	ldw	r4,-552(fp)
   418b8:	0045be80 	call	45be8 <__floatunsisf>
   418bc:	1021883a 	mov	r16,r2
 * Obtain the system clock rate in ticks/s. 
 */

static ALT_INLINE alt_u32 ALT_ALWAYS_INLINE alt_ticks_per_second (void)
{
  return _alt_tick_rate;
   418c0:	008001b4 	movhi	r2,6
   418c4:	10b29a04 	addi	r2,r2,-13720
   418c8:	10800017 	ldw	r2,0(r2)
   418cc:	1009883a 	mov	r4,r2
   418d0:	0045be80 	call	45be8 <__floatunsisf>
   418d4:	1007883a 	mov	r3,r2
   418d8:	8009883a 	mov	r4,r16
   418dc:	180b883a 	mov	r5,r3
   418e0:	00457980 	call	45798 <__mulsf3>
   418e4:	1007883a 	mov	r3,r2
   418e8:	1821883a 	mov	r16,r3
   418ec:	e13f7c17 	ldw	r4,-528(fp)
   418f0:	0045be80 	call	45be8 <__floatunsisf>
   418f4:	1007883a 	mov	r3,r2
   418f8:	8009883a 	mov	r4,r16
   418fc:	180b883a 	mov	r5,r3
   41900:	00453480 	call	45348 <__divsf3>
   41904:	1007883a 	mov	r3,r2
   41908:	1805883a 	mov	r2,r3
   4190c:	1009883a 	mov	r4,r2
   41910:	00466780 	call	46678 <__extendsfdf2>
   41914:	100b883a 	mov	r5,r2
   41918:	180d883a 	mov	r6,r3
   4191c:	2809883a 	mov	r4,r5
   41920:	300b883a 	mov	r5,r6
   41924:	000d883a 	mov	r6,zero
   41928:	01d02434 	movhi	r7,16528
   4192c:	0045cf80 	call	45cf8 <__divdf3>
   41930:	1009883a 	mov	r4,r2
   41934:	180b883a 	mov	r5,r3
   41938:	2005883a 	mov	r2,r4
   4193c:	2807883a 	mov	r3,r5
   41940:	1009883a 	mov	r4,r2
   41944:	180b883a 	mov	r5,r3
   41948:	000d883a 	mov	r6,zero
   4194c:	01d02434 	movhi	r7,16528
   41950:	0045cf80 	call	45cf8 <__divdf3>
   41954:	1009883a 	mov	r4,r2
   41958:	180b883a 	mov	r5,r3
   4195c:	2005883a 	mov	r2,r4
   41960:	2807883a 	mov	r3,r5
   41964:	1009883a 	mov	r4,r2
   41968:	180b883a 	mov	r5,r3
   4196c:	00467880 	call	46788 <__truncdfsf2>
   41970:	1007883a 	mov	r3,r2
   41974:	e0ff7815 	stw	r3,-544(fp)
    } 
    
    printf("\n--------speed:%f---------\n",fMegaBytePerSec);       
   41978:	e13f7817 	ldw	r4,-544(fp)
   4197c:	00466780 	call	46678 <__extendsfdf2>
   41980:	100d883a 	mov	r6,r2
   41984:	180f883a 	mov	r7,r3
   41988:	010001b4 	movhi	r4,6
   4198c:	2122d704 	addi	r4,r4,-29860
   41990:	300b883a 	mov	r5,r6
   41994:	380d883a 	mov	r6,r7
   41998:	00473dc0 	call	473dc <printf>
    return fMegaBytePerSec;
   4199c:	e0bf7817 	ldw	r2,-544(fp)
   419a0:	1007883a 	mov	r3,r2
    
   
}
   419a4:	1805883a 	mov	r2,r3
   419a8:	e6ffff04 	addi	sp,fp,-4
   419ac:	dfc00217 	ldw	ra,8(sp)
   419b0:	df000117 	ldw	fp,4(sp)
   419b4:	dc000017 	ldw	r16,0(sp)
   419b8:	dec00304 	addi	sp,sp,12
   419bc:	f800283a 	ret

000419c0 <fat16ClusterType>:
//extern VOLUME_INFO gVolumeInfo;




CLUSTER_TYPE fat16ClusterType(alt_u32 Fat){
   419c0:	defffd04 	addi	sp,sp,-12
   419c4:	df000215 	stw	fp,8(sp)
   419c8:	df000204 	addi	fp,sp,8
   419cc:	e13fff15 	stw	r4,-4(fp)
    CLUSTER_TYPE Type;
    Fat = Fat & 0xFFFF; // 16 bits
   419d0:	e0bfff17 	ldw	r2,-4(fp)
   419d4:	10bfffcc 	andi	r2,r2,65535
   419d8:	e0bfff15 	stw	r2,-4(fp)
    
    if (Fat > 0 && Fat < 0xFFF0)
   419dc:	e0bfff17 	ldw	r2,-4(fp)
   419e0:	10000626 	beq	r2,zero,419fc <fat16ClusterType+0x3c>
   419e4:	e0bfff17 	ldw	r2,-4(fp)
   419e8:	10bffc28 	cmpgeui	r2,r2,65520
   419ec:	1000031e 	bne	r2,zero,419fc <fat16ClusterType+0x3c>
        Type = CLUSTER_NEXT_INFILE;
   419f0:	00800104 	movi	r2,4
   419f4:	e0bffe15 	stw	r2,-8(fp)
   419f8:	00001806 	br	41a5c <fat16ClusterType+0x9c>
    else if (Fat >= 0xFFF8) // && Fat <= (unsigned short)0xFFFF)
   419fc:	e0bfff17 	ldw	r2,-4(fp)
   41a00:	10bffe30 	cmpltui	r2,r2,65528
   41a04:	1000031e 	bne	r2,zero,41a14 <fat16ClusterType+0x54>
        Type = CLUSTER_LAST_INFILE;
   41a08:	008000c4 	movi	r2,3
   41a0c:	e0bffe15 	stw	r2,-8(fp)
   41a10:	00001206 	br	41a5c <fat16ClusterType+0x9c>
    else if (Fat == (alt_u16)0x00)
   41a14:	e0bfff17 	ldw	r2,-4(fp)
   41a18:	1000021e 	bne	r2,zero,41a24 <fat16ClusterType+0x64>
        Type = CLUSTER_UNUSED;
   41a1c:	e03ffe15 	stw	zero,-8(fp)
   41a20:	00000e06 	br	41a5c <fat16ClusterType+0x9c>
    else if (Fat >= 0xFFF0 && Fat <= 0xFFF6)
   41a24:	e0bfff17 	ldw	r2,-4(fp)
   41a28:	10bffc30 	cmpltui	r2,r2,65520
   41a2c:	1000061e 	bne	r2,zero,41a48 <fat16ClusterType+0x88>
   41a30:	e0bfff17 	ldw	r2,-4(fp)
   41a34:	10bffde8 	cmpgeui	r2,r2,65527
   41a38:	1000031e 	bne	r2,zero,41a48 <fat16ClusterType+0x88>
        Type = CLUSTER_RESERVED;
   41a3c:	00800044 	movi	r2,1
   41a40:	e0bffe15 	stw	r2,-8(fp)
   41a44:	00000506 	br	41a5c <fat16ClusterType+0x9c>
    else if (Fat == 0xFFF7)
   41a48:	e0ffff17 	ldw	r3,-4(fp)
   41a4c:	00bffdd4 	movui	r2,65527
   41a50:	1880021e 	bne	r3,r2,41a5c <fat16ClusterType+0x9c>
        Type = CLUSTER_BAD;
   41a54:	00800084 	movi	r2,2
   41a58:	e0bffe15 	stw	r2,-8(fp)
        
    return Type;        
   41a5c:	e0bffe17 	ldw	r2,-8(fp)
         
}
   41a60:	e037883a 	mov	sp,fp
   41a64:	df000017 	ldw	fp,0(sp)
   41a68:	dec00104 	addi	sp,sp,4
   41a6c:	f800283a 	ret

00041a70 <fat32ClusterType>:

CLUSTER_TYPE fat32ClusterType(alt_u32 Fat){
   41a70:	defffd04 	addi	sp,sp,-12
   41a74:	df000215 	stw	fp,8(sp)
   41a78:	df000204 	addi	fp,sp,8
   41a7c:	e13fff15 	stw	r4,-4(fp)
    CLUSTER_TYPE Type;
    Fat = Fat & 0xFFFFFFF; // 28 bits
   41a80:	e0ffff17 	ldw	r3,-4(fp)
   41a84:	00840034 	movhi	r2,4096
   41a88:	10bfffc4 	addi	r2,r2,-1
   41a8c:	1884703a 	and	r2,r3,r2
   41a90:	e0bfff15 	stw	r2,-4(fp)
    
    if (Fat > 0 && Fat < 0xFFFFFF0)
   41a94:	e0bfff17 	ldw	r2,-4(fp)
   41a98:	10000726 	beq	r2,zero,41ab8 <fat32ClusterType+0x48>
   41a9c:	e0ffff17 	ldw	r3,-4(fp)
   41aa0:	00840034 	movhi	r2,4096
   41aa4:	10bffbc4 	addi	r2,r2,-17
   41aa8:	10c00336 	bltu	r2,r3,41ab8 <fat32ClusterType+0x48>
        Type = CLUSTER_NEXT_INFILE;
   41aac:	00800104 	movi	r2,4
   41ab0:	e0bffe15 	stw	r2,-8(fp)
   41ab4:	00001c06 	br	41b28 <fat32ClusterType+0xb8>
    else if (Fat >= 0xFFFFFF8) // && Fat <= (unsigned short)0xFFFF)
   41ab8:	e0ffff17 	ldw	r3,-4(fp)
   41abc:	00840034 	movhi	r2,4096
   41ac0:	10bffdc4 	addi	r2,r2,-9
   41ac4:	10c0032e 	bgeu	r2,r3,41ad4 <fat32ClusterType+0x64>
        Type = CLUSTER_LAST_INFILE;
   41ac8:	008000c4 	movi	r2,3
   41acc:	e0bffe15 	stw	r2,-8(fp)
   41ad0:	00001506 	br	41b28 <fat32ClusterType+0xb8>
    else if (Fat == (alt_u32)0x00)
   41ad4:	e0bfff17 	ldw	r2,-4(fp)
   41ad8:	1000021e 	bne	r2,zero,41ae4 <fat32ClusterType+0x74>
        Type = CLUSTER_UNUSED;
   41adc:	e03ffe15 	stw	zero,-8(fp)
   41ae0:	00001106 	br	41b28 <fat32ClusterType+0xb8>
    else if (Fat >= 0xFFFFFF0 && Fat <= 0xFFFFFF6)
   41ae4:	e0ffff17 	ldw	r3,-4(fp)
   41ae8:	00840034 	movhi	r2,4096
   41aec:	10bffbc4 	addi	r2,r2,-17
   41af0:	10c0072e 	bgeu	r2,r3,41b10 <fat32ClusterType+0xa0>
   41af4:	e0ffff17 	ldw	r3,-4(fp)
   41af8:	00840034 	movhi	r2,4096
   41afc:	10bffd84 	addi	r2,r2,-10
   41b00:	10c00336 	bltu	r2,r3,41b10 <fat32ClusterType+0xa0>
        Type = CLUSTER_RESERVED;
   41b04:	00800044 	movi	r2,1
   41b08:	e0bffe15 	stw	r2,-8(fp)
   41b0c:	00000606 	br	41b28 <fat32ClusterType+0xb8>
    else if (Fat == 0xFFFFFF7)
   41b10:	e0ffff17 	ldw	r3,-4(fp)
   41b14:	00840034 	movhi	r2,4096
   41b18:	10bffdc4 	addi	r2,r2,-9
   41b1c:	1880021e 	bne	r3,r2,41b28 <fat32ClusterType+0xb8>
        Type = CLUSTER_BAD;
   41b20:	00800084 	movi	r2,2
   41b24:	e0bffe15 	stw	r2,-8(fp)
        
    return Type;        
   41b28:	e0bffe17 	ldw	r2,-8(fp)
         
}
   41b2c:	e037883a 	mov	sp,fp
   41b30:	df000017 	ldw	fp,0(sp)
   41b34:	dec00104 	addi	sp,sp,4
   41b38:	f800283a 	ret

00041b3c <fatNextCluster>:

alt_u32 fatNextCluster(VOLUME_INFO *pVol, alt_u32 ThisCluster){
   41b3c:	defff604 	addi	sp,sp,-40
   41b40:	dfc00915 	stw	ra,36(sp)
   41b44:	df000815 	stw	fp,32(sp)
   41b48:	dc000715 	stw	r16,28(sp)
   41b4c:	df000804 	addi	fp,sp,32
   41b50:	e13ffd15 	stw	r4,-12(fp)
   41b54:	e17ffe15 	stw	r5,-8(fp)
    if (ClusterType != CLUSTER_NEXT_INFILE && ClusterType != CLUSTER_LAST_INFILE){
        NextCluster = 0;  // invalid cluster
    }        
#else
    alt_32 nFatEntryPerSecter;
    const alt_32 nFatEntrySize = (pVol->Partition_Type == PARTITION_FAT32)?4:2; // 2 byte for FAT16
   41b58:	e0bffd17 	ldw	r2,-12(fp)
   41b5c:	10800317 	ldw	r2,12(r2)
   41b60:	108002d8 	cmpnei	r2,r2,11
   41b64:	1000021e 	bne	r2,zero,41b70 <fatNextCluster+0x34>
   41b68:	00800104 	movi	r2,4
   41b6c:	00000106 	br	41b74 <fatNextCluster+0x38>
   41b70:	00800084 	movi	r2,2
   41b74:	e0bffa15 	stw	r2,-24(fp)
    alt_u32 Secter;
   // char szBlock[512];
    nFatEntryPerSecter = pVol->BPB_BytsPerSec/nFatEntrySize; 
   41b78:	e0bffd17 	ldw	r2,-12(fp)
   41b7c:	10c00617 	ldw	r3,24(r2)
   41b80:	e0bffa17 	ldw	r2,-24(fp)
   41b84:	1809883a 	mov	r4,r3
   41b88:	100b883a 	mov	r5,r2
   41b8c:	00453100 	call	45310 <__udivsi3>
   41b90:	e0bffb15 	stw	r2,-20(fp)
    Secter = pVol->FatEntrySecter + (ThisCluster*nFatEntrySize)/pVol->BPB_BytsPerSec;
   41b94:	e0bffd17 	ldw	r2,-12(fp)
   41b98:	14000d17 	ldw	r16,52(r2)
   41b9c:	e0bffa17 	ldw	r2,-24(fp)
   41ba0:	1009883a 	mov	r4,r2
   41ba4:	e17ffe17 	ldw	r5,-8(fp)
   41ba8:	00453200 	call	45320 <__mulsi3>
   41bac:	1007883a 	mov	r3,r2
   41bb0:	e0bffd17 	ldw	r2,-12(fp)
   41bb4:	10800617 	ldw	r2,24(r2)
   41bb8:	1809883a 	mov	r4,r3
   41bbc:	100b883a 	mov	r5,r2
   41bc0:	00453100 	call	45310 <__udivsi3>
   41bc4:	8085883a 	add	r2,r16,r2
   41bc8:	e0bffc15 	stw	r2,-16(fp)
    //if (pVol->ReadBlock512(pVol->DiskHandle, Secter,szBlock)){
    if (fatReadSecter(pVol, Secter)){
   41bcc:	e13ffd17 	ldw	r4,-12(fp)
   41bd0:	e17ffc17 	ldw	r5,-16(fp)
   41bd4:	00424480 	call	42448 <fatReadSecter>
   41bd8:	10003126 	beq	r2,zero,41ca0 <fatNextCluster+0x164>
        if (pVol->Partition_Type == PARTITION_FAT32){
   41bdc:	e0bffd17 	ldw	r2,-12(fp)
   41be0:	10800317 	ldw	r2,12(r2)
   41be4:	108002d8 	cmpnei	r2,r2,11
   41be8:	1000131e 	bne	r2,zero,41c38 <fatNextCluster+0xfc>
            NextCluster = *(alt_u32*)(pVol->Secter_Data + (ThisCluster%nFatEntryPerSecter)*nFatEntrySize); 
   41bec:	e0bffb17 	ldw	r2,-20(fp)
   41bf0:	e0fffe17 	ldw	r3,-8(fp)
   41bf4:	1809883a 	mov	r4,r3
   41bf8:	100b883a 	mov	r5,r2
   41bfc:	00453180 	call	45318 <__umodsi3>
   41c00:	1007883a 	mov	r3,r2
   41c04:	e0bffa17 	ldw	r2,-24(fp)
   41c08:	1809883a 	mov	r4,r3
   41c0c:	100b883a 	mov	r5,r2
   41c10:	00453200 	call	45320 <__mulsi3>
   41c14:	10801004 	addi	r2,r2,64
   41c18:	e0fffd17 	ldw	r3,-12(fp)
   41c1c:	1885883a 	add	r2,r3,r2
   41c20:	10800017 	ldw	r2,0(r2)
   41c24:	e0bff915 	stw	r2,-28(fp)
            ClusterType = fat32ClusterType(NextCluster);
   41c28:	e13ff917 	ldw	r4,-28(fp)
   41c2c:	0041a700 	call	41a70 <fat32ClusterType>
   41c30:	e0bff815 	stw	r2,-32(fp)
   41c34:	00001306 	br	41c84 <fatNextCluster+0x148>
        }else{
            NextCluster = *(alt_u16 *)(pVol->Secter_Data + (ThisCluster%nFatEntryPerSecter)*nFatEntrySize); 
   41c38:	e0bffb17 	ldw	r2,-20(fp)
   41c3c:	e0fffe17 	ldw	r3,-8(fp)
   41c40:	1809883a 	mov	r4,r3
   41c44:	100b883a 	mov	r5,r2
   41c48:	00453180 	call	45318 <__umodsi3>
   41c4c:	1007883a 	mov	r3,r2
   41c50:	e0bffa17 	ldw	r2,-24(fp)
   41c54:	1809883a 	mov	r4,r3
   41c58:	100b883a 	mov	r5,r2
   41c5c:	00453200 	call	45320 <__mulsi3>
   41c60:	10801004 	addi	r2,r2,64
   41c64:	e0fffd17 	ldw	r3,-12(fp)
   41c68:	1885883a 	add	r2,r3,r2
   41c6c:	1080000b 	ldhu	r2,0(r2)
   41c70:	10bfffcc 	andi	r2,r2,65535
   41c74:	e0bff915 	stw	r2,-28(fp)
            ClusterType = fat16ClusterType(NextCluster);
   41c78:	e13ff917 	ldw	r4,-28(fp)
   41c7c:	00419c00 	call	419c0 <fat16ClusterType>
   41c80:	e0bff815 	stw	r2,-32(fp)
        }    
        if (ClusterType != CLUSTER_NEXT_INFILE && ClusterType != CLUSTER_LAST_INFILE)
   41c84:	e0bff817 	ldw	r2,-32(fp)
   41c88:	10800120 	cmpeqi	r2,r2,4
   41c8c:	1000041e 	bne	r2,zero,41ca0 <fatNextCluster+0x164>
   41c90:	e0bff817 	ldw	r2,-32(fp)
   41c94:	108000e0 	cmpeqi	r2,r2,3
   41c98:	1000011e 	bne	r2,zero,41ca0 <fatNextCluster+0x164>
            NextCluster = 0;  // invalid cluster
   41c9c:	e03ff915 	stw	zero,-28(fp)
    }                
    
    
    return NextCluster;
   41ca0:	e0bff917 	ldw	r2,-28(fp)

#endif    
    
    return NextCluster;
}
   41ca4:	e6ffff04 	addi	sp,fp,-4
   41ca8:	dfc00217 	ldw	ra,8(sp)
   41cac:	df000117 	ldw	fp,4(sp)
   41cb0:	dc000017 	ldw	r16,0(sp)
   41cb4:	dec00304 	addi	sp,sp,12
   41cb8:	f800283a 	ret

00041cbc <fatFindUnusedCluster>:

alt_u32 fatFindUnusedCluster(VOLUME_INFO *pVol){
   41cbc:	defff304 	addi	sp,sp,-52
   41cc0:	dfc00c15 	stw	ra,48(sp)
   41cc4:	df000b15 	stw	fp,44(sp)
   41cc8:	dc000a15 	stw	r16,40(sp)
   41ccc:	df000b04 	addi	fp,sp,44
   41cd0:	e13ffe15 	stw	r4,-8(fp)
    CLUSTER_TYPE ClusterType;
    alt_u32 UnusedCluster=-1, ThisCluster = 2, ClusterEntryValue;
   41cd4:	00bfffc4 	movi	r2,-1
   41cd8:	e0bff615 	stw	r2,-40(fp)
   41cdc:	00800084 	movi	r2,2
   41ce0:	e0bff715 	stw	r2,-36(fp)
    void *pFatEntry;

    const alt_32 nFatEntrySize = (pVol->Partition_Type == PARTITION_FAT32)?4:2; // 2 byte for FAT16
   41ce4:	e0bffe17 	ldw	r2,-8(fp)
   41ce8:	10800317 	ldw	r2,12(r2)
   41cec:	108002d8 	cmpnei	r2,r2,11
   41cf0:	1000021e 	bne	r2,zero,41cfc <fatFindUnusedCluster+0x40>
   41cf4:	00800104 	movi	r2,4
   41cf8:	00000106 	br	41d00 <fatFindUnusedCluster+0x44>
   41cfc:	00800084 	movi	r2,2
   41d00:	e0bff915 	stw	r2,-28(fp)
    const alt_32 nFatEntryPerSecter = pVol->BPB_BytsPerSec/nFatEntrySize;
   41d04:	e0bffe17 	ldw	r2,-8(fp)
   41d08:	10c00617 	ldw	r3,24(r2)
   41d0c:	e0bff917 	ldw	r2,-28(fp)
   41d10:	1809883a 	mov	r4,r3
   41d14:	100b883a 	mov	r5,r2
   41d18:	00453100 	call	45310 <__udivsi3>
   41d1c:	e0bffa15 	stw	r2,-24(fp)
    alt_u32 Secter;
    bool bDone = FALSE;
   41d20:	e03ff815 	stw	zero,-32(fp)

    while(!bDone){     
   41d24:	00003e06 	br	41e20 <fatFindUnusedCluster+0x164>
        Secter = pVol->FatEntrySecter + (ThisCluster*nFatEntrySize)/pVol->BPB_BytsPerSec;
   41d28:	e0bffe17 	ldw	r2,-8(fp)
   41d2c:	14000d17 	ldw	r16,52(r2)
   41d30:	e0bff917 	ldw	r2,-28(fp)
   41d34:	1009883a 	mov	r4,r2
   41d38:	e17ff717 	ldw	r5,-36(fp)
   41d3c:	00453200 	call	45320 <__mulsi3>
   41d40:	1007883a 	mov	r3,r2
   41d44:	e0bffe17 	ldw	r2,-8(fp)
   41d48:	10800617 	ldw	r2,24(r2)
   41d4c:	1809883a 	mov	r4,r3
   41d50:	100b883a 	mov	r5,r2
   41d54:	00453100 	call	45310 <__udivsi3>
   41d58:	8085883a 	add	r2,r16,r2
   41d5c:	e0bffb15 	stw	r2,-20(fp)
        if (fatReadSecter(pVol, Secter)){
   41d60:	e13ffe17 	ldw	r4,-8(fp)
   41d64:	e17ffb17 	ldw	r5,-20(fp)
   41d68:	00424480 	call	42448 <fatReadSecter>
   41d6c:	10002726 	beq	r2,zero,41e0c <fatFindUnusedCluster+0x150>
            pFatEntry = (pVol->Secter_Data + (ThisCluster%nFatEntryPerSecter)*nFatEntrySize);
   41d70:	e0bffa17 	ldw	r2,-24(fp)
   41d74:	e0fff717 	ldw	r3,-36(fp)
   41d78:	1809883a 	mov	r4,r3
   41d7c:	100b883a 	mov	r5,r2
   41d80:	00453180 	call	45318 <__umodsi3>
   41d84:	1007883a 	mov	r3,r2
   41d88:	e0bff917 	ldw	r2,-28(fp)
   41d8c:	1809883a 	mov	r4,r3
   41d90:	100b883a 	mov	r5,r2
   41d94:	00453200 	call	45320 <__mulsi3>
   41d98:	10801004 	addi	r2,r2,64
   41d9c:	e0fffe17 	ldw	r3,-8(fp)
   41da0:	1885883a 	add	r2,r3,r2
   41da4:	e0bffc15 	stw	r2,-16(fp)
            if (pVol->Partition_Type == PARTITION_FAT32){
   41da8:	e0bffe17 	ldw	r2,-8(fp)
   41dac:	10800317 	ldw	r2,12(r2)
   41db0:	108002d8 	cmpnei	r2,r2,11
   41db4:	1000071e 	bne	r2,zero,41dd4 <fatFindUnusedCluster+0x118>
                ClusterEntryValue = *(alt_u32*)pFatEntry; 
   41db8:	e0bffc17 	ldw	r2,-16(fp)
   41dbc:	10800017 	ldw	r2,0(r2)
   41dc0:	e0bffd15 	stw	r2,-12(fp)
                ClusterType = fat32ClusterType(ClusterEntryValue);
   41dc4:	e13ffd17 	ldw	r4,-12(fp)
   41dc8:	0041a700 	call	41a70 <fat32ClusterType>
   41dcc:	e0bff515 	stw	r2,-44(fp)
   41dd0:	00000706 	br	41df0 <fatFindUnusedCluster+0x134>
            }else{
                ClusterEntryValue = *(alt_u16 *)pFatEntry; 
   41dd4:	e0bffc17 	ldw	r2,-16(fp)
   41dd8:	1080000b 	ldhu	r2,0(r2)
   41ddc:	10bfffcc 	andi	r2,r2,65535
   41de0:	e0bffd15 	stw	r2,-12(fp)
                ClusterType = fat16ClusterType(ClusterEntryValue);
   41de4:	e13ffd17 	ldw	r4,-12(fp)
   41de8:	00419c00 	call	419c0 <fat16ClusterType>
   41dec:	e0bff515 	stw	r2,-44(fp)
            }    
            if (ClusterType == CLUSTER_UNUSED){
   41df0:	e0bff517 	ldw	r2,-44(fp)
   41df4:	1000071e 	bne	r2,zero,41e14 <fatFindUnusedCluster+0x158>
                UnusedCluster = ThisCluster;  // invalid cluster
   41df8:	e0bff717 	ldw	r2,-36(fp)
   41dfc:	e0bff615 	stw	r2,-40(fp)
                bDone = TRUE;
   41e00:	00800044 	movi	r2,1
   41e04:	e0bff815 	stw	r2,-32(fp)
   41e08:	00000206 	br	41e14 <fatFindUnusedCluster+0x158>
            }    
        }else{
            bDone = TRUE;
   41e0c:	00800044 	movi	r2,1
   41e10:	e0bff815 	stw	r2,-32(fp)
        }     
        ThisCluster++;           
   41e14:	e0bff717 	ldw	r2,-36(fp)
   41e18:	10800044 	addi	r2,r2,1
   41e1c:	e0bff715 	stw	r2,-36(fp)
    const alt_32 nFatEntrySize = (pVol->Partition_Type == PARTITION_FAT32)?4:2; // 2 byte for FAT16
    const alt_32 nFatEntryPerSecter = pVol->BPB_BytsPerSec/nFatEntrySize;
    alt_u32 Secter;
    bool bDone = FALSE;

    while(!bDone){     
   41e20:	e0bff817 	ldw	r2,-32(fp)
   41e24:	103fc026 	beq	r2,zero,41d28 <__alt_data_end+0xfffdd338>
            bDone = TRUE;
        }     
        ThisCluster++;           
    }                
    
    return UnusedCluster;
   41e28:	e0bff617 	ldw	r2,-40(fp)

}
   41e2c:	e6ffff04 	addi	sp,fp,-4
   41e30:	dfc00217 	ldw	ra,8(sp)
   41e34:	df000117 	ldw	fp,4(sp)
   41e38:	dc000017 	ldw	r16,0(sp)
   41e3c:	dec00304 	addi	sp,sp,12
   41e40:	f800283a 	ret

00041e44 <fatDelClusterList>:


bool fatDelClusterList(VOLUME_INFO *pVol, alt_u32 StartCluster){
   41e44:	defff204 	addi	sp,sp,-56
   41e48:	dfc00d15 	stw	ra,52(sp)
   41e4c:	df000c15 	stw	fp,48(sp)
   41e50:	dc000b15 	stw	r16,44(sp)
   41e54:	df000c04 	addi	fp,sp,48
   41e58:	e13ffd15 	stw	r4,-12(fp)
   41e5c:	e17ffe15 	stw	r5,-8(fp)
    CLUSTER_TYPE ClusterType;
    bool bSuccess = TRUE;
   41e60:	00800044 	movi	r2,1
   41e64:	e0bff515 	stw	r2,-44(fp)
    bool bDone = FALSE;
   41e68:	e03ff615 	stw	zero,-40(fp)
    alt_u32 ClusterIndex, Secter, ClusterEntryValue;
    void *pFatEntryValue;
    
    
    const int nFatEntrySize = (pVol->Partition_Type == PARTITION_FAT32)?4:2; // 2 byte for FAT16
   41e6c:	e0bffd17 	ldw	r2,-12(fp)
   41e70:	10800317 	ldw	r2,12(r2)
   41e74:	108002d8 	cmpnei	r2,r2,11
   41e78:	1000021e 	bne	r2,zero,41e84 <fatDelClusterList+0x40>
   41e7c:	00800104 	movi	r2,4
   41e80:	00000106 	br	41e88 <fatDelClusterList+0x44>
   41e84:	00800084 	movi	r2,2
   41e88:	e0bff715 	stw	r2,-36(fp)
    const int nFatEntryPerSecter = pVol->BPB_BytsPerSec/nFatEntrySize;
   41e8c:	e0bffd17 	ldw	r2,-12(fp)
   41e90:	10c00617 	ldw	r3,24(r2)
   41e94:	e0bff717 	ldw	r2,-36(fp)
   41e98:	1809883a 	mov	r4,r3
   41e9c:	100b883a 	mov	r5,r2
   41ea0:	00453100 	call	45310 <__udivsi3>
   41ea4:	e0bff815 	stw	r2,-32(fp)
     
    ClusterIndex = StartCluster;
   41ea8:	e0bffe17 	ldw	r2,-8(fp)
   41eac:	e0bff915 	stw	r2,-28(fp)
    while(bSuccess && !bDone){
   41eb0:	00005706 	br	42010 <fatDelClusterList+0x1cc>
        // read FAT Table
        Secter = pVol->FatEntrySecter + (ClusterIndex*nFatEntrySize)/pVol->BPB_BytsPerSec;
   41eb4:	e0bffd17 	ldw	r2,-12(fp)
   41eb8:	14000d17 	ldw	r16,52(r2)
   41ebc:	e0bff717 	ldw	r2,-36(fp)
   41ec0:	1009883a 	mov	r4,r2
   41ec4:	e17ff917 	ldw	r5,-28(fp)
   41ec8:	00453200 	call	45320 <__mulsi3>
   41ecc:	1007883a 	mov	r3,r2
   41ed0:	e0bffd17 	ldw	r2,-12(fp)
   41ed4:	10800617 	ldw	r2,24(r2)
   41ed8:	1809883a 	mov	r4,r3
   41edc:	100b883a 	mov	r5,r2
   41ee0:	00453100 	call	45310 <__udivsi3>
   41ee4:	8085883a 	add	r2,r16,r2
   41ee8:	e0bffa15 	stw	r2,-24(fp)
        bSuccess = fatReadSecter(pVol, Secter);
   41eec:	e13ffd17 	ldw	r4,-12(fp)
   41ef0:	e17ffa17 	ldw	r5,-24(fp)
   41ef4:	00424480 	call	42448 <fatReadSecter>
   41ef8:	e0bff515 	stw	r2,-44(fp)
        if (bSuccess){
   41efc:	e0bff517 	ldw	r2,-44(fp)
   41f00:	10004326 	beq	r2,zero,42010 <fatDelClusterList+0x1cc>
            // get the value of FAT entry
            pFatEntryValue = (pVol->Secter_Data + (ClusterIndex%nFatEntryPerSecter)*nFatEntrySize);
   41f04:	e0bff817 	ldw	r2,-32(fp)
   41f08:	e0fff917 	ldw	r3,-28(fp)
   41f0c:	1809883a 	mov	r4,r3
   41f10:	100b883a 	mov	r5,r2
   41f14:	00453180 	call	45318 <__umodsi3>
   41f18:	1007883a 	mov	r3,r2
   41f1c:	e0bff717 	ldw	r2,-36(fp)
   41f20:	1809883a 	mov	r4,r3
   41f24:	100b883a 	mov	r5,r2
   41f28:	00453200 	call	45320 <__mulsi3>
   41f2c:	10801004 	addi	r2,r2,64
   41f30:	e0fffd17 	ldw	r3,-12(fp)
   41f34:	1885883a 	add	r2,r3,r2
   41f38:	e0bffb15 	stw	r2,-20(fp)
            if (pVol->Partition_Type == PARTITION_FAT32){
   41f3c:	e0bffd17 	ldw	r2,-12(fp)
   41f40:	10800317 	ldw	r2,12(r2)
   41f44:	108002d8 	cmpnei	r2,r2,11
   41f48:	1000071e 	bne	r2,zero,41f68 <fatDelClusterList+0x124>
                ClusterEntryValue = *(alt_u32 *)pFatEntryValue; 
   41f4c:	e0bffb17 	ldw	r2,-20(fp)
   41f50:	10800017 	ldw	r2,0(r2)
   41f54:	e0bffc15 	stw	r2,-16(fp)
                ClusterType = fat32ClusterType(ClusterEntryValue);
   41f58:	e13ffc17 	ldw	r4,-16(fp)
   41f5c:	0041a700 	call	41a70 <fat32ClusterType>
   41f60:	e0bff415 	stw	r2,-48(fp)
   41f64:	00000706 	br	41f84 <fatDelClusterList+0x140>
            }else{
                ClusterEntryValue = *(alt_u16 *)pFatEntryValue; //(pVol->Secter_Data + (ThisCluster%nFatEntryPerSecter)*nFatEntrySize); 
   41f68:	e0bffb17 	ldw	r2,-20(fp)
   41f6c:	1080000b 	ldhu	r2,0(r2)
   41f70:	10bfffcc 	andi	r2,r2,65535
   41f74:	e0bffc15 	stw	r2,-16(fp)
                ClusterType = fat16ClusterType(ClusterEntryValue);
   41f78:	e13ffc17 	ldw	r4,-16(fp)
   41f7c:	00419c00 	call	419c0 <fat16ClusterType>
   41f80:	e0bff415 	stw	r2,-48(fp)
            }
                
            if (ClusterType != CLUSTER_NEXT_INFILE && ClusterType != CLUSTER_LAST_INFILE){
   41f84:	e0bff417 	ldw	r2,-48(fp)
   41f88:	10800120 	cmpeqi	r2,r2,4
   41f8c:	1000071e 	bne	r2,zero,41fac <fatDelClusterList+0x168>
   41f90:	e0bff417 	ldw	r2,-48(fp)
   41f94:	108000e0 	cmpeqi	r2,r2,3
   41f98:	1000041e 	bne	r2,zero,41fac <fatDelClusterList+0x168>
                bDone = TRUE;
   41f9c:	00800044 	movi	r2,1
   41fa0:	e0bff615 	stw	r2,-40(fp)
                bSuccess = FALSE;
   41fa4:	e03ff515 	stw	zero,-44(fp)
   41fa8:	00001906 	br	42010 <fatDelClusterList+0x1cc>
            }else{
                if (ClusterType == CLUSTER_LAST_INFILE)
   41fac:	e0bff417 	ldw	r2,-48(fp)
   41fb0:	108000d8 	cmpnei	r2,r2,3
   41fb4:	1000021e 	bne	r2,zero,41fc0 <fatDelClusterList+0x17c>
                    bDone = TRUE; // the last cluster
   41fb8:	00800044 	movi	r2,1
   41fbc:	e0bff615 	stw	r2,-40(fp)
                // update
                if (pVol->Partition_Type == PARTITION_FAT32)
   41fc0:	e0bffd17 	ldw	r2,-12(fp)
   41fc4:	10800317 	ldw	r2,12(r2)
   41fc8:	108002d8 	cmpnei	r2,r2,11
   41fcc:	1000031e 	bne	r2,zero,41fdc <fatDelClusterList+0x198>
                    *(alt_u32 *)pFatEntryValue = CLUSTER_UNUSED;
   41fd0:	e0bffb17 	ldw	r2,-20(fp)
   41fd4:	10000015 	stw	zero,0(r2)
   41fd8:	00000206 	br	41fe4 <fatDelClusterList+0x1a0>
                else 
                    *(alt_u16 *)pFatEntryValue = CLUSTER_UNUSED;
   41fdc:	e0bffb17 	ldw	r2,-20(fp)
   41fe0:	1000000d 	sth	zero,0(r2)
                //write back FAT Table
                bSuccess = pVol->WriteBlock512(pVol->DiskHandle, pVol->Secter_Index, pVol->Secter_Data);
   41fe4:	e0bffd17 	ldw	r2,-12(fp)
   41fe8:	10800217 	ldw	r2,8(r2)
   41fec:	e0fffd17 	ldw	r3,-12(fp)
   41ff0:	19000017 	ldw	r4,0(r3)
   41ff4:	e0fffd17 	ldw	r3,-12(fp)
   41ff8:	19409017 	ldw	r5,576(r3)
   41ffc:	e0fffd17 	ldw	r3,-12(fp)
   42000:	18c01004 	addi	r3,r3,64
   42004:	180d883a 	mov	r6,r3
   42008:	103ee83a 	callr	r2
   4200c:	e0bff515 	stw	r2,-44(fp)
    
    const int nFatEntrySize = (pVol->Partition_Type == PARTITION_FAT32)?4:2; // 2 byte for FAT16
    const int nFatEntryPerSecter = pVol->BPB_BytsPerSec/nFatEntrySize;
     
    ClusterIndex = StartCluster;
    while(bSuccess && !bDone){
   42010:	e0bff517 	ldw	r2,-44(fp)
   42014:	10000226 	beq	r2,zero,42020 <fatDelClusterList+0x1dc>
   42018:	e0bff617 	ldw	r2,-40(fp)
   4201c:	103fa526 	beq	r2,zero,41eb4 <__alt_data_end+0xfffdd4c4>
            }    
        }                
    }  // while                
    
    
    return bSuccess;
   42020:	e0bff517 	ldw	r2,-44(fp)

}
   42024:	e6ffff04 	addi	sp,fp,-4
   42028:	dfc00217 	ldw	ra,8(sp)
   4202c:	df000117 	ldw	fp,4(sp)
   42030:	dc000017 	ldw	r16,0(sp)
   42034:	dec00304 	addi	sp,sp,12
   42038:	f800283a 	ret

0004203c <fatDumpDate>:


void fatDumpDate(unsigned short Date){
   4203c:	defffb04 	addi	sp,sp,-20
   42040:	df000415 	stw	fp,16(sp)
   42044:	df000404 	addi	fp,sp,16
   42048:	2005883a 	mov	r2,r4
   4204c:	e0bfff0d 	sth	r2,-4(fp)
    int Year, Month, Day;
    Year = ((Date >> 9) & 0x1F) + 1980;
   42050:	e0bfff0b 	ldhu	r2,-4(fp)
   42054:	1004d27a 	srli	r2,r2,9
   42058:	10bfffcc 	andi	r2,r2,65535
   4205c:	108007cc 	andi	r2,r2,31
   42060:	1081ef04 	addi	r2,r2,1980
   42064:	e0bffc15 	stw	r2,-16(fp)
    Month = ((Date >> 5) & 0xF);
   42068:	e0bfff0b 	ldhu	r2,-4(fp)
   4206c:	1004d17a 	srli	r2,r2,5
   42070:	10bfffcc 	andi	r2,r2,65535
   42074:	108003cc 	andi	r2,r2,15
   42078:	e0bffd15 	stw	r2,-12(fp)
    Day = ((Date >> 0) & 0x1F);
   4207c:	e0bfff0b 	ldhu	r2,-4(fp)
   42080:	108007cc 	andi	r2,r2,31
   42084:	e0bffe15 	stw	r2,-8(fp)
    FAT_DEBUG(("%d,%d,%d", Year, Month, Day)); 
}
   42088:	e037883a 	mov	sp,fp
   4208c:	df000017 	ldw	fp,0(sp)
   42090:	dec00104 	addi	sp,sp,4
   42094:	f800283a 	ret

00042098 <fatDumpTime>:

void fatDumpTime(unsigned short Date){
   42098:	defffb04 	addi	sp,sp,-20
   4209c:	df000415 	stw	fp,16(sp)
   420a0:	df000404 	addi	fp,sp,16
   420a4:	2005883a 	mov	r2,r4
   420a8:	e0bfff0d 	sth	r2,-4(fp)
    int H,M,S;
    H = ((Date >> 9) & 0x1F);
   420ac:	e0bfff0b 	ldhu	r2,-4(fp)
   420b0:	1004d27a 	srli	r2,r2,9
   420b4:	10bfffcc 	andi	r2,r2,65535
   420b8:	108007cc 	andi	r2,r2,31
   420bc:	e0bffc15 	stw	r2,-16(fp)
    M = ((Date >> 5) & 0x3F);
   420c0:	e0bfff0b 	ldhu	r2,-4(fp)
   420c4:	1004d17a 	srli	r2,r2,5
   420c8:	10bfffcc 	andi	r2,r2,65535
   420cc:	10800fcc 	andi	r2,r2,63
   420d0:	e0bffd15 	stw	r2,-12(fp)
    S = ((Date >> 0) & 0x1F)*2;
   420d4:	e0bfff0b 	ldhu	r2,-4(fp)
   420d8:	108007cc 	andi	r2,r2,31
   420dc:	1085883a 	add	r2,r2,r2
   420e0:	e0bffe15 	stw	r2,-8(fp)
    FAT_DEBUG(("%d:%d:%d", H, M, S));     
}
   420e4:	e037883a 	mov	sp,fp
   420e8:	df000017 	ldw	fp,0(sp)
   420ec:	dec00104 	addi	sp,sp,4
   420f0:	f800283a 	ret

000420f4 <fatIsLastDir>:

bool fatIsLastDir(FAT_DIRECTORY *pDir){
   420f4:	defffe04 	addi	sp,sp,-8
   420f8:	df000115 	stw	fp,4(sp)
   420fc:	df000104 	addi	fp,sp,4
   42100:	e13fff15 	stw	r4,-4(fp)
    if (pDir->Name[0] == REMAINED_UNUSED_DIR_ENTRY)  // 0x00
   42104:	e0bfff17 	ldw	r2,-4(fp)
   42108:	10800003 	ldbu	r2,0(r2)
   4210c:	10803fcc 	andi	r2,r2,255
   42110:	1080201c 	xori	r2,r2,128
   42114:	10bfe004 	addi	r2,r2,-128
   42118:	1000021e 	bne	r2,zero,42124 <fatIsLastDir+0x30>
        return TRUE;
   4211c:	00800044 	movi	r2,1
   42120:	00000106 	br	42128 <fatIsLastDir+0x34>
    return FALSE;        
   42124:	0005883a 	mov	r2,zero
}
   42128:	e037883a 	mov	sp,fp
   4212c:	df000017 	ldw	fp,0(sp)
   42130:	dec00104 	addi	sp,sp,4
   42134:	f800283a 	ret

00042138 <fatIsValidDir>:


bool fatIsValidDir(FAT_DIRECTORY *pDir){
   42138:	defff704 	addi	sp,sp,-36
   4213c:	dfc00815 	stw	ra,32(sp)
   42140:	df000715 	stw	fp,28(sp)
   42144:	df000704 	addi	fp,sp,28
   42148:	e13fff15 	stw	r4,-4(fp)
    char szTest[] = {0x00, 0xE5, 0x22, 0x2A, 0x2B, 0x2C, 0x2E, 0x2F, 0x3A, 0x3B, 0x3C, 0x3E, 0x3F, 0x5B, 0x5C, 0x5D, 0x7C};
   4214c:	008001b4 	movhi	r2,6
   42150:	10a2de04 	addi	r2,r2,-29832
   42154:	e0fffa04 	addi	r3,fp,-24
   42158:	100b883a 	mov	r5,r2
   4215c:	00800444 	movi	r2,17
   42160:	1809883a 	mov	r4,r3
   42164:	100d883a 	mov	r6,r2
   42168:	00471540 	call	47154 <memcpy>
    int i;
    
    for(i=0;i<sizeof(szTest)/sizeof(szTest[0]);i++){
   4216c:	e03ff915 	stw	zero,-28(fp)
   42170:	00001206 	br	421bc <fatIsValidDir+0x84>
        if (pDir->Name[0] == szTest[i]){
   42174:	e0bfff17 	ldw	r2,-4(fp)
   42178:	11000003 	ldbu	r4,0(r2)
   4217c:	e0fffa04 	addi	r3,fp,-24
   42180:	e0bff917 	ldw	r2,-28(fp)
   42184:	1885883a 	add	r2,r3,r2
   42188:	10800003 	ldbu	r2,0(r2)
   4218c:	20c03fcc 	andi	r3,r4,255
   42190:	18c0201c 	xori	r3,r3,128
   42194:	18ffe004 	addi	r3,r3,-128
   42198:	10803fcc 	andi	r2,r2,255
   4219c:	1080201c 	xori	r2,r2,128
   421a0:	10bfe004 	addi	r2,r2,-128
   421a4:	1880021e 	bne	r3,r2,421b0 <fatIsValidDir+0x78>
            return FALSE;
   421a8:	0005883a 	mov	r2,zero
   421ac:	00000706 	br	421cc <fatIsValidDir+0x94>

bool fatIsValidDir(FAT_DIRECTORY *pDir){
    char szTest[] = {0x00, 0xE5, 0x22, 0x2A, 0x2B, 0x2C, 0x2E, 0x2F, 0x3A, 0x3B, 0x3C, 0x3E, 0x3F, 0x5B, 0x5C, 0x5D, 0x7C};
    int i;
    
    for(i=0;i<sizeof(szTest)/sizeof(szTest[0]);i++){
   421b0:	e0bff917 	ldw	r2,-28(fp)
   421b4:	10800044 	addi	r2,r2,1
   421b8:	e0bff915 	stw	r2,-28(fp)
   421bc:	e0bff917 	ldw	r2,-28(fp)
   421c0:	10800470 	cmpltui	r2,r2,17
   421c4:	103feb1e 	bne	r2,zero,42174 <__alt_data_end+0xfffdd784>
        if (pDir->Name[0] == szTest[i]){
            return FALSE;
        }
    }    
    return TRUE;
   421c8:	00800044 	movi	r2,1
    
}
   421cc:	e037883a 	mov	sp,fp
   421d0:	dfc00117 	ldw	ra,4(sp)
   421d4:	df000017 	ldw	fp,0(sp)
   421d8:	dec00204 	addi	sp,sp,8
   421dc:	f800283a 	ret

000421e0 <fatIsUnusedDir>:

bool fatIsUnusedDir(FAT_DIRECTORY *pDir){
   421e0:	defffe04 	addi	sp,sp,-8
   421e4:	df000115 	stw	fp,4(sp)
   421e8:	df000104 	addi	fp,sp,4
   421ec:	e13fff15 	stw	r4,-4(fp)
    if (pDir->Name[0] == (alt_8)UNUSED_DIR_ENTRY)
   421f0:	e0bfff17 	ldw	r2,-4(fp)
   421f4:	10800003 	ldbu	r2,0(r2)
   421f8:	10803fcc 	andi	r2,r2,255
   421fc:	1080201c 	xori	r2,r2,128
   42200:	10bfe004 	addi	r2,r2,-128
   42204:	10bff958 	cmpnei	r2,r2,-27
   42208:	1000021e 	bne	r2,zero,42214 <fatIsUnusedDir+0x34>
        return TRUE;
   4220c:	00800044 	movi	r2,1
   42210:	00000106 	br	42218 <fatIsUnusedDir+0x38>
    return FALSE; 
   42214:	0005883a 	mov	r2,zero
}
   42218:	e037883a 	mov	sp,fp
   4221c:	df000017 	ldw	fp,0(sp)
   42220:	dec00104 	addi	sp,sp,4
   42224:	f800283a 	ret

00042228 <fatDump>:

// debug
void fatDump(FAT_DIRECTORY *pDir){
   42228:	defff804 	addi	sp,sp,-32
   4222c:	dfc00715 	stw	ra,28(sp)
   42230:	df000615 	stw	fp,24(sp)
   42234:	df000604 	addi	fp,sp,24
   42238:	e13fff15 	stw	r4,-4(fp)
    char szInvalidName[] = {0x22, 0x2A, 0x2B, 0x2C, 0x2E, 0x2F, 0x3A, 0x3B, 0x3C, 0x3E, 0x3F, 0x5B, 0x5C, 0x5D, 0x7C};
   4223c:	008001b4 	movhi	r2,6
   42240:	10a2e244 	addi	r2,r2,-29815
   42244:	e0fffb04 	addi	r3,fp,-20
   42248:	100b883a 	mov	r5,r2
   4224c:	008003c4 	movi	r2,15
   42250:	1809883a 	mov	r4,r3
   42254:	100d883a 	mov	r6,r2
   42258:	00471540 	call	47154 <memcpy>
    int i;
    if (pDir->Name[0] == (char)0xE5){
   4225c:	e0bfff17 	ldw	r2,-4(fp)
   42260:	10800003 	ldbu	r2,0(r2)
   42264:	10803fcc 	andi	r2,r2,255
   42268:	1080201c 	xori	r2,r2,128
   4226c:	10bfe004 	addi	r2,r2,-128
   42270:	10bff958 	cmpnei	r2,r2,-27
   42274:	1000011e 	bne	r2,zero,4227c <fatDump+0x54>
        FAT_DEBUG(("the directory entry is free.\n"));
        return;
   42278:	00004c06 	br	423ac <fatDump+0x184>
    }
    if (pDir->Name[0] == 0x00){
   4227c:	e0bfff17 	ldw	r2,-4(fp)
   42280:	10800003 	ldbu	r2,0(r2)
   42284:	10803fcc 	andi	r2,r2,255
   42288:	1080201c 	xori	r2,r2,128
   4228c:	10bfe004 	addi	r2,r2,-128
   42290:	1000011e 	bne	r2,zero,42298 <fatDump+0x70>
        FAT_DEBUG(("the directory entry is free, and there are no allocated directory entries after tis one.\n"));
        return;
   42294:	00004506 	br	423ac <fatDump+0x184>
    }
    
    if (pDir->Name[0] <= 0x20 && pDir->Name[0] != 0x05){
   42298:	e0bfff17 	ldw	r2,-4(fp)
   4229c:	10800003 	ldbu	r2,0(r2)
   422a0:	10803fcc 	andi	r2,r2,255
   422a4:	1080201c 	xori	r2,r2,128
   422a8:	10bfe004 	addi	r2,r2,-128
   422ac:	10800848 	cmpgei	r2,r2,33
   422b0:	1000081e 	bne	r2,zero,422d4 <fatDump+0xac>
   422b4:	e0bfff17 	ldw	r2,-4(fp)
   422b8:	10800003 	ldbu	r2,0(r2)
   422bc:	10803fcc 	andi	r2,r2,255
   422c0:	1080201c 	xori	r2,r2,128
   422c4:	10bfe004 	addi	r2,r2,-128
   422c8:	10800160 	cmpeqi	r2,r2,5
   422cc:	1000011e 	bne	r2,zero,422d4 <fatDump+0xac>
        FAT_DEBUG(("Invalid file name.\n"));
        return;
   422d0:	00003606 	br	423ac <fatDump+0x184>
    }
    
    for(i=0;i<sizeof(szInvalidName)/sizeof(szInvalidName[0]);i++){
   422d4:	e03ffa15 	stw	zero,-24(fp)
   422d8:	00001106 	br	42320 <fatDump+0xf8>
        if (pDir->Name[0] == szInvalidName[i]){
   422dc:	e0bfff17 	ldw	r2,-4(fp)
   422e0:	11000003 	ldbu	r4,0(r2)
   422e4:	e0fffb04 	addi	r3,fp,-20
   422e8:	e0bffa17 	ldw	r2,-24(fp)
   422ec:	1885883a 	add	r2,r3,r2
   422f0:	10800003 	ldbu	r2,0(r2)
   422f4:	20c03fcc 	andi	r3,r4,255
   422f8:	18c0201c 	xori	r3,r3,128
   422fc:	18ffe004 	addi	r3,r3,-128
   42300:	10803fcc 	andi	r2,r2,255
   42304:	1080201c 	xori	r2,r2,128
   42308:	10bfe004 	addi	r2,r2,-128
   4230c:	1880011e 	bne	r3,r2,42314 <fatDump+0xec>
            FAT_DEBUG(("Invalid file name.\n"));
            return;
   42310:	00002606 	br	423ac <fatDump+0x184>
    if (pDir->Name[0] <= 0x20 && pDir->Name[0] != 0x05){
        FAT_DEBUG(("Invalid file name.\n"));
        return;
    }
    
    for(i=0;i<sizeof(szInvalidName)/sizeof(szInvalidName[0]);i++){
   42314:	e0bffa17 	ldw	r2,-24(fp)
   42318:	10800044 	addi	r2,r2,1
   4231c:	e0bffa15 	stw	r2,-24(fp)
   42320:	e0bffa17 	ldw	r2,-24(fp)
   42324:	108003f0 	cmpltui	r2,r2,15
   42328:	103fec1e 	bne	r2,zero,422dc <__alt_data_end+0xfffdd8ec>
        FAT_DEBUG(("  Directory\n"));
    if (pDir->Attribute & ATTR_ARCHIVE)
        FAT_DEBUG(("  Archive\n"));
    if (pDir->Attribute & ATTR_LONG_NAME)
        FAT_DEBUG(("  Long Name\n"));
    FAT_DEBUG(("CreateTime:")); fatDumpTime(pDir->CreateTime);FAT_DEBUG(("\n"));
   4232c:	e0bfff17 	ldw	r2,-4(fp)
   42330:	10c00383 	ldbu	r3,14(r2)
   42334:	108003c3 	ldbu	r2,15(r2)
   42338:	1004923a 	slli	r2,r2,8
   4233c:	10c4b03a 	or	r2,r2,r3
   42340:	10bfffcc 	andi	r2,r2,65535
   42344:	1009883a 	mov	r4,r2
   42348:	00420980 	call	42098 <fatDumpTime>
    FAT_DEBUG(("CreateDate:")); fatDumpDate(pDir->LastAccessDate);FAT_DEBUG(("\n"));
   4234c:	e0bfff17 	ldw	r2,-4(fp)
   42350:	10c00483 	ldbu	r3,18(r2)
   42354:	108004c3 	ldbu	r2,19(r2)
   42358:	1004923a 	slli	r2,r2,8
   4235c:	10c4b03a 	or	r2,r2,r3
   42360:	10bfffcc 	andi	r2,r2,65535
   42364:	1009883a 	mov	r4,r2
   42368:	004203c0 	call	4203c <fatDumpDate>
    FAT_DEBUG(("ClusterHi:%04Xh\n", pDir->FirstLogicalClusterHi));
    FAT_DEBUG(("LastWriteTime:")); fatDumpTime(pDir->LastWriteTime);FAT_DEBUG(("\n"));
   4236c:	e0bfff17 	ldw	r2,-4(fp)
   42370:	10c00583 	ldbu	r3,22(r2)
   42374:	108005c3 	ldbu	r2,23(r2)
   42378:	1004923a 	slli	r2,r2,8
   4237c:	10c4b03a 	or	r2,r2,r3
   42380:	10bfffcc 	andi	r2,r2,65535
   42384:	1009883a 	mov	r4,r2
   42388:	00420980 	call	42098 <fatDumpTime>
    FAT_DEBUG(("LastWriteDate:")); fatDumpDate(pDir->LastWriteDate);FAT_DEBUG(("\n"));
   4238c:	e0bfff17 	ldw	r2,-4(fp)
   42390:	10c00603 	ldbu	r3,24(r2)
   42394:	10800643 	ldbu	r2,25(r2)
   42398:	1004923a 	slli	r2,r2,8
   4239c:	10c4b03a 	or	r2,r2,r3
   423a0:	10bfffcc 	andi	r2,r2,65535
   423a4:	1009883a 	mov	r4,r2
   423a8:	004203c0 	call	4203c <fatDumpDate>
    FAT_DEBUG(("Cluster:%04Xh(%d)\n", pDir->FirstLogicalCluster,pDir->FirstLogicalCluster));
    FAT_DEBUG(("File Size:%08Xh(%ld)\n", pDir->FileSize, (long)pDir->FileSize));
}
   423ac:	e037883a 	mov	sp,fp
   423b0:	dfc00117 	ldw	ra,4(sp)
   423b4:	df000017 	ldw	fp,0(sp)
   423b8:	dec00204 	addi	sp,sp,8
   423bc:	f800283a 	ret

000423c0 <fatArray2Value>:


unsigned int fatArray2Value(unsigned char *pValue, unsigned int nNum){
   423c0:	defffa04 	addi	sp,sp,-24
   423c4:	df000515 	stw	fp,20(sp)
   423c8:	df000504 	addi	fp,sp,20
   423cc:	e13ffe15 	stw	r4,-8(fp)
   423d0:	e17fff15 	stw	r5,-4(fp)
    alt_u8 *pMSB = (pValue + nNum - 1);
   423d4:	e0bfff17 	ldw	r2,-4(fp)
   423d8:	10bfffc4 	addi	r2,r2,-1
   423dc:	e0fffe17 	ldw	r3,-8(fp)
   423e0:	1885883a 	add	r2,r3,r2
   423e4:	e0bffb15 	stw	r2,-20(fp)
    alt_u32 nValue;
    int i;
    for(i=0;i<nNum;i++){
   423e8:	e03ffd15 	stw	zero,-12(fp)
   423ec:	00000e06 	br	42428 <fatArray2Value+0x68>
        nValue <<= 8;
   423f0:	e0bffc17 	ldw	r2,-16(fp)
   423f4:	1004923a 	slli	r2,r2,8
   423f8:	e0bffc15 	stw	r2,-16(fp)
        nValue |= *pMSB--;
   423fc:	e0bffb17 	ldw	r2,-20(fp)
   42400:	10ffffc4 	addi	r3,r2,-1
   42404:	e0fffb15 	stw	r3,-20(fp)
   42408:	10800003 	ldbu	r2,0(r2)
   4240c:	10803fcc 	andi	r2,r2,255
   42410:	e0fffc17 	ldw	r3,-16(fp)
   42414:	1884b03a 	or	r2,r3,r2
   42418:	e0bffc15 	stw	r2,-16(fp)

unsigned int fatArray2Value(unsigned char *pValue, unsigned int nNum){
    alt_u8 *pMSB = (pValue + nNum - 1);
    alt_u32 nValue;
    int i;
    for(i=0;i<nNum;i++){
   4241c:	e0bffd17 	ldw	r2,-12(fp)
   42420:	10800044 	addi	r2,r2,1
   42424:	e0bffd15 	stw	r2,-12(fp)
   42428:	e0fffd17 	ldw	r3,-12(fp)
   4242c:	e0bfff17 	ldw	r2,-4(fp)
   42430:	18bfef36 	bltu	r3,r2,423f0 <__alt_data_end+0xfffdda00>
        nValue <<= 8;
        nValue |= *pMSB--;
        
    }
    
    return nValue;
   42434:	e0bffc17 	ldw	r2,-16(fp)
}
   42438:	e037883a 	mov	sp,fp
   4243c:	df000017 	ldw	fp,0(sp)
   42440:	dec00104 	addi	sp,sp,4
   42444:	f800283a 	ret

00042448 <fatReadSecter>:

//=================================================================================
//// add in v2.0
bool fatReadSecter(VOLUME_INFO *pVol, alt_u32 nSecter){
   42448:	defffb04 	addi	sp,sp,-20
   4244c:	dfc00415 	stw	ra,16(sp)
   42450:	df000315 	stw	fp,12(sp)
   42454:	df000304 	addi	fp,sp,12
   42458:	e13ffe15 	stw	r4,-8(fp)
   4245c:	e17fff15 	stw	r5,-4(fp)
    bool bSuccess = TRUE;
   42460:	00800044 	movi	r2,1
   42464:	e0bffd15 	stw	r2,-12(fp)
    if (nSecter != pVol->Secter_Index){
   42468:	e0bffe17 	ldw	r2,-8(fp)
   4246c:	10c09017 	ldw	r3,576(r2)
   42470:	e0bfff17 	ldw	r2,-4(fp)
   42474:	18801226 	beq	r3,r2,424c0 <fatReadSecter+0x78>
        if (!pVol->ReadBlock512(pVol->DiskHandle, nSecter, pVol->Secter_Data)){
   42478:	e0bffe17 	ldw	r2,-8(fp)
   4247c:	10800117 	ldw	r2,4(r2)
   42480:	e0fffe17 	ldw	r3,-8(fp)
   42484:	19000017 	ldw	r4,0(r3)
   42488:	e0fffe17 	ldw	r3,-8(fp)
   4248c:	18c01004 	addi	r3,r3,64
   42490:	e17fff17 	ldw	r5,-4(fp)
   42494:	180d883a 	mov	r6,r3
   42498:	103ee83a 	callr	r2
   4249c:	1000051e 	bne	r2,zero,424b4 <fatReadSecter+0x6c>
            pVol->Secter_Index = -1;
   424a0:	e0bffe17 	ldw	r2,-8(fp)
   424a4:	00ffffc4 	movi	r3,-1
   424a8:	10c09015 	stw	r3,576(r2)
            bSuccess = FALSE;
   424ac:	e03ffd15 	stw	zero,-12(fp)
   424b0:	00000306 	br	424c0 <fatReadSecter+0x78>
        }else{
            pVol->Secter_Index = nSecter;
   424b4:	e0bffe17 	ldw	r2,-8(fp)
   424b8:	e0ffff17 	ldw	r3,-4(fp)
   424bc:	10c09015 	stw	r3,576(r2)
        }
    }
    return bSuccess;          
   424c0:	e0bffd17 	ldw	r2,-12(fp)
}     
   424c4:	e037883a 	mov	sp,fp
   424c8:	dfc00117 	ldw	ra,4(sp)
   424cc:	df000017 	ldw	fp,0(sp)
   424d0:	dec00204 	addi	sp,sp,8
   424d4:	f800283a 	ret

000424d8 <fatFindDirectory>:

//=================================================================================
//// add in v2.0
FAT_DIRECTORY* fatFindDirectory(VOLUME_INFO *pVol, alt_u32 nDirectoryIndex){
   424d8:	defff804 	addi	sp,sp,-32
   424dc:	dfc00715 	stw	ra,28(sp)
   424e0:	df000615 	stw	fp,24(sp)
   424e4:	df000604 	addi	fp,sp,24
   424e8:	e13ffe15 	stw	r4,-8(fp)
   424ec:	e17fff15 	stw	r5,-4(fp)
    FAT_DIRECTORY *pDir=NULL;
   424f0:	e03ffa15 	stw	zero,-24(fp)
    alt_u32 nSecterOffset, nSecter, nByteOffset;
             
    nSecterOffset = (sizeof(FAT_DIRECTORY)*nDirectoryIndex)/pVol->BPB_BytsPerSec;
   424f4:	e0bfff17 	ldw	r2,-4(fp)
   424f8:	1006917a 	slli	r3,r2,5
   424fc:	e0bffe17 	ldw	r2,-8(fp)
   42500:	10800617 	ldw	r2,24(r2)
   42504:	1809883a 	mov	r4,r3
   42508:	100b883a 	mov	r5,r2
   4250c:	00453100 	call	45310 <__udivsi3>
   42510:	e0bffb15 	stw	r2,-20(fp)
    nSecter = pVol->RootDirectoryEntrySecter + nSecterOffset;
   42514:	e0bffe17 	ldw	r2,-8(fp)
   42518:	10c00e17 	ldw	r3,56(r2)
   4251c:	e0bffb17 	ldw	r2,-20(fp)
   42520:	1885883a 	add	r2,r3,r2
   42524:	e0bffc15 	stw	r2,-16(fp)
        // read sector
    if (fatReadSecter(pVol, nSecter)){
   42528:	e13ffe17 	ldw	r4,-8(fp)
   4252c:	e17ffc17 	ldw	r5,-16(fp)
   42530:	00424480 	call	42448 <fatReadSecter>
   42534:	10000d26 	beq	r2,zero,4256c <fatFindDirectory+0x94>
        nByteOffset = (sizeof(FAT_DIRECTORY)*nDirectoryIndex)%pVol->BPB_BytsPerSec; 
   42538:	e0bfff17 	ldw	r2,-4(fp)
   4253c:	1006917a 	slli	r3,r2,5
   42540:	e0bffe17 	ldw	r2,-8(fp)
   42544:	10800617 	ldw	r2,24(r2)
   42548:	1809883a 	mov	r4,r3
   4254c:	100b883a 	mov	r5,r2
   42550:	00453180 	call	45318 <__umodsi3>
   42554:	e0bffd15 	stw	r2,-12(fp)
        pDir = (FAT_DIRECTORY *)(pVol->Secter_Data + nByteOffset);
   42558:	e0bffd17 	ldw	r2,-12(fp)
   4255c:	10801004 	addi	r2,r2,64
   42560:	e0fffe17 	ldw	r3,-8(fp)
   42564:	1885883a 	add	r2,r3,r2
   42568:	e0bffa15 	stw	r2,-24(fp)
    }        
        
    return pDir;        
   4256c:	e0bffa17 	ldw	r2,-24(fp)
}
   42570:	e037883a 	mov	sp,fp
   42574:	dfc00117 	ldw	ra,4(sp)
   42578:	df000017 	ldw	fp,0(sp)
   4257c:	dec00204 	addi	sp,sp,8
   42580:	f800283a 	ret

00042584 <fatFindUnusedDirectory>:

//=================================================================================
//// add in v2.0
alt_u32 fatFindUnusedDirectory(VOLUME_INFO *pVol){
   42584:	defff604 	addi	sp,sp,-40
   42588:	dfc00915 	stw	ra,36(sp)
   4258c:	df000815 	stw	fp,32(sp)
   42590:	df000804 	addi	fp,sp,32
   42594:	e13fff15 	stw	r4,-4(fp)
    alt_u32 Dir = -1;
   42598:	00bfffc4 	movi	r2,-1
   4259c:	e0bff815 	stw	r2,-32(fp)
    FAT_DIRECTORY *pDir=NULL;
   425a0:	e03ffb15 	stw	zero,-20(fp)
    alt_u32 nSecterOffset, nSecter, nByteOffset;
    alt_u32 nDirectoryIndex = 2; //??? start from ?
   425a4:	00800084 	movi	r2,2
   425a8:	e0bff915 	stw	r2,-28(fp)
    bool bDone = FALSE;
   425ac:	e03ffa15 	stw	zero,-24(fp)
             
    while(!bDone){             
   425b0:	00003006 	br	42674 <fatFindUnusedDirectory+0xf0>
        nSecterOffset = (sizeof(FAT_DIRECTORY)*nDirectoryIndex)/pVol->BPB_BytsPerSec;
   425b4:	e0bff917 	ldw	r2,-28(fp)
   425b8:	1006917a 	slli	r3,r2,5
   425bc:	e0bfff17 	ldw	r2,-4(fp)
   425c0:	10800617 	ldw	r2,24(r2)
   425c4:	1809883a 	mov	r4,r3
   425c8:	100b883a 	mov	r5,r2
   425cc:	00453100 	call	45310 <__udivsi3>
   425d0:	e0bffc15 	stw	r2,-16(fp)
        nSecter = pVol->RootDirectoryEntrySecter + nSecterOffset;
   425d4:	e0bfff17 	ldw	r2,-4(fp)
   425d8:	10c00e17 	ldw	r3,56(r2)
   425dc:	e0bffc17 	ldw	r2,-16(fp)
   425e0:	1885883a 	add	r2,r3,r2
   425e4:	e0bffd15 	stw	r2,-12(fp)
            // read sector
        if (fatReadSecter(pVol, nSecter)){
   425e8:	e13fff17 	ldw	r4,-4(fp)
   425ec:	e17ffd17 	ldw	r5,-12(fp)
   425f0:	00424480 	call	42448 <fatReadSecter>
   425f4:	10001e26 	beq	r2,zero,42670 <fatFindUnusedDirectory+0xec>
            nByteOffset = (sizeof(FAT_DIRECTORY)*nDirectoryIndex)%pVol->BPB_BytsPerSec; 
   425f8:	e0bff917 	ldw	r2,-28(fp)
   425fc:	1006917a 	slli	r3,r2,5
   42600:	e0bfff17 	ldw	r2,-4(fp)
   42604:	10800617 	ldw	r2,24(r2)
   42608:	1809883a 	mov	r4,r3
   4260c:	100b883a 	mov	r5,r2
   42610:	00453180 	call	45318 <__umodsi3>
   42614:	e0bffe15 	stw	r2,-8(fp)
            pDir = (FAT_DIRECTORY *)(pVol->Secter_Data + nByteOffset);
   42618:	e0bffe17 	ldw	r2,-8(fp)
   4261c:	10801004 	addi	r2,r2,64
   42620:	e0ffff17 	ldw	r3,-4(fp)
   42624:	1885883a 	add	r2,r3,r2
   42628:	e0bffb15 	stw	r2,-20(fp)
            if (fatIsLastDir(pDir) || fatIsUnusedDir(pDir)){
   4262c:	e13ffb17 	ldw	r4,-20(fp)
   42630:	00420f40 	call	420f4 <fatIsLastDir>
   42634:	1000031e 	bne	r2,zero,42644 <fatFindUnusedDirectory+0xc0>
   42638:	e13ffb17 	ldw	r4,-20(fp)
   4263c:	00421e00 	call	421e0 <fatIsUnusedDir>
   42640:	10000726 	beq	r2,zero,42660 <fatFindUnusedDirectory+0xdc>
                bDone = TRUE;
   42644:	00800044 	movi	r2,1
   42648:	e0bffa15 	stw	r2,-24(fp)
                if (fatIsUnusedDir(pDir))
   4264c:	e13ffb17 	ldw	r4,-20(fp)
   42650:	00421e00 	call	421e0 <fatIsUnusedDir>
   42654:	10000226 	beq	r2,zero,42660 <fatFindUnusedDirectory+0xdc>
                    Dir = nDirectoryIndex;
   42658:	e0bff917 	ldw	r2,-28(fp)
   4265c:	e0bff815 	stw	r2,-32(fp)
            }
            nDirectoryIndex++;        
   42660:	e0bff917 	ldw	r2,-28(fp)
   42664:	10800044 	addi	r2,r2,1
   42668:	e0bff915 	stw	r2,-28(fp)
   4266c:	00000106 	br	42674 <fatFindUnusedDirectory+0xf0>
        }else{
                bDone = FALSE;
   42670:	e03ffa15 	stw	zero,-24(fp)
    FAT_DIRECTORY *pDir=NULL;
    alt_u32 nSecterOffset, nSecter, nByteOffset;
    alt_u32 nDirectoryIndex = 2; //??? start from ?
    bool bDone = FALSE;
             
    while(!bDone){             
   42674:	e0bffa17 	ldw	r2,-24(fp)
   42678:	103fce26 	beq	r2,zero,425b4 <__alt_data_end+0xfffddbc4>
        }else{
                bDone = FALSE;
        }
    }             
    
    return Dir;      
   4267c:	e0bff817 	ldw	r2,-32(fp)
}
   42680:	e037883a 	mov	sp,fp
   42684:	dfc00117 	ldw	ra,4(sp)
   42688:	df000017 	ldw	fp,0(sp)
   4268c:	dec00204 	addi	sp,sp,8
   42690:	f800283a 	ret

00042694 <fatMount>:

//=================================================================================
bool fatMount(VOLUME_INFO *pVol){
   42694:	deff7604 	addi	sp,sp,-552
   42698:	dfc08915 	stw	ra,548(sp)
   4269c:	df008815 	stw	fp,544(sp)
   426a0:	dc008715 	stw	r16,540(sp)
   426a4:	df008804 	addi	fp,sp,544
   426a8:	e13ffe15 	stw	r4,-8(fp)
    bool bSuccess = TRUE;
   426ac:	00800044 	movi	r2,1
   426b0:	e0bf7815 	stw	r2,-544(fp)
    // 1DEh( 16 bytes): 3nd Partition Entry
    // 1EEh( 16 bytes): 4nd Partition Entry
    // 1FEh(  2 bytes): Executable Maker (55h AAh)
    
    // read first block (secotor 0), BPB(BIOS Parameter Block) or called as boot sector or reserved sector
    if (!pVol->ReadBlock512(pVol->DiskHandle, 0, szBlock)){
   426b4:	e0bffe17 	ldw	r2,-8(fp)
   426b8:	10800117 	ldw	r2,4(r2)
   426bc:	e0fffe17 	ldw	r3,-8(fp)
   426c0:	19000017 	ldw	r4,0(r3)
   426c4:	e0ff7e04 	addi	r3,fp,-520
   426c8:	000b883a 	mov	r5,zero
   426cc:	180d883a 	mov	r6,r3
   426d0:	103ee83a 	callr	r2
   426d4:	1000021e 	bne	r2,zero,426e0 <fatMount+0x4c>
        FAT_DEBUG(("Read section 0 error.\n"));
        return FALSE;
   426d8:	0005883a 	mov	r2,zero
   426dc:	0000ae06 	br	42998 <fatMount+0x304>
        return FALSE;
    }
    */
        
    // check file system 
    FirstPartitionEntry = 0x1BE;
   426e0:	00806f84 	movi	r2,446
   426e4:	e0bf7915 	stw	r2,-540(fp)
    //PartitionType = szBlock[FirstPartitionEntry + 4];
    PartitionType = szBlock[0x01C2];
   426e8:	e0bfee83 	ldbu	r2,-70(fp)
   426ec:	10803fcc 	andi	r2,r2,255
   426f0:	e0bf7a15 	stw	r2,-536(fp)
    if (PartitionType == PARTITION_FAT16){
   426f4:	e0bf7a17 	ldw	r2,-536(fp)
   426f8:	108001a0 	cmpeqi	r2,r2,6
   426fc:	1000051e 	bne	r2,zero,42714 <fatMount+0x80>
        FAT_DEBUG(("FAT16\n"));
    }else if (PartitionType == PARTITION_FAT32){
   42700:	e0bf7a17 	ldw	r2,-536(fp)
   42704:	108002e0 	cmpeqi	r2,r2,11
   42708:	1000021e 	bne	r2,zero,42714 <fatMount+0x80>
        FAT_DEBUG(("FAT32\n"));
    }else{        
        FAT_DEBUG(("the partition type(%d) is not supported.\n", PartitionType));
        return FALSE; // only support FAT16 in this example
   4270c:	0005883a 	mov	r2,zero
   42710:	0000a106 	br	42998 <fatMount+0x304>
    }       
    pVol->Partition_Type = PartitionType; 
   42714:	e0ff7a17 	ldw	r3,-536(fp)
   42718:	e0bffe17 	ldw	r2,-8(fp)
   4271c:	10c00315 	stw	r3,12(r2)
    // 2.2 Find the first section of partition 1                    
    FirstSectionInVolume1 = fatArray2Value(&szBlock[FirstPartitionEntry + 8],4);
   42720:	e0bf7917 	ldw	r2,-540(fp)
   42724:	10800204 	addi	r2,r2,8
   42728:	e0ff7e04 	addi	r3,fp,-520
   4272c:	1885883a 	add	r2,r3,r2
   42730:	1009883a 	mov	r4,r2
   42734:	01400104 	movi	r5,4
   42738:	00423c00 	call	423c0 <fatArray2Value>
   4273c:	e0bf7b15 	stw	r2,-532(fp)
                            //szBlock[FirstPartitionEntry + 8 + 1]*256 + 
                            //szBlock[FirstPartitionEntry + 8];        
    
    //3 Parsing the Volume Boot Record(BR)
    //3.1  Read the Volume Boot Record(BR)
    if (!pVol->ReadBlock512(pVol->DiskHandle, FirstSectionInVolume1, szBlock)){
   42740:	e0bffe17 	ldw	r2,-8(fp)
   42744:	10800117 	ldw	r2,4(r2)
   42748:	e0fffe17 	ldw	r3,-8(fp)
   4274c:	19000017 	ldw	r4,0(r3)
   42750:	e17f7b17 	ldw	r5,-532(fp)
   42754:	e0ff7e04 	addi	r3,fp,-520
   42758:	180d883a 	mov	r6,r3
   4275c:	103ee83a 	callr	r2
   42760:	1000021e 	bne	r2,zero,4276c <fatMount+0xd8>
        FAT_DEBUG(("Read first sector in volume one fail.\n"));
        return FALSE;
   42764:	0005883a 	mov	r2,zero
   42768:	00008b06 	br	42998 <fatMount+0x304>
    }        
    pVol->PartitionStartSecter = FirstSectionInVolume1;     
   4276c:	e0ff7b17 	ldw	r3,-532(fp)
   42770:	e0bffe17 	ldw	r2,-8(fp)
   42774:	10c00515 	stw	r3,20(r2)
    pVol->BPB_BytsPerSec = szBlock[0x0B+1]*256 + szBlock[0x0B];
   42778:	e0bf8103 	ldbu	r2,-508(fp)
   4277c:	10803fcc 	andi	r2,r2,255
   42780:	1006923a 	slli	r3,r2,8
   42784:	e0bf80c3 	ldbu	r2,-509(fp)
   42788:	10803fcc 	andi	r2,r2,255
   4278c:	1885883a 	add	r2,r3,r2
   42790:	1007883a 	mov	r3,r2
   42794:	e0bffe17 	ldw	r2,-8(fp)
   42798:	10c00615 	stw	r3,24(r2)
    pVol->BPB_SecPerCluster = szBlock[0x0D];
   4279c:	e0bf8143 	ldbu	r2,-507(fp)
   427a0:	10c03fcc 	andi	r3,r2,255
   427a4:	e0bffe17 	ldw	r2,-8(fp)
   427a8:	10c00715 	stw	r3,28(r2)
    pVol->BPB_RsvdSecCnt = szBlock[0x0E + 1]*256 + szBlock[0x0E]; 
   427ac:	e0bf81c3 	ldbu	r2,-505(fp)
   427b0:	10803fcc 	andi	r2,r2,255
   427b4:	1006923a 	slli	r3,r2,8
   427b8:	e0bf8183 	ldbu	r2,-506(fp)
   427bc:	10803fcc 	andi	r2,r2,255
   427c0:	1885883a 	add	r2,r3,r2
   427c4:	1007883a 	mov	r3,r2
   427c8:	e0bffe17 	ldw	r2,-8(fp)
   427cc:	10c00815 	stw	r3,32(r2)
    pVol->BPB_NumFATs = szBlock[0x10];
   427d0:	e0bf8203 	ldbu	r2,-504(fp)
   427d4:	10c03fcc 	andi	r3,r2,255
   427d8:	e0bffe17 	ldw	r2,-8(fp)
   427dc:	10c00915 	stw	r3,36(r2)
    pVol->BPB_RootEntCnt = szBlock[0x11+1]*256 + szBlock[0x11]; 
   427e0:	e0bf8283 	ldbu	r2,-502(fp)
   427e4:	10803fcc 	andi	r2,r2,255
   427e8:	1006923a 	slli	r3,r2,8
   427ec:	e0bf8243 	ldbu	r2,-503(fp)
   427f0:	10803fcc 	andi	r2,r2,255
   427f4:	1885883a 	add	r2,r3,r2
   427f8:	1007883a 	mov	r3,r2
   427fc:	e0bffe17 	ldw	r2,-8(fp)
   42800:	10c00a15 	stw	r3,40(r2)
    pVol->BPB_FATSz = szBlock[0x16+1]*256 + szBlock[0x16];
   42804:	e0bf83c3 	ldbu	r2,-497(fp)
   42808:	10803fcc 	andi	r2,r2,255
   4280c:	1006923a 	slli	r3,r2,8
   42810:	e0bf8383 	ldbu	r2,-498(fp)
   42814:	10803fcc 	andi	r2,r2,255
   42818:	1885883a 	add	r2,r3,r2
   4281c:	1007883a 	mov	r3,r2
   42820:	e0bffe17 	ldw	r2,-8(fp)
   42824:	10c00b15 	stw	r3,44(r2)
    
    // add for v2.0
    pVol->Secter_Index = -1;
   42828:	e0bffe17 	ldw	r2,-8(fp)
   4282c:	00ffffc4 	movi	r3,-1
   42830:	10c09015 	stw	r3,576(r2)
    memset(pVol->Secter_Data, 0, MY_SECTER_SIZE); // 512 bytes
   42834:	e0bffe17 	ldw	r2,-8(fp)
   42838:	10801004 	addi	r2,r2,64
   4283c:	1009883a 	mov	r4,r2
   42840:	000b883a 	mov	r5,zero
   42844:	01808004 	movi	r6,512
   42848:	004728c0 	call	4728c <memset>
    
    if (pVol->Partition_Type == PARTITION_FAT32){
   4284c:	e0bffe17 	ldw	r2,-8(fp)
   42850:	10800317 	ldw	r2,12(r2)
   42854:	108002d8 	cmpnei	r2,r2,11
   42858:	1000081e 	bne	r2,zero,4287c <fatMount+0x1e8>
        pVol->BPB_FATSz = fatArray2Value(&szBlock[0x24], 4);  // BPB_FATSz32
   4285c:	e0bf7e04 	addi	r2,fp,-520
   42860:	10800904 	addi	r2,r2,36
   42864:	1009883a 	mov	r4,r2
   42868:	01400104 	movi	r5,4
   4286c:	00423c00 	call	423c0 <fatArray2Value>
   42870:	1007883a 	mov	r3,r2
   42874:	e0bffe17 	ldw	r2,-8(fp)
   42878:	10c00b15 	stw	r3,44(r2)
        //pVol->BPB_RootEntCnt = fatArray2Value(&szBlock[0x2C], 4);  // BPB_RootClus            
    }
    
    if (pVol->BPB_BytsPerSec != MY_SECTER_SIZE){
   4287c:	e0bffe17 	ldw	r2,-8(fp)
   42880:	10800617 	ldw	r2,24(r2)
   42884:	10808020 	cmpeqi	r2,r2,512
   42888:	1000021e 	bne	r2,zero,42894 <fatMount+0x200>
        FAT_DEBUG(("This program only supports FAT BPB_BytsPerSec == %d\n", MY_SECTER_SIZE));
        return FALSE; // only support FAT16 in this example
   4288c:	0005883a 	mov	r2,zero
   42890:	00004106 	br	42998 <fatMount+0x304>
    FAT_DEBUG(("Number of Copyies of FAT: %02Xh(%d)\n", gVolumeInfo.BPB_NumFATs, gVolumeInfo.BPB_NumFATs));
    FAT_DEBUG(("Maxmun Root Directory Entries: %04Xh(%d)\n", gVolumeInfo.BPB_RootEntCnt, gVolumeInfo.BPB_RootEntCnt));
    FAT_DEBUG(("Sectors Per FAT: %04Xh(%d)\n", gVolumeInfo.BPB_FATSz, gVolumeInfo.BPB_FATSz));
#endif    
    //
    pVol->FatEntrySecter = pVol->PartitionStartSecter + pVol->BPB_RsvdSecCnt;
   42894:	e0bffe17 	ldw	r2,-8(fp)
   42898:	10c00517 	ldw	r3,20(r2)
   4289c:	e0bffe17 	ldw	r2,-8(fp)
   428a0:	10800817 	ldw	r2,32(r2)
   428a4:	1887883a 	add	r3,r3,r2
   428a8:	e0bffe17 	ldw	r2,-8(fp)
   428ac:	10c00d15 	stw	r3,52(r2)
    pVol->RootDirectoryEntrySecter = pVol->FatEntrySecter + pVol->BPB_NumFATs * pVol->BPB_FATSz;
   428b0:	e0bffe17 	ldw	r2,-8(fp)
   428b4:	14000d17 	ldw	r16,52(r2)
   428b8:	e0bffe17 	ldw	r2,-8(fp)
   428bc:	10c00917 	ldw	r3,36(r2)
   428c0:	e0bffe17 	ldw	r2,-8(fp)
   428c4:	10800b17 	ldw	r2,44(r2)
   428c8:	1809883a 	mov	r4,r3
   428cc:	100b883a 	mov	r5,r2
   428d0:	00453200 	call	45320 <__mulsi3>
   428d4:	8087883a 	add	r3,r16,r2
   428d8:	e0bffe17 	ldw	r2,-8(fp)
   428dc:	10c00e15 	stw	r3,56(r2)
    pVol->DataEntrySecter = pVol->RootDirectoryEntrySecter + ((pVol->BPB_RootEntCnt*32)+(pVol->BPB_BytsPerSec-1))/pVol->BPB_BytsPerSec;
   428e0:	e0bffe17 	ldw	r2,-8(fp)
   428e4:	14000e17 	ldw	r16,56(r2)
   428e8:	e0bffe17 	ldw	r2,-8(fp)
   428ec:	10800a17 	ldw	r2,40(r2)
   428f0:	1006917a 	slli	r3,r2,5
   428f4:	e0bffe17 	ldw	r2,-8(fp)
   428f8:	10800617 	ldw	r2,24(r2)
   428fc:	1885883a 	add	r2,r3,r2
   42900:	10ffffc4 	addi	r3,r2,-1
   42904:	e0bffe17 	ldw	r2,-8(fp)
   42908:	10800617 	ldw	r2,24(r2)
   4290c:	1809883a 	mov	r4,r3
   42910:	100b883a 	mov	r5,r2
   42914:	00453100 	call	45310 <__udivsi3>
   42918:	8087883a 	add	r3,r16,r2
   4291c:	e0bffe17 	ldw	r2,-8(fp)
   42920:	10c00f15 	stw	r3,60(r2)
    
    // read FAT table into memory
    pVol->nBytesPerCluster = pVol->BPB_BytsPerSec * pVol->BPB_SecPerCluster;
   42924:	e0bffe17 	ldw	r2,-8(fp)
   42928:	10c00617 	ldw	r3,24(r2)
   4292c:	e0bffe17 	ldw	r2,-8(fp)
   42930:	10800717 	ldw	r2,28(r2)
   42934:	1809883a 	mov	r4,r3
   42938:	100b883a 	mov	r5,r2
   4293c:	00453200 	call	45320 <__mulsi3>
   42940:	1007883a 	mov	r3,r2
   42944:	e0bffe17 	ldw	r2,-8(fp)
   42948:	10c00c15 	stw	r3,48(r2)
    nFatTableSecterNum = pVol->BPB_NumFATs * pVol->BPB_FATSz;
   4294c:	e0bffe17 	ldw	r2,-8(fp)
   42950:	10c00917 	ldw	r3,36(r2)
   42954:	e0bffe17 	ldw	r2,-8(fp)
   42958:	10800b17 	ldw	r2,44(r2)
   4295c:	1809883a 	mov	r4,r3
   42960:	100b883a 	mov	r5,r2
   42964:	00453200 	call	45320 <__mulsi3>
   42968:	e0bf7c15 	stw	r2,-528(fp)
    nFatTableSize = nFatTableSecterNum * pVol->BPB_BytsPerSec;
   4296c:	e0bffe17 	ldw	r2,-8(fp)
   42970:	10c00617 	ldw	r3,24(r2)
   42974:	e0bf7c17 	ldw	r2,-528(fp)
   42978:	1809883a 	mov	r4,r3
   4297c:	100b883a 	mov	r5,r2
   42980:	00453200 	call	45320 <__mulsi3>
   42984:	e0bf7d15 	stw	r2,-524(fp)
    if (bSuccess){
        FAT_DEBUG(("Fat_Mount success\n"));
    }else{        
        FAT_DEBUG(("Fat_Mount fail\n"));
    }        
    pVol->bMount = bSuccess;
   42988:	e0bffe17 	ldw	r2,-8(fp)
   4298c:	e0ff7817 	ldw	r3,-544(fp)
   42990:	10c00415 	stw	r3,16(r2)
    return bSuccess;   
   42994:	e0bf7817 	ldw	r2,-544(fp)
    

}
   42998:	e6ffff04 	addi	sp,fp,-4
   4299c:	dfc00217 	ldw	ra,8(sp)
   429a0:	df000117 	ldw	fp,4(sp)
   429a4:	dc000017 	ldw	r16,0(sp)
   429a8:	dec00304 	addi	sp,sp,12
   429ac:	f800283a 	ret

000429b0 <SD_ReadBlock512>:

//===================== SUPPORT_SD_CARD =================================================
#ifdef SUPPORT_SD_CARD

bool SD_ReadBlock512(DISK_HANDLE DiskHandle, alt_u32 PysicalSelector, alt_u8 szBuf[512]){
   429b0:	defffb04 	addi	sp,sp,-20
   429b4:	dfc00415 	stw	ra,16(sp)
   429b8:	df000315 	stw	fp,12(sp)
   429bc:	df000304 	addi	fp,sp,12
   429c0:	e13ffd15 	stw	r4,-12(fp)
   429c4:	e17ffe15 	stw	r5,-8(fp)
   429c8:	e1bfff15 	stw	r6,-4(fp)
    return SDLIB_ReadBlock512(PysicalSelector, szBuf);
   429cc:	e13ffe17 	ldw	r4,-8(fp)
   429d0:	e17fff17 	ldw	r5,-4(fp)
   429d4:	0043a500 	call	43a50 <SDLIB_ReadBlock512>
}
   429d8:	e037883a 	mov	sp,fp
   429dc:	dfc00117 	ldw	ra,4(sp)
   429e0:	df000017 	ldw	fp,0(sp)
   429e4:	dec00204 	addi	sp,sp,8
   429e8:	f800283a 	ret

000429ec <SD_WriteBlock512>:

bool SD_WriteBlock512(DISK_HANDLE DiskHandle, alt_u32 PysicalSelector, alt_u8 szBuf[512]){
   429ec:	defffb04 	addi	sp,sp,-20
   429f0:	dfc00415 	stw	ra,16(sp)
   429f4:	df000315 	stw	fp,12(sp)
   429f8:	df000304 	addi	fp,sp,12
   429fc:	e13ffd15 	stw	r4,-12(fp)
   42a00:	e17ffe15 	stw	r5,-8(fp)
   42a04:	e1bfff15 	stw	r6,-4(fp)
    return SDLIB_WriteBlock512(PysicalSelector, szBuf);
   42a08:	e13ffe17 	ldw	r4,-8(fp)
   42a0c:	e17fff17 	ldw	r5,-4(fp)
   42a10:	0043ad00 	call	43ad0 <SDLIB_WriteBlock512>
}
   42a14:	e037883a 	mov	sp,fp
   42a18:	dfc00117 	ldw	ra,4(sp)
   42a1c:	df000017 	ldw	fp,0(sp)
   42a20:	dec00204 	addi	sp,sp,8
   42a24:	f800283a 	ret

00042a28 <fatMountSdcard>:

FAT_HANDLE fatMountSdcard(void){
   42a28:	defff804 	addi	sp,sp,-32
   42a2c:	dfc00715 	stw	ra,28(sp)
   42a30:	df000615 	stw	fp,24(sp)
   42a34:	df000604 	addi	fp,sp,24
    FAT_HANDLE hFat = 0;
   42a38:	e03ffa15 	stw	zero,-24(fp)
    VOLUME_INFO *pVol;
    const int nMaxTry=10;
   42a3c:	00800284 	movi	r2,10
   42a40:	e0bffd15 	stw	r2,-12(fp)
    bool bFind = FALSE;
   42a44:	e03ffb15 	stw	zero,-20(fp)
    int nTry=0;
   42a48:	e03ffc15 	stw	zero,-16(fp)
    bool bSuccess = TRUE;
   42a4c:	00800044 	movi	r2,1
   42a50:	e0bffe15 	stw	r2,-8(fp)
    
        
    //1. chek whether SD Card existed. Init SD card if it is present.
    while(!bFind && nTry++ < nMaxTry){
   42a54:	00000706 	br	42a74 <fatMountSdcard+0x4c>
        bFind = SDLIB_Init();
   42a58:	004371c0 	call	4371c <SDLIB_Init>
   42a5c:	e0bffb15 	stw	r2,-20(fp)
        if (!bFind)
   42a60:	e0bffb17 	ldw	r2,-20(fp)
   42a64:	1000031e 	bne	r2,zero,42a74 <fatMountSdcard+0x4c>
            usleep(100*1000);
   42a68:	010000b4 	movhi	r4,2
   42a6c:	2121a804 	addi	r4,r4,-31072
   42a70:	0056a0c0 	call	56a0c <usleep>
    int nTry=0;
    bool bSuccess = TRUE;
    
        
    //1. chek whether SD Card existed. Init SD card if it is present.
    while(!bFind && nTry++ < nMaxTry){
   42a74:	e0bffb17 	ldw	r2,-20(fp)
   42a78:	1000051e 	bne	r2,zero,42a90 <fatMountSdcard+0x68>
   42a7c:	e0bffc17 	ldw	r2,-16(fp)
   42a80:	10c00044 	addi	r3,r2,1
   42a84:	e0fffc15 	stw	r3,-16(fp)
   42a88:	e0fffd17 	ldw	r3,-12(fp)
   42a8c:	10fff216 	blt	r2,r3,42a58 <__alt_data_end+0xfffde068>
        bFind = SDLIB_Init();
        if (!bFind)
            usleep(100*1000);
    }
    if (!bFind){
   42a90:	e0bffb17 	ldw	r2,-20(fp)
   42a94:	1000021e 	bne	r2,zero,42aa0 <fatMountSdcard+0x78>
        FAT_DEBUG(("Cannot find SD card.\n"));
        return hFat;
   42a98:	e0bffa17 	ldw	r2,-24(fp)
   42a9c:	00001a06 	br	42b08 <fatMountSdcard+0xe0>
    }    
    
    hFat = malloc(sizeof(VOLUME_INFO));
   42aa0:	01009104 	movi	r4,580
   42aa4:	00469840 	call	46984 <malloc>
   42aa8:	e0bffa15 	stw	r2,-24(fp)
    pVol = (VOLUME_INFO *)hFat;
   42aac:	e0bffa17 	ldw	r2,-24(fp)
   42ab0:	e0bfff15 	stw	r2,-4(fp)
    pVol->ReadBlock512 = SD_ReadBlock512;
   42ab4:	e0ffff17 	ldw	r3,-4(fp)
   42ab8:	00800134 	movhi	r2,4
   42abc:	108a6c04 	addi	r2,r2,10672
   42ac0:	18800115 	stw	r2,4(r3)
    pVol->WriteBlock512 = SD_WriteBlock512;
   42ac4:	e0ffff17 	ldw	r3,-4(fp)
   42ac8:	00800134 	movhi	r2,4
   42acc:	108a7b04 	addi	r2,r2,10732
   42ad0:	18800215 	stw	r2,8(r3)
    bSuccess = fatMount(pVol);
   42ad4:	e13fff17 	ldw	r4,-4(fp)
   42ad8:	00426940 	call	42694 <fatMount>
   42adc:	e0bffe15 	stw	r2,-8(fp)
        
    
  
    if (bSuccess){
   42ae0:	e0bffe17 	ldw	r2,-8(fp)
   42ae4:	10000426 	beq	r2,zero,42af8 <fatMountSdcard+0xd0>
        FAT_DEBUG(("Fat_Mount success\n"));
        pVol->bMount = TRUE;
   42ae8:	e0bfff17 	ldw	r2,-4(fp)
   42aec:	00c00044 	movi	r3,1
   42af0:	10c00415 	stw	r3,16(r2)
   42af4:	00000306 	br	42b04 <fatMountSdcard+0xdc>
    }else{        
        FAT_DEBUG(("Fat_Mount fail\n"));
        free((void *)hFat);
   42af8:	e13ffa17 	ldw	r4,-24(fp)
   42afc:	00469980 	call	46998 <free>
        hFat = 0;
   42b00:	e03ffa15 	stw	zero,-24(fp)
    }        

    return hFat;   
   42b04:	e0bffa17 	ldw	r2,-24(fp)
}
   42b08:	e037883a 	mov	sp,fp
   42b0c:	dfc00117 	ldw	ra,4(sp)
   42b10:	df000017 	ldw	fp,0(sp)
   42b14:	dec00204 	addi	sp,sp,8
   42b18:	f800283a 	ret

00042b1c <LED_AllOn>:
#include "LED.h"

#define LED_INIT_MASK   (0x01 << 24)


void LED_AllOn(void){
   42b1c:	defffe04 	addi	sp,sp,-8
   42b20:	dfc00115 	stw	ra,4(sp)
   42b24:	df000015 	stw	fp,0(sp)
   42b28:	d839883a 	mov	fp,sp
    LED_Display(0xFFFFFFFF);       
   42b2c:	013fffc4 	movi	r4,-1
   42b30:	0042b740 	call	42b74 <LED_Display>
}
   42b34:	e037883a 	mov	sp,fp
   42b38:	dfc00117 	ldw	ra,4(sp)
   42b3c:	df000017 	ldw	fp,0(sp)
   42b40:	dec00204 	addi	sp,sp,8
   42b44:	f800283a 	ret

00042b48 <LED_AllOff>:

void LED_AllOff(void){
   42b48:	defffe04 	addi	sp,sp,-8
   42b4c:	dfc00115 	stw	ra,4(sp)
   42b50:	df000015 	stw	fp,0(sp)
   42b54:	d839883a 	mov	fp,sp
    LED_Display(0x00);       
   42b58:	0009883a 	mov	r4,zero
   42b5c:	0042b740 	call	42b74 <LED_Display>
}
   42b60:	e037883a 	mov	sp,fp
   42b64:	dfc00117 	ldw	ra,4(sp)
   42b68:	df000017 	ldw	fp,0(sp)
   42b6c:	dec00204 	addi	sp,sp,8
   42b70:	f800283a 	ret

00042b74 <LED_Display>:

void LED_Display(alt_u32 Mask){ // 1: light, 0:unlight
   42b74:	defffd04 	addi	sp,sp,-12
   42b78:	df000215 	stw	fp,8(sp)
   42b7c:	df000204 	addi	fp,sp,8
   42b80:	e13fff15 	stw	r4,-4(fp)
    alt_u32 ThisMask;
    ThisMask = Mask;//~(Mask & 0x7FFFFFF);
   42b84:	e0bfff17 	ldw	r2,-4(fp)
   42b88:	e0bffe15 	stw	r2,-8(fp)
    IOWR_ALTERA_AVALON_PIO_DATA(LED_BASE, ThisMask >> 9);  //0:ligh, 1:unlight
   42b8c:	e0bffe17 	ldw	r2,-8(fp)
   42b90:	1004d27a 	srli	r2,r2,9
   42b94:	1007883a 	mov	r3,r2
   42b98:	00800234 	movhi	r2,8
   42b9c:	10841c04 	addi	r2,r2,4208
   42ba0:	10c00035 	stwio	r3,0(r2)
    
}
   42ba4:	e037883a 	mov	sp,fp
   42ba8:	df000017 	ldw	fp,0(sp)
   42bac:	dec00104 	addi	sp,sp,4
   42bb0:	f800283a 	ret

00042bb4 <LED_LightCount>:

void LED_LightCount(alt_u8 LightCount){ // 1: light, 0:unlight
   42bb4:	defffc04 	addi	sp,sp,-16
   42bb8:	df000315 	stw	fp,12(sp)
   42bbc:	df000304 	addi	fp,sp,12
   42bc0:	2005883a 	mov	r2,r4
   42bc4:	e0bfff05 	stb	r2,-4(fp)
    alt_u32 Mask = 0;
   42bc8:	e03ffd15 	stw	zero,-12(fp)
    int i;
    for(i=0;i<LightCount;i++){
   42bcc:	e03ffe15 	stw	zero,-8(fp)
   42bd0:	00000906 	br	42bf8 <LED_LightCount+0x44>
        Mask <<= 1;
   42bd4:	e0bffd17 	ldw	r2,-12(fp)
   42bd8:	1085883a 	add	r2,r2,r2
   42bdc:	e0bffd15 	stw	r2,-12(fp)
        Mask |= 0x01;
   42be0:	e0bffd17 	ldw	r2,-12(fp)
   42be4:	10800054 	ori	r2,r2,1
   42be8:	e0bffd15 	stw	r2,-12(fp)
}

void LED_LightCount(alt_u8 LightCount){ // 1: light, 0:unlight
    alt_u32 Mask = 0;
    int i;
    for(i=0;i<LightCount;i++){
   42bec:	e0bffe17 	ldw	r2,-8(fp)
   42bf0:	10800044 	addi	r2,r2,1
   42bf4:	e0bffe15 	stw	r2,-8(fp)
   42bf8:	e0bfff03 	ldbu	r2,-4(fp)
   42bfc:	e0fffe17 	ldw	r3,-8(fp)
   42c00:	18bff416 	blt	r3,r2,42bd4 <__alt_data_end+0xfffde1e4>
        Mask <<= 1;
        Mask |= 0x01;
    }
    IOWR_ALTERA_AVALON_PIO_DATA(LED_BASE, Mask >> 8);  //0:ligh, 1:unlight
   42c04:	e0bffd17 	ldw	r2,-12(fp)
   42c08:	1004d23a 	srli	r2,r2,8
   42c0c:	1007883a 	mov	r3,r2
   42c10:	00800234 	movhi	r2,8
   42c14:	10841c04 	addi	r2,r2,4208
   42c18:	10c00035 	stwio	r3,0(r2)
    
}
   42c1c:	e037883a 	mov	sp,fp
   42c20:	df000017 	ldw	fp,0(sp)
   42c24:	dec00104 	addi	sp,sp,4
   42c28:	f800283a 	ret

00042c2c <debug_output>:
    UART_WriteString(pMessage);  // UART debug
}

#else

void debug_output(char *pMessage){
   42c2c:	defffd04 	addi	sp,sp,-12
   42c30:	dfc00215 	stw	ra,8(sp)
   42c34:	df000115 	stw	fp,4(sp)
   42c38:	df000104 	addi	fp,sp,4
   42c3c:	e13fff15 	stw	r4,-4(fp)
    
    printf(pMessage);
   42c40:	e13fff17 	ldw	r4,-4(fp)
   42c44:	00473dc0 	call	473dc <printf>
}
   42c48:	e037883a 	mov	sp,fp
   42c4c:	dfc00117 	ldw	ra,4(sp)
   42c50:	df000017 	ldw	fp,0(sp)
   42c54:	dec00204 	addi	sp,sp,8
   42c58:	f800283a 	ret

00042c5c <myprintf>:





int myprintf(char *format, ...){
   42c5c:	deff7804 	addi	sp,sp,-544
   42c60:	dfc08415 	stw	ra,528(sp)
   42c64:	df008315 	stw	fp,524(sp)
   42c68:	df008304 	addi	fp,sp,524
   42c6c:	e1400215 	stw	r5,8(fp)
   42c70:	e1800315 	stw	r6,12(fp)
   42c74:	e1c00415 	stw	r7,16(fp)
   42c78:	e13fff15 	stw	r4,-4(fp)
    int rc;
    char szText[512];
    
    va_list paramList;
    va_start(paramList, format);
   42c7c:	e0800204 	addi	r2,fp,8
   42c80:	e0bffe15 	stw	r2,-8(fp)
    rc = vsnprintf(szText, 512, format, paramList);
   42c84:	e0bffe17 	ldw	r2,-8(fp)
   42c88:	e0ff7e04 	addi	r3,fp,-520
   42c8c:	1809883a 	mov	r4,r3
   42c90:	01408004 	movi	r5,512
   42c94:	e1bfff17 	ldw	r6,-4(fp)
   42c98:	100f883a 	mov	r7,r2
   42c9c:	004ba480 	call	4ba48 <vsnprintf>
   42ca0:	e0bf7d15 	stw	r2,-524(fp)
    va_end(paramList);
    
    debug_output(szText);
   42ca4:	e0bf7e04 	addi	r2,fp,-520
   42ca8:	1009883a 	mov	r4,r2
   42cac:	0042c2c0 	call	42c2c <debug_output>

    return rc;    
   42cb0:	e0bf7d17 	ldw	r2,-524(fp)
}
   42cb4:	e037883a 	mov	sp,fp
   42cb8:	dfc00117 	ldw	ra,4(sp)
   42cbc:	df000017 	ldw	fp,0(sp)
   42cc0:	dec00504 	addi	sp,sp,20
   42cc4:	f800283a 	ret

00042cc8 <myprintf_hexarray>:


int myprintf_hexarray(unsigned char *pHex, int len){
   42cc8:	defff704 	addi	sp,sp,-36
   42ccc:	dfc00815 	stw	ra,32(sp)
   42cd0:	df000715 	stw	fp,28(sp)
   42cd4:	df000704 	addi	fp,sp,28
   42cd8:	e13ffe15 	stw	r4,-8(fp)
   42cdc:	e17fff15 	stw	r5,-4(fp)
    int i;
    unsigned char szText[16];
    for(i=0;i<len;i++){
   42ce0:	e03ff915 	stw	zero,-28(fp)
   42ce4:	00001106 	br	42d2c <myprintf_hexarray+0x64>
        sprintf(szText, "[%02X]", *(pHex+i));
   42ce8:	e0bff917 	ldw	r2,-28(fp)
   42cec:	e0fffe17 	ldw	r3,-8(fp)
   42cf0:	1885883a 	add	r2,r3,r2
   42cf4:	10800003 	ldbu	r2,0(r2)
   42cf8:	10803fcc 	andi	r2,r2,255
   42cfc:	e0fffa04 	addi	r3,fp,-24
   42d00:	1809883a 	mov	r4,r3
   42d04:	014001b4 	movhi	r5,6
   42d08:	2962e604 	addi	r5,r5,-29800
   42d0c:	100d883a 	mov	r6,r2
   42d10:	00475b00 	call	475b0 <sprintf>
        DEBUG((szText));
   42d14:	e0bffa04 	addi	r2,fp,-24
   42d18:	1009883a 	mov	r4,r2
   42d1c:	0042c5c0 	call	42c5c <myprintf>


int myprintf_hexarray(unsigned char *pHex, int len){
    int i;
    unsigned char szText[16];
    for(i=0;i<len;i++){
   42d20:	e0bff917 	ldw	r2,-28(fp)
   42d24:	10800044 	addi	r2,r2,1
   42d28:	e0bff915 	stw	r2,-28(fp)
   42d2c:	e0fff917 	ldw	r3,-28(fp)
   42d30:	e0bfff17 	ldw	r2,-4(fp)
   42d34:	18bfec16 	blt	r3,r2,42ce8 <__alt_data_end+0xfffde2f8>
        sprintf(szText, "[%02X]", *(pHex+i));
        DEBUG((szText));
    }
    return len;
   42d38:	e0bfff17 	ldw	r2,-4(fp)
}
   42d3c:	e037883a 	mov	sp,fp
   42d40:	dfc00117 	ldw	ra,4(sp)
   42d44:	df000017 	ldw	fp,0(sp)
   42d48:	dec00204 	addi	sp,sp,8
   42d4c:	f800283a 	ret

00042d50 <myprintf_dwordarray>:

int  myprintf_dwordarray(unsigned int *pArray, int nElementCount){
   42d50:	defff704 	addi	sp,sp,-36
   42d54:	dfc00815 	stw	ra,32(sp)
   42d58:	df000715 	stw	fp,28(sp)
   42d5c:	df000704 	addi	fp,sp,28
   42d60:	e13ffe15 	stw	r4,-8(fp)
   42d64:	e17fff15 	stw	r5,-4(fp)
    int i;
    char szText[16];
    for(i=0;i<nElementCount;i++){
   42d68:	e03ff915 	stw	zero,-28(fp)
   42d6c:	00001306 	br	42dbc <myprintf_dwordarray+0x6c>
        sprintf(szText, "[%08X]", *(pArray+i));
   42d70:	e0bff917 	ldw	r2,-28(fp)
   42d74:	1085883a 	add	r2,r2,r2
   42d78:	1085883a 	add	r2,r2,r2
   42d7c:	1007883a 	mov	r3,r2
   42d80:	e0bffe17 	ldw	r2,-8(fp)
   42d84:	10c5883a 	add	r2,r2,r3
   42d88:	10800017 	ldw	r2,0(r2)
   42d8c:	e0fffa04 	addi	r3,fp,-24
   42d90:	1809883a 	mov	r4,r3
   42d94:	014001b4 	movhi	r5,6
   42d98:	2962e804 	addi	r5,r5,-29792
   42d9c:	100d883a 	mov	r6,r2
   42da0:	00475b00 	call	475b0 <sprintf>
        DEBUG((szText));
   42da4:	e0bffa04 	addi	r2,fp,-24
   42da8:	1009883a 	mov	r4,r2
   42dac:	0042c5c0 	call	42c5c <myprintf>
}

int  myprintf_dwordarray(unsigned int *pArray, int nElementCount){
    int i;
    char szText[16];
    for(i=0;i<nElementCount;i++){
   42db0:	e0bff917 	ldw	r2,-28(fp)
   42db4:	10800044 	addi	r2,r2,1
   42db8:	e0bff915 	stw	r2,-28(fp)
   42dbc:	e0fff917 	ldw	r3,-28(fp)
   42dc0:	e0bfff17 	ldw	r2,-4(fp)
   42dc4:	18bfea16 	blt	r3,r2,42d70 <__alt_data_end+0xfffde380>
        sprintf(szText, "[%08X]", *(pArray+i));
        DEBUG((szText));
    }
    return nElementCount;
   42dc8:	e0bfff17 	ldw	r2,-4(fp)
}
   42dcc:	e037883a 	mov	sp,fp
   42dd0:	dfc00117 	ldw	ra,4(sp)
   42dd4:	df000017 	ldw	fp,0(sp)
   42dd8:	dec00204 	addi	sp,sp,8
   42ddc:	f800283a 	ret

00042de0 <crc16>:
    0x7c26,0x6c07,0x5c64,0x4c45,0x3ca2,0x2c83,0x1ce0,0x0cc1,
    0xef1f,0xff3e,0xcf5d,0xdf7c,0xaf9b,0xbfba,0x8fd9,0x9ff8,
    0x6e17,0x7e36,0x4e55,0x5e74,0x2e93,0x3eb2,0x0ed1,0x1ef0
};
  
alt_u16 crc16(const alt_u8 *buffer, int len){
   42de0:	defffb04 	addi	sp,sp,-20
   42de4:	df000415 	stw	fp,16(sp)
   42de8:	df000404 	addi	fp,sp,16
   42dec:	e13ffe15 	stw	r4,-8(fp)
   42df0:	e17fff15 	stw	r5,-4(fp)

    int counter;
    alt_u16 crc = 0;
   42df4:	e03ffd0d 	sth	zero,-12(fp)
    for( counter = 0; counter < len; counter++)
   42df8:	e03ffc15 	stw	zero,-16(fp)
   42dfc:	00001906 	br	42e64 <crc16+0x84>
        crc = (crc<<8) ^ crc16tab[((crc>>8) ^ *(char *)buffer++)&0x00FF];
   42e00:	e0bffd0b 	ldhu	r2,-12(fp)
   42e04:	1004923a 	slli	r2,r2,8
   42e08:	100b883a 	mov	r5,r2
   42e0c:	e0bffd0b 	ldhu	r2,-12(fp)
   42e10:	1004d23a 	srli	r2,r2,8
   42e14:	10ffffcc 	andi	r3,r2,65535
   42e18:	e0bffe17 	ldw	r2,-8(fp)
   42e1c:	11000044 	addi	r4,r2,1
   42e20:	e13ffe15 	stw	r4,-8(fp)
   42e24:	10800003 	ldbu	r2,0(r2)
   42e28:	10803fcc 	andi	r2,r2,255
   42e2c:	1080201c 	xori	r2,r2,128
   42e30:	10bfe004 	addi	r2,r2,-128
   42e34:	1884f03a 	xor	r2,r3,r2
   42e38:	10c03fcc 	andi	r3,r2,255
   42e3c:	008001b4 	movhi	r2,6
   42e40:	10a2ea04 	addi	r2,r2,-29784
   42e44:	18c7883a 	add	r3,r3,r3
   42e48:	10c5883a 	add	r2,r2,r3
   42e4c:	1080000b 	ldhu	r2,0(r2)
   42e50:	2884f03a 	xor	r2,r5,r2
   42e54:	e0bffd0d 	sth	r2,-12(fp)
  
alt_u16 crc16(const alt_u8 *buffer, int len){

    int counter;
    alt_u16 crc = 0;
    for( counter = 0; counter < len; counter++)
   42e58:	e0bffc17 	ldw	r2,-16(fp)
   42e5c:	10800044 	addi	r2,r2,1
   42e60:	e0bffc15 	stw	r2,-16(fp)
   42e64:	e0fffc17 	ldw	r3,-16(fp)
   42e68:	e0bfff17 	ldw	r2,-4(fp)
   42e6c:	18bfe416 	blt	r3,r2,42e00 <__alt_data_end+0xfffde410>
        crc = (crc<<8) ^ crc16tab[((crc>>8) ^ *(char *)buffer++)&0x00FF];
    return crc;
   42e70:	e0bffd0b 	ldhu	r2,-12(fp)
}
   42e74:	e037883a 	mov	sp,fp
   42e78:	df000017 	ldw	fp,0(sp)
   42e7c:	dec00104 	addi	sp,sp,4
   42e80:	f800283a 	ret

00042e84 <crc7_byte>:
      0x0e, 0x07, 0x1c, 0x15, 0x2a, 0x23, 0x38, 0x31,
      0x46, 0x4f, 0x54, 0x5d, 0x62, 0x6b, 0x70, 0x79
};

alt_u8 crc7_byte(alt_u8 crc, alt_u8 data)
{
   42e84:	defffd04 	addi	sp,sp,-12
   42e88:	df000215 	stw	fp,8(sp)
   42e8c:	df000204 	addi	fp,sp,8
   42e90:	2007883a 	mov	r3,r4
   42e94:	2805883a 	mov	r2,r5
   42e98:	e0fffe05 	stb	r3,-8(fp)
   42e9c:	e0bfff05 	stb	r2,-4(fp)
        return crc7_syndrome_table[(crc << 1) ^ data];
   42ea0:	e0bffe03 	ldbu	r2,-8(fp)
   42ea4:	1085883a 	add	r2,r2,r2
   42ea8:	1007883a 	mov	r3,r2
   42eac:	e0bfff03 	ldbu	r2,-4(fp)
   42eb0:	1886f03a 	xor	r3,r3,r2
   42eb4:	008001b4 	movhi	r2,6
   42eb8:	10a36a04 	addi	r2,r2,-29272
   42ebc:	10c5883a 	add	r2,r2,r3
   42ec0:	10800003 	ldbu	r2,0(r2)
}
   42ec4:	e037883a 	mov	sp,fp
   42ec8:	df000017 	ldw	fp,0(sp)
   42ecc:	dec00104 	addi	sp,sp,4
   42ed0:	f800283a 	ret

00042ed4 <crc7>:
 * Context: any
 *
 * Returns the updated CRC7 value.
 */
alt_u8 crc7(alt_u8 crc, const alt_u8 *buffer, int len)
{
   42ed4:	defffb04 	addi	sp,sp,-20
   42ed8:	dfc00415 	stw	ra,16(sp)
   42edc:	df000315 	stw	fp,12(sp)
   42ee0:	df000304 	addi	fp,sp,12
   42ee4:	2005883a 	mov	r2,r4
   42ee8:	e17ffe15 	stw	r5,-8(fp)
   42eec:	e1bfff15 	stw	r6,-4(fp)
   42ef0:	e0bffd05 	stb	r2,-12(fp)
      while (len--)
   42ef4:	00000906 	br	42f1c <crc7+0x48>
            crc = crc7_byte(crc, *buffer++);
   42ef8:	e13ffd03 	ldbu	r4,-12(fp)
   42efc:	e0bffe17 	ldw	r2,-8(fp)
   42f00:	10c00044 	addi	r3,r2,1
   42f04:	e0fffe15 	stw	r3,-8(fp)
   42f08:	10800003 	ldbu	r2,0(r2)
   42f0c:	10803fcc 	andi	r2,r2,255
   42f10:	100b883a 	mov	r5,r2
   42f14:	0042e840 	call	42e84 <crc7_byte>
   42f18:	e0bffd05 	stb	r2,-12(fp)
 *
 * Returns the updated CRC7 value.
 */
alt_u8 crc7(alt_u8 crc, const alt_u8 *buffer, int len)
{
      while (len--)
   42f1c:	e0bfff17 	ldw	r2,-4(fp)
   42f20:	10ffffc4 	addi	r3,r2,-1
   42f24:	e0ffff15 	stw	r3,-4(fp)
   42f28:	103ff31e 	bne	r2,zero,42ef8 <__alt_data_end+0xfffde508>
            crc = crc7_byte(crc, *buffer++);
      return crc;
   42f2c:	e0bffd03 	ldbu	r2,-12(fp)
}
   42f30:	e037883a 	mov	sp,fp
   42f34:	dfc00117 	ldw	ra,4(sp)
   42f38:	df000017 	ldw	fp,0(sp)
   42f3c:	dec00204 	addi	sp,sp,8
   42f40:	f800283a 	ret

00042f44 <SDHAL_IsSupport4Bits>:
#include "sd_hal.h"
#include "sd_hw.h"
#include "crc16.h"


bool SDHAL_IsSupport4Bits(void){
   42f44:	defffe04 	addi	sp,sp,-8
   42f48:	df000115 	stw	fp,4(sp)
   42f4c:	df000104 	addi	fp,sp,4
    bool bYes = FALSE;
   42f50:	e03fff15 	stw	zero,-4(fp)
#ifdef SD_4BIT_MODE
    bYes = TRUE;
   42f54:	00800044 	movi	r2,1
   42f58:	e0bfff15 	stw	r2,-4(fp)
#endif    
    return bYes;
   42f5c:	e0bfff17 	ldw	r2,-4(fp)
}
   42f60:	e037883a 	mov	sp,fp
   42f64:	df000017 	ldw	fp,0(sp)
   42f68:	dec00104 	addi	sp,sp,4
   42f6c:	f800283a 	ret

00042f70 <SDHAL_Init>:

void SDHAL_Init(void){
   42f70:	deffff04 	addi	sp,sp,-4
   42f74:	df000015 	stw	fp,0(sp)
   42f78:	d839883a 	mov	fp,sp
    SD_CMD_OUT;
   42f7c:	00c00044 	movi	r3,1
   42f80:	00800234 	movhi	r2,8
   42f84:	10842504 	addi	r2,r2,4244
   42f88:	10c00035 	stwio	r3,0(r2)
   42f8c:	00c00044 	movi	r3,1
   42f90:	00800234 	movhi	r2,8
   42f94:	10840c04 	addi	r2,r2,4144
   42f98:	10c00035 	stwio	r3,0(r2)
    SD_DAT_IN;
   42f9c:	0007883a 	mov	r3,zero
   42fa0:	00800234 	movhi	r2,8
   42fa4:	10842104 	addi	r2,r2,4228
   42fa8:	10c00035 	stwio	r3,0(r2)
   42fac:	0007883a 	mov	r3,zero
   42fb0:	00800234 	movhi	r2,8
   42fb4:	10841404 	addi	r2,r2,4176
   42fb8:	10c00035 	stwio	r3,0(r2)
   42fbc:	0007883a 	mov	r3,zero
   42fc0:	00800234 	movhi	r2,8
   42fc4:	10841004 	addi	r2,r2,4160
   42fc8:	10c00035 	stwio	r3,0(r2)
    SD_CLK_HIGH;
   42fcc:	00c00044 	movi	r3,1
   42fd0:	00800234 	movhi	r2,8
   42fd4:	10842804 	addi	r2,r2,4256
   42fd8:	10c00035 	stwio	r3,0(r2)
    SD_CMD_HIGH;
   42fdc:	00c00044 	movi	r3,1
   42fe0:	00800234 	movhi	r2,8
   42fe4:	10842404 	addi	r2,r2,4240
   42fe8:	10c00035 	stwio	r3,0(r2)
    SD_DAT_LOW;    
   42fec:	0007883a 	mov	r3,zero
   42ff0:	00800234 	movhi	r2,8
   42ff4:	10842004 	addi	r2,r2,4224
   42ff8:	10c00035 	stwio	r3,0(r2)
}
   42ffc:	e037883a 	mov	sp,fp
   43000:	df000017 	ldw	fp,0(sp)
   43004:	dec00104 	addi	sp,sp,4
   43008:	f800283a 	ret

0004300c <SDHAL_SendCmd>:

void SDHAL_SendCmd(alt_u8 szCommand[6], int nCmdLen){
   4300c:	defffa04 	addi	sp,sp,-24
   43010:	df000515 	stw	fp,20(sp)
   43014:	df000504 	addi	fp,sp,20
   43018:	e13ffe15 	stw	r4,-8(fp)
   4301c:	e17fff15 	stw	r5,-4(fp)

    int i, k;
    alt_u8 Mask, Data;
    
    SD_CMD_OUT;
   43020:	00c00044 	movi	r3,1
   43024:	00800234 	movhi	r2,8
   43028:	10842504 	addi	r2,r2,4244
   4302c:	10c00035 	stwio	r3,0(r2)
   43030:	00c00044 	movi	r3,1
   43034:	00800234 	movhi	r2,8
   43038:	10840c04 	addi	r2,r2,4144
   4303c:	10c00035 	stwio	r3,0(r2)
    for(i=0;i<nCmdLen;i++){
   43040:	e03ffb15 	stw	zero,-20(fp)
   43044:	00002b06 	br	430f4 <SDHAL_SendCmd+0xe8>
        Mask = 0x80;
   43048:	00bfe004 	movi	r2,-128
   4304c:	e0bffd05 	stb	r2,-12(fp)
        Data = szCommand[i];
   43050:	e0bffb17 	ldw	r2,-20(fp)
   43054:	e0fffe17 	ldw	r3,-8(fp)
   43058:	1885883a 	add	r2,r3,r2
   4305c:	10800003 	ldbu	r2,0(r2)
   43060:	e0bffd45 	stb	r2,-11(fp)
        for(k=0;k<8;k++){
   43064:	e03ffc15 	stw	zero,-16(fp)
   43068:	00001c06 	br	430dc <SDHAL_SendCmd+0xd0>
            SD_CLK_LOW;
   4306c:	0007883a 	mov	r3,zero
   43070:	00800234 	movhi	r2,8
   43074:	10842804 	addi	r2,r2,4256
   43078:	10c00035 	stwio	r3,0(r2)
            if (Data & Mask)
   4307c:	e0fffd43 	ldbu	r3,-11(fp)
   43080:	e0bffd03 	ldbu	r2,-12(fp)
   43084:	1884703a 	and	r2,r3,r2
   43088:	10803fcc 	andi	r2,r2,255
   4308c:	10000526 	beq	r2,zero,430a4 <SDHAL_SendCmd+0x98>
                SD_CMD_HIGH;
   43090:	00c00044 	movi	r3,1
   43094:	00800234 	movhi	r2,8
   43098:	10842404 	addi	r2,r2,4240
   4309c:	10c00035 	stwio	r3,0(r2)
   430a0:	00000406 	br	430b4 <SDHAL_SendCmd+0xa8>
            else
                SD_CMD_LOW;
   430a4:	0007883a 	mov	r3,zero
   430a8:	00800234 	movhi	r2,8
   430ac:	10842404 	addi	r2,r2,4240
   430b0:	10c00035 	stwio	r3,0(r2)
            SD_CLK_HIGH;    
   430b4:	00c00044 	movi	r3,1
   430b8:	00800234 	movhi	r2,8
   430bc:	10842804 	addi	r2,r2,4256
   430c0:	10c00035 	stwio	r3,0(r2)
            //    
            Mask >>= 1;
   430c4:	e0bffd03 	ldbu	r2,-12(fp)
   430c8:	1004d07a 	srli	r2,r2,1
   430cc:	e0bffd05 	stb	r2,-12(fp)
    
    SD_CMD_OUT;
    for(i=0;i<nCmdLen;i++){
        Mask = 0x80;
        Data = szCommand[i];
        for(k=0;k<8;k++){
   430d0:	e0bffc17 	ldw	r2,-16(fp)
   430d4:	10800044 	addi	r2,r2,1
   430d8:	e0bffc15 	stw	r2,-16(fp)
   430dc:	e0bffc17 	ldw	r2,-16(fp)
   430e0:	10800210 	cmplti	r2,r2,8
   430e4:	103fe11e 	bne	r2,zero,4306c <__alt_data_end+0xfffde67c>

    int i, k;
    alt_u8 Mask, Data;
    
    SD_CMD_OUT;
    for(i=0;i<nCmdLen;i++){
   430e8:	e0bffb17 	ldw	r2,-20(fp)
   430ec:	10800044 	addi	r2,r2,1
   430f0:	e0bffb15 	stw	r2,-20(fp)
   430f4:	e0fffb17 	ldw	r3,-20(fp)
   430f8:	e0bfff17 	ldw	r2,-4(fp)
   430fc:	18bfd216 	blt	r3,r2,43048 <__alt_data_end+0xfffde658>
            //    
            Mask >>= 1;
           // usleep(1);
        }
    }
}
   43100:	e037883a 	mov	sp,fp
   43104:	df000017 	ldw	fp,0(sp)
   43108:	dec00104 	addi	sp,sp,4
   4310c:	f800283a 	ret

00043110 <SDHAL_GetResponse>:




bool SDHAL_GetResponse(alt_u8 szResponse[], int nLen){
   43110:	defff504 	addi	sp,sp,-44
   43114:	dfc00a15 	stw	ra,40(sp)
   43118:	df000915 	stw	fp,36(sp)
   4311c:	df000904 	addi	fp,sp,36
   43120:	e13ffe15 	stw	r4,-8(fp)
   43124:	e17fff15 	stw	r5,-4(fp)
    bool bDone, bTimeout;
    const int nMaxCnt = 20; // !!!! Note. the value should be large than 8
   43128:	00800504 	movi	r2,20
   4312c:	e0bffc15 	stw	r2,-16(fp)
    int nCnt, nBitCnt, nIndex;
    alt_u8 Value;
    

    SD_CMD_IN;
   43130:	0007883a 	mov	r3,zero
   43134:	00800234 	movhi	r2,8
   43138:	10842504 	addi	r2,r2,4244
   4313c:	10c00035 	stwio	r3,0(r2)
   43140:	0007883a 	mov	r3,zero
   43144:	00800234 	movhi	r2,8
   43148:	10840c04 	addi	r2,r2,4144
   4314c:	10c00035 	stwio	r3,0(r2)
    
    //===== check start bit == 0
    nCnt = 0;
   43150:	e03ff915 	stw	zero,-28(fp)
    bDone = FALSE;
   43154:	e03ff715 	stw	zero,-36(fp)
    bTimeout = FALSE;
   43158:	e03ff815 	stw	zero,-32(fp)
    while(!bDone && !bTimeout){
   4315c:	00001606 	br	431b8 <SDHAL_GetResponse+0xa8>
        SD_CLK_LOW;
   43160:	0007883a 	mov	r3,zero
   43164:	00800234 	movhi	r2,8
   43168:	10842804 	addi	r2,r2,4256
   4316c:	10c00035 	stwio	r3,0(r2)
        SD_CLK_HIGH;
   43170:	00c00044 	movi	r3,1
   43174:	00800234 	movhi	r2,8
   43178:	10842804 	addi	r2,r2,4256
   4317c:	10c00035 	stwio	r3,0(r2)
        if(!(SD_TEST_CMD))
   43180:	00800234 	movhi	r2,8
   43184:	10842404 	addi	r2,r2,4240
   43188:	10800037 	ldwio	r2,0(r2)
   4318c:	1000031e 	bne	r2,zero,4319c <SDHAL_GetResponse+0x8c>
            bDone = TRUE;
   43190:	00800044 	movi	r2,1
   43194:	e0bff715 	stw	r2,-36(fp)
   43198:	00000706 	br	431b8 <SDHAL_GetResponse+0xa8>
        else if(nCnt++ > nMaxCnt)
   4319c:	e0bff917 	ldw	r2,-28(fp)
   431a0:	10c00044 	addi	r3,r2,1
   431a4:	e0fff915 	stw	r3,-28(fp)
   431a8:	e0fffc17 	ldw	r3,-16(fp)
   431ac:	1880020e 	bge	r3,r2,431b8 <SDHAL_GetResponse+0xa8>
            bTimeout = TRUE;
   431b0:	00800044 	movi	r2,1
   431b4:	e0bff815 	stw	r2,-32(fp)
    
    //===== check start bit == 0
    nCnt = 0;
    bDone = FALSE;
    bTimeout = FALSE;
    while(!bDone && !bTimeout){
   431b8:	e0bff717 	ldw	r2,-36(fp)
   431bc:	1000021e 	bne	r2,zero,431c8 <SDHAL_GetResponse+0xb8>
   431c0:	e0bff817 	ldw	r2,-32(fp)
   431c4:	103fe626 	beq	r2,zero,43160 <__alt_data_end+0xfffde770>
            bDone = TRUE;
        else if(nCnt++ > nMaxCnt)
            bTimeout = TRUE;
    }
    
    if (!bDone || bTimeout)
   431c8:	e0bff717 	ldw	r2,-36(fp)
   431cc:	10000226 	beq	r2,zero,431d8 <SDHAL_GetResponse+0xc8>
   431d0:	e0bff817 	ldw	r2,-32(fp)
   431d4:	10000226 	beq	r2,zero,431e0 <SDHAL_GetResponse+0xd0>
        return FALSE;
   431d8:	0005883a 	mov	r2,zero
   431dc:	00005006 	br	43320 <SDHAL_GetResponse+0x210>
  
    //===== check transmitter bit == 0

    SD_CLK_LOW;
   431e0:	0007883a 	mov	r3,zero
   431e4:	00800234 	movhi	r2,8
   431e8:	10842804 	addi	r2,r2,4256
   431ec:	10c00035 	stwio	r3,0(r2)
    SD_CLK_HIGH;
   431f0:	00c00044 	movi	r3,1
   431f4:	00800234 	movhi	r2,8
   431f8:	10842804 	addi	r2,r2,4256
   431fc:	10c00035 	stwio	r3,0(r2)
    if (SD_TEST_CMD)
   43200:	00800234 	movhi	r2,8
   43204:	10842404 	addi	r2,r2,4240
   43208:	10800037 	ldwio	r2,0(r2)
   4320c:	10000226 	beq	r2,zero,43218 <SDHAL_GetResponse+0x108>
        return FALSE;   // 0 is expected
   43210:	0005883a 	mov	r2,zero
   43214:	00004206 	br	43320 <SDHAL_GetResponse+0x210>

    
    //===== read content + CRC + end-bits ======
    nIndex = 2;
   43218:	00800084 	movi	r2,2
   4321c:	e0bffa15 	stw	r2,-24(fp)
    nBitCnt = nLen*8;
   43220:	e0bfff17 	ldw	r2,-4(fp)
   43224:	100490fa 	slli	r2,r2,3
   43228:	e0bffd15 	stw	r2,-12(fp)
    bDone = FALSE;
   4322c:	e03ff715 	stw	zero,-36(fp)
    Value = 0;
   43230:	e03ffb05 	stb	zero,-20(fp)
    while(nIndex < nBitCnt){
   43234:	00003406 	br	43308 <SDHAL_GetResponse+0x1f8>
        SD_CLK_LOW;
   43238:	0007883a 	mov	r3,zero
   4323c:	00800234 	movhi	r2,8
   43240:	10842804 	addi	r2,r2,4256
   43244:	10c00035 	stwio	r3,0(r2)
        SD_CLK_HIGH;
   43248:	00c00044 	movi	r3,1
   4324c:	00800234 	movhi	r2,8
   43250:	10842804 	addi	r2,r2,4256
   43254:	10c00035 	stwio	r3,0(r2)
        if (SD_TEST_CMD){
   43258:	00800234 	movhi	r2,8
   4325c:	10842404 	addi	r2,r2,4240
   43260:	10800037 	ldwio	r2,0(r2)
   43264:	10001026 	beq	r2,zero,432a8 <SDHAL_GetResponse+0x198>
            Value |= 0x80 >> (nIndex % 8);
   43268:	e0fffa17 	ldw	r3,-24(fp)
   4326c:	00a00034 	movhi	r2,32768
   43270:	108001c4 	addi	r2,r2,7
   43274:	1884703a 	and	r2,r3,r2
   43278:	1000040e 	bge	r2,zero,4328c <SDHAL_GetResponse+0x17c>
   4327c:	10bfffc4 	addi	r2,r2,-1
   43280:	00fffe04 	movi	r3,-8
   43284:	10c4b03a 	or	r2,r2,r3
   43288:	10800044 	addi	r2,r2,1
   4328c:	1007883a 	mov	r3,r2
   43290:	00802004 	movi	r2,128
   43294:	10c5d83a 	sra	r2,r2,r3
   43298:	1007883a 	mov	r3,r2
   4329c:	e0bffb03 	ldbu	r2,-20(fp)
   432a0:	1884b03a 	or	r2,r3,r2
   432a4:	e0bffb05 	stb	r2,-20(fp)
        }
        if (nIndex%8 == 7){
   432a8:	e0fffa17 	ldw	r3,-24(fp)
   432ac:	00a00034 	movhi	r2,32768
   432b0:	108001c4 	addi	r2,r2,7
   432b4:	1884703a 	and	r2,r3,r2
   432b8:	1000040e 	bge	r2,zero,432cc <SDHAL_GetResponse+0x1bc>
   432bc:	10bfffc4 	addi	r2,r2,-1
   432c0:	00fffe04 	movi	r3,-8
   432c4:	10c4b03a 	or	r2,r2,r3
   432c8:	10800044 	addi	r2,r2,1
   432cc:	108001d8 	cmpnei	r2,r2,7
   432d0:	10000a1e 	bne	r2,zero,432fc <SDHAL_GetResponse+0x1ec>
            szResponse[nIndex/8] = Value;
   432d4:	e0bffa17 	ldw	r2,-24(fp)
   432d8:	1000010e 	bge	r2,zero,432e0 <SDHAL_GetResponse+0x1d0>
   432dc:	108001c4 	addi	r2,r2,7
   432e0:	1005d0fa 	srai	r2,r2,3
   432e4:	1007883a 	mov	r3,r2
   432e8:	e0bffe17 	ldw	r2,-8(fp)
   432ec:	10c5883a 	add	r2,r2,r3
   432f0:	e0fffb03 	ldbu	r3,-20(fp)
   432f4:	10c00005 	stb	r3,0(r2)
            Value = 0;
   432f8:	e03ffb05 	stb	zero,-20(fp)
        }
        nIndex++;
   432fc:	e0bffa17 	ldw	r2,-24(fp)
   43300:	10800044 	addi	r2,r2,1
   43304:	e0bffa15 	stw	r2,-24(fp)
    //===== read content + CRC + end-bits ======
    nIndex = 2;
    nBitCnt = nLen*8;
    bDone = FALSE;
    Value = 0;
    while(nIndex < nBitCnt){
   43308:	e0fffa17 	ldw	r3,-24(fp)
   4330c:	e0bffd17 	ldw	r2,-12(fp)
   43310:	18bfc916 	blt	r3,r2,43238 <__alt_data_end+0xfffde848>
        }
        nIndex++;
    } 
    
    // A command with response. 8 clocks after the card response end bit.
    SDHAL_DummyClock(8);
   43314:	01000204 	movi	r4,8
   43318:	00436bc0 	call	436bc <SDHAL_DummyClock>
    
    return TRUE;
   4331c:	00800044 	movi	r2,1
}
   43320:	e037883a 	mov	sp,fp
   43324:	dfc00117 	ldw	ra,4(sp)
   43328:	df000017 	ldw	fp,0(sp)
   4332c:	dec00204 	addi	sp,sp,8
   43330:	f800283a 	ret

00043334 <SDHAL_ReadData>:


bool SDHAL_ReadData(alt_u8 szBuf[], int nBufLen){
   43334:	defff704 	addi	sp,sp,-36
   43338:	df000815 	stw	fp,32(sp)
   4333c:	df000804 	addi	fp,sp,32
   43340:	e13ffe15 	stw	r4,-8(fp)
   43344:	e17fff15 	stw	r5,-4(fp)
    bool bSuccess = TRUE;
   43348:	00800044 	movi	r2,1
   4334c:	e0bffc15 	stw	r2,-16(fp)
    int nTry = 0;
   43350:	e03ff815 	stw	zero,-32(fp)
    const  int nMaxTry = 9000;
   43354:	0088ca04 	movi	r2,9000
   43358:	e0bffd15 	stw	r2,-12(fp)
    alt_u8 Data8;
#ifndef SD_4BIT_MODE     
    alt_u16 DataCrc16, MyCrc16;
#endif    
    
    SD_DAT_IN;
   4335c:	0007883a 	mov	r3,zero
   43360:	00800234 	movhi	r2,8
   43364:	10842104 	addi	r2,r2,4228
   43368:	10c00035 	stwio	r3,0(r2)
   4336c:	0007883a 	mov	r3,zero
   43370:	00800234 	movhi	r2,8
   43374:	10841404 	addi	r2,r2,4176
   43378:	10c00035 	stwio	r3,0(r2)
   4337c:	0007883a 	mov	r3,zero
   43380:	00800234 	movhi	r2,8
   43384:	10841004 	addi	r2,r2,4160
   43388:	10c00035 	stwio	r3,0(r2)
    
    // wait start bits (zero)
    while(1){
      SD_CLK_LOW;
   4338c:	0007883a 	mov	r3,zero
   43390:	00800234 	movhi	r2,8
   43394:	10842804 	addi	r2,r2,4256
   43398:	10c00035 	stwio	r3,0(r2)
      SD_CLK_HIGH;
   4339c:	00c00044 	movi	r3,1
   433a0:	00800234 	movhi	r2,8
   433a4:	10842804 	addi	r2,r2,4256
   433a8:	10c00035 	stwio	r3,0(r2)
#ifdef SD_4BIT_MODE
      if((SD_TEST_DAT & 0x0F) == 0x00) // check start bits (zero is expected)
   433ac:	00800234 	movhi	r2,8
   433b0:	10842004 	addi	r2,r2,4224
   433b4:	10800037 	ldwio	r2,0(r2)
   433b8:	108003cc 	andi	r2,r2,15
   433bc:	1000031e 	bne	r2,zero,433cc <SDHAL_ReadData+0x98>
#else      
      if((SD_TEST_DAT & 0x01) == 0x00) // check start bits (zero is expected)
#endif      
        break;
   433c0:	0001883a 	nop
      if (nTry++ > nMaxTry)
        return FALSE;        
    }    
    
    // read data (512byte = 1 block)
    for(i=0;i<nBufLen;i++)
   433c4:	e03ff915 	stw	zero,-28(fp)
   433c8:	00002c06 	br	4347c <SDHAL_ReadData+0x148>
      if((SD_TEST_DAT & 0x0F) == 0x00) // check start bits (zero is expected)
#else      
      if((SD_TEST_DAT & 0x01) == 0x00) // check start bits (zero is expected)
#endif      
        break;
      if (nTry++ > nMaxTry)
   433cc:	e0bff817 	ldw	r2,-32(fp)
   433d0:	10c00044 	addi	r3,r2,1
   433d4:	e0fff815 	stw	r3,-32(fp)
   433d8:	e0fffd17 	ldw	r3,-12(fp)
   433dc:	1880020e 	bge	r3,r2,433e8 <SDHAL_ReadData+0xb4>
        return FALSE;        
   433e0:	0005883a 	mov	r2,zero
   433e4:	00002906 	br	4348c <SDHAL_ReadData+0x158>
    }    
   433e8:	003fe806 	br	4338c <__alt_data_end+0xfffde99c>
    
    // read data (512byte = 1 block)
    for(i=0;i<nBufLen;i++)
    {
      Data8 = 0;
   433ec:	e03ffb05 	stb	zero,-20(fp)
#ifdef SD_4BIT_MODE
      for(j=0;j<2;j++)
   433f0:	e03ffa15 	stw	zero,-24(fp)
   433f4:	00001606 	br	43450 <SDHAL_ReadData+0x11c>
      {
        SD_CLK_LOW;
   433f8:	0007883a 	mov	r3,zero
   433fc:	00800234 	movhi	r2,8
   43400:	10842804 	addi	r2,r2,4256
   43404:	10c00035 	stwio	r3,0(r2)
        SD_CLK_HIGH;
   43408:	00c00044 	movi	r3,1
   4340c:	00800234 	movhi	r2,8
   43410:	10842804 	addi	r2,r2,4256
   43414:	10c00035 	stwio	r3,0(r2)
        Data8 <<= 4; 
   43418:	e0bffb03 	ldbu	r2,-20(fp)
   4341c:	1004913a 	slli	r2,r2,4
   43420:	e0bffb05 	stb	r2,-20(fp)
        Data8 |= (SD_TEST_DAT & 0x0F);
   43424:	00800234 	movhi	r2,8
   43428:	10842004 	addi	r2,r2,4224
   4342c:	10800037 	ldwio	r2,0(r2)
   43430:	108003cc 	andi	r2,r2,15
   43434:	1007883a 	mov	r3,r2
   43438:	e0bffb03 	ldbu	r2,-20(fp)
   4343c:	1884b03a 	or	r2,r3,r2
   43440:	e0bffb05 	stb	r2,-20(fp)
    // read data (512byte = 1 block)
    for(i=0;i<nBufLen;i++)
    {
      Data8 = 0;
#ifdef SD_4BIT_MODE
      for(j=0;j<2;j++)
   43444:	e0bffa17 	ldw	r2,-24(fp)
   43448:	10800044 	addi	r2,r2,1
   4344c:	e0bffa15 	stw	r2,-24(fp)
   43450:	e0bffa17 	ldw	r2,-24(fp)
   43454:	10800090 	cmplti	r2,r2,2
   43458:	103fe71e 	bne	r2,zero,433f8 <__alt_data_end+0xfffdea08>
        if(SD_TEST_DAT & 0x01)  // check bit0
            Data8 |= 0x01;
      } 
#endif  

      szBuf[i]=Data8;
   4345c:	e0bff917 	ldw	r2,-28(fp)
   43460:	e0fffe17 	ldw	r3,-8(fp)
   43464:	1885883a 	add	r2,r3,r2
   43468:	e0fffb03 	ldbu	r3,-20(fp)
   4346c:	10c00005 	stb	r3,0(r2)
      if (nTry++ > nMaxTry)
        return FALSE;        
    }    
    
    // read data (512byte = 1 block)
    for(i=0;i<nBufLen;i++)
   43470:	e0bff917 	ldw	r2,-28(fp)
   43474:	10800044 	addi	r2,r2,1
   43478:	e0bff915 	stw	r2,-28(fp)
   4347c:	e0fff917 	ldw	r3,-28(fp)
   43480:	e0bfff17 	ldw	r2,-4(fp)
   43484:	18bfd916 	blt	r3,r2,433ec <__alt_data_end+0xfffde9fc>
    }            
    
#endif

    
    return bSuccess;
   43488:	e0bffc17 	ldw	r2,-16(fp)
    
}
   4348c:	e037883a 	mov	sp,fp
   43490:	df000017 	ldw	fp,0(sp)
   43494:	dec00104 	addi	sp,sp,4
   43498:	f800283a 	ret

0004349c <SDHAL_WriteData>:

bool SDHAL_WriteData(alt_u8 szDataWrite[], int nDataLen){
   4349c:	defff604 	addi	sp,sp,-40
   434a0:	dfc00915 	stw	ra,36(sp)
   434a4:	df000815 	stw	fp,32(sp)
   434a8:	df000804 	addi	fp,sp,32
   434ac:	e13ffe15 	stw	r4,-8(fp)
   434b0:	e17fff15 	stw	r5,-4(fp)
    bool bSuccess = TRUE;
   434b4:	00800044 	movi	r2,1
   434b8:	e0bff815 	stw	r2,-32(fp)
  //  const int nMaxTry = 5000; 
    int i, j;   
    alt_u8 Data8;
    alt_u16 DataCrc16;
    
    DataCrc16 = crc16(szDataWrite, nDataLen);
   434bc:	e13ffe17 	ldw	r4,-8(fp)
   434c0:	e17fff17 	ldw	r5,-4(fp)
   434c4:	0042de00 	call	42de0 <crc16>
   434c8:	e0bffd0d 	sth	r2,-12(fp)
        break;
      if (nTry++ > nMaxTry)
        return FALSE;        
    } */    
    
    SD_DAT_OUT;
   434cc:	00c00044 	movi	r3,1
   434d0:	00800234 	movhi	r2,8
   434d4:	10842104 	addi	r2,r2,4228
   434d8:	10c00035 	stwio	r3,0(r2)
   434dc:	00c00044 	movi	r3,1
   434e0:	00800234 	movhi	r2,8
   434e4:	10841404 	addi	r2,r2,4176
   434e8:	10c00035 	stwio	r3,0(r2)
   434ec:	00c00044 	movi	r3,1
   434f0:	00800234 	movhi	r2,8
   434f4:	10841004 	addi	r2,r2,4160
   434f8:	10c00035 	stwio	r3,0(r2)
    // start bits (zero value)
    SD_CLK_LOW;
   434fc:	0007883a 	mov	r3,zero
   43500:	00800234 	movhi	r2,8
   43504:	10842804 	addi	r2,r2,4256
   43508:	10c00035 	stwio	r3,0(r2)
    SD_DAT_WRITE(0x00);  
   4350c:	0007883a 	mov	r3,zero
   43510:	00800234 	movhi	r2,8
   43514:	10842004 	addi	r2,r2,4224
   43518:	10c00035 	stwio	r3,0(r2)
    SD_CLK_HIGH;
   4351c:	00c00044 	movi	r3,1
   43520:	00800234 	movhi	r2,8
   43524:	10842804 	addi	r2,r2,4256
   43528:	10c00035 	stwio	r3,0(r2)
    
    // write data (512byte = 1 block)
    for(i=0;i<nDataLen;i++)
   4352c:	e03ff915 	stw	zero,-28(fp)
   43530:	00002206 	br	435bc <SDHAL_WriteData+0x120>
    {
      Data8 = szDataWrite[i];
   43534:	e0bff917 	ldw	r2,-28(fp)
   43538:	e0fffe17 	ldw	r3,-8(fp)
   4353c:	1885883a 	add	r2,r3,r2
   43540:	10800003 	ldbu	r2,0(r2)
   43544:	e0bffb05 	stb	r2,-20(fp)
#ifdef SD_4BIT_MODE
      for(j=0;j<2;j++)
   43548:	e03ffa15 	stw	zero,-24(fp)
   4354c:	00001506 	br	435a4 <SDHAL_WriteData+0x108>
      {
        SD_CLK_LOW;
   43550:	0007883a 	mov	r3,zero
   43554:	00800234 	movhi	r2,8
   43558:	10842804 	addi	r2,r2,4256
   4355c:	10c00035 	stwio	r3,0(r2)
        //
        SD_DAT_WRITE((Data8 >> 4) & 0x0F);
   43560:	e0bffb03 	ldbu	r2,-20(fp)
   43564:	1004d13a 	srli	r2,r2,4
   43568:	10803fcc 	andi	r2,r2,255
   4356c:	10c003cc 	andi	r3,r2,15
   43570:	00800234 	movhi	r2,8
   43574:	10842004 	addi	r2,r2,4224
   43578:	10c00035 	stwio	r3,0(r2)
        //            
        SD_CLK_HIGH;
   4357c:	00c00044 	movi	r3,1
   43580:	00800234 	movhi	r2,8
   43584:	10842804 	addi	r2,r2,4256
   43588:	10c00035 	stwio	r3,0(r2)
        Data8 <<= 4; 
   4358c:	e0bffb03 	ldbu	r2,-20(fp)
   43590:	1004913a 	slli	r2,r2,4
   43594:	e0bffb05 	stb	r2,-20(fp)
    // write data (512byte = 1 block)
    for(i=0;i<nDataLen;i++)
    {
      Data8 = szDataWrite[i];
#ifdef SD_4BIT_MODE
      for(j=0;j<2;j++)
   43598:	e0bffa17 	ldw	r2,-24(fp)
   4359c:	10800044 	addi	r2,r2,1
   435a0:	e0bffa15 	stw	r2,-24(fp)
   435a4:	e0bffa17 	ldw	r2,-24(fp)
   435a8:	10800090 	cmplti	r2,r2,2
   435ac:	103fe81e 	bne	r2,zero,43550 <__alt_data_end+0xfffdeb60>
    SD_CLK_LOW;
    SD_DAT_WRITE(0x00);  
    SD_CLK_HIGH;
    
    // write data (512byte = 1 block)
    for(i=0;i<nDataLen;i++)
   435b0:	e0bff917 	ldw	r2,-28(fp)
   435b4:	10800044 	addi	r2,r2,1
   435b8:	e0bff915 	stw	r2,-28(fp)
   435bc:	e0fff917 	ldw	r3,-28(fp)
   435c0:	e0bfff17 	ldw	r2,-4(fp)
   435c4:	18bfdb16 	blt	r3,r2,43534 <__alt_data_end+0xfffdeb44>

    
#endif    

    // stop bits (value 'one')
    SD_CLK_LOW;
   435c8:	0007883a 	mov	r3,zero
   435cc:	00800234 	movhi	r2,8
   435d0:	10842804 	addi	r2,r2,4256
   435d4:	10c00035 	stwio	r3,0(r2)
#ifdef SD_4BIT_MODE
    SD_DAT_WRITE(0x0F);
   435d8:	00c003c4 	movi	r3,15
   435dc:	00800234 	movhi	r2,8
   435e0:	10842004 	addi	r2,r2,4224
   435e4:	10c00035 	stwio	r3,0(r2)
#else    
    SD_DAT_HIGH;
#endif     
    SD_CLK_HIGH;
   435e8:	00c00044 	movi	r3,1
   435ec:	00800234 	movhi	r2,8
   435f0:	10842804 	addi	r2,r2,4256
   435f4:	10c00035 	stwio	r3,0(r2)
    
    //===== check busy bits (data0 only)
    SD_DAT_IN;
   435f8:	0007883a 	mov	r3,zero
   435fc:	00800234 	movhi	r2,8
   43600:	10842104 	addi	r2,r2,4228
   43604:	10c00035 	stwio	r3,0(r2)
   43608:	0007883a 	mov	r3,zero
   4360c:	00800234 	movhi	r2,8
   43610:	10841404 	addi	r2,r2,4176
   43614:	10c00035 	stwio	r3,0(r2)
   43618:	0007883a 	mov	r3,zero
   4361c:	00800234 	movhi	r2,8
   43620:	10841004 	addi	r2,r2,4160
   43624:	10c00035 	stwio	r3,0(r2)
bool bWriteSuccess = FALSE;    
   43628:	e03ffc15 	stw	zero,-16(fp)
for(i=0;i<32 && !bWriteSuccess;i++){        
   4362c:	e03ff915 	stw	zero,-28(fp)
   43630:	00001206 	br	4367c <SDHAL_WriteData+0x1e0>
    SD_CLK_LOW;
   43634:	0007883a 	mov	r3,zero
   43638:	00800234 	movhi	r2,8
   4363c:	10842804 	addi	r2,r2,4256
   43640:	10c00035 	stwio	r3,0(r2)
    SD_CLK_HIGH;
   43644:	00c00044 	movi	r3,1
   43648:	00800234 	movhi	r2,8
   4364c:	10842804 	addi	r2,r2,4256
   43650:	10c00035 	stwio	r3,0(r2)
    if ((SD_TEST_DAT & 0x01) == 0x01) // (DAT0==LOW: busy indicate
   43654:	00800234 	movhi	r2,8
   43658:	10842004 	addi	r2,r2,4224
   4365c:	10800037 	ldwio	r2,0(r2)
   43660:	1080004c 	andi	r2,r2,1
   43664:	10000226 	beq	r2,zero,43670 <SDHAL_WriteData+0x1d4>
        bWriteSuccess = TRUE;
   43668:	00800044 	movi	r2,1
   4366c:	e0bffc15 	stw	r2,-16(fp)
    SD_CLK_HIGH;
    
    //===== check busy bits (data0 only)
    SD_DAT_IN;
bool bWriteSuccess = FALSE;    
for(i=0;i<32 && !bWriteSuccess;i++){        
   43670:	e0bff917 	ldw	r2,-28(fp)
   43674:	10800044 	addi	r2,r2,1
   43678:	e0bff915 	stw	r2,-28(fp)
   4367c:	e0bff917 	ldw	r2,-28(fp)
   43680:	10800808 	cmpgei	r2,r2,32
   43684:	1000021e 	bne	r2,zero,43690 <SDHAL_WriteData+0x1f4>
   43688:	e0bffc17 	ldw	r2,-16(fp)
   4368c:	103fe926 	beq	r2,zero,43634 <__alt_data_end+0xfffdec44>
    SD_CLK_LOW;
    SD_CLK_HIGH;
    if ((SD_TEST_DAT & 0x01) == 0x01) // (DAT0==LOW: busy indicate
        bWriteSuccess = TRUE;
}
    if (!bWriteSuccess)
   43690:	e0bffc17 	ldw	r2,-16(fp)
   43694:	1000011e 	bne	r2,zero,4369c <SDHAL_WriteData+0x200>
        bSuccess = FALSE;
   43698:	e03ff815 	stw	zero,-32(fp)
                
    // to provide8 (eight) clock cycles for the card to complete the operation before shutting down the clock 
    SDHAL_DummyClock(8);     
   4369c:	01000204 	movi	r4,8
   436a0:	00436bc0 	call	436bc <SDHAL_DummyClock>
    for(i=0; i<16; i++){
        SD_CLK_LOW;
        SD_CLK_HIGH;
    }*/
    
    return bSuccess;
   436a4:	e0bff817 	ldw	r2,-32(fp)
    
}
   436a8:	e037883a 	mov	sp,fp
   436ac:	dfc00117 	ldw	ra,4(sp)
   436b0:	df000017 	ldw	fp,0(sp)
   436b4:	dec00204 	addi	sp,sp,8
   436b8:	f800283a 	ret

000436bc <SDHAL_DummyClock>:


void SDHAL_DummyClock(int nClockCnt){
   436bc:	defffd04 	addi	sp,sp,-12
   436c0:	df000215 	stw	fp,8(sp)
   436c4:	df000204 	addi	fp,sp,8
   436c8:	e13fff15 	stw	r4,-4(fp)
    int i;
    for(i=0;i<nClockCnt;i++){
   436cc:	e03ffe15 	stw	zero,-8(fp)
   436d0:	00000b06 	br	43700 <SDHAL_DummyClock+0x44>
        SD_CLK_LOW;
   436d4:	0007883a 	mov	r3,zero
   436d8:	00800234 	movhi	r2,8
   436dc:	10842804 	addi	r2,r2,4256
   436e0:	10c00035 	stwio	r3,0(r2)
        SD_CLK_HIGH;
   436e4:	00c00044 	movi	r3,1
   436e8:	00800234 	movhi	r2,8
   436ec:	10842804 	addi	r2,r2,4256
   436f0:	10c00035 	stwio	r3,0(r2)
}


void SDHAL_DummyClock(int nClockCnt){
    int i;
    for(i=0;i<nClockCnt;i++){
   436f4:	e0bffe17 	ldw	r2,-8(fp)
   436f8:	10800044 	addi	r2,r2,1
   436fc:	e0bffe15 	stw	r2,-8(fp)
   43700:	e0fffe17 	ldw	r3,-8(fp)
   43704:	e0bfff17 	ldw	r2,-4(fp)
   43708:	18bff216 	blt	r3,r2,436d4 <__alt_data_end+0xfffdece4>
        SD_CLK_LOW;
        SD_CLK_HIGH;
    }
}
   4370c:	e037883a 	mov	sp,fp
   43710:	df000017 	ldw	fp,0(sp)
   43714:	dec00104 	addi	sp,sp,4
   43718:	f800283a 	ret

0004371c <SDLIB_Init>:
static SD_INFO gSdInfo;


//-------------------------------------------------------------------------
bool SDLIB_Init(void)
{
   4371c:	defff604 	addi	sp,sp,-40
   43720:	dfc00915 	stw	ra,36(sp)
   43724:	df000815 	stw	fp,32(sp)
   43728:	df000804 	addi	fp,sp,32
    bool bSuccess = FALSE, bTimeout = FALSE;
   4372c:	e03ff815 	stw	zero,-32(fp)
   43730:	e03ff915 	stw	zero,-28(fp)
   43734:	008001b4 	movhi	r2,6
   43738:	10b29a04 	addi	r2,r2,-13720
   4373c:	10800017 	ldw	r2,0(r2)
    alt_u8  szThisCID[16];
    const int nTimeout = alt_ticks_per_second();
   43740:	e0bffa15 	stw	r2,-24(fp)
    alt_u32 TimeStart;

    
   // alt_u8 x,y;
    memset(&gSdInfo, 0, sizeof(gSdInfo));
   43744:	010001b4 	movhi	r4,6
   43748:	21329e04 	addi	r4,r4,-13704
   4374c:	000b883a 	mov	r5,zero
   43750:	01800e04 	movi	r6,56
   43754:	004728c0 	call	4728c <memset>
    gSdInfo.bSupport4Bits = SD_IsSupport4Bits();
   43758:	0043b780 	call	43b78 <SD_IsSupport4Bits>
   4375c:	1007883a 	mov	r3,r2
   43760:	008001b4 	movhi	r2,6
   43764:	10b29e04 	addi	r2,r2,-13704
   43768:	10c00015 	stw	r3,0(r2)

    SDCARD_DEBUG(("--- Power On, Card Identification Mode, Idle State\r\n"));
    SDCARD_DEBUG(("sd %d-bit mode\r\n", gSdInfo.bSupport4Bits?4:1));
  
    usleep(74*10);
   4376c:	0100b904 	movi	r4,740
   43770:	0056a0c0 	call	56a0c <usleep>
    
    SD_Init();
   43774:	0043b500 	call	43b50 <SD_Init>

    
    //========================== CMD0 (None Response) ========
    // Reset all cards to idle state
    SD_CMD0();
   43778:	0043ba00 	call	43ba0 <SD_CMD0>
    usleep(100*1000);
   4377c:	010000b4 	movhi	r4,2
   43780:	2121a804 	addi	r4,r4,-31072
   43784:	0056a0c0 	call	56a0c <usleep>
    
    //========================== CMD8 (Response R7) ==========
    //Sends SD Memory Card interface condition (Added in SDHC 2.0)
    if (SD_CMD8(SD_VHS_2V7_3V6, CMD8_DEFAULT_TEST_PATTERN)){
   43788:	01000044 	movi	r4,1
   4378c:	01402a84 	movi	r5,170
   43790:	0043c280 	call	43c28 <SD_CMD8>
   43794:	10000e26 	beq	r2,zero,437d0 <SDLIB_Init+0xb4>
        // OCR: Operation Condistions Register
        //gSdInfo.HostOCR32 = 0x01 << 30; //argument=0x40FF8000; // support HC
        gSdInfo.HostOCR32 = 0x40FF8000;
   43798:	008001b4 	movhi	r2,6
   4379c:	10b29e04 	addi	r2,r2,-13704
   437a0:	00d04034 	movhi	r3,16640
   437a4:	18e00004 	addi	r3,r3,-32768
   437a8:	10c00315 	stw	r3,12(r2)
        gSdInfo.bVer2 = TRUE;
   437ac:	008001b4 	movhi	r2,6
   437b0:	10b29e04 	addi	r2,r2,-13704
   437b4:	00c00044 	movi	r3,1
   437b8:	10c00115 	stw	r3,4(r2)
        gSdInfo.bSDHC = TRUE;
   437bc:	008001b4 	movhi	r2,6
   437c0:	10b29e04 	addi	r2,r2,-13704
   437c4:	00c00044 	movi	r3,1
   437c8:	10c00215 	stw	r3,8(r2)
   437cc:	00000806 	br	437f0 <SDLIB_Init+0xd4>
        SDCARD_DEBUG((" 2.0 \r\n"));
    }else{
        gSdInfo.HostOCR32 = 0x00040000;   
   437d0:	008001b4 	movhi	r2,6
   437d4:	10b29e04 	addi	r2,r2,-13704
   437d8:	00c00134 	movhi	r3,4
   437dc:	10c00315 	stw	r3,12(r2)
        SDCARD_TRACE(("CMD8 not supported\r\n"));
        
        // Reset cards to idle state
        SD_CMD0();
   437e0:	0043ba00 	call	43ba0 <SD_CMD0>
        usleep(100*1000);        
   437e4:	010000b4 	movhi	r4,2
   437e8:	2121a804 	addi	r4,r4,-31072
   437ec:	0056a0c0 	call	56a0c <usleep>
 * alt_nticks() returns the elapsed number of system clock ticks since reset.
 */

static ALT_INLINE alt_u32 ALT_ALWAYS_INLINE alt_nticks (void)
{
  return _alt_nticks;
   437f0:	008001b4 	movhi	r2,6
   437f4:	10b29b04 	addi	r2,r2,-13716
   437f8:	10800017 	ldw	r2,0(r2)
    }
    //========================== ACMD41 (CMD55) ==============
    TimeStart = alt_nticks();
   437fc:	e0bffb15 	stw	r2,-20(fp)
    while(!bSuccess && !bTimeout){
   43800:	00002e06 	br	438bc <SDLIB_Init+0x1a0>
        if (!SD_CMD55(gSdInfo.RCA16, SD_STATE_IDLE)){  // execute cmd55 before execute and ACMD
   43804:	008001b4 	movhi	r2,6
   43808:	10b29e04 	addi	r2,r2,-13704
   4380c:	1080050b 	ldhu	r2,20(r2)
   43810:	10bfffcc 	andi	r2,r2,65535
   43814:	1009883a 	mov	r4,r2
   43818:	000b883a 	mov	r5,zero
   4381c:	0043db40 	call	43db4 <SD_CMD55>
   43820:	1000021e 	bne	r2,zero,4382c <SDLIB_Init+0x110>
            SDCARD_ERROR(("CMD55 NG\r\n"));
            return FALSE;
   43824:	0005883a 	mov	r2,zero
   43828:	00008406 	br	43a3c <SDLIB_Init+0x320>
        }else{    
            bSuccess = SD_ACMD41(gSdInfo.HostOCR32, &gSdInfo.OCR32);
   4382c:	008001b4 	movhi	r2,6
   43830:	10b29e04 	addi	r2,r2,-13704
   43834:	10800317 	ldw	r2,12(r2)
   43838:	1009883a 	mov	r4,r2
   4383c:	014001b4 	movhi	r5,6
   43840:	2972a204 	addi	r5,r5,-13688
   43844:	0043f340 	call	43f34 <SD_ACMD41>
   43848:	e0bff815 	stw	r2,-32(fp)
            if (bSuccess && gSdInfo.bSDHC && ((gSdInfo.OCR32 & 0x40000000) == 0x00)){
   4384c:	e0bff817 	ldw	r2,-32(fp)
   43850:	10000c26 	beq	r2,zero,43884 <SDLIB_Init+0x168>
   43854:	008001b4 	movhi	r2,6
   43858:	10b29e04 	addi	r2,r2,-13704
   4385c:	10800217 	ldw	r2,8(r2)
   43860:	10000826 	beq	r2,zero,43884 <SDLIB_Init+0x168>
   43864:	008001b4 	movhi	r2,6
   43868:	10b29e04 	addi	r2,r2,-13704
   4386c:	10800417 	ldw	r2,16(r2)
   43870:	1090002c 	andhi	r2,r2,16384
   43874:	1000031e 	bne	r2,zero,43884 <SDLIB_Init+0x168>
                gSdInfo.bSDHC = FALSE;
   43878:	008001b4 	movhi	r2,6
   4387c:	10b29e04 	addi	r2,r2,-13704
   43880:	10000215 	stw	zero,8(r2)
            }    
            // check timeout
            if (!bSuccess){
   43884:	e0bff817 	ldw	r2,-32(fp)
   43888:	10000c1e 	bne	r2,zero,438bc <SDLIB_Init+0x1a0>
   4388c:	008001b4 	movhi	r2,6
   43890:	10b29b04 	addi	r2,r2,-13716
   43894:	10c00017 	ldw	r3,0(r2)
                if ((alt_nticks() - TimeStart) > nTimeout){
   43898:	e0bffb17 	ldw	r2,-20(fp)
   4389c:	1885c83a 	sub	r2,r3,r2
   438a0:	e0fffa17 	ldw	r3,-24(fp)
   438a4:	1880032e 	bgeu	r3,r2,438b4 <SDLIB_Init+0x198>
                    SDCARD_ERROR(("ACMD41[SD_APP_OP_COND] fail\r\n"));
                    bTimeout = TRUE;
   438a8:	00800044 	movi	r2,1
   438ac:	e0bff915 	stw	r2,-28(fp)
   438b0:	00000206 	br	438bc <SDLIB_Init+0x1a0>
                }else{
                    usleep(10*1000);
   438b4:	0109c404 	movi	r4,10000
   438b8:	0056a0c0 	call	56a0c <usleep>
        SD_CMD0();
        usleep(100*1000);        
    }
    //========================== ACMD41 (CMD55) ==============
    TimeStart = alt_nticks();
    while(!bSuccess && !bTimeout){
   438bc:	e0bff817 	ldw	r2,-32(fp)
   438c0:	1000021e 	bne	r2,zero,438cc <SDLIB_Init+0x1b0>
   438c4:	e0bff917 	ldw	r2,-28(fp)
   438c8:	103fce26 	beq	r2,zero,43804 <__alt_data_end+0xfffdee14>
                    usleep(10*1000);
                }    
            }
        }
    }
    if (!bSuccess){
   438cc:	e0bff817 	ldw	r2,-32(fp)
   438d0:	1000021e 	bne	r2,zero,438dc <SDLIB_Init+0x1c0>
        return FALSE;
   438d4:	0005883a 	mov	r2,zero
   438d8:	00005806 	br	43a3c <SDLIB_Init+0x320>
    }
   
    //========================== CMD2 ========================    
    // issue cmd2 & wait response 
    // ALL_SEND_CID (CMD2): Asks any card to send the CID numbers on the CMD line
    if (!SD_CMD2(gSdInfo.szCID, sizeof(gSdInfo.szCID))){
   438dc:	010001b4 	movhi	r4,6
   438e0:	2132a384 	addi	r4,r4,-13682
   438e4:	01400444 	movi	r5,17
   438e8:	00440d00 	call	440d0 <SD_CMD2>
   438ec:	1000021e 	bne	r2,zero,438f8 <SDLIB_Init+0x1dc>
        SDCARD_ERROR(("CMD2 fail\r\n"));
        return FALSE;
   438f0:	0005883a 	mov	r2,zero
   438f4:	00005106 	br	43a3c <SDLIB_Init+0x320>
    SDCARD_TRACE(("--- Power On, Card Identification Mode, Identification State\r\n"));

    //========================== CMD3 ========================        
    // issue cmd3 & wait response, finally get RCA
    // CMD3 (SEND_RELATIVE_ADDR): Ask the card to publish a new relative address (RCA)
    if (!SD_CMD3(&gSdInfo.RCA16)){
   438f8:	010001b4 	movhi	r4,6
   438fc:	2132a304 	addi	r4,r4,-13684
   43900:	00442680 	call	44268 <SD_CMD3>
   43904:	1000021e 	bne	r2,zero,43910 <SDLIB_Init+0x1f4>
        SDCARD_ERROR(("CMD3 fail\r\n"));
        return FALSE;
   43908:	0005883a 	mov	r2,zero
   4390c:	00004b06 	br	43a3c <SDLIB_Init+0x320>
    //### Standby-by state in Data-transfer mode
    
    //========================== CMD9 ========================
    SDCARD_DEBUG(("--- enter data-transfer mode, Standby state\r\n"));
    // issue cmd9 with given RCA & wait response 
    if (!SD_CMD9(gSdInfo.RCA16, gSdInfo.szCSD, sizeof(gSdInfo.szCSD))){
   43910:	008001b4 	movhi	r2,6
   43914:	10b29e04 	addi	r2,r2,-13704
   43918:	1080050b 	ldhu	r2,20(r2)
   4391c:	10bfffcc 	andi	r2,r2,65535
   43920:	1009883a 	mov	r4,r2
   43924:	014001b4 	movhi	r5,6
   43928:	2972a7c4 	addi	r5,r5,-13665
   4392c:	01800444 	movi	r6,17
   43930:	00444040 	call	44404 <SD_CMD9>
   43934:	1000021e 	bne	r2,zero,43940 <SDLIB_Init+0x224>
        SDCARD_DEBUG(("CMD9 fail\r\n"));
        return FALSE;
   43938:	0005883a 	mov	r2,zero
   4393c:	00003f06 	br	43a3c <SDLIB_Init+0x320>
    }
    
    //========================== CMD10 ========================
    // richard add  (query card identification)  
    if (!SD_CMD10(gSdInfo.RCA16, szThisCID, sizeof(szThisCID))){
   43940:	008001b4 	movhi	r2,6
   43944:	10b29e04 	addi	r2,r2,-13704
   43948:	1080050b 	ldhu	r2,20(r2)
   4394c:	10ffffcc 	andi	r3,r2,65535
   43950:	e0bffc04 	addi	r2,fp,-16
   43954:	1809883a 	mov	r4,r3
   43958:	100b883a 	mov	r5,r2
   4395c:	01800404 	movi	r6,16
   43960:	00445c40 	call	445c4 <SD_CMD10>
   43964:	1000021e 	bne	r2,zero,43970 <SDLIB_Init+0x254>
        SDCARD_DEBUG(("CMD10 fail\r\n"));
        return FALSE;
   43968:	0005883a 	mov	r2,zero
   4396c:	00003306 	br	43a3c <SDLIB_Init+0x320>
    // issue cmd9 with given RCA & wait response
    
    //========================== CMD7 ========================
    // richard: issue cmd7 to enter transfer state
    // cmd7: toggle between Standy-by and Trasfer State
    if (!SD_CMD7(gSdInfo.RCA16)){
   43970:	008001b4 	movhi	r2,6
   43974:	10b29e04 	addi	r2,r2,-13704
   43978:	1080050b 	ldhu	r2,20(r2)
   4397c:	10bfffcc 	andi	r2,r2,65535
   43980:	1009883a 	mov	r4,r2
   43984:	00447840 	call	44784 <SD_CMD7>
   43988:	1000021e 	bne	r2,zero,43994 <SDLIB_Init+0x278>
        SDCARD_DEBUG(("CMD7 fail\r\n"));
        return FALSE;
   4398c:	0005883a 	mov	r2,zero
   43990:	00002a06 	br	43a3c <SDLIB_Init+0x320>
    //### Transfer state in Data-transfer mode     
    SDCARD_DEBUG(("--- enter data-transfer mode, Transfer state\r\n"));
       
    //========================== CMD16 ========================   
    // issue cmd16 (select a block length) & wait response
    if (!SD_CMD16(512)){  // 512 bytes
   43994:	01008004 	movi	r4,512
   43998:	00449040 	call	44904 <SD_CMD16>
   4399c:	1000021e 	bne	r2,zero,439a8 <SDLIB_Init+0x28c>
        SDCARD_DEBUG(("CMD16 fail\r\n"));
        return FALSE;
   439a0:	0005883a 	mov	r2,zero
   439a4:	00002506 	br	43a3c <SDLIB_Init+0x320>
    }       
    
    if (gSdInfo.bSupport4Bits){ 
   439a8:	008001b4 	movhi	r2,6
   439ac:	10b29e04 	addi	r2,r2,-13704
   439b0:	10800017 	ldw	r2,0(r2)
   439b4:	10002026 	beq	r2,zero,43a38 <SDLIB_Init+0x31c>
        // richard add: set bus width
        // Note. This command is valid only in "transfer state", i.e. after CMD7 is issued

        if (!SD_CMD55(gSdInfo.RCA16, SD_STATE_TRAN)){  // execute cmd55 before execute and ACMD, RCA = 0
   439b8:	008001b4 	movhi	r2,6
   439bc:	10b29e04 	addi	r2,r2,-13704
   439c0:	1080050b 	ldhu	r2,20(r2)
   439c4:	10bfffcc 	andi	r2,r2,65535
   439c8:	1009883a 	mov	r4,r2
   439cc:	01400104 	movi	r5,4
   439d0:	0043db40 	call	43db4 <SD_CMD55>
   439d4:	1000021e 	bne	r2,zero,439e0 <SDLIB_Init+0x2c4>
            SDCARD_DEBUG(("CMD55 NG\r\n"));
            return FALSE;
   439d8:	0005883a 	mov	r2,zero
   439dc:	00001706 	br	43a3c <SDLIB_Init+0x320>
        }       
    
        SDCARD_DEBUG(("ACMD6[SET_BUS_WIDTH], 4-bit\r\n"));
        if (!SD_ACMD6(TRUE, SD_STATE_TRAN)){  // 4-bit mode
   439e0:	01000044 	movi	r4,1
   439e4:	01400104 	movi	r5,4
   439e8:	0044aa40 	call	44aa4 <SD_ACMD6>
   439ec:	1000021e 	bne	r2,zero,439f8 <SDLIB_Init+0x2dc>
            SDCARD_DEBUG(("ACMD6 NG\r\n"));
            return FALSE;
   439f0:	0005883a 	mov	r2,zero
   439f4:	00001106 	br	43a3c <SDLIB_Init+0x320>
        }         
    
    
        //
        if (!SD_CMD55(gSdInfo.RCA16, SD_STATE_TRAN)){  // execute cmd55 before execute and ACMD, RCA = 0
   439f8:	008001b4 	movhi	r2,6
   439fc:	10b29e04 	addi	r2,r2,-13704
   43a00:	1080050b 	ldhu	r2,20(r2)
   43a04:	10bfffcc 	andi	r2,r2,65535
   43a08:	1009883a 	mov	r4,r2
   43a0c:	01400104 	movi	r5,4
   43a10:	0043db40 	call	43db4 <SD_CMD55>
   43a14:	1000021e 	bne	r2,zero,43a20 <SDLIB_Init+0x304>
            SDCARD_DEBUG(("CMD55 NG\r\n"));
            return FALSE;
   43a18:	0005883a 	mov	r2,zero
   43a1c:	00000706 	br	43a3c <SDLIB_Init+0x320>
        }    
    
       
        SDCARD_DEBUG(("ACMD42[SET_CLR_CARD_DETECT], connect card\r\n"));
        if (!SD_ACMD42(TRUE, SD_STATE_TRAN)){  // connect card
   43a20:	01000044 	movi	r4,1
   43a24:	01400104 	movi	r5,4
   43a28:	0044c300 	call	44c30 <SD_ACMD42>
   43a2c:	1000021e 	bne	r2,zero,43a38 <SDLIB_Init+0x31c>
            SDCARD_DEBUG(("ACMD42 NG\r\n"));
            return FALSE;
   43a30:	0005883a 	mov	r2,zero
   43a34:	00000106 	br	43a3c <SDLIB_Init+0x320>
        printf("!!!!!write ng\r\n");
#endif
     
    SDCARD_DEBUG(("SDLIB_Init success\r\n"));
    
    return TRUE;
   43a38:	00800044 	movi	r2,1
}
   43a3c:	e037883a 	mov	sp,fp
   43a40:	dfc00117 	ldw	ra,4(sp)
   43a44:	df000017 	ldw	fp,0(sp)
   43a48:	dec00204 	addi	sp,sp,8
   43a4c:	f800283a 	ret

00043a50 <SDLIB_ReadBlock512>:


bool SDLIB_ReadBlock512(alt_u32 block_number, alt_u8 *buff)
{
   43a50:	defffa04 	addi	sp,sp,-24
   43a54:	dfc00515 	stw	ra,20(sp)
   43a58:	df000415 	stw	fp,16(sp)
   43a5c:	df000404 	addi	fp,sp,16
   43a60:	e13ffe15 	stw	r4,-8(fp)
   43a64:	e17fff15 	stw	r5,-4(fp)
    // buffer size muse be 512 byte
    bool bSuccess;  
    alt_u32  addr;
  
    // issue cmd17 for 'Single Block Read'. parameter: block address
    if (gSdInfo.bSDHC)
   43a68:	008001b4 	movhi	r2,6
   43a6c:	10b29e04 	addi	r2,r2,-13704
   43a70:	10800217 	ldw	r2,8(r2)
   43a74:	10000326 	beq	r2,zero,43a84 <SDLIB_ReadBlock512+0x34>
        addr = block_number; // note. for SDHC, argument for addr of CMD7 is block number
   43a78:	e0bffe17 	ldw	r2,-8(fp)
   43a7c:	e0bffc15 	stw	r2,-16(fp)
   43a80:	00000306 	br	43a90 <SDLIB_ReadBlock512+0x40>
    else 
        addr = block_number * 512;
   43a84:	e0bffe17 	ldw	r2,-8(fp)
   43a88:	1004927a 	slli	r2,r2,9
   43a8c:	e0bffc15 	stw	r2,-16(fp)
    if (!SD_CMD17(addr, SD_STATE_TRAN)){  // 4-bit mode
   43a90:	e13ffc17 	ldw	r4,-16(fp)
   43a94:	01400104 	movi	r5,4
   43a98:	0044db00 	call	44db0 <SD_CMD17>
   43a9c:	1000021e 	bne	r2,zero,43aa8 <SDLIB_ReadBlock512+0x58>
        SDCARD_DEBUG(("CMD17 NG\r\n"));
        return FALSE;
   43aa0:	0005883a 	mov	r2,zero
   43aa4:	00000506 	br	43abc <SDLIB_ReadBlock512+0x6c>
    }
    //

    bSuccess = SD_ReadData(buff, 512);  // read 512 bytes
   43aa8:	e13fff17 	ldw	r4,-4(fp)
   43aac:	01408004 	movi	r5,512
   43ab0:	00451000 	call	45100 <SD_ReadData>
   43ab4:	e0bffd15 	stw	r2,-12(fp)
    
    //
    return bSuccess;
   43ab8:	e0bffd17 	ldw	r2,-12(fp)
}
   43abc:	e037883a 	mov	sp,fp
   43ac0:	dfc00117 	ldw	ra,4(sp)
   43ac4:	df000017 	ldw	fp,0(sp)
   43ac8:	dec00204 	addi	sp,sp,8
   43acc:	f800283a 	ret

00043ad0 <SDLIB_WriteBlock512>:

bool SDLIB_WriteBlock512(alt_u32 block_number, alt_u8 *szDataWrite)
{
   43ad0:	defffa04 	addi	sp,sp,-24
   43ad4:	dfc00515 	stw	ra,20(sp)
   43ad8:	df000415 	stw	fp,16(sp)
   43adc:	df000404 	addi	fp,sp,16
   43ae0:	e13ffe15 	stw	r4,-8(fp)
   43ae4:	e17fff15 	stw	r5,-4(fp)
    // buffer size muse be 512 byte
    bool bSuccess;  
    alt_u32  addr;
  
    // issue cmd24 for 'Single Block write'. parameter: block address
    if (gSdInfo.bSDHC)
   43ae8:	008001b4 	movhi	r2,6
   43aec:	10b29e04 	addi	r2,r2,-13704
   43af0:	10800217 	ldw	r2,8(r2)
   43af4:	10000326 	beq	r2,zero,43b04 <SDLIB_WriteBlock512+0x34>
        addr = block_number; // note. for SDHC, argument for addr of CMD7 is block number
   43af8:	e0bffe17 	ldw	r2,-8(fp)
   43afc:	e0bffc15 	stw	r2,-16(fp)
   43b00:	00000306 	br	43b10 <SDLIB_WriteBlock512+0x40>
    else 
        addr = block_number * 512;
   43b04:	e0bffe17 	ldw	r2,-8(fp)
   43b08:	1004927a 	slli	r2,r2,9
   43b0c:	e0bffc15 	stw	r2,-16(fp)
    if (!SD_CMD24(addr, SD_STATE_TRAN)){ 
   43b10:	e13ffc17 	ldw	r4,-16(fp)
   43b14:	01400104 	movi	r5,4
   43b18:	0044f580 	call	44f58 <SD_CMD24>
   43b1c:	1000021e 	bne	r2,zero,43b28 <SDLIB_WriteBlock512+0x58>
        SDCARD_DEBUG(("CMD24 NG\r\n"));
        return FALSE;
   43b20:	0005883a 	mov	r2,zero
   43b24:	00000506 	br	43b3c <SDLIB_WriteBlock512+0x6c>
    }
    //

    bSuccess = SD_WriteData(szDataWrite, 512);  // Write 512 bytes
   43b28:	e13fff17 	ldw	r4,-4(fp)
   43b2c:	01408004 	movi	r5,512
   43b30:	00451400 	call	45140 <SD_WriteData>
   43b34:	e0bffd15 	stw	r2,-12(fp)
    
    //
    return bSuccess;
   43b38:	e0bffd17 	ldw	r2,-12(fp)
}
   43b3c:	e037883a 	mov	sp,fp
   43b40:	dfc00117 	ldw	ra,4(sp)
   43b44:	df000017 	ldw	fp,0(sp)
   43b48:	dec00204 	addi	sp,sp,8
   43b4c:	f800283a 	ret

00043b50 <SD_Init>:
// internal function
alt_u32 ArrayToU32(alt_u8 szData[]);

//============================================================

void SD_Init(void){
   43b50:	defffe04 	addi	sp,sp,-8
   43b54:	dfc00115 	stw	ra,4(sp)
   43b58:	df000015 	stw	fp,0(sp)
   43b5c:	d839883a 	mov	fp,sp
    SDHAL_Init();
   43b60:	0042f700 	call	42f70 <SDHAL_Init>
}
   43b64:	e037883a 	mov	sp,fp
   43b68:	dfc00117 	ldw	ra,4(sp)
   43b6c:	df000017 	ldw	fp,0(sp)
   43b70:	dec00204 	addi	sp,sp,8
   43b74:	f800283a 	ret

00043b78 <SD_IsSupport4Bits>:

bool SD_IsSupport4Bits(void){
   43b78:	defffe04 	addi	sp,sp,-8
   43b7c:	dfc00115 	stw	ra,4(sp)
   43b80:	df000015 	stw	fp,0(sp)
   43b84:	d839883a 	mov	fp,sp
    return SDHAL_IsSupport4Bits();
   43b88:	0042f440 	call	42f44 <SDHAL_IsSupport4Bits>
}
   43b8c:	e037883a 	mov	sp,fp
   43b90:	dfc00117 	ldw	ra,4(sp)
   43b94:	df000017 	ldw	fp,0(sp)
   43b98:	dec00204 	addi	sp,sp,8
   43b9c:	f800283a 	ret

00043ba0 <SD_CMD0>:



void SD_CMD0(void){
   43ba0:	defffc04 	addi	sp,sp,-16
   43ba4:	dfc00315 	stw	ra,12(sp)
   43ba8:	df000215 	stw	fp,8(sp)
   43bac:	df000204 	addi	fp,sp,8
    alt_u8 szCmd[6]  = {0x40,0x00,0x00,0x00,0x00, 0x00}, crc;
   43bb0:	00801004 	movi	r2,64
   43bb4:	e0bffe45 	stb	r2,-7(fp)
   43bb8:	e03ffe85 	stb	zero,-6(fp)
   43bbc:	e03ffec5 	stb	zero,-5(fp)
   43bc0:	e03fff05 	stb	zero,-4(fp)
   43bc4:	e03fff45 	stb	zero,-3(fp)
   43bc8:	e03fff85 	stb	zero,-2(fp)

    SDCARD_TRACE(("CMD0\r\n"));
    // build packet    
    szCmd[0] |= 0X00;
   43bcc:	e0bffe43 	ldbu	r2,-7(fp)
   43bd0:	e0bffe45 	stb	r2,-7(fp)
    crc = crc7(0, szCmd, 5);
   43bd4:	e0bffe44 	addi	r2,fp,-7
   43bd8:	0009883a 	mov	r4,zero
   43bdc:	100b883a 	mov	r5,r2
   43be0:	01800144 	movi	r6,5
   43be4:	0042ed40 	call	42ed4 <crc7>
   43be8:	e0bffe05 	stb	r2,-8(fp)
    szCmd[5] = (crc << 1) | 0x01;
   43bec:	e0bffe03 	ldbu	r2,-8(fp)
   43bf0:	1085883a 	add	r2,r2,r2
   43bf4:	10800054 	ori	r2,r2,1
   43bf8:	e0bfff85 	stb	r2,-2(fp)
    
    // Tx 100 clock for power on sequence 
   // SDHAL_DummyClock(100);
    //
    
    SDHAL_SendCmd(szCmd, sizeof(szCmd));
   43bfc:	e0bffe44 	addi	r2,fp,-7
   43c00:	1009883a 	mov	r4,r2
   43c04:	01400184 	movi	r5,6
   43c08:	004300c0 	call	4300c <SDHAL_SendCmd>
    
    // A command with no response. 8 clocks after the host command end bit.
    // !!!!!!!!!! Note. Remember to add dummy clock here
    SDHAL_DummyClock(8);
   43c0c:	01000204 	movi	r4,8
   43c10:	00436bc0 	call	436bc <SDHAL_DummyClock>
    
}
   43c14:	e037883a 	mov	sp,fp
   43c18:	dfc00117 	ldw	ra,4(sp)
   43c1c:	df000017 	ldw	fp,0(sp)
   43c20:	dec00204 	addi	sp,sp,8
   43c24:	f800283a 	ret

00043c28 <SD_CMD8>:


bool SD_CMD8(alt_u8 VolId, alt_u8 TestPattern){
   43c28:	defff704 	addi	sp,sp,-36
   43c2c:	dfc00815 	stw	ra,32(sp)
   43c30:	df000715 	stw	fp,28(sp)
   43c34:	df000704 	addi	fp,sp,28
   43c38:	2007883a 	mov	r3,r4
   43c3c:	2805883a 	mov	r2,r5
   43c40:	e0fffe05 	stb	r3,-8(fp)
   43c44:	e0bfff05 	stb	r2,-4(fp)
    bool bSuccess;
    alt_u8 szResponse[6];
    const alt_u8 Cmd = 8;
   43c48:	00800204 	movi	r2,8
   43c4c:	e0bffa05 	stb	r2,-24(fp)
   // int x;
    alt_u8 szCmd[6]  = {0x40,0x00,0x00,0x00,0x00, 0x00}, crc;
   43c50:	00801004 	movi	r2,64
   43c54:	e0bffc45 	stb	r2,-15(fp)
   43c58:	e03ffc85 	stb	zero,-14(fp)
   43c5c:	e03ffcc5 	stb	zero,-13(fp)
   43c60:	e03ffd05 	stb	zero,-12(fp)
   43c64:	e03ffd45 	stb	zero,-11(fp)
   43c68:	e03ffd85 	stb	zero,-10(fp)

    SDCARD_TRACE(("CMD8\r\n"));
    // build packet    
    szCmd[0] |= Cmd;
   43c6c:	e0fffc43 	ldbu	r3,-15(fp)
   43c70:	e0bffa03 	ldbu	r2,-24(fp)
   43c74:	1884b03a 	or	r2,r3,r2
   43c78:	e0bffc45 	stb	r2,-15(fp)
    szCmd[3] |= (VolId & 0x0F);
   43c7c:	e0bffd03 	ldbu	r2,-12(fp)
   43c80:	1007883a 	mov	r3,r2
   43c84:	e0bffe03 	ldbu	r2,-8(fp)
   43c88:	108003cc 	andi	r2,r2,15
   43c8c:	1884b03a 	or	r2,r3,r2
   43c90:	e0bffd05 	stb	r2,-12(fp)
    szCmd[4] = TestPattern;
   43c94:	e0bfff03 	ldbu	r2,-4(fp)
   43c98:	e0bffd45 	stb	r2,-11(fp)
    crc = crc7(0, szCmd, 5);
   43c9c:	e0bffc44 	addi	r2,fp,-15
   43ca0:	0009883a 	mov	r4,zero
   43ca4:	100b883a 	mov	r5,r2
   43ca8:	01800144 	movi	r6,5
   43cac:	0042ed40 	call	42ed4 <crc7>
   43cb0:	e0bffa45 	stb	r2,-23(fp)
    szCmd[5] = (crc << 1) | 0x01;
   43cb4:	e0bffa43 	ldbu	r2,-23(fp)
   43cb8:	1085883a 	add	r2,r2,r2
   43cbc:	10800054 	ori	r2,r2,1
   43cc0:	e0bffd85 	stb	r2,-10(fp)
    
    SDHAL_SendCmd(szCmd, sizeof(szCmd));
   43cc4:	e0bffc44 	addi	r2,fp,-15
   43cc8:	1009883a 	mov	r4,r2
   43ccc:	01400184 	movi	r5,6
   43cd0:	004300c0 	call	4300c <SDHAL_SendCmd>
    
    bSuccess = SDHAL_GetResponse(szResponse, sizeof(szResponse));
   43cd4:	e0bffac4 	addi	r2,fp,-21
   43cd8:	1009883a 	mov	r4,r2
   43cdc:	01400184 	movi	r5,6
   43ce0:	00431100 	call	43110 <SDHAL_GetResponse>
   43ce4:	e0bff915 	stw	r2,-28(fp)
    
    // check response content
    if (bSuccess){
   43ce8:	e0bff917 	ldw	r2,-28(fp)
   43cec:	10002b26 	beq	r2,zero,43d9c <SD_CMD8+0x174>
        // check command
        if (bSuccess && szResponse[0] != Cmd){
   43cf0:	e0bff917 	ldw	r2,-28(fp)
   43cf4:	10000526 	beq	r2,zero,43d0c <SD_CMD8+0xe4>
   43cf8:	e0bffac3 	ldbu	r2,-21(fp)
   43cfc:	10c03fcc 	andi	r3,r2,255
   43d00:	e0bffa03 	ldbu	r2,-24(fp)
   43d04:	18800126 	beq	r3,r2,43d0c <SD_CMD8+0xe4>
            SDCARD_DEBUG(("CMD%d Response: Invalid command index\r\n", Cmd));
            bSuccess = FALSE;
   43d08:	e03ff915 	stw	zero,-28(fp)
        }
        
        // check voltage supplied        
        if (bSuccess && szResponse[3] != VolId){
   43d0c:	e0bff917 	ldw	r2,-28(fp)
   43d10:	10000526 	beq	r2,zero,43d28 <SD_CMD8+0x100>
   43d14:	e0bffb83 	ldbu	r2,-18(fp)
   43d18:	10c03fcc 	andi	r3,r2,255
   43d1c:	e0bffe03 	ldbu	r2,-8(fp)
   43d20:	18800126 	beq	r3,r2,43d28 <SD_CMD8+0x100>
            SDCARD_DEBUG(("CMD%d Response: Invalid Void Id\r\n", Cmd));
            bSuccess = FALSE;
   43d24:	e03ff915 	stw	zero,-28(fp)
        }        

        // check test pattern        
        if (bSuccess && szResponse[4] != TestPattern){
   43d28:	e0bff917 	ldw	r2,-28(fp)
   43d2c:	10000526 	beq	r2,zero,43d44 <SD_CMD8+0x11c>
   43d30:	e0bffbc3 	ldbu	r2,-17(fp)
   43d34:	10c03fcc 	andi	r3,r2,255
   43d38:	e0bfff03 	ldbu	r2,-4(fp)
   43d3c:	18800126 	beq	r3,r2,43d44 <SD_CMD8+0x11c>
            SDCARD_DEBUG(("CMD%d Response: Invalid Test pattern\r\n", Cmd));
            bSuccess = FALSE;
   43d40:	e03ff915 	stw	zero,-28(fp)
        }
        
        // check crc
        if (bSuccess){
   43d44:	e0bff917 	ldw	r2,-28(fp)
   43d48:	10000d26 	beq	r2,zero,43d80 <SD_CMD8+0x158>
            alt_u8 crc;
            crc = crc7(0, szResponse, 5);
   43d4c:	e0bffac4 	addi	r2,fp,-21
   43d50:	0009883a 	mov	r4,zero
   43d54:	100b883a 	mov	r5,r2
   43d58:	01800144 	movi	r6,5
   43d5c:	0042ed40 	call	42ed4 <crc7>
   43d60:	e0bffa85 	stb	r2,-22(fp)
            if (crc != (szResponse[5] >> 1)){
   43d64:	e0bffc03 	ldbu	r2,-16(fp)
   43d68:	10803fcc 	andi	r2,r2,255
   43d6c:	1004d07a 	srli	r2,r2,1
   43d70:	10c03fcc 	andi	r3,r2,255
   43d74:	e0bffa83 	ldbu	r2,-22(fp)
