
usb_portinterface.elf:     file format elf32-littlenios2
usb_portinterface.elf
architecture: nios2:r1, flags 0x00000112:
EXEC_P, HAS_SYMS, D_PAGED
start address 0x010001bc

Program Header:
    LOAD off    0x00001000 vaddr 0x01000000 paddr 0x01000000 align 2**12
         filesz 0x00000020 memsz 0x00000020 flags r-x
    LOAD off    0x00001020 vaddr 0x01000020 paddr 0x01000020 align 2**12
         filesz 0x0000ae5c memsz 0x0000ae5c flags r-x
    LOAD off    0x0000be7c vaddr 0x0100ae7c paddr 0x0100b648 align 2**12
         filesz 0x000007cc memsz 0x000007cc flags rw-
    LOAD off    0x0000ce14 vaddr 0x0100be14 paddr 0x0100be14 align 2**12
         filesz 0x00000000 memsz 0x00000824 flags rw-

Sections:
Idx Name          Size      VMA       LMA       File off  Algn
  0 .entry        00000020  01000000  01000000  00001000  2**5
                  CONTENTS, ALLOC, LOAD, READONLY, CODE
  1 .exceptions   0000019c  01000020  01000020  00001020  2**2
                  CONTENTS, ALLOC, LOAD, READONLY, CODE
  2 .text         0000a950  010001bc  010001bc  000011bc  2**2
                  CONTENTS, ALLOC, LOAD, READONLY, CODE
  3 .rodata       00000370  0100ab0c  0100ab0c  0000bb0c  2**2
                  CONTENTS, ALLOC, LOAD, READONLY, DATA
  4 .rwdata       000007cc  0100ae7c  0100b648  0000be7c  2**2
                  CONTENTS, ALLOC, LOAD, DATA, SMALL_DATA
  5 .bss          00000824  0100be14  0100be14  0000ce14  2**2
                  ALLOC, SMALL_DATA
  6 .onchip_memory 00000000  0100c638  0100c638  0000c648  2**0
                  CONTENTS
  7 .comment      00000049  00000000  00000000  0000c648  2**0
                  CONTENTS, READONLY
  8 .debug_aranges 000006f0  00000000  00000000  0000c698  2**3
                  CONTENTS, READONLY, DEBUGGING
  9 .debug_info   0000a659  00000000  00000000  0000cd88  2**0
                  CONTENTS, READONLY, DEBUGGING
 10 .debug_abbrev 000036d5  00000000  00000000  000173e1  2**0
                  CONTENTS, READONLY, DEBUGGING
 11 .debug_line   00003a61  00000000  00000000  0001aab6  2**0
                  CONTENTS, READONLY, DEBUGGING
 12 .debug_frame  000011a0  00000000  00000000  0001e518  2**2
                  CONTENTS, READONLY, DEBUGGING
 13 .debug_str    0000264b  00000000  00000000  0001f6b8  2**0
                  CONTENTS, READONLY, DEBUGGING
 14 .debug_loc    000011d7  00000000  00000000  00021d03  2**0
                  CONTENTS, READONLY, DEBUGGING
 15 .debug_alt_sim_info 00000060  00000000  00000000  00022edc  2**2
                  CONTENTS, READONLY, DEBUGGING
 16 .debug_ranges 00000158  00000000  00000000  00022f40  2**3
                  CONTENTS, READONLY, DEBUGGING
 17 .thread_model 00000003  00000000  00000000  000259f2  2**0
                  CONTENTS, READONLY
 18 .cpu          0000000c  00000000  00000000  000259f5  2**0
                  CONTENTS, READONLY
 19 .qsys         00000001  00000000  00000000  00025a01  2**0
                  CONTENTS, READONLY
 20 .simulation_enabled 00000001  00000000  00000000  00025a02  2**0
                  CONTENTS, READONLY
 21 .stderr_dev   0000000b  00000000  00000000  00025a03  2**0
                  CONTENTS, READONLY
 22 .stdin_dev    0000000b  00000000  00000000  00025a0e  2**0
                  CONTENTS, READONLY
 23 .stdout_dev   0000000b  00000000  00000000  00025a19  2**0
                  CONTENTS, READONLY
 24 .sopc_system_name 0000000e  00000000  00000000  00025a24  2**0
                  CONTENTS, READONLY
 25 .quartus_project_dir 00000038  00000000  00000000  00025a32  2**0
                  CONTENTS, READONLY
 26 .jdi          00004399  00000000  00000000  00025a6a  2**0
                  CONTENTS, READONLY
 27 .sopcinfo     00073d5b  00000000  00000000  00029e03  2**0
                  CONTENTS, READONLY
SYMBOL TABLE:
01000000 l    d  .entry	00000000 .entry
01000020 l    d  .exceptions	00000000 .exceptions
010001bc l    d  .text	00000000 .text
0100ab0c l    d  .rodata	00000000 .rodata
0100ae7c l    d  .rwdata	00000000 .rwdata
0100be14 l    d  .bss	00000000 .bss
0100c638 l    d  .onchip_memory	00000000 .onchip_memory
00000000 l    d  .comment	00000000 .comment
00000000 l    d  .debug_aranges	00000000 .debug_aranges
00000000 l    d  .debug_info	00000000 .debug_info
00000000 l    d  .debug_abbrev	00000000 .debug_abbrev
00000000 l    d  .debug_line	00000000 .debug_line
00000000 l    d  .debug_frame	00000000 .debug_frame
00000000 l    d  .debug_str	00000000 .debug_str
00000000 l    d  .debug_loc	00000000 .debug_loc
00000000 l    d  .debug_alt_sim_info	00000000 .debug_alt_sim_info
00000000 l    d  .debug_ranges	00000000 .debug_ranges
00000000 l    df *ABS*	00000000 ../usb_portinterface_bsp//obj/HAL/src/crt0.o
01000204 l       .text	00000000 alt_after_alt_main
00000000 l    df *ABS*	00000000 alt_exception_entry.o
01000094 l       .exceptions	00000000 alt_exception_unknown
00000000 l    df *ABS*	00000000 alt_irq_handler.c
00000000 l    df *ABS*	00000000 PortInterface.c
00000000 l    df *ABS*	00000000 sls_avalon_usb20.c
0100b608 l     O .rwdata	00000004 speed_changed.3975
01002908 l     F .text	00003068 sls_avalon_usb20_irq
00000000 l    df *ABS*	00000000 lib2-divmod.c
01007814 l     F .text	0000006c udivmodsi4
00000000 l    df *ABS*	00000000 printf.c
00000000 l    df *ABS*	00000000 puts.c
00000000 l    df *ABS*	00000000 strlen.c
00000000 l    df *ABS*	00000000 vfprintf.c
01007a78 l     F .text	0000006c print_repeat
00000000 l    df *ABS*	00000000 fvwrite_small_dev.c
00000000 l    df *ABS*	00000000 impure.c
0100b274 l     O .rwdata	000000e0 impure_data
00000000 l    df *ABS*	00000000 writer.c
00000000 l    df *ABS*	00000000 int_errno.c
00000000 l    df *ABS*	00000000 alt_dcache_flush.c
00000000 l    df *ABS*	00000000 alt_irq_register.c
00000000 l    df *ABS*	00000000 alt_irq_vars.c
00000000 l    df *ABS*	00000000 alt_load.c
01008374 l     F .text	00000064 alt_load_section
00000000 l    df *ABS*	00000000 alt_main.c
00000000 l    df *ABS*	00000000 alt_usleep.c
00000000 l    df *ABS*	00000000 alt_write.c
01008500 l     F .text	00000050 alt_get_errno
00000000 l    df *ABS*	00000000 alt_sys_init.c
01008648 l     F .text	00000038 alt_dev_reg
0100b354 l     O .rwdata	000000a4 dma_0_priv
0100b3f8 l     O .rwdata	0000001c dma_0_tx
0100b414 l     O .rwdata	0000001c dma_0_rx
0100b430 l     O .rwdata	0000002c jtag_uart_0
00000000 l    df *ABS*	00000000 altera_avalon_dma.c
01008720 l     F .text	00000038 alt_dma_txchan_reg
01008758 l     F .text	00000038 alt_dma_rxchan_reg
01008884 l     F .text	00000098 alt_avalon_dma_launch_txonly
0100891c l     F .text	00000098 alt_avalon_dma_launch_rxonly
010089b4 l     F .text	00000344 alt_avalon_dma_ioctl
0100906c l     F .text	000001bc alt_avalon_dma_irq
00000000 l    df *ABS*	00000000 altera_avalon_jtag_uart_fd.c
00000000 l    df *ABS*	00000000 altera_avalon_jtag_uart_read.c
00000000 l    df *ABS*	00000000 altera_avalon_jtag_uart_write.c
00000000 l    df *ABS*	00000000 altera_avalon_timer_sc.c
01009510 l     F .text	00000074 alt_avalon_timer_sc_irq
00000000 l    df *ABS*	00000000 alt_busy_sleep.c
00000000 l    df *ABS*	00000000 alt_close.c
01009764 l     F .text	00000050 alt_get_errno
00000000 l    df *ABS*	00000000 alt_dcache_flush_all.c
00000000 l    df *ABS*	00000000 alt_dev.c
010098c8 l     F .text	0000002c alt_dev_null_write
00000000 l    df *ABS*	00000000 alt_dev_llist_insert.c
010098f4 l     F .text	00000050 alt_get_errno
00000000 l    df *ABS*	00000000 alt_dma_rxchan_open.c
010099e8 l     F .text	00000050 alt_get_errno
00000000 l    df *ABS*	00000000 alt_dma_txchan_open.c
01009a8c l     F .text	00000050 alt_get_errno
00000000 l    df *ABS*	00000000 alt_do_ctors.c
00000000 l    df *ABS*	00000000 alt_do_dtors.c
00000000 l    df *ABS*	00000000 alt_errno.c
00000000 l    df *ABS*	00000000 alt_find_dev.c
00000000 l    df *ABS*	00000000 alt_icache_flush_all.c
00000000 l    df *ABS*	00000000 alt_iic.c
00000000 l    df *ABS*	00000000 alt_iic_isr_register.c
00000000 l    df *ABS*	00000000 alt_io_redirect.c
01009f78 l     F .text	000000c0 alt_open_fd
00000000 l    df *ABS*	00000000 alt_open.c
0100a0b0 l     F .text	00000050 alt_get_errno
0100a100 l     F .text	000000cc alt_file_locked
00000000 l    df *ABS*	00000000 alt_release_fd.c
00000000 l    df *ABS*	00000000 alt_tick.c
00000000 l    df *ABS*	00000000 altera_nios2_qsys_irq.c
00000000 l    df *ABS*	00000000 alt_find_file.c
00000000 l    df *ABS*	00000000 alt_get_fd.c
00000000 l    df *ABS*	00000000 alt_icache_flush.c
00000000 l    df *ABS*	00000000 atexit.c
00000000 l    df *ABS*	00000000 exit.c
00000000 l    df *ABS*	00000000 memcmp.c
00000000 l    df *ABS*	00000000 __atexit.c
00000000 l    df *ABS*	00000000 __call_atexit.c
00000000 l    df *ABS*	00000000 alt_exit.c
01006e4c g     F .text	00000798 usb20sr_with_dma_read
01008458 g     F .text	00000078 alt_main
010079c8 g     F .text	00000080 _puts_r
0100c538 g     O .bss	00000100 alt_irq
0100b648 g       *ABS*	00000000 __flash_rwdata_start
0100b1c0 g     O .rwdata	0000003c ep_ip_int_hs
0100b238 g     O .rwdata	0000003c ep_ip_int_ls
0100797c g     F .text	0000004c printf
01009228 g     F .text	000000b0 alt_avalon_dma_init
010075e4 g     F .text	00000174 usb20sr_check_bo_ready
01001814 g     F .text	00000028 get_current_config
01006258 g     F .text	00000530 usb20sr_without_dma_write
00000000  w      *UND*	00000000 __errno
01000000 g     F .entry	0000001c __reset
010015a8 g     F .text	00000030 usb20sr_phy_register_disable
0100b01c g     O .rwdata	0000003c ep_ip_csr_ls_
01000020 g       *ABS*	00000000 __flash_exceptions_start
0100be1c g     O .bss	00000004 errno
0100be28 g     O .bss	00000004 alt_argv
01013604 g       *ABS*	00000000 _gp
010084d0 g     F .text	00000030 usleep
01001864 g     F .text	00000028 get_current_alt_settings
01009adc g     F .text	00000054 alt_dma_txchan_open
0100b484 g     O .rwdata	00000180 alt_fd_list
0100097c g     F .text	00000124 BULK_OUT
01007758 g     F .text	000000bc usb20sr_check_bi_ready
01001388 g     F .text	0000002c HandleClassSpecificControlRequests
01009be8 g     F .text	00000090 alt_find_dev
0100a038 g     F .text	00000078 alt_io_redirect
0100ab0c g       *ABS*	00000000 __DTOR_END__
01007a48 g     F .text	00000014 puts
01000e1c g     F .text	0000042c BLOCK_WRITE
01009398 g     F .text	000000e4 altera_avalon_jtag_uart_read
00000000  w      *UND*	00000000 malloc
01007940 g     F .text	0000003c _printf_r
01007930 g     F .text	00000008 .hidden __udivsi3
0100a708 g     F .text	0000008c alt_icache_flush
0100134c g     F .text	0000003c USB_WakeUpCfg_Event
010026e4 g     F .text	00000180 USB_DisableEP
01008150 g     F .text	00000074 alt_dcache_flush
0100b628 g     O .rwdata	00000004 alt_max_fd
01000208 g     F .text	000001f0 configure_usb20sr
010081c4 g     F .text	000001b0 alt_irq_register
01002864 g     F .text	00000068 usb20sr_connect
01001904 g     F .text	0000007c USB_SetStallEP
01001770 g     F .text	00000038 get_current_micro_frame_no
01008790 g     F .text	000000f4 alt_avalon_dma_launch_bidir
01009a38 g     F .text	00000054 alt_dma_rxchan_open
01005970 g     F .text	0000014c usb20sr_config
0100b60c g     O .rwdata	00000004 _global_impure_ptr
0100c638 g       *ABS*	00000000 __bss_end
01009e88 g     F .text	000000f0 alt_iic_isr_register
0100a41c g     F .text	00000104 alt_tick
0100be38 g     O .bss	00000009 global_data
0100afa4 g     O .rwdata	0000003c ep_ip_csr_hs_
01009e3c g     F .text	0000004c alt_ic_irq_enabled
0100af58 g     O .rwdata	0000000a device_quali_desc_
0100a384 g     F .text	00000098 alt_alarm_stop
0100be14 g     O .bss	00000004 g_address
0100be20 g     O .bss	00000004 alt_irq_active
01005b30 g     F .text	00000728 usb20sr_with_dma_write
010000ec g     F .exceptions	000000d0 alt_irq_handler
0100b45c g     O .rwdata	00000028 alt_dev_null
010028cc g     F .text	0000003c usb20sr_disconnect
01009884 g     F .text	00000044 alt_dcache_flush_all
0100b648 g       *ABS*	00000000 __ram_rwdata_end
01000000 g       *ABS*	00000000 __alt_mem_onchip_memory
010015d8 g     F .text	0000003c usb20sr_set_dev_speed
0100b620 g     O .rwdata	00000008 alt_dev_list
01008ec0 g     F .text	00000074 alt_avalon_dma_space
01008550 g     F .text	000000f8 write
01001570 g     F .text	00000038 usb20sr_phy_register_enable
01006788 g     F .text	00000154 slsmemcpy
0100ae7c g       *ABS*	00000000 __ram_rodata_end
0100127c g     F .text	00000034 USB_Detached_Event
01007938 g     F .text	00000008 .hidden __umodsi3
010017a8 g     F .text	00000038 get_current_frame_no
010016b4 g     F .text	00000080 usb20sr_phy_register_read
0100c638 g       *ABS*	00000000 end
01001734 g     F .text	0000003c usb20sr_set_low_power_mode
0100ab0c g       *ABS*	00000000 __CTOR_LIST__
01020f58 g       *ABS*	00000000 __alt_stack_pointer
01009584 g     F .text	00000088 alt_avalon_timer_sc_init
0100947c g     F .text	00000094 altera_avalon_jtag_uart_write
0100b058 g     O .rwdata	0000003c ep_buf0_sz_hs_
01007ae4 g     F .text	00000544 ___vfprintf_internal_r
010012b0 g     F .text	00000034 USB_Reset_Event
01008f34 g     F .text	00000138 alt_avalon_dma_send
0100a93c g     F .text	0000019c __call_exitprocs
0100b634 g     O .rwdata	00000008 alt_dma_txchan_list
010013e0 g     F .text	00000190 usb20sr_error_event
010001bc g     F .text	0000004c _start
0100be30 g     O .bss	00000004 _alt_tick_rate
0100be34 g     O .bss	00000004 _alt_nticks
010086b4 g     F .text	0000006c alt_sys_init
0100a7f8 g     F .text	00000144 __register_exitproc
0100183c g     F .text	00000028 get_current_interface
01000860 g     F .text	0000011c BULK_IN
0100b148 g     O .rwdata	0000003c ep_buf0_sz_ls_
0100ae7c g       *ABS*	00000000 __ram_rwdata_start
0100ab0c g       *ABS*	00000000 __ram_rodata_start
0100ae7c g     O .rwdata	00000012 device_desc_
0100b604 g     O .rwdata	00000004 supported_ep_
010092d8 g     F .text	00000060 altera_avalon_jtag_uart_read_fd
0100a654 g     F .text	000000b4 alt_get_fd
0100960c g     F .text	00000158 alt_busy_sleep
01001b20 g     F .text	00000104 usb_ep_config
0100af82 g     O .rwdata	00000020 other_speed_conf_desc_fs_
0100a7c8 g     F .text	00000030 memcmp
0100c638 g       *ABS*	00000000 __alt_stack_base
01005abc g     F .text	00000074 usb20_event_isr
01001248 g     F .text	00000034 USB_Attached_Event
0100af08 g     O .rwdata	00000050 str_desc_
0100b0d0 g     O .rwdata	0000003c ep_buf0_sz_fs_
010068dc g     F .text	00000570 usb20sr_without_dma_read
0100a540 g     F .text	00000114 alt_find_file
01009944 g     F .text	000000a4 alt_dev_llist_insert
0100804c g     F .text	000000ac __sfvwrite_small_dev
0100b184 g     O .rwdata	0000003c ep_buf1_sz_ls_
0100be14 g       *ABS*	00000000 __bss_start
010003f8 g     F .text	00000468 main
01008d40 g     F .text	00000048 alt_avalon_dma_rx_ioctl
0100be2c g     O .bss	00000004 alt_envp
0100aef0 g     O .rwdata	00000018 str_desc_indexes_
0100aece g     O .rwdata	00000020 conf_desc_ls_
01009338 g     F .text	00000060 altera_avalon_jtag_uart_write_fd
0100af62 g     O .rwdata	00000020 other_speed_conf_desc_hs_
0100163c g     F .text	00000078 usb20sr_phy_register_write
0100b63c g     O .rwdata	00000004 alt_errno
0100b1fc g     O .rwdata	0000003c ep_ip_int_fs
01007880 g     F .text	00000054 .hidden __divsi3
0100ab0c g       *ABS*	00000000 __CTOR_END__
0100ab0c g       *ABS*	00000000 __flash_rodata_start
0100ab0c g       *ABS*	00000000 __DTOR_LIST__
0100be18 g     O .bss	00000004 pUsb20srDev
01008680 g     F .text	00000034 alt_irq_init
0100a324 g     F .text	00000060 alt_release_fd
01001614 g     F .text	00000028 usb20sr_get_dev_speed
0100a794 g     F .text	00000014 atexit
010080f8 g     F .text	00000058 _write_r
01001318 g     F .text	00000034 USB_Suspend_Event
0100b610 g     O .rwdata	00000004 _impure_ptr
0100be24 g     O .bss	00000004 alt_argc
01009b8c g     F .text	0000005c _do_dtors
01000020 g       .exceptions	00000000 alt_irq_entry
0100ae8e g     O .rwdata	00000020 conf_desc_hs_
0100b618 g     O .rwdata	00000008 alt_fs_list
01000020 g       *ABS*	00000000 __ram_exceptions_start
01009ca8 g     F .text	00000050 alt_ic_isr_register
010012e4 g     F .text	00000034 USB_Resume_Event
0100b648 g       *ABS*	00000000 _edata
0100c638 g       *ABS*	00000000 _end
010001bc g       *ABS*	00000000 __ram_exceptions_end
0100afe0 g     O .rwdata	0000003c ep_ip_csr_fs_
0100b094 g     O .rwdata	0000003c ep_buf1_sz_hs_
01001a04 g     F .text	0000011c usb_initialize_descriptor
01009d98 g     F .text	000000a4 alt_ic_irq_disable
0100a520 g     F .text	00000020 altera_nios2_qsys_irq_init
0100a7a8 g     F .text	00000020 exit
010078d4 g     F .text	0000005c .hidden __modsi3
01020f58 g       *ABS*	00000000 __alt_data_end
01000020 g     F .exceptions	00000000 alt_exception
0100b10c g     O .rwdata	0000003c ep_buf1_sz_fs_
0100aad8 g     F .text	00000034 _exit
01000aa0 g     F .text	0000037c BLOCK_READ
01001c24 g     F .text	00000084 dma_config
01007a5c g     F .text	0000001c strlen
0100a1cc g     F .text	00000158 open
010018c0 g     F .text	00000044 SetRemoteWakeUp
01009c78 g     F .text	00000030 alt_icache_flush_all
0100b614 g     O .rwdata	00000004 alt_priority_mask
0100be44 g     O .bss	000006f4 usb20srdev
01009cf8 g     F .text	000000a0 alt_ic_irq_enable
01008028 g     F .text	00000024 __vfprintf_internal
0100188c g     F .text	00000034 ifConfigured
01001980 g     F .text	00000084 USB_ClrStallEP
010013b4 g     F .text	0000002c HandleClassSpecificDescriptorRequests
01008d88 g     F .text	00000138 alt_avalon_dma_prepare
0100b62c g     O .rwdata	00000008 alt_dma_rxchan_list
0100b640 g     O .rwdata	00000008 alt_alarm_list
01009b30 g     F .text	0000005c _do_ctors
010097b4 g     F .text	000000d0 close
010083d8 g     F .text	00000080 alt_load
01008cf8 g     F .text	00000048 alt_avalon_dma_tx_ioctl
010017e0 g     F .text	00000034 get_sof_time
00000000  w      *UND*	00000000 free
01001ca8 g     F .text	00000a3c USB_EnableEP
0100aeae g     O .rwdata	00000020 conf_desc_fs_



Disassembly of section .entry:

01000000 <__reset>:
#if NIOS2_ICACHE_SIZE > 0 && defined(ALT_ALLOW_CODE_AT_RESET) && !defined(ALT_SIM_OPTIMIZE)
    /* Assume the instruction cache size is always a power of two. */
#if NIOS2_ICACHE_SIZE > 0x8000
    movhi r2, %hi(NIOS2_ICACHE_SIZE)
#else
    movui r2, NIOS2_ICACHE_SIZE
 1000000:	00840014 	movui	r2,4096
#endif

0:
    initi r2
 1000004:	1001483a 	initi	r2
    addi r2, r2, -NIOS2_ICACHE_LINE_SIZE
 1000008:	10bff804 	addi	r2,r2,-32
    bgt r2, zero, 0b
 100000c:	00bffd16 	blt	zero,r2,1000004 <__alt_data_end+0xfffdf0ac>
 * Jump to the _start entry point in the .text section if reset code
 * is allowed or if optimizing for RTL simulation.
 */
#if defined(ALT_ALLOW_CODE_AT_RESET) || defined(ALT_SIM_OPTIMIZE)
    /* Jump to the _start entry point in the .text section. */
    movhi r1, %hi(_start)
 1000010:	00404034 	movhi	at,256
    ori r1, r1, %lo(_start)
 1000014:	08406f14 	ori	at,at,444
    jmp r1
 1000018:	0800683a 	jmp	at
 100001c:	00000000 	call	0 <__reset-0x1000000>

Disassembly of section .exceptions:

01000020 <alt_exception>:

#else /* ALT_EXCEPTION_STACK disabled */
        /* 
         * Reserve space on normal stack for registers about to be pushed.
         */
        addi  sp, sp, -76
 1000020:	deffed04 	addi	sp,sp,-76
         * documentation for details).
         *
         * Leave a gap in the stack frame at 4(sp) for the muldiv handler to
         * store zero into.
         */
        stw   ra,  0(sp)
 1000024:	dfc00015 	stw	ra,0(sp)
        stw   r1,   8(sp)
 1000028:	d8400215 	stw	at,8(sp)
        stw   r2,  12(sp)
 100002c:	d8800315 	stw	r2,12(sp)
        stw   r3,  16(sp)
 1000030:	d8c00415 	stw	r3,16(sp)
        stw   r4,  20(sp)
 1000034:	d9000515 	stw	r4,20(sp)
        stw   r5,  24(sp)
 1000038:	d9400615 	stw	r5,24(sp)
        stw   r6,  28(sp)
 100003c:	d9800715 	stw	r6,28(sp)
        stw   r7,  32(sp)
 1000040:	d9c00815 	stw	r7,32(sp)
        rdctl r5, estatus   /* Read early to avoid usage stall */
 1000044:	000b307a 	rdctl	r5,estatus
        stw   r8,  36(sp)
 1000048:	da000915 	stw	r8,36(sp)
        stw   r9,  40(sp)
 100004c:	da400a15 	stw	r9,40(sp)
        stw   r10, 44(sp)
 1000050:	da800b15 	stw	r10,44(sp)
        stw   r11, 48(sp)
 1000054:	dac00c15 	stw	r11,48(sp)
        stw   r12, 52(sp)
 1000058:	db000d15 	stw	r12,52(sp)
        stw   r13, 56(sp)
 100005c:	db400e15 	stw	r13,56(sp)
        stw   r14, 60(sp)
 1000060:	db800f15 	stw	r14,60(sp)
        stw   r15, 64(sp)
 1000064:	dbc01015 	stw	r15,64(sp)
        /*
         * ea-4 contains the address of the instruction being executed
         * when the exception occured. For interrupt exceptions, we will
         * will be re-issue the isntruction. Store it in 72(sp)
         */
        stw   r5,  68(sp)  /* estatus */
 1000068:	d9401115 	stw	r5,68(sp)
        addi  r15, ea, -4  /* instruction that caused exception */
 100006c:	ebffff04 	addi	r15,ea,-4
        stw   r15,  72(sp)
 1000070:	dbc01215 	stw	r15,72(sp)
#else
        /*
         * Test to see if the exception was a software exception or caused 
         * by an external interrupt, and vector accordingly.
         */
        rdctl r4, ipending
 1000074:	0009313a 	rdctl	r4,ipending
        andi  r2, r5, 1
 1000078:	2880004c 	andi	r2,r5,1
        beq   r2, zero, .Lnot_irq
 100007c:	10000326 	beq	r2,zero,100008c <alt_exception+0x6c>
        beq   r4, zero, .Lnot_irq
 1000080:	20000226 	beq	r4,zero,100008c <alt_exception+0x6c>
        /*
         * Now that all necessary registers have been preserved, call 
         * alt_irq_handler() to process the interrupts.
         */

        call alt_irq_handler
 1000084:	10000ec0 	call	10000ec <alt_irq_handler>

        .section .exceptions.irqreturn, "xa"

        br    .Lexception_exit
 1000088:	00000306 	br	1000098 <alt_exception_unknown+0x4>
         * upon completion, so we write ea (address of instruction *after*
         * the one where the exception occured) into 72(sp). The actual
         * instruction that caused the exception is written in r2, which these
         * handlers will utilize.
         */
        stw   ea,  72(sp)  /* Don't re-issue */
 100008c:	df401215 	stw	ea,72(sp)
        ldw   r2, -4(ea)   /* Instruction that caused exception */
 1000090:	e8bfff17 	ldw	r2,-4(ea)

01000094 <alt_exception_unknown>:
#ifdef NIOS2_HAS_DEBUG_STUB
       /*
        *  Either tell the user now (if there is a debugger attached) or go into
        *  the debug monitor which will loop until a debugger is attached.
        */
        break
 1000094:	003da03a 	break	0
        /* 
         * Restore the saved registers, so that all general purpose registers 
         * have been restored to their state at the time the interrupt occured.
         */

        ldw   r5,  68(sp)
 1000098:	d9401117 	ldw	r5,68(sp)
        ldw   ea,  72(sp)  /* This becomes the PC once eret is executed */
 100009c:	df401217 	ldw	ea,72(sp)
        ldw   ra,   0(sp)
 10000a0:	dfc00017 	ldw	ra,0(sp)

        wrctl estatus, r5
 10000a4:	2801707a 	wrctl	estatus,r5

        ldw   r1,   8(sp)
 10000a8:	d8400217 	ldw	at,8(sp)
        ldw   r2,  12(sp)
 10000ac:	d8800317 	ldw	r2,12(sp)
        ldw   r3,  16(sp)
 10000b0:	d8c00417 	ldw	r3,16(sp)
        ldw   r4,  20(sp)
 10000b4:	d9000517 	ldw	r4,20(sp)
        ldw   r5,  24(sp)
 10000b8:	d9400617 	ldw	r5,24(sp)
        ldw   r6,  28(sp)
 10000bc:	d9800717 	ldw	r6,28(sp)
        ldw   r7,  32(sp)
 10000c0:	d9c00817 	ldw	r7,32(sp)

#if defined(ALT_EXCEPTION_STACK) && defined(ALT_STACK_CHECK)
        ldw   et, %gprel(alt_exception_old_stack_limit)(gp)
#endif

        ldw   r8,  36(sp)
 10000c4:	da000917 	ldw	r8,36(sp)
        ldw   r9,  40(sp)
 10000c8:	da400a17 	ldw	r9,40(sp)
        ldw   r10, 44(sp)
 10000cc:	da800b17 	ldw	r10,44(sp)
        ldw   r11, 48(sp)
 10000d0:	dac00c17 	ldw	r11,48(sp)
        ldw   r12, 52(sp)
 10000d4:	db000d17 	ldw	r12,52(sp)
        ldw   r13, 56(sp)
 10000d8:	db400e17 	ldw	r13,56(sp)
        ldw   r14, 60(sp)
 10000dc:	db800f17 	ldw	r14,60(sp)
        ldw   r15, 64(sp)
 10000e0:	dbc01017 	ldw	r15,64(sp)
        stw   et, %gprel(alt_stack_limit_value)(gp)
        stw   zero, %gprel(alt_exception_old_stack_limit)(gp)
#endif /* ALT_STACK_CHECK */
        ldw   sp,  76(sp)
#else /* ALT_EXCEPTION_STACK disabled */
        addi  sp, sp, 76
 10000e4:	dec01304 	addi	sp,sp,76

        /*
         * Return to the interrupted instruction.
         */

        eret
 10000e8:	ef80083a 	eret

010000ec <alt_irq_handler>:
 * instruction is present if the macro ALT_CI_INTERRUPT_VECTOR defined.
 */

void alt_irq_handler (void) __attribute__ ((section (".exceptions")));
void alt_irq_handler (void)
{
 10000ec:	defff904 	addi	sp,sp,-28
 10000f0:	dfc00615 	stw	ra,24(sp)
 10000f4:	df000515 	stw	fp,20(sp)
 10000f8:	df000504 	addi	fp,sp,20
  
  /*
   * Notify the operating system that we are at interrupt level.
   */ 
  
  ALT_OS_INT_ENTER();
 10000fc:	0001883a 	nop
#ifndef NIOS2_EIC_PRESENT
static ALT_INLINE alt_u32 ALT_ALWAYS_INLINE alt_irq_pending (void)
{
  alt_u32 active;

  NIOS2_READ_IPENDING (active);
 1000100:	0005313a 	rdctl	r2,ipending
 1000104:	e0bffe15 	stw	r2,-8(fp)

  return active;
 1000108:	e0bffe17 	ldw	r2,-8(fp)
   * Consider the case where the high priority interupt is asserted during
   * the interrupt entry sequence for a lower priority interrupt to see why
   * this is the case.
   */

  active = alt_irq_pending ();
 100010c:	e0bffb15 	stw	r2,-20(fp)

  do
  {
    i = 0;
 1000110:	e03ffd15 	stw	zero,-12(fp)
    mask = 1;
 1000114:	00800044 	movi	r2,1
 1000118:	e0bffc15 	stw	r2,-16(fp)
     * called to clear the interrupt condition.
     */

    do
    {
      if (active & mask)
 100011c:	e0fffb17 	ldw	r3,-20(fp)
 1000120:	e0bffc17 	ldw	r2,-16(fp)
 1000124:	1884703a 	and	r2,r3,r2
 1000128:	10001426 	beq	r2,zero,100017c <alt_irq_handler+0x90>
      { 
#ifdef ALT_ENHANCED_INTERRUPT_API_PRESENT
        alt_irq[i].handler(alt_irq[i].context); 
 100012c:	00804074 	movhi	r2,257
 1000130:	10b14e04 	addi	r2,r2,-15048
 1000134:	e0fffd17 	ldw	r3,-12(fp)
 1000138:	180690fa 	slli	r3,r3,3
 100013c:	10c5883a 	add	r2,r2,r3
 1000140:	10c00017 	ldw	r3,0(r2)
 1000144:	00804074 	movhi	r2,257
 1000148:	10b14e04 	addi	r2,r2,-15048
 100014c:	e13ffd17 	ldw	r4,-12(fp)
 1000150:	200890fa 	slli	r4,r4,3
 1000154:	1105883a 	add	r2,r2,r4
 1000158:	10800104 	addi	r2,r2,4
 100015c:	10800017 	ldw	r2,0(r2)
 1000160:	1009883a 	mov	r4,r2
 1000164:	183ee83a 	callr	r3
#else
        alt_irq[i].handler(alt_irq[i].context, i); 
#endif
        break;
 1000168:	0001883a 	nop
#ifndef NIOS2_EIC_PRESENT
static ALT_INLINE alt_u32 ALT_ALWAYS_INLINE alt_irq_pending (void)
{
  alt_u32 active;

  NIOS2_READ_IPENDING (active);
 100016c:	0005313a 	rdctl	r2,ipending
 1000170:	e0bfff15 	stw	r2,-4(fp)

  return active;
 1000174:	e0bfff17 	ldw	r2,-4(fp)
 1000178:	00000706 	br	1000198 <alt_irq_handler+0xac>
      }
      mask <<= 1;
 100017c:	e0bffc17 	ldw	r2,-16(fp)
 1000180:	1085883a 	add	r2,r2,r2
 1000184:	e0bffc15 	stw	r2,-16(fp)
      i++;
 1000188:	e0bffd17 	ldw	r2,-12(fp)
 100018c:	10800044 	addi	r2,r2,1
 1000190:	e0bffd15 	stw	r2,-12(fp)

    } while (1);
 1000194:	003fe106 	br	100011c <__alt_data_end+0xfffdf1c4>

    active = alt_irq_pending ();
 1000198:	e0bffb15 	stw	r2,-20(fp)
    
  } while (active);
 100019c:	e0bffb17 	ldw	r2,-20(fp)
 10001a0:	103fdb1e 	bne	r2,zero,1000110 <__alt_data_end+0xfffdf1b8>

  /*
   * Notify the operating system that interrupt processing is complete.
   */ 

  ALT_OS_INT_EXIT();
 10001a4:	0001883a 	nop
}
 10001a8:	e037883a 	mov	sp,fp
 10001ac:	dfc00117 	ldw	ra,4(sp)
 10001b0:	df000017 	ldw	fp,0(sp)
 10001b4:	dec00204 	addi	sp,sp,8
 10001b8:	f800283a 	ret

Disassembly of section .text:

010001bc <_start>:

    /* Assume the data cache size is always a power of two. */
#if NIOS2_DCACHE_SIZE > 0x8000
    movhi r2, %hi(NIOS2_DCACHE_SIZE)
#else
    movui r2, NIOS2_DCACHE_SIZE
 10001bc:	00820014 	movui	r2,2048
#endif

0:
    initd 0(r2)
 10001c0:	10000033 	initd	0(r2)
#ifdef NIOS2_ECC_PRESENT
    addi r2, r2, -4
#else
    addi r2, r2, -NIOS2_DCACHE_LINE_SIZE
 10001c4:	10bff804 	addi	r2,r2,-32
#endif
    bgt r2, zero, 0b
 10001c8:	00bffd16 	blt	zero,r2,10001c0 <__alt_data_end+0xfffdf268>

    /*
     * Now that the caches are initialized, set up the stack pointer and global pointer.
     * The values provided by the linker are assumed to be correctly aligned.
     */
    movhi sp, %hi(__alt_stack_pointer)
 10001cc:	06c040b4 	movhi	sp,258
    ori sp, sp, %lo(__alt_stack_pointer)
 10001d0:	dec3d614 	ori	sp,sp,3928
    movhi gp, %hi(_gp)
 10001d4:	06804074 	movhi	gp,257
    ori gp, gp, %lo(_gp)
 10001d8:	d68d8114 	ori	gp,gp,13828
 */
#ifndef ALT_SIM_OPTIMIZE
    /* Log that the BSS is about to be cleared. */
    ALT_LOG_PUTS(alt_log_msg_bss)

    movhi r2, %hi(__bss_start)
 10001dc:	00804034 	movhi	r2,256
    ori r2, r2, %lo(__bss_start)
 10001e0:	10af8514 	ori	r2,r2,48660

    movhi r3, %hi(__bss_end)
 10001e4:	00c04034 	movhi	r3,256
    ori r3, r3, %lo(__bss_end)
 10001e8:	18f18e14 	ori	r3,r3,50744

    beq r2, r3, 1f
 10001ec:	10c00326 	beq	r2,r3,10001fc <_start+0x40>

0:
    stw zero, (r2)
 10001f0:	10000015 	stw	zero,0(r2)
    addi r2, r2, 4
 10001f4:	10800104 	addi	r2,r2,4
    bltu r2, r3, 0b
 10001f8:	10fffd36 	bltu	r2,r3,10001f0 <__alt_data_end+0xfffdf298>
     * section aren't defined until alt_load() has been called).
     */
    mov   et, zero
#endif

    call alt_load
 10001fc:	10083d80 	call	10083d8 <alt_load>

    /* Log that alt_main is about to be called. */
    ALT_LOG_PUTS(alt_log_msg_alt_main)

    /* Call the C entry point. It should never return. */
    call alt_main
 1000200:	10084580 	call	1008458 <alt_main>

01000204 <alt_after_alt_main>:

    /* Wait in infinite loop in case alt_main does return. */
alt_after_alt_main:
    br alt_after_alt_main
 1000204:	003fff06 	br	1000204 <__alt_data_end+0xfffdf2ac>

01000208 <configure_usb20sr>:

sls_avalon_usb20sr_dev *pUsb20srDev;
sls_avalon_usb20sr_dev usb20srdev;

void configure_usb20sr(sls_avalon_usb20sr_dev *pUsb20srDev)
{
 1000208:	defff204 	addi	sp,sp,-56
 100020c:	dfc00d15 	stw	ra,52(sp)
 1000210:	df000c15 	stw	fp,48(sp)
 1000214:	df000c04 	addi	fp,sp,48
 1000218:	e13fff15 	stw	r4,-4(fp)
	usb_initialize_descriptor(pUsb20srDev,(unsigned char*)device_desc_,
 100021c:	00804074 	movhi	r2,257
 1000220:	10abb384 	addi	r2,r2,-20786
 1000224:	d8800015 	stw	r2,0(sp)
 1000228:	00800804 	movi	r2,32
 100022c:	d8800115 	stw	r2,4(sp)
 1000230:	00800804 	movi	r2,32
 1000234:	d8800215 	stw	r2,8(sp)
 1000238:	00800804 	movi	r2,32
 100023c:	d8800315 	stw	r2,12(sp)
 1000240:	00804074 	movhi	r2,257
 1000244:	10abbc04 	addi	r2,r2,-20752
 1000248:	d8800415 	stw	r2,16(sp)
 100024c:	00804074 	movhi	r2,257
 1000250:	10abc204 	addi	r2,r2,-20728
 1000254:	d8800515 	stw	r2,20(sp)
 1000258:	00800604 	movi	r2,24
 100025c:	d8800615 	stw	r2,24(sp)
 1000260:	00804074 	movhi	r2,257
 1000264:	10abd604 	addi	r2,r2,-20648
 1000268:	d8800715 	stw	r2,28(sp)
 100026c:	00804074 	movhi	r2,257
 1000270:	10abd884 	addi	r2,r2,-20638
 1000274:	d8800815 	stw	r2,32(sp)
 1000278:	00804074 	movhi	r2,257
 100027c:	10abe084 	addi	r2,r2,-20606
 1000280:	d8800915 	stw	r2,36(sp)
 1000284:	e13fff17 	ldw	r4,-4(fp)
 1000288:	01404074 	movhi	r5,257
 100028c:	296b9f04 	addi	r5,r5,-20868
 1000290:	01804074 	movhi	r6,257
 1000294:	31aba384 	addi	r6,r6,-20850
 1000298:	01c04074 	movhi	r7,257
 100029c:	39ebab84 	addi	r7,r7,-20818
 10002a0:	1001a040 	call	1001a04 <usb_initialize_descriptor>
										  sizeof(str_desc_indexes_),
										  (unsigned char*)device_quali_desc_,
										  (unsigned char*)other_speed_conf_desc_hs_,
										  (unsigned char*)other_speed_conf_desc_fs_);

	usb_ep_config(      pUsb20srDev,    SUPPORTED_CONF,     supported_ep_,      ep_ip_csr_hs_,      ep_ip_csr_fs_,		ep_ip_csr_ls_,
 10002a4:	00804074 	movhi	r2,257
 10002a8:	10abf804 	addi	r2,r2,-20512
 10002ac:	d8800015 	stw	r2,0(sp)
 10002b0:	00804074 	movhi	r2,257
 10002b4:	10ac0704 	addi	r2,r2,-20452
 10002b8:	d8800115 	stw	r2,4(sp)
 10002bc:	00804074 	movhi	r2,257
 10002c0:	10ac1604 	addi	r2,r2,-20392
 10002c4:	d8800215 	stw	r2,8(sp)
 10002c8:	00804074 	movhi	r2,257
 10002cc:	10ac2504 	addi	r2,r2,-20332
 10002d0:	d8800315 	stw	r2,12(sp)
 10002d4:	00804074 	movhi	r2,257
 10002d8:	10ac3404 	addi	r2,r2,-20272
 10002dc:	d8800415 	stw	r2,16(sp)
 10002e0:	00804074 	movhi	r2,257
 10002e4:	10ac4304 	addi	r2,r2,-20212
 10002e8:	d8800515 	stw	r2,20(sp)
 10002ec:	00804074 	movhi	r2,257
 10002f0:	10ac5204 	addi	r2,r2,-20152
 10002f4:	d8800615 	stw	r2,24(sp)
 10002f8:	00804074 	movhi	r2,257
 10002fc:	10ac6104 	addi	r2,r2,-20092
 1000300:	d8800715 	stw	r2,28(sp)
 1000304:	00804074 	movhi	r2,257
 1000308:	10ac7004 	addi	r2,r2,-20032
 100030c:	d8800815 	stw	r2,32(sp)
 1000310:	00804074 	movhi	r2,257
 1000314:	10ac7f04 	addi	r2,r2,-19972
 1000318:	d8800915 	stw	r2,36(sp)
 100031c:	00804074 	movhi	r2,257
 1000320:	10ac8e04 	addi	r2,r2,-19912
 1000324:	d8800a15 	stw	r2,40(sp)
 1000328:	e13fff17 	ldw	r4,-4(fp)
 100032c:	01400044 	movi	r5,1
 1000330:	d1a00004 	addi	r6,gp,-32768
 1000334:	01c04074 	movhi	r7,257
 1000338:	39ebe904 	addi	r7,r7,-20572
 100033c:	1001b200 	call	1001b20 <usb_ep_config>
						ep_buf0_sz_hs_, ep_buf1_sz_hs_,     ep_buf0_sz_fs_,     ep_buf1_sz_fs_, 	ep_buf0_sz_ls_, 	ep_buf1_sz_ls_,
						ep_ip_int_hs,	ep_ip_int_fs,		ep_ip_int_ls     );

    /*Use DMA/UDSC's BASE, IRQ & NAME from system.h file*/

	dma_config(pUsb20srDev, DMA_0_BASE, DMA_0_IRQ, DMA_0_NAME, DMA_FLAG);		     /*set DMA_FLAG as 1 while using DMA*/
 1000340:	00800044 	movi	r2,1
 1000344:	d8800015 	stw	r2,0(sp)
 1000348:	e13fff17 	ldw	r4,-4(fp)
 100034c:	01404134 	movhi	r5,260
 1000350:	29440004 	addi	r5,r5,4096
 1000354:	018000c4 	movi	r6,3
 1000358:	01c04074 	movhi	r7,257
 100035c:	39eac304 	addi	r7,r7,-21748
 1000360:	1001c240 	call	1001c24 <dma_config>

	//dma_config(pUsb20srDev, UDSC_BASE, UDSC_IRQ, UDSC_NAME, DMA_FLAG);	        /*set DMA_FLAG as 0 while using UDSC*/

	usb20_event_isr(pUsb20srDev, USB_Attached_Event, USB_Detached_Event, USB_Reset_Event, USB_Resume_Event, USB_Suspend_Event, USB_WakeUpCfg_Event);
 1000364:	00804034 	movhi	r2,256
 1000368:	1084b904 	addi	r2,r2,4836
 100036c:	d8800015 	stw	r2,0(sp)
 1000370:	00804034 	movhi	r2,256
 1000374:	1084c604 	addi	r2,r2,4888
 1000378:	d8800115 	stw	r2,4(sp)
 100037c:	00804034 	movhi	r2,256
 1000380:	1084d304 	addi	r2,r2,4940
 1000384:	d8800215 	stw	r2,8(sp)
 1000388:	e13fff17 	ldw	r4,-4(fp)
 100038c:	01404034 	movhi	r5,256
 1000390:	29449204 	addi	r5,r5,4680
 1000394:	01804034 	movhi	r6,256
 1000398:	31849f04 	addi	r6,r6,4732
 100039c:	01c04034 	movhi	r7,256
 10003a0:	39c4ac04 	addi	r7,r7,4784
 10003a4:	1005abc0 	call	1005abc <usb20_event_isr>

	if(usb20sr_config(pUsb20srDev, USB20SR_BASE, USB20SR_IRQ, USB20SR_NAME, usb20sr_error_event, HandleClassSpecificControlRequests,HandleClassSpecificDescriptorRequests))
 10003a8:	00804034 	movhi	r2,256
 10003ac:	1084f804 	addi	r2,r2,5088
 10003b0:	d8800015 	stw	r2,0(sp)
 10003b4:	00804034 	movhi	r2,256
 10003b8:	1084e204 	addi	r2,r2,5000
 10003bc:	d8800115 	stw	r2,4(sp)
 10003c0:	00804034 	movhi	r2,256
 10003c4:	1084ed04 	addi	r2,r2,5044
 10003c8:	d8800215 	stw	r2,8(sp)
 10003cc:	e13fff17 	ldw	r4,-4(fp)
 10003d0:	000b883a 	mov	r5,zero
 10003d4:	01800084 	movi	r6,2
 10003d8:	01c04074 	movhi	r7,257
 10003dc:	39eac604 	addi	r7,r7,-21736
 10003e0:	10059700 	call	1005970 <usb20sr_config>
	{
		//printf("\nConfigured !\n");

	}
}
 10003e4:	e037883a 	mov	sp,fp
 10003e8:	dfc00117 	ldw	ra,4(sp)
 10003ec:	df000017 	ldw	fp,0(sp)
 10003f0:	dec00204 	addi	sp,sp,8
 10003f4:	f800283a 	ret

010003f8 <main>:

int main()
{
 10003f8:	defffb04 	addi	sp,sp,-20
 10003fc:	dfc00415 	stw	ra,16(sp)
 1000400:	df000315 	stw	fp,12(sp)
 1000404:	df000304 	addi	fp,sp,12
	int i = 0;
 1000408:	e03ffe15 	stw	zero,-8(fp)
	int reg_address;

	int reg_value;

	//ext reset usb20sr, high active
	IOWR_ALTERA_AVALON_PIO_DATA(RST_PIO_BASE,0);
 100040c:	0007883a 	mov	r3,zero
 1000410:	00808034 	movhi	r2,512
 1000414:	10800804 	addi	r2,r2,32
 1000418:	10c00035 	stwio	r3,0(r2)
	usleep(20*1000);
 100041c:	01138804 	movi	r4,20000
 1000420:	10084d00 	call	10084d0 <usleep>

	//IOWR_ALTERA_AVALON_PIO_DATA(RST_PIO_BASE,1);
	usleep(20*1000);
 1000424:	01138804 	movi	r4,20000
 1000428:	10084d00 	call	10084d0 <usleep>
	IOWR_ALTERA_AVALON_PIO_DATA(RST_PIO_BASE,0);
 100042c:	0007883a 	mov	r3,zero
 1000430:	00808034 	movhi	r2,512
 1000434:	10800804 	addi	r2,r2,32
 1000438:	10c00035 	stwio	r3,0(r2)
	usleep(20*1000);
 100043c:	01138804 	movi	r4,20000
 1000440:	10084d00 	call	10084d0 <usleep>

	pUsb20srDev = &usb20srdev;
 1000444:	00804074 	movhi	r2,257
 1000448:	10af9104 	addi	r2,r2,-16828
 100044c:	d0a20515 	stw	r2,-30700(gp)

	configure_usb20sr(pUsb20srDev);
 1000450:	d0a20517 	ldw	r2,-30700(gp)
 1000454:	1009883a 	mov	r4,r2
 1000458:	10002080 	call	1000208 <configure_usb20sr>


	usb20sr_disconnect(pUsb20srDev);
 100045c:	d0a20517 	ldw	r2,-30700(gp)
 1000460:	1009883a 	mov	r4,r2
 1000464:	10028cc0 	call	10028cc <usb20sr_disconnect>
//set output 5v test
  while(0){
 1000468:	0001883a 	nop
	printf("output 5V !\n");
	usb20sr_phy_register_write(pUsb20srDev,0xa,0x66);
	usleep(2*1000);
	while(1);
  }
	usb20sr_set_dev_speed(pUsb20srDev, 1);     /*Connect device in the full speed(0)/high speed(1) mode*/
 100046c:	d0a20517 	ldw	r2,-30700(gp)
 1000470:	1009883a 	mov	r4,r2
 1000474:	01400044 	movi	r5,1
 1000478:	10015d80 	call	10015d8 <usb20sr_set_dev_speed>

	usb20sr_connect(pUsb20srDev);
 100047c:	d0a20517 	ldw	r2,-30700(gp)
 1000480:	1009883a 	mov	r4,r2
 1000484:	10028640 	call	1002864 <usb20sr_connect>


	printf("Connect !\n");
 1000488:	01004074 	movhi	r4,257
 100048c:	212aca04 	addi	r4,r4,-21720
 1000490:	1007a480 	call	1007a48 <puts>
//enable chipselect
	usb20sr_phy_register_enable(pUsb20srDev);
 1000494:	d0a20517 	ldw	r2,-30700(gp)
 1000498:	1009883a 	mov	r4,r2
 100049c:	10015700 	call	1001570 <usb20sr_phy_register_enable>
//	usb20sr_phy_register_write(pUsb20srDev,0x4,0x01);

   //VID and PID
	//while(1) ;
	{
	usb20sr_phy_register_read(pUsb20srDev,0x0,&reg_value);
 10004a0:	d0e20517 	ldw	r3,-30700(gp)
 10004a4:	e0bfff04 	addi	r2,fp,-4
 10004a8:	1809883a 	mov	r4,r3
 10004ac:	000b883a 	mov	r5,zero
 10004b0:	100d883a 	mov	r6,r2
 10004b4:	10016b40 	call	10016b4 <usb20sr_phy_register_read>
	printf("register [0x00] read value is 0x%x!\n",reg_value);
 10004b8:	e0bfff17 	ldw	r2,-4(fp)
 10004bc:	01004074 	movhi	r4,257
 10004c0:	212acd04 	addi	r4,r4,-21708
 10004c4:	100b883a 	mov	r5,r2
 10004c8:	100797c0 	call	100797c <printf>
	usb20sr_phy_register_read(pUsb20srDev,0x01,&reg_value);
 10004cc:	d0e20517 	ldw	r3,-30700(gp)
 10004d0:	e0bfff04 	addi	r2,fp,-4
 10004d4:	1809883a 	mov	r4,r3
 10004d8:	01400044 	movi	r5,1
 10004dc:	100d883a 	mov	r6,r2
 10004e0:	10016b40 	call	10016b4 <usb20sr_phy_register_read>
    printf("register [0x01] read value is 0x%x!\n",reg_value);
 10004e4:	e0bfff17 	ldw	r2,-4(fp)
 10004e8:	01004074 	movhi	r4,257
 10004ec:	212ad704 	addi	r4,r4,-21668
 10004f0:	100b883a 	mov	r5,r2
 10004f4:	100797c0 	call	100797c <printf>
	usb20sr_phy_register_read(pUsb20srDev,0x02,&reg_value);
 10004f8:	d0e20517 	ldw	r3,-30700(gp)
 10004fc:	e0bfff04 	addi	r2,fp,-4
 1000500:	1809883a 	mov	r4,r3
 1000504:	01400084 	movi	r5,2
 1000508:	100d883a 	mov	r6,r2
 100050c:	10016b40 	call	10016b4 <usb20sr_phy_register_read>
	printf("register [0x02] read value is 0x%x!\n",reg_value);
 1000510:	e0bfff17 	ldw	r2,-4(fp)
 1000514:	01004074 	movhi	r4,257
 1000518:	212ae104 	addi	r4,r4,-21628
 100051c:	100b883a 	mov	r5,r2
 1000520:	100797c0 	call	100797c <printf>
	usb20sr_phy_register_read(pUsb20srDev,0x03,&reg_value);
 1000524:	d0e20517 	ldw	r3,-30700(gp)
 1000528:	e0bfff04 	addi	r2,fp,-4
 100052c:	1809883a 	mov	r4,r3
 1000530:	014000c4 	movi	r5,3
 1000534:	100d883a 	mov	r6,r2
 1000538:	10016b40 	call	10016b4 <usb20sr_phy_register_read>
	printf("register [0x03] read value is 0x%x!\n",reg_value);
 100053c:	e0bfff17 	ldw	r2,-4(fp)
 1000540:	01004074 	movhi	r4,257
 1000544:	212aeb04 	addi	r4,r4,-21588
 1000548:	100b883a 	mov	r5,r2
 100054c:	100797c0 	call	100797c <printf>

	//Controls UTMI function settings of the PHY.
	usb20sr_phy_register_read(pUsb20srDev,0x04,&reg_value);
 1000550:	d0e20517 	ldw	r3,-30700(gp)
 1000554:	e0bfff04 	addi	r2,fp,-4
 1000558:	1809883a 	mov	r4,r3
 100055c:	01400104 	movi	r5,4
 1000560:	100d883a 	mov	r6,r2
 1000564:	10016b40 	call	10016b4 <usb20sr_phy_register_read>
	printf("register [0x04] read value is 0x%x!\n",reg_value);
 1000568:	e0bfff17 	ldw	r2,-4(fp)
 100056c:	01004074 	movhi	r4,257
 1000570:	212af504 	addi	r4,r4,-21548
 1000574:	100b883a 	mov	r5,r2
 1000578:	100797c0 	call	100797c <printf>


	//Enables alternative interfaces and PHY features.
	usb20sr_phy_register_read(pUsb20srDev,0x07,&reg_value);
 100057c:	d0e20517 	ldw	r3,-30700(gp)
 1000580:	e0bfff04 	addi	r2,fp,-4
 1000584:	1809883a 	mov	r4,r3
 1000588:	014001c4 	movi	r5,7
 100058c:	100d883a 	mov	r6,r2
 1000590:	10016b40 	call	10016b4 <usb20sr_phy_register_read>
	printf("register [0x07] read value is 0x%x!\n",reg_value);
 1000594:	e0bfff17 	ldw	r2,-4(fp)
 1000598:	01004074 	movhi	r4,257
 100059c:	212aff04 	addi	r4,r4,-21508
 10005a0:	100b883a 	mov	r5,r2
 10005a4:	100797c0 	call	100797c <printf>

	//OTG and UTMI
	usb20sr_phy_register_read(pUsb20srDev,0x0a,&reg_value);
 10005a8:	d0e20517 	ldw	r3,-30700(gp)
 10005ac:	e0bfff04 	addi	r2,fp,-4
 10005b0:	1809883a 	mov	r4,r3
 10005b4:	01400284 	movi	r5,10
 10005b8:	100d883a 	mov	r6,r2
 10005bc:	10016b40 	call	10016b4 <usb20sr_phy_register_read>
    printf("register [0x0a] read value is 0x%x!\n",reg_value);
 10005c0:	e0bfff17 	ldw	r2,-4(fp)
 10005c4:	01004074 	movhi	r4,257
 10005c8:	212b0904 	addi	r4,r4,-21468
 10005cc:	100b883a 	mov	r5,r2
 10005d0:	100797c0 	call	100797c <printf>

	}

	while(!(ifConfigured(pUsb20srDev)));         /*Check whether device is Configured or not*/
 10005d4:	0001883a 	nop
 10005d8:	d0a20517 	ldw	r2,-30700(gp)
 10005dc:	1009883a 	mov	r4,r2
 10005e0:	100188c0 	call	100188c <ifConfigured>
 10005e4:	10803fcc 	andi	r2,r2,255
 10005e8:	1080201c 	xori	r2,r2,128
 10005ec:	10bfe004 	addi	r2,r2,-128
 10005f0:	103ff926 	beq	r2,zero,10005d8 <__alt_data_end+0xfffdf680>

	//usb20sr_phy_register_write(pUsb20srDev,0x4,0x40);
	usleep(20*1000);
 10005f4:	01138804 	movi	r4,20000
 10005f8:	10084d00 	call	10084d0 <usleep>
//	usleep(20*1000);
//
//	usb20sr_phy_register_write(pUsb20srDev,0xa,0x00);
//	usleep(20*1000);

	printf("\nConfigured !\n");
 10005fc:	01004074 	movhi	r4,257
 1000600:	212b1304 	addi	r4,r4,-21428
 1000604:	1007a480 	call	1007a48 <puts>


	while(1)
	{

		if((i = usb20sr_check_bo_ready(pUsb20srDev, 2)) > -1)
 1000608:	d0a20517 	ldw	r2,-30700(gp)
 100060c:	1009883a 	mov	r4,r2
 1000610:	01400084 	movi	r5,2
 1000614:	10075e40 	call	10075e4 <usb20sr_check_bo_ready>
 1000618:	e0bffe15 	stw	r2,-8(fp)
 100061c:	e0bffe17 	ldw	r2,-8(fp)
 1000620:	10000916 	blt	r2,zero,1000648 <main+0x250>
		{
			#ifdef DMA_USE
				usb20sr_with_dma_read(pUsb20srDev, 2, global_data, 9, DMA_FLAG);
 1000624:	d0e20517 	ldw	r3,-30700(gp)
 1000628:	00800044 	movi	r2,1
 100062c:	d8800015 	stw	r2,0(sp)
 1000630:	1809883a 	mov	r4,r3
 1000634:	01400084 	movi	r5,2
 1000638:	01804074 	movhi	r6,257
 100063c:	31af8e04 	addi	r6,r6,-16840
 1000640:	01c00244 	movi	r7,9
 1000644:	1006e4c0 	call	1006e4c <usb20sr_with_dma_read>
			#else
				usb20sr_without_dma_read(pUsb20srDev, 2, global_data, 9);
			#endif
		}

		if(i > 0)
 1000648:	e0bffe17 	ldw	r2,-8(fp)
 100064c:	0080830e 	bge	zero,r2,100085c <main+0x464>
		{
			if(global_data[0] == WRITE)
 1000650:	00804074 	movhi	r2,257
 1000654:	10af8e04 	addi	r2,r2,-16840
 1000658:	10800003 	ldbu	r2,0(r2)
 100065c:	10803fcc 	andi	r2,r2,255
 1000660:	10800058 	cmpnei	r2,r2,1
 1000664:	10001a1e 	bne	r2,zero,10006d0 <main+0x2d8>
			{
				printf("Word Write\n");
 1000668:	01004074 	movhi	r4,257
 100066c:	212b1704 	addi	r4,r4,-21412
 1000670:	1007a480 	call	1007a48 <puts>
				printf("dma rd address is 0x%x!\n",IORD_ALTERA_AVALON_DMA_RADDRESS(DMA_0_BASE));
 1000674:	00804134 	movhi	r2,260
 1000678:	10840104 	addi	r2,r2,4100
 100067c:	10800037 	ldwio	r2,0(r2)
 1000680:	01004074 	movhi	r4,257
 1000684:	212b1a04 	addi	r4,r4,-21400
 1000688:	100b883a 	mov	r5,r2
 100068c:	100797c0 	call	100797c <printf>
				printf("dma wr address is 0x%x!\n",IORD_ALTERA_AVALON_DMA_WADDRESS(DMA_0_BASE));
 1000690:	00804134 	movhi	r2,260
 1000694:	10840204 	addi	r2,r2,4104
 1000698:	10800037 	ldwio	r2,0(r2)
 100069c:	01004074 	movhi	r4,257
 10006a0:	212b2104 	addi	r4,r4,-21372
 10006a4:	100b883a 	mov	r5,r2
 10006a8:	100797c0 	call	100797c <printf>
				printf("dma length is 0x%x!\n",IORD_ALTERA_AVALON_DMA_LENGTH(DMA_0_BASE));
 10006ac:	00804134 	movhi	r2,260
 10006b0:	10840304 	addi	r2,r2,4108
 10006b4:	10800037 	ldwio	r2,0(r2)
 10006b8:	01004074 	movhi	r4,257
 10006bc:	212b2804 	addi	r4,r4,-21344
 10006c0:	100b883a 	mov	r5,r2
 10006c4:	100797c0 	call	100797c <printf>
				BULK_OUT();
 10006c8:	100097c0 	call	100097c <BULK_OUT>
 10006cc:	00006306 	br	100085c <main+0x464>
			}
			else if(global_data[0] == READ)
 10006d0:	00804074 	movhi	r2,257
 10006d4:	10af8e04 	addi	r2,r2,-16840
 10006d8:	10800003 	ldbu	r2,0(r2)
 10006dc:	10803fcc 	andi	r2,r2,255
 10006e0:	10800098 	cmpnei	r2,r2,2
 10006e4:	10001a1e 	bne	r2,zero,1000750 <main+0x358>
			{
				printf("Word Read\n");
 10006e8:	01004074 	movhi	r4,257
 10006ec:	212b2e04 	addi	r4,r4,-21320
 10006f0:	1007a480 	call	1007a48 <puts>
				printf("dma rd address is 0x%x!\n",IORD_ALTERA_AVALON_DMA_RADDRESS(DMA_0_BASE));
 10006f4:	00804134 	movhi	r2,260
 10006f8:	10840104 	addi	r2,r2,4100
 10006fc:	10800037 	ldwio	r2,0(r2)
 1000700:	01004074 	movhi	r4,257
 1000704:	212b1a04 	addi	r4,r4,-21400
 1000708:	100b883a 	mov	r5,r2
 100070c:	100797c0 	call	100797c <printf>
				printf("dma wr address is 0x%x!\n",IORD_ALTERA_AVALON_DMA_WADDRESS(DMA_0_BASE));
 1000710:	00804134 	movhi	r2,260
 1000714:	10840204 	addi	r2,r2,4104
 1000718:	10800037 	ldwio	r2,0(r2)
 100071c:	01004074 	movhi	r4,257
 1000720:	212b2104 	addi	r4,r4,-21372
 1000724:	100b883a 	mov	r5,r2
 1000728:	100797c0 	call	100797c <printf>
				printf("dma length is 0x%x!\n",IORD_ALTERA_AVALON_DMA_LENGTH(DMA_0_BASE));
 100072c:	00804134 	movhi	r2,260
 1000730:	10840304 	addi	r2,r2,4108
 1000734:	10800037 	ldwio	r2,0(r2)
 1000738:	01004074 	movhi	r4,257
 100073c:	212b2804 	addi	r4,r4,-21344
 1000740:	100b883a 	mov	r5,r2
 1000744:	100797c0 	call	100797c <printf>
				BULK_IN();
 1000748:	10008600 	call	1000860 <BULK_IN>
 100074c:	00004306 	br	100085c <main+0x464>
			}
			else if(global_data[0] == BLK_WRITE)
 1000750:	00804074 	movhi	r2,257
 1000754:	10af8e04 	addi	r2,r2,-16840
 1000758:	10800003 	ldbu	r2,0(r2)
 100075c:	10803fcc 	andi	r2,r2,255
 1000760:	108000d8 	cmpnei	r2,r2,3
 1000764:	10001a1e 	bne	r2,zero,10007d0 <main+0x3d8>
			{
				printf("Block Write\n");
 1000768:	01004074 	movhi	r4,257
 100076c:	212b3104 	addi	r4,r4,-21308
 1000770:	1007a480 	call	1007a48 <puts>
				printf("dma rd address is 0x%x!\n",IORD_ALTERA_AVALON_DMA_RADDRESS(DMA_0_BASE));
 1000774:	00804134 	movhi	r2,260
 1000778:	10840104 	addi	r2,r2,4100
 100077c:	10800037 	ldwio	r2,0(r2)
 1000780:	01004074 	movhi	r4,257
 1000784:	212b1a04 	addi	r4,r4,-21400
 1000788:	100b883a 	mov	r5,r2
 100078c:	100797c0 	call	100797c <printf>
				printf("dma wr address is 0x%x!\n",IORD_ALTERA_AVALON_DMA_WADDRESS(DMA_0_BASE));
 1000790:	00804134 	movhi	r2,260
 1000794:	10840204 	addi	r2,r2,4104
 1000798:	10800037 	ldwio	r2,0(r2)
 100079c:	01004074 	movhi	r4,257
 10007a0:	212b2104 	addi	r4,r4,-21372
 10007a4:	100b883a 	mov	r5,r2
 10007a8:	100797c0 	call	100797c <printf>
				printf("dma length is 0x%x!\n",IORD_ALTERA_AVALON_DMA_LENGTH(DMA_0_BASE));
 10007ac:	00804134 	movhi	r2,260
 10007b0:	10840304 	addi	r2,r2,4108
 10007b4:	10800037 	ldwio	r2,0(r2)
 10007b8:	01004074 	movhi	r4,257
 10007bc:	212b2804 	addi	r4,r4,-21344
 10007c0:	100b883a 	mov	r5,r2
 10007c4:	100797c0 	call	100797c <printf>
				BLOCK_WRITE();
 10007c8:	1000e1c0 	call	1000e1c <BLOCK_WRITE>
 10007cc:	00002306 	br	100085c <main+0x464>
			}
			else if(global_data[0] == BLK_READ)
 10007d0:	00804074 	movhi	r2,257
 10007d4:	10af8e04 	addi	r2,r2,-16840
 10007d8:	10800003 	ldbu	r2,0(r2)
 10007dc:	10803fcc 	andi	r2,r2,255
 10007e0:	10800118 	cmpnei	r2,r2,4
 10007e4:	10001a1e 	bne	r2,zero,1000850 <main+0x458>
			{
				printf("Block Read\n");
 10007e8:	01004074 	movhi	r4,257
 10007ec:	212b3404 	addi	r4,r4,-21296
 10007f0:	1007a480 	call	1007a48 <puts>
				printf("dma rd address is 0x%x!\n",IORD_ALTERA_AVALON_DMA_RADDRESS(DMA_0_BASE));
 10007f4:	00804134 	movhi	r2,260
 10007f8:	10840104 	addi	r2,r2,4100
 10007fc:	10800037 	ldwio	r2,0(r2)
 1000800:	01004074 	movhi	r4,257
 1000804:	212b1a04 	addi	r4,r4,-21400
 1000808:	100b883a 	mov	r5,r2
 100080c:	100797c0 	call	100797c <printf>
				printf("dma wr address is 0x%x!\n",IORD_ALTERA_AVALON_DMA_WADDRESS(DMA_0_BASE));
 1000810:	00804134 	movhi	r2,260
 1000814:	10840204 	addi	r2,r2,4104
 1000818:	10800037 	ldwio	r2,0(r2)
 100081c:	01004074 	movhi	r4,257
 1000820:	212b2104 	addi	r4,r4,-21372
 1000824:	100b883a 	mov	r5,r2
 1000828:	100797c0 	call	100797c <printf>
				printf("dma length is 0x%x!\n",IORD_ALTERA_AVALON_DMA_LENGTH(DMA_0_BASE));
 100082c:	00804134 	movhi	r2,260
 1000830:	10840304 	addi	r2,r2,4108
 1000834:	10800037 	ldwio	r2,0(r2)
 1000838:	01004074 	movhi	r4,257
 100083c:	212b2804 	addi	r4,r4,-21344
 1000840:	100b883a 	mov	r5,r2
 1000844:	100797c0 	call	100797c <printf>
				BLOCK_READ();
 1000848:	1000aa00 	call	1000aa0 <BLOCK_READ>
 100084c:	00000306 	br	100085c <main+0x464>
			}
			else
			{
				printf("Wrong OpCOde\n");
 1000850:	01004074 	movhi	r4,257
 1000854:	212b3704 	addi	r4,r4,-21284
 1000858:	1007a480 	call	1007a48 <puts>
			}
		}
	}
 100085c:	003f6a06 	br	1000608 <__alt_data_end+0xfffdf6b0>

01000860 <BULK_IN>:
}

void BULK_IN()
{
 1000860:	defffc04 	addi	sp,sp,-16
 1000864:	dfc00315 	stw	ra,12(sp)
 1000868:	df000215 	stw	fp,8(sp)
 100086c:	df000204 	addi	fp,sp,8
	unsigned char Data[4];
	g_address = 0;
 1000870:	d0220415 	stw	zero,-30704(gp)

	/*Read 32-bit address from USB*/
	g_address = (g_address | global_data[4]);
 1000874:	00804074 	movhi	r2,257
 1000878:	10af8e04 	addi	r2,r2,-16840
 100087c:	10800103 	ldbu	r2,4(r2)
 1000880:	10c03fcc 	andi	r3,r2,255
 1000884:	d0a20417 	ldw	r2,-30704(gp)
 1000888:	1884b03a 	or	r2,r3,r2
 100088c:	d0a20415 	stw	r2,-30704(gp)
	g_address = (g_address | (global_data[3] << 8));
 1000890:	00804074 	movhi	r2,257
 1000894:	10af8e04 	addi	r2,r2,-16840
 1000898:	108000c3 	ldbu	r2,3(r2)
 100089c:	10803fcc 	andi	r2,r2,255
 10008a0:	1004923a 	slli	r2,r2,8
 10008a4:	1007883a 	mov	r3,r2
 10008a8:	d0a20417 	ldw	r2,-30704(gp)
 10008ac:	1884b03a 	or	r2,r3,r2
 10008b0:	d0a20415 	stw	r2,-30704(gp)
	g_address = (g_address | (global_data[2] << 16));
 10008b4:	00804074 	movhi	r2,257
 10008b8:	10af8e04 	addi	r2,r2,-16840
 10008bc:	10800083 	ldbu	r2,2(r2)
 10008c0:	10803fcc 	andi	r2,r2,255
 10008c4:	1004943a 	slli	r2,r2,16
 10008c8:	1007883a 	mov	r3,r2
 10008cc:	d0a20417 	ldw	r2,-30704(gp)
 10008d0:	1884b03a 	or	r2,r3,r2
 10008d4:	d0a20415 	stw	r2,-30704(gp)
	g_address = (g_address | (global_data[1] << 24));
 10008d8:	00804074 	movhi	r2,257
 10008dc:	10af8e04 	addi	r2,r2,-16840
 10008e0:	10800043 	ldbu	r2,1(r2)
 10008e4:	10803fcc 	andi	r2,r2,255
 10008e8:	1004963a 	slli	r2,r2,24
 10008ec:	1007883a 	mov	r3,r2
 10008f0:	d0a20417 	ldw	r2,-30704(gp)
 10008f4:	1884b03a 	or	r2,r3,r2
 10008f8:	d0a20415 	stw	r2,-30704(gp)

	/*Write 32-bit DATA to USB*/
	Data[0] = (IORD_8DIRECT(g_address,OFFSET));
 10008fc:	d0a20417 	ldw	r2,-30704(gp)
 1000900:	10800023 	ldbuio	r2,0(r2)
 1000904:	10803fcc 	andi	r2,r2,255
 1000908:	e0bfff05 	stb	r2,-4(fp)
	Data[1] = (IORD_8DIRECT(g_address,OFFSET + 1));
 100090c:	d0a20417 	ldw	r2,-30704(gp)
 1000910:	10800044 	addi	r2,r2,1
 1000914:	10800023 	ldbuio	r2,0(r2)
 1000918:	10803fcc 	andi	r2,r2,255
 100091c:	e0bfff45 	stb	r2,-3(fp)
	Data[2] = (IORD_8DIRECT(g_address,OFFSET + 2));
 1000920:	d0a20417 	ldw	r2,-30704(gp)
 1000924:	10800084 	addi	r2,r2,2
 1000928:	10800023 	ldbuio	r2,0(r2)
 100092c:	10803fcc 	andi	r2,r2,255
 1000930:	e0bfff85 	stb	r2,-2(fp)
	Data[3] = (IORD_8DIRECT(g_address,OFFSET + 3));
 1000934:	d0a20417 	ldw	r2,-30704(gp)
 1000938:	108000c4 	addi	r2,r2,3
 100093c:	10800023 	ldbuio	r2,0(r2)
 1000940:	10803fcc 	andi	r2,r2,255
 1000944:	e0bfffc5 	stb	r2,-1(fp)

	#ifdef DMA_USE
		usb20sr_with_dma_write(pUsb20srDev, 1, Data, 4, DMA_FLAG);
 1000948:	d0e20517 	ldw	r3,-30700(gp)
 100094c:	00800044 	movi	r2,1
 1000950:	d8800015 	stw	r2,0(sp)
 1000954:	1809883a 	mov	r4,r3
 1000958:	01400044 	movi	r5,1
 100095c:	e1bfff04 	addi	r6,fp,-4
 1000960:	01c00104 	movi	r7,4
 1000964:	1005b300 	call	1005b30 <usb20sr_with_dma_write>
	#else
		usb20sr_without_dma_write(pUsb20srDev, 1, Data, 4);
	#endif
}
 1000968:	e037883a 	mov	sp,fp
 100096c:	dfc00117 	ldw	ra,4(sp)
 1000970:	df000017 	ldw	fp,0(sp)
 1000974:	dec00204 	addi	sp,sp,8
 1000978:	f800283a 	ret

0100097c <BULK_OUT>:

void BULK_OUT()
{
 100097c:	deffff04 	addi	sp,sp,-4
 1000980:	df000015 	stw	fp,0(sp)
 1000984:	d839883a 	mov	fp,sp
	g_address = 0;
 1000988:	d0220415 	stw	zero,-30704(gp)
	g_address = (g_address | global_data[4]);
 100098c:	00804074 	movhi	r2,257
 1000990:	10af8e04 	addi	r2,r2,-16840
 1000994:	10800103 	ldbu	r2,4(r2)
 1000998:	10c03fcc 	andi	r3,r2,255
 100099c:	d0a20417 	ldw	r2,-30704(gp)
 10009a0:	1884b03a 	or	r2,r3,r2
 10009a4:	d0a20415 	stw	r2,-30704(gp)
	g_address = (g_address | (global_data[3] << 8));
 10009a8:	00804074 	movhi	r2,257
 10009ac:	10af8e04 	addi	r2,r2,-16840
 10009b0:	108000c3 	ldbu	r2,3(r2)
 10009b4:	10803fcc 	andi	r2,r2,255
 10009b8:	1004923a 	slli	r2,r2,8
 10009bc:	1007883a 	mov	r3,r2
 10009c0:	d0a20417 	ldw	r2,-30704(gp)
 10009c4:	1884b03a 	or	r2,r3,r2
 10009c8:	d0a20415 	stw	r2,-30704(gp)
	g_address = (g_address | (global_data[2] << 16));
 10009cc:	00804074 	movhi	r2,257
 10009d0:	10af8e04 	addi	r2,r2,-16840
 10009d4:	10800083 	ldbu	r2,2(r2)
 10009d8:	10803fcc 	andi	r2,r2,255
 10009dc:	1004943a 	slli	r2,r2,16
 10009e0:	1007883a 	mov	r3,r2
 10009e4:	d0a20417 	ldw	r2,-30704(gp)
 10009e8:	1884b03a 	or	r2,r3,r2
 10009ec:	d0a20415 	stw	r2,-30704(gp)
	g_address = (g_address | (global_data[1] << 24));
 10009f0:	00804074 	movhi	r2,257
 10009f4:	10af8e04 	addi	r2,r2,-16840
 10009f8:	10800043 	ldbu	r2,1(r2)
 10009fc:	10803fcc 	andi	r2,r2,255
 1000a00:	1004963a 	slli	r2,r2,24
 1000a04:	1007883a 	mov	r3,r2
 1000a08:	d0a20417 	ldw	r2,-30704(gp)
 1000a0c:	1884b03a 	or	r2,r3,r2
 1000a10:	d0a20415 	stw	r2,-30704(gp)

	/* Write 32-bit Data */
	IOWR_8DIRECT(g_address, 0x0, global_data[8]);
 1000a14:	d0a20417 	ldw	r2,-30704(gp)
 1000a18:	1007883a 	mov	r3,r2
 1000a1c:	00804074 	movhi	r2,257
 1000a20:	10af8e04 	addi	r2,r2,-16840
 1000a24:	10800203 	ldbu	r2,8(r2)
 1000a28:	10803fcc 	andi	r2,r2,255
 1000a2c:	18800025 	stbio	r2,0(r3)
	IOWR_8DIRECT(g_address, 0x1, global_data[7]);
 1000a30:	d0a20417 	ldw	r2,-30704(gp)
 1000a34:	10800044 	addi	r2,r2,1
 1000a38:	1007883a 	mov	r3,r2
 1000a3c:	00804074 	movhi	r2,257
 1000a40:	10af8e04 	addi	r2,r2,-16840
 1000a44:	108001c3 	ldbu	r2,7(r2)
 1000a48:	10803fcc 	andi	r2,r2,255
 1000a4c:	18800025 	stbio	r2,0(r3)
	IOWR_8DIRECT(g_address, 0x2, global_data[6]);
 1000a50:	d0a20417 	ldw	r2,-30704(gp)
 1000a54:	10800084 	addi	r2,r2,2
 1000a58:	1007883a 	mov	r3,r2
 1000a5c:	00804074 	movhi	r2,257
 1000a60:	10af8e04 	addi	r2,r2,-16840
 1000a64:	10800183 	ldbu	r2,6(r2)
 1000a68:	10803fcc 	andi	r2,r2,255
 1000a6c:	18800025 	stbio	r2,0(r3)
	IOWR_8DIRECT(g_address, 0x3, global_data[5]);
 1000a70:	d0a20417 	ldw	r2,-30704(gp)
 1000a74:	108000c4 	addi	r2,r2,3
 1000a78:	1007883a 	mov	r3,r2
 1000a7c:	00804074 	movhi	r2,257
 1000a80:	10af8e04 	addi	r2,r2,-16840
 1000a84:	10800143 	ldbu	r2,5(r2)
 1000a88:	10803fcc 	andi	r2,r2,255
 1000a8c:	18800025 	stbio	r2,0(r3)
}
 1000a90:	e037883a 	mov	sp,fp
 1000a94:	df000017 	ldw	fp,0(sp)
 1000a98:	dec00104 	addi	sp,sp,4
 1000a9c:	f800283a 	ret

01000aa0 <BLOCK_READ>:

void BLOCK_READ()
{
 1000aa0:	defbec04 	addi	sp,sp,-4176
 1000aa4:	dfc41315 	stw	ra,4172(sp)
 1000aa8:	df041215 	stw	fp,4168(sp)
 1000aac:	ddc41115 	stw	r23,4164(sp)
 1000ab0:	dd841015 	stw	r22,4160(sp)
 1000ab4:	dd440f15 	stw	r21,4156(sp)
 1000ab8:	dd040e15 	stw	r20,4152(sp)
 1000abc:	dcc40d15 	stw	r19,4148(sp)
 1000ac0:	dc840c15 	stw	r18,4144(sp)
 1000ac4:	dc440b15 	stw	r17,4140(sp)
 1000ac8:	dc040a15 	stw	r16,4136(sp)
 1000acc:	df041204 	addi	fp,sp,4168
	unsigned int bulk = 4096;
 1000ad0:	00840004 	movi	r2,4096
 1000ad4:	e0bbef15 	stw	r2,-4164(fp)
	unsigned char Data[4096];
	unsigned int NoOfBytesToRead = 0, i = 0, k = 0;
 1000ad8:	e03bf315 	stw	zero,-4148(fp)
 1000adc:	e03bf015 	stw	zero,-4160(fp)
 1000ae0:	e03bf115 	stw	zero,-4156(fp)
	g_address = 0;
 1000ae4:	d0220415 	stw	zero,-30704(gp)

	/*Read 32-bit address from USB*/
	g_address = (g_address | global_data[4]);
 1000ae8:	00804074 	movhi	r2,257
 1000aec:	10af8e04 	addi	r2,r2,-16840
 1000af0:	10800103 	ldbu	r2,4(r2)
 1000af4:	10c03fcc 	andi	r3,r2,255
 1000af8:	d0a20417 	ldw	r2,-30704(gp)
 1000afc:	1884b03a 	or	r2,r3,r2
 1000b00:	d0a20415 	stw	r2,-30704(gp)
	g_address = (g_address | (global_data[3] << 8));
 1000b04:	00804074 	movhi	r2,257
 1000b08:	10af8e04 	addi	r2,r2,-16840
 1000b0c:	108000c3 	ldbu	r2,3(r2)
 1000b10:	10803fcc 	andi	r2,r2,255
 1000b14:	1004923a 	slli	r2,r2,8
 1000b18:	1007883a 	mov	r3,r2
 1000b1c:	d0a20417 	ldw	r2,-30704(gp)
 1000b20:	1884b03a 	or	r2,r3,r2
 1000b24:	d0a20415 	stw	r2,-30704(gp)
	g_address = (g_address | (global_data[2] << 16));
 1000b28:	00804074 	movhi	r2,257
 1000b2c:	10af8e04 	addi	r2,r2,-16840
 1000b30:	10800083 	ldbu	r2,2(r2)
 1000b34:	10803fcc 	andi	r2,r2,255
 1000b38:	1004943a 	slli	r2,r2,16
 1000b3c:	1007883a 	mov	r3,r2
 1000b40:	d0a20417 	ldw	r2,-30704(gp)
 1000b44:	1884b03a 	or	r2,r3,r2
 1000b48:	d0a20415 	stw	r2,-30704(gp)
	g_address = (g_address | (global_data[1] << 24));
 1000b4c:	00804074 	movhi	r2,257
 1000b50:	10af8e04 	addi	r2,r2,-16840
 1000b54:	10800043 	ldbu	r2,1(r2)
 1000b58:	10803fcc 	andi	r2,r2,255
 1000b5c:	1004963a 	slli	r2,r2,24
 1000b60:	1007883a 	mov	r3,r2
 1000b64:	d0a20417 	ldw	r2,-30704(gp)
 1000b68:	1884b03a 	or	r2,r3,r2
 1000b6c:	d0a20415 	stw	r2,-30704(gp)


	NoOfBytesToRead = (NoOfBytesToRead | (global_data[8]));
 1000b70:	00804074 	movhi	r2,257
 1000b74:	10af8e04 	addi	r2,r2,-16840
 1000b78:	10800203 	ldbu	r2,8(r2)
 1000b7c:	10803fcc 	andi	r2,r2,255
 1000b80:	e0fbf317 	ldw	r3,-4148(fp)
 1000b84:	1884b03a 	or	r2,r3,r2
 1000b88:	e0bbf315 	stw	r2,-4148(fp)
	NoOfBytesToRead = (NoOfBytesToRead | (global_data[7] << 8));
 1000b8c:	00804074 	movhi	r2,257
 1000b90:	10af8e04 	addi	r2,r2,-16840
 1000b94:	108001c3 	ldbu	r2,7(r2)
 1000b98:	10803fcc 	andi	r2,r2,255
 1000b9c:	1004923a 	slli	r2,r2,8
 1000ba0:	1007883a 	mov	r3,r2
 1000ba4:	e0bbf317 	ldw	r2,-4148(fp)
 1000ba8:	10c4b03a 	or	r2,r2,r3
 1000bac:	e0bbf315 	stw	r2,-4148(fp)
	NoOfBytesToRead = (NoOfBytesToRead | (global_data[6] << 16));
 1000bb0:	00804074 	movhi	r2,257
 1000bb4:	10af8e04 	addi	r2,r2,-16840
 1000bb8:	10800183 	ldbu	r2,6(r2)
 1000bbc:	10803fcc 	andi	r2,r2,255
 1000bc0:	1004943a 	slli	r2,r2,16
 1000bc4:	1007883a 	mov	r3,r2
 1000bc8:	e0bbf317 	ldw	r2,-4148(fp)
 1000bcc:	10c4b03a 	or	r2,r2,r3
 1000bd0:	e0bbf315 	stw	r2,-4148(fp)
	NoOfBytesToRead = (NoOfBytesToRead | (global_data[5] << 24));
 1000bd4:	00804074 	movhi	r2,257
 1000bd8:	10af8e04 	addi	r2,r2,-16840
 1000bdc:	10800143 	ldbu	r2,5(r2)
 1000be0:	10803fcc 	andi	r2,r2,255
 1000be4:	1004963a 	slli	r2,r2,24
 1000be8:	1007883a 	mov	r3,r2
 1000bec:	e0bbf317 	ldw	r2,-4148(fp)
 1000bf0:	10c4b03a 	or	r2,r2,r3
 1000bf4:	e0bbf315 	stw	r2,-4148(fp)

	if(NoOfBytesToRead < bulk)
 1000bf8:	e0fbf317 	ldw	r3,-4148(fp)
 1000bfc:	e0bbef17 	ldw	r2,-4164(fp)
 1000c00:	18801b2e 	bgeu	r3,r2,1000c70 <BLOCK_READ+0x1d0>
	{
		for(i = 0; i < NoOfBytesToRead; i++)
 1000c04:	e03bf015 	stw	zero,-4160(fp)
 1000c08:	00000d06 	br	1000c40 <BLOCK_READ+0x1a0>
		{
			Data[i] = (IORD_8DIRECT(g_address, OFFSET + i));
 1000c0c:	d0e20417 	ldw	r3,-30704(gp)
 1000c10:	e0bbf017 	ldw	r2,-4160(fp)
 1000c14:	1885883a 	add	r2,r3,r2
 1000c18:	10800023 	ldbuio	r2,0(r2)
 1000c1c:	10803fcc 	andi	r2,r2,255
 1000c20:	1009883a 	mov	r4,r2
 1000c24:	e0fbf704 	addi	r3,fp,-4132
 1000c28:	e0bbf017 	ldw	r2,-4160(fp)
 1000c2c:	1885883a 	add	r2,r3,r2
 1000c30:	11000005 	stb	r4,0(r2)
	NoOfBytesToRead = (NoOfBytesToRead | (global_data[6] << 16));
	NoOfBytesToRead = (NoOfBytesToRead | (global_data[5] << 24));

	if(NoOfBytesToRead < bulk)
	{
		for(i = 0; i < NoOfBytesToRead; i++)
 1000c34:	e0bbf017 	ldw	r2,-4160(fp)
 1000c38:	10800044 	addi	r2,r2,1
 1000c3c:	e0bbf015 	stw	r2,-4160(fp)
 1000c40:	e0fbf017 	ldw	r3,-4160(fp)
 1000c44:	e0bbf317 	ldw	r2,-4148(fp)
 1000c48:	18bff036 	bltu	r3,r2,1000c0c <__alt_data_end+0xfffdfcb4>
		{
			Data[i] = (IORD_8DIRECT(g_address, OFFSET + i));
		}

		#ifdef DMA_USE
			usb20sr_with_dma_write(pUsb20srDev, 1, Data, NoOfBytesToRead, DMA_FLAG);
 1000c4c:	d1220517 	ldw	r4,-30700(gp)
 1000c50:	e0fbf317 	ldw	r3,-4148(fp)
 1000c54:	e1bbf704 	addi	r6,fp,-4132
 1000c58:	00800044 	movi	r2,1
 1000c5c:	d8800015 	stw	r2,0(sp)
 1000c60:	01400044 	movi	r5,1
 1000c64:	180f883a 	mov	r7,r3
 1000c68:	1005b300 	call	1005b30 <usb20sr_with_dma_write>
 1000c6c:	00005e06 	br	1000de8 <BLOCK_READ+0x348>
			usb20sr_without_dma_write(pUsb20srDev, 1, Data, NoOfBytesToRead);
		#endif
	}
	else
	{
		int loopcount = NoOfBytesToRead / bulk;
 1000c70:	e13bf317 	ldw	r4,-4148(fp)
 1000c74:	e17bef17 	ldw	r5,-4164(fp)
 1000c78:	10079300 	call	1007930 <__udivsi3>
 1000c7c:	e0bbf215 	stw	r2,-4152(fp)
		int mod = NoOfBytesToRead % bulk;
 1000c80:	e0bbf317 	ldw	r2,-4148(fp)
 1000c84:	1009883a 	mov	r4,r2
 1000c88:	e17bef17 	ldw	r5,-4164(fp)
 1000c8c:	10079380 	call	1007938 <__umodsi3>
 1000c90:	e0bbf415 	stw	r2,-4144(fp)
		if(mod != 0)
 1000c94:	e0bbf417 	ldw	r2,-4144(fp)
 1000c98:	10000326 	beq	r2,zero,1000ca8 <BLOCK_READ+0x208>
			loopcount++;
 1000c9c:	e0bbf217 	ldw	r2,-4152(fp)
 1000ca0:	10800044 	addi	r2,r2,1
 1000ca4:	e0bbf215 	stw	r2,-4152(fp)
		for(k = 0; k < loopcount; k++)
 1000ca8:	e03bf115 	stw	zero,-4156(fp)
 1000cac:	00004b06 	br	1000ddc <BLOCK_READ+0x33c>
 1000cb0:	d805883a 	mov	r2,sp
 1000cb4:	e0bff715 	stw	r2,-36(fp)
		{
			if((k == (loopcount - 1)) && (mod != 0))
 1000cb8:	e0bbf217 	ldw	r2,-4152(fp)
 1000cbc:	10bfffc4 	addi	r2,r2,-1
 1000cc0:	1007883a 	mov	r3,r2
 1000cc4:	e0bbf117 	ldw	r2,-4156(fp)
 1000cc8:	1880041e 	bne	r3,r2,1000cdc <BLOCK_READ+0x23c>
 1000ccc:	e0bbf417 	ldw	r2,-4144(fp)
 1000cd0:	10000226 	beq	r2,zero,1000cdc <BLOCK_READ+0x23c>
				bulk = mod;
 1000cd4:	e0bbf417 	ldw	r2,-4144(fp)
 1000cd8:	e0bbef15 	stw	r2,-4164(fp)

			unsigned char D[bulk];
 1000cdc:	e0bbef17 	ldw	r2,-4164(fp)
 1000ce0:	1007883a 	mov	r3,r2
 1000ce4:	18ffffc4 	addi	r3,r3,-1
 1000ce8:	e0fbf515 	stw	r3,-4140(fp)
 1000cec:	1029883a 	mov	r20,r2
 1000cf0:	002b883a 	mov	r21,zero
 1000cf4:	a006d77a 	srli	r3,r20,29
 1000cf8:	a82290fa 	slli	r17,r21,3
 1000cfc:	1c62b03a 	or	r17,r3,r17
 1000d00:	a02090fa 	slli	r16,r20,3
 1000d04:	102d883a 	mov	r22,r2
 1000d08:	002f883a 	mov	r23,zero
 1000d0c:	b006d77a 	srli	r3,r22,29
 1000d10:	b82690fa 	slli	r19,r23,3
 1000d14:	1ce6b03a 	or	r19,r3,r19
 1000d18:	b02490fa 	slli	r18,r22,3
 1000d1c:	108000c4 	addi	r2,r2,3
 1000d20:	1004d0ba 	srli	r2,r2,2
 1000d24:	1085883a 	add	r2,r2,r2
 1000d28:	1085883a 	add	r2,r2,r2
 1000d2c:	d8b7c83a 	sub	sp,sp,r2
 1000d30:	d8800104 	addi	r2,sp,4
 1000d34:	1005883a 	mov	r2,r2
 1000d38:	e0bbf615 	stw	r2,-4136(fp)

			for(i = 0; i < bulk; i++)
 1000d3c:	e03bf015 	stw	zero,-4160(fp)
 1000d40:	00001006 	br	1000d84 <BLOCK_READ+0x2e4>
				D[i] = (IORD_8DIRECT(g_address, (OFFSET + i) + (k * 4096)));
 1000d44:	e0bbf117 	ldw	r2,-4156(fp)
 1000d48:	1006933a 	slli	r3,r2,12
 1000d4c:	e0bbf017 	ldw	r2,-4160(fp)
 1000d50:	1887883a 	add	r3,r3,r2
 1000d54:	d0a20417 	ldw	r2,-30704(gp)
 1000d58:	1885883a 	add	r2,r3,r2
 1000d5c:	10800023 	ldbuio	r2,0(r2)
 1000d60:	10803fcc 	andi	r2,r2,255
 1000d64:	1009883a 	mov	r4,r2
 1000d68:	e0fbf617 	ldw	r3,-4136(fp)
 1000d6c:	e0bbf017 	ldw	r2,-4160(fp)
 1000d70:	1885883a 	add	r2,r3,r2
 1000d74:	11000005 	stb	r4,0(r2)
			if((k == (loopcount - 1)) && (mod != 0))
				bulk = mod;

			unsigned char D[bulk];

			for(i = 0; i < bulk; i++)
 1000d78:	e0bbf017 	ldw	r2,-4160(fp)
 1000d7c:	10800044 	addi	r2,r2,1
 1000d80:	e0bbf015 	stw	r2,-4160(fp)
 1000d84:	e0fbf017 	ldw	r3,-4160(fp)
 1000d88:	e0bbef17 	ldw	r2,-4164(fp)
 1000d8c:	18bfed36 	bltu	r3,r2,1000d44 <__alt_data_end+0xfffdfdec>
				D[i] = (IORD_8DIRECT(g_address, (OFFSET + i) + (k * 4096)));

			while((usb20sr_check_bi_ready(pUsb20srDev, 1)) == -1);
 1000d90:	0001883a 	nop
 1000d94:	d0a20517 	ldw	r2,-30700(gp)
 1000d98:	1009883a 	mov	r4,r2
 1000d9c:	01400044 	movi	r5,1
 1000da0:	10077580 	call	1007758 <usb20sr_check_bi_ready>
 1000da4:	10bfffe0 	cmpeqi	r2,r2,-1
 1000da8:	103ffa1e 	bne	r2,zero,1000d94 <__alt_data_end+0xfffdfe3c>

			#ifdef DMA_USE
				usb20sr_with_dma_write(pUsb20srDev, 1, D, bulk, DMA_FLAG);
 1000dac:	d1220517 	ldw	r4,-30700(gp)
 1000db0:	e1bbf617 	ldw	r6,-4136(fp)
 1000db4:	e0fbef17 	ldw	r3,-4164(fp)
 1000db8:	00800044 	movi	r2,1
 1000dbc:	d8800015 	stw	r2,0(sp)
 1000dc0:	01400044 	movi	r5,1
 1000dc4:	180f883a 	mov	r7,r3
 1000dc8:	1005b300 	call	1005b30 <usb20sr_with_dma_write>
 1000dcc:	e6fff717 	ldw	sp,-36(fp)
	{
		int loopcount = NoOfBytesToRead / bulk;
		int mod = NoOfBytesToRead % bulk;
		if(mod != 0)
			loopcount++;
		for(k = 0; k < loopcount; k++)
 1000dd0:	e0bbf117 	ldw	r2,-4156(fp)
 1000dd4:	10800044 	addi	r2,r2,1
 1000dd8:	e0bbf115 	stw	r2,-4156(fp)
 1000ddc:	e0bbf217 	ldw	r2,-4152(fp)
 1000de0:	e0fbf117 	ldw	r3,-4156(fp)
 1000de4:	18bfb236 	bltu	r3,r2,1000cb0 <__alt_data_end+0xfffdfd58>
			#else
				usb20sr_without_dma_write(pUsb20srDev, 1, D, bulk);
			#endif
		}
	 }
}
 1000de8:	e6fff804 	addi	sp,fp,-32
 1000dec:	dfc00917 	ldw	ra,36(sp)
 1000df0:	df000817 	ldw	fp,32(sp)
 1000df4:	ddc00717 	ldw	r23,28(sp)
 1000df8:	dd800617 	ldw	r22,24(sp)
 1000dfc:	dd400517 	ldw	r21,20(sp)
 1000e00:	dd000417 	ldw	r20,16(sp)
 1000e04:	dcc00317 	ldw	r19,12(sp)
 1000e08:	dc800217 	ldw	r18,8(sp)
 1000e0c:	dc400117 	ldw	r17,4(sp)
 1000e10:	dc000017 	ldw	r16,0(sp)
 1000e14:	dec00a04 	addi	sp,sp,40
 1000e18:	f800283a 	ret

01000e1c <BLOCK_WRITE>:

void BLOCK_WRITE()
{
 1000e1c:	deffea04 	addi	sp,sp,-88
 1000e20:	dfc01515 	stw	ra,84(sp)
 1000e24:	df001415 	stw	fp,80(sp)
 1000e28:	ddc01315 	stw	r23,76(sp)
 1000e2c:	dd801215 	stw	r22,72(sp)
 1000e30:	dd401115 	stw	r21,68(sp)
 1000e34:	dd001015 	stw	r20,64(sp)
 1000e38:	dcc00f15 	stw	r19,60(sp)
 1000e3c:	dc800e15 	stw	r18,56(sp)
 1000e40:	dc400d15 	stw	r17,52(sp)
 1000e44:	dc000c15 	stw	r16,48(sp)
 1000e48:	df001404 	addi	fp,sp,80
	unsigned int bulk = 4096;
 1000e4c:	02840004 	movi	r10,4096
 1000e50:	e2bfed15 	stw	r10,-76(fp)
	unsigned int NoOfBytesToWrite = 0;
 1000e54:	e03ff115 	stw	zero,-60(fp)
	unsigned int i = 0, k = 0;
 1000e58:	e03fee15 	stw	zero,-72(fp)
 1000e5c:	e03fef15 	stw	zero,-68(fp)

	g_address = 0;
 1000e60:	d0220415 	stw	zero,-30704(gp)
	g_address = (g_address | global_data[4]);
 1000e64:	02804074 	movhi	r10,257
 1000e68:	52af8e04 	addi	r10,r10,-16840
 1000e6c:	52800103 	ldbu	r10,4(r10)
 1000e70:	52c03fcc 	andi	r11,r10,255
 1000e74:	d2a20417 	ldw	r10,-30704(gp)
 1000e78:	5a94b03a 	or	r10,r11,r10
 1000e7c:	d2a20415 	stw	r10,-30704(gp)
	g_address = (g_address | (global_data[3] << 8));
 1000e80:	02804074 	movhi	r10,257
 1000e84:	52af8e04 	addi	r10,r10,-16840
 1000e88:	528000c3 	ldbu	r10,3(r10)
 1000e8c:	52803fcc 	andi	r10,r10,255
 1000e90:	5014923a 	slli	r10,r10,8
 1000e94:	5017883a 	mov	r11,r10
 1000e98:	d2a20417 	ldw	r10,-30704(gp)
 1000e9c:	5a94b03a 	or	r10,r11,r10
 1000ea0:	d2a20415 	stw	r10,-30704(gp)
	g_address = (g_address | (global_data[2] << 16));
 1000ea4:	02804074 	movhi	r10,257
 1000ea8:	52af8e04 	addi	r10,r10,-16840
 1000eac:	52800083 	ldbu	r10,2(r10)
 1000eb0:	52803fcc 	andi	r10,r10,255
 1000eb4:	5014943a 	slli	r10,r10,16
 1000eb8:	5017883a 	mov	r11,r10
 1000ebc:	d2a20417 	ldw	r10,-30704(gp)
 1000ec0:	5a94b03a 	or	r10,r11,r10
 1000ec4:	d2a20415 	stw	r10,-30704(gp)
	g_address = (g_address | (global_data[1] << 24));
 1000ec8:	02804074 	movhi	r10,257
 1000ecc:	52af8e04 	addi	r10,r10,-16840
 1000ed0:	52800043 	ldbu	r10,1(r10)
 1000ed4:	52803fcc 	andi	r10,r10,255
 1000ed8:	5014963a 	slli	r10,r10,24
 1000edc:	5017883a 	mov	r11,r10
 1000ee0:	d2a20417 	ldw	r10,-30704(gp)
 1000ee4:	5a94b03a 	or	r10,r11,r10
 1000ee8:	d2a20415 	stw	r10,-30704(gp)

	NoOfBytesToWrite = (NoOfBytesToWrite | (global_data[8]));
 1000eec:	02804074 	movhi	r10,257
 1000ef0:	52af8e04 	addi	r10,r10,-16840
 1000ef4:	52800203 	ldbu	r10,8(r10)
 1000ef8:	52803fcc 	andi	r10,r10,255
 1000efc:	e2fff117 	ldw	r11,-60(fp)
 1000f00:	5a94b03a 	or	r10,r11,r10
 1000f04:	e2bff115 	stw	r10,-60(fp)
	NoOfBytesToWrite = (NoOfBytesToWrite | (global_data[7] << 8));
 1000f08:	02804074 	movhi	r10,257
 1000f0c:	52af8e04 	addi	r10,r10,-16840
 1000f10:	528001c3 	ldbu	r10,7(r10)
 1000f14:	52803fcc 	andi	r10,r10,255
 1000f18:	5014923a 	slli	r10,r10,8
 1000f1c:	5017883a 	mov	r11,r10
 1000f20:	e2bff117 	ldw	r10,-60(fp)
 1000f24:	52d4b03a 	or	r10,r10,r11
 1000f28:	e2bff115 	stw	r10,-60(fp)
	NoOfBytesToWrite = (NoOfBytesToWrite | (global_data[6] << 16));
 1000f2c:	02804074 	movhi	r10,257
 1000f30:	52af8e04 	addi	r10,r10,-16840
 1000f34:	52800183 	ldbu	r10,6(r10)
 1000f38:	52803fcc 	andi	r10,r10,255
 1000f3c:	5014943a 	slli	r10,r10,16
 1000f40:	5017883a 	mov	r11,r10
 1000f44:	e2bff117 	ldw	r10,-60(fp)
 1000f48:	52d4b03a 	or	r10,r10,r11
 1000f4c:	e2bff115 	stw	r10,-60(fp)
	NoOfBytesToWrite = (NoOfBytesToWrite | (global_data[5] << 24));
 1000f50:	02804074 	movhi	r10,257
 1000f54:	52af8e04 	addi	r10,r10,-16840
 1000f58:	52800143 	ldbu	r10,5(r10)
 1000f5c:	52803fcc 	andi	r10,r10,255
 1000f60:	5014963a 	slli	r10,r10,24
 1000f64:	5017883a 	mov	r11,r10
 1000f68:	e2bff117 	ldw	r10,-60(fp)
 1000f6c:	52d4b03a 	or	r10,r10,r11
 1000f70:	e2bff115 	stw	r10,-60(fp)

	if(NoOfBytesToWrite < bulk)
 1000f74:	e2fff117 	ldw	r11,-60(fp)
 1000f78:	e2bfed17 	ldw	r10,-76(fp)
 1000f7c:	5a803c2e 	bgeu	r11,r10,1001070 <BLOCK_WRITE+0x254>
 1000f80:	d815883a 	mov	r10,sp
 1000f84:	5021883a 	mov	r16,r10
	{
		unsigned char g_data[NoOfBytesToWrite];
 1000f88:	e2bff117 	ldw	r10,-60(fp)
 1000f8c:	5017883a 	mov	r11,r10
 1000f90:	5affffc4 	addi	r11,r11,-1
 1000f94:	e2fff215 	stw	r11,-56(fp)
 1000f98:	5011883a 	mov	r8,r10
 1000f9c:	0013883a 	mov	r9,zero
 1000fa0:	4016d77a 	srli	r11,r8,29
 1000fa4:	480a90fa 	slli	r5,r9,3
 1000fa8:	594ab03a 	or	r5,r11,r5
 1000fac:	400890fa 	slli	r4,r8,3
 1000fb0:	500d883a 	mov	r6,r10
 1000fb4:	000f883a 	mov	r7,zero
 1000fb8:	3008d77a 	srli	r4,r6,29
 1000fbc:	380690fa 	slli	r3,r7,3
 1000fc0:	20c6b03a 	or	r3,r4,r3
 1000fc4:	300490fa 	slli	r2,r6,3
 1000fc8:	508000c4 	addi	r2,r10,3
 1000fcc:	1004d0ba 	srli	r2,r2,2
 1000fd0:	1085883a 	add	r2,r2,r2
 1000fd4:	1085883a 	add	r2,r2,r2
 1000fd8:	d8b7c83a 	sub	sp,sp,r2
 1000fdc:	d8800104 	addi	r2,sp,4
 1000fe0:	1005883a 	mov	r2,r2
 1000fe4:	e0bff315 	stw	r2,-52(fp)
		while((usb20sr_check_bo_ready(pUsb20srDev, 2)) <= -1);
 1000fe8:	0001883a 	nop
 1000fec:	d0a20517 	ldw	r2,-30700(gp)
 1000ff0:	1009883a 	mov	r4,r2
 1000ff4:	01400084 	movi	r5,2
 1000ff8:	10075e40 	call	10075e4 <usb20sr_check_bo_ready>
 1000ffc:	103ffb16 	blt	r2,zero,1000fec <__alt_data_end+0xfffe0094>

		#ifdef DMA_USE
			usb20sr_with_dma_read(pUsb20srDev, 2, g_data, NoOfBytesToWrite, DMA_FLAG);
 1001000:	d1220517 	ldw	r4,-30700(gp)
 1001004:	e1bff317 	ldw	r6,-52(fp)
 1001008:	e0fff117 	ldw	r3,-60(fp)
 100100c:	00800044 	movi	r2,1
 1001010:	d8800015 	stw	r2,0(sp)
 1001014:	01400084 	movi	r5,2
 1001018:	180f883a 	mov	r7,r3
 100101c:	1006e4c0 	call	1006e4c <usb20sr_with_dma_read>
		#else
			usb20sr_without_dma_read(pUsb20srDev, 2, g_data, NoOfBytesToWrite);
		#endif

		for(i = 0; i < NoOfBytesToWrite; i++)
 1001020:	e03fee15 	stw	zero,-72(fp)
 1001024:	00000d06 	br	100105c <BLOCK_WRITE+0x240>
			IOWR_8DIRECT(g_address, i, g_data[i]);
 1001028:	d0e20417 	ldw	r3,-30704(gp)
 100102c:	e0bfee17 	ldw	r2,-72(fp)
 1001030:	1885883a 	add	r2,r3,r2
 1001034:	1009883a 	mov	r4,r2
 1001038:	e0fff317 	ldw	r3,-52(fp)
 100103c:	e0bfee17 	ldw	r2,-72(fp)
 1001040:	1885883a 	add	r2,r3,r2
 1001044:	10800003 	ldbu	r2,0(r2)
 1001048:	10803fcc 	andi	r2,r2,255
 100104c:	20800025 	stbio	r2,0(r4)
			usb20sr_with_dma_read(pUsb20srDev, 2, g_data, NoOfBytesToWrite, DMA_FLAG);
		#else
			usb20sr_without_dma_read(pUsb20srDev, 2, g_data, NoOfBytesToWrite);
		#endif

		for(i = 0; i < NoOfBytesToWrite; i++)
 1001050:	e0bfee17 	ldw	r2,-72(fp)
 1001054:	10800044 	addi	r2,r2,1
 1001058:	e0bfee15 	stw	r2,-72(fp)
 100105c:	e0ffee17 	ldw	r3,-72(fp)
 1001060:	e0bff117 	ldw	r2,-60(fp)
 1001064:	18bff036 	bltu	r3,r2,1001028 <__alt_data_end+0xfffe00d0>
 1001068:	8037883a 	mov	sp,r16
 100106c:	00006906 	br	1001214 <BLOCK_WRITE+0x3f8>
			IOWR_8DIRECT(g_address, i, g_data[i]);
	}
	else
	{
		int loopcount = NoOfBytesToWrite / bulk;
 1001070:	e13ff117 	ldw	r4,-60(fp)
 1001074:	e17fed17 	ldw	r5,-76(fp)
 1001078:	10079300 	call	1007930 <__udivsi3>
 100107c:	e0bff015 	stw	r2,-64(fp)
		int mod = NoOfBytesToWrite % bulk;
 1001080:	e0bff117 	ldw	r2,-60(fp)
 1001084:	1009883a 	mov	r4,r2
 1001088:	e17fed17 	ldw	r5,-76(fp)
 100108c:	10079380 	call	1007938 <__umodsi3>
 1001090:	e0bff415 	stw	r2,-48(fp)

		if(mod != 0)
 1001094:	e0bff417 	ldw	r2,-48(fp)
 1001098:	10000326 	beq	r2,zero,10010a8 <BLOCK_WRITE+0x28c>
			loopcount++;
 100109c:	e0bff017 	ldw	r2,-64(fp)
 10010a0:	10800044 	addi	r2,r2,1
 10010a4:	e0bff015 	stw	r2,-64(fp)

		for(k = 0; k < loopcount; k++)
 10010a8:	e03fef15 	stw	zero,-68(fp)
 10010ac:	00005606 	br	1001208 <BLOCK_WRITE+0x3ec>
 10010b0:	d805883a 	mov	r2,sp
 10010b4:	e0bff715 	stw	r2,-36(fp)
		{
			if(k == loopcount - 1 && mod != 0)
 10010b8:	e0bff017 	ldw	r2,-64(fp)
 10010bc:	10bfffc4 	addi	r2,r2,-1
 10010c0:	1007883a 	mov	r3,r2
 10010c4:	e0bfef17 	ldw	r2,-68(fp)
 10010c8:	1880041e 	bne	r3,r2,10010dc <BLOCK_WRITE+0x2c0>
 10010cc:	e0bff417 	ldw	r2,-48(fp)
 10010d0:	10000226 	beq	r2,zero,10010dc <BLOCK_WRITE+0x2c0>
				bulk = mod;
 10010d4:	e0bff417 	ldw	r2,-48(fp)
 10010d8:	e0bfed15 	stw	r2,-76(fp)

			unsigned char g_data[bulk];
 10010dc:	e0bfed17 	ldw	r2,-76(fp)
 10010e0:	1007883a 	mov	r3,r2
 10010e4:	18ffffc4 	addi	r3,r3,-1
 10010e8:	e0fff515 	stw	r3,-44(fp)
 10010ec:	1029883a 	mov	r20,r2
 10010f0:	002b883a 	mov	r21,zero
 10010f4:	a006d77a 	srli	r3,r20,29
 10010f8:	a82290fa 	slli	r17,r21,3
 10010fc:	1c62b03a 	or	r17,r3,r17
 1001100:	a02090fa 	slli	r16,r20,3
 1001104:	102d883a 	mov	r22,r2
 1001108:	002f883a 	mov	r23,zero
 100110c:	b006d77a 	srli	r3,r22,29
 1001110:	b82690fa 	slli	r19,r23,3
 1001114:	1ce6b03a 	or	r19,r3,r19
 1001118:	b02490fa 	slli	r18,r22,3
 100111c:	108000c4 	addi	r2,r2,3
 1001120:	1004d0ba 	srli	r2,r2,2
 1001124:	1085883a 	add	r2,r2,r2
 1001128:	1085883a 	add	r2,r2,r2
 100112c:	d8b7c83a 	sub	sp,sp,r2
 1001130:	d8800104 	addi	r2,sp,4
 1001134:	1005883a 	mov	r2,r2
 1001138:	e0bff615 	stw	r2,-40(fp)

			while((i = usb20sr_check_bo_ready(pUsb20srDev, 2)) == -1);
 100113c:	0001883a 	nop
 1001140:	d0a20517 	ldw	r2,-30700(gp)
 1001144:	1009883a 	mov	r4,r2
 1001148:	01400084 	movi	r5,2
 100114c:	10075e40 	call	10075e4 <usb20sr_check_bo_ready>
 1001150:	e0bfee15 	stw	r2,-72(fp)
 1001154:	e0bfee17 	ldw	r2,-72(fp)
 1001158:	10bfffe0 	cmpeqi	r2,r2,-1
 100115c:	103ff81e 	bne	r2,zero,1001140 <__alt_data_end+0xfffe01e8>

			#ifdef DMA_USE
				i = usb20sr_with_dma_read(pUsb20srDev, 2, g_data, bulk, DMA_FLAG);
 1001160:	d1220517 	ldw	r4,-30700(gp)
 1001164:	e1bff617 	ldw	r6,-40(fp)
 1001168:	e0ffed17 	ldw	r3,-76(fp)
 100116c:	00800044 	movi	r2,1
 1001170:	d8800015 	stw	r2,0(sp)
 1001174:	01400084 	movi	r5,2
 1001178:	180f883a 	mov	r7,r3
 100117c:	1006e4c0 	call	1006e4c <usb20sr_with_dma_read>
 1001180:	e0bfee15 	stw	r2,-72(fp)
			#else
				i = usb20sr_without_dma_read(pUsb20srDev, 2, g_data, bulk);
			#endif

			if(i == -1)
 1001184:	e0bfee17 	ldw	r2,-72(fp)
 1001188:	10bfffd8 	cmpnei	r2,r2,-1
 100118c:	1000021e 	bne	r2,zero,1001198 <BLOCK_WRITE+0x37c>
 1001190:	0005883a 	mov	r2,zero
				return;
 1001194:	00001606 	br	10011f0 <BLOCK_WRITE+0x3d4>

			for(i = 0; i < bulk; i++)
 1001198:	e03fee15 	stw	zero,-72(fp)
 100119c:	00001006 	br	10011e0 <BLOCK_WRITE+0x3c4>
				IOWR_8DIRECT(g_address, i + (k * 4096), g_data[i]);
 10011a0:	e0bfef17 	ldw	r2,-68(fp)
 10011a4:	1006933a 	slli	r3,r2,12
 10011a8:	e0bfee17 	ldw	r2,-72(fp)
 10011ac:	1887883a 	add	r3,r3,r2
 10011b0:	d0a20417 	ldw	r2,-30704(gp)
 10011b4:	1885883a 	add	r2,r3,r2
 10011b8:	1009883a 	mov	r4,r2
 10011bc:	e0fff617 	ldw	r3,-40(fp)
 10011c0:	e0bfee17 	ldw	r2,-72(fp)
 10011c4:	1885883a 	add	r2,r3,r2
 10011c8:	10800003 	ldbu	r2,0(r2)
 10011cc:	10803fcc 	andi	r2,r2,255
 10011d0:	20800025 	stbio	r2,0(r4)
			#endif

			if(i == -1)
				return;

			for(i = 0; i < bulk; i++)
 10011d4:	e0bfee17 	ldw	r2,-72(fp)
 10011d8:	10800044 	addi	r2,r2,1
 10011dc:	e0bfee15 	stw	r2,-72(fp)
 10011e0:	e0ffee17 	ldw	r3,-72(fp)
 10011e4:	e0bfed17 	ldw	r2,-76(fp)
 10011e8:	18bfed36 	bltu	r3,r2,10011a0 <__alt_data_end+0xfffe0248>
 10011ec:	00800044 	movi	r2,1
 10011f0:	e6fff717 	ldw	sp,-36(fp)
 10011f4:	10800060 	cmpeqi	r2,r2,1
 10011f8:	10000626 	beq	r2,zero,1001214 <BLOCK_WRITE+0x3f8>
		int mod = NoOfBytesToWrite % bulk;

		if(mod != 0)
			loopcount++;

		for(k = 0; k < loopcount; k++)
 10011fc:	e0bfef17 	ldw	r2,-68(fp)
 1001200:	10800044 	addi	r2,r2,1
 1001204:	e0bfef15 	stw	r2,-68(fp)
 1001208:	e0bff017 	ldw	r2,-64(fp)
 100120c:	e0ffef17 	ldw	r3,-68(fp)
 1001210:	18bfa736 	bltu	r3,r2,10010b0 <__alt_data_end+0xfffe0158>

			for(i = 0; i < bulk; i++)
				IOWR_8DIRECT(g_address, i + (k * 4096), g_data[i]);
		}
	}
}
 1001214:	e6fff804 	addi	sp,fp,-32
 1001218:	dfc00917 	ldw	ra,36(sp)
 100121c:	df000817 	ldw	fp,32(sp)
 1001220:	ddc00717 	ldw	r23,28(sp)
 1001224:	dd800617 	ldw	r22,24(sp)
 1001228:	dd400517 	ldw	r21,20(sp)
 100122c:	dd000417 	ldw	r20,16(sp)
 1001230:	dcc00317 	ldw	r19,12(sp)
 1001234:	dc800217 	ldw	r18,8(sp)
 1001238:	dc400117 	ldw	r17,4(sp)
 100123c:	dc000017 	ldw	r16,0(sp)
 1001240:	dec00a04 	addi	sp,sp,40
 1001244:	f800283a 	ret

01001248 <USB_Attached_Event>:

void USB_Attached_Event(sls_avalon_usb20sr_dev *usb20dev)
{
 1001248:	defffd04 	addi	sp,sp,-12
 100124c:	dfc00215 	stw	ra,8(sp)
 1001250:	df000115 	stw	fp,4(sp)
 1001254:	df000104 	addi	fp,sp,4
 1001258:	e13fff15 	stw	r4,-4(fp)
    printf("\nAttEvent\n");
 100125c:	01004074 	movhi	r4,257
 1001260:	212b3b04 	addi	r4,r4,-21268
 1001264:	1007a480 	call	1007a48 <puts>
}
 1001268:	e037883a 	mov	sp,fp
 100126c:	dfc00117 	ldw	ra,4(sp)
 1001270:	df000017 	ldw	fp,0(sp)
 1001274:	dec00204 	addi	sp,sp,8
 1001278:	f800283a 	ret

0100127c <USB_Detached_Event>:

void USB_Detached_Event(sls_avalon_usb20sr_dev *usb20dev)
{
 100127c:	defffd04 	addi	sp,sp,-12
 1001280:	dfc00215 	stw	ra,8(sp)
 1001284:	df000115 	stw	fp,4(sp)
 1001288:	df000104 	addi	fp,sp,4
 100128c:	e13fff15 	stw	r4,-4(fp)
    printf("\nDetaEvent\n");
 1001290:	01004074 	movhi	r4,257
 1001294:	212b3e04 	addi	r4,r4,-21256
 1001298:	1007a480 	call	1007a48 <puts>
}
 100129c:	e037883a 	mov	sp,fp
 10012a0:	dfc00117 	ldw	ra,4(sp)
 10012a4:	df000017 	ldw	fp,0(sp)
 10012a8:	dec00204 	addi	sp,sp,8
 10012ac:	f800283a 	ret

010012b0 <USB_Reset_Event>:

void USB_Reset_Event(sls_avalon_usb20sr_dev *usb20dev)
{
 10012b0:	defffd04 	addi	sp,sp,-12
 10012b4:	dfc00215 	stw	ra,8(sp)
 10012b8:	df000115 	stw	fp,4(sp)
 10012bc:	df000104 	addi	fp,sp,4
 10012c0:	e13fff15 	stw	r4,-4(fp)
    printf("\nResetEvent\n");
 10012c4:	01004074 	movhi	r4,257
 10012c8:	212b4104 	addi	r4,r4,-21244
 10012cc:	1007a480 	call	1007a48 <puts>
}
 10012d0:	e037883a 	mov	sp,fp
 10012d4:	dfc00117 	ldw	ra,4(sp)
 10012d8:	df000017 	ldw	fp,0(sp)
 10012dc:	dec00204 	addi	sp,sp,8
 10012e0:	f800283a 	ret

010012e4 <USB_Resume_Event>:

void USB_Resume_Event(sls_avalon_usb20sr_dev *usb20dev)
{
 10012e4:	defffd04 	addi	sp,sp,-12
 10012e8:	dfc00215 	stw	ra,8(sp)
 10012ec:	df000115 	stw	fp,4(sp)
 10012f0:	df000104 	addi	fp,sp,4
 10012f4:	e13fff15 	stw	r4,-4(fp)
    printf("\nResume\n");
 10012f8:	01004074 	movhi	r4,257
 10012fc:	212b4404 	addi	r4,r4,-21232
 1001300:	1007a480 	call	1007a48 <puts>
}
 1001304:	e037883a 	mov	sp,fp
 1001308:	dfc00117 	ldw	ra,4(sp)
 100130c:	df000017 	ldw	fp,0(sp)
 1001310:	dec00204 	addi	sp,sp,8
 1001314:	f800283a 	ret

01001318 <USB_Suspend_Event>:

void USB_Suspend_Event(sls_avalon_usb20sr_dev *usb20dev)
{
 1001318:	defffd04 	addi	sp,sp,-12
 100131c:	dfc00215 	stw	ra,8(sp)
 1001320:	df000115 	stw	fp,4(sp)
 1001324:	df000104 	addi	fp,sp,4
 1001328:	e13fff15 	stw	r4,-4(fp)
    printf("\nSuspend\n");
 100132c:	01004074 	movhi	r4,257
 1001330:	212b4604 	addi	r4,r4,-21224
 1001334:	1007a480 	call	1007a48 <puts>
}
 1001338:	e037883a 	mov	sp,fp
 100133c:	dfc00117 	ldw	ra,4(sp)
 1001340:	df000017 	ldw	fp,0(sp)
 1001344:	dec00204 	addi	sp,sp,8
 1001348:	f800283a 	ret

0100134c <USB_WakeUpCfg_Event>:

void USB_WakeUpCfg_Event(sls_avalon_usb20sr_dev *usb20dev, unsigned char cfg)
{
 100134c:	defffc04 	addi	sp,sp,-16
 1001350:	dfc00315 	stw	ra,12(sp)
 1001354:	df000215 	stw	fp,8(sp)
 1001358:	df000204 	addi	fp,sp,8
 100135c:	e13ffe15 	stw	r4,-8(fp)
 1001360:	2805883a 	mov	r2,r5
 1001364:	e0bfff05 	stb	r2,-4(fp)
    printf("\nWakeUpCfgEvent\n");
 1001368:	01004074 	movhi	r4,257
 100136c:	212b4904 	addi	r4,r4,-21212
 1001370:	1007a480 	call	1007a48 <puts>
}
 1001374:	e037883a 	mov	sp,fp
 1001378:	dfc00117 	ldw	ra,4(sp)
 100137c:	df000017 	ldw	fp,0(sp)
 1001380:	dec00204 	addi	sp,sp,8
 1001384:	f800283a 	ret

01001388 <HandleClassSpecificControlRequests>:

void HandleClassSpecificControlRequests(volatile __CONTROL_REQUEST_STATUS *CONTROL_REQUEST_STATUS,
										volatile unsigned int base, char stage)
{
 1001388:	defffc04 	addi	sp,sp,-16
 100138c:	df000315 	stw	fp,12(sp)
 1001390:	df000304 	addi	fp,sp,12
 1001394:	e13ffd15 	stw	r4,-12(fp)
 1001398:	e17ffe15 	stw	r5,-8(fp)
 100139c:	3005883a 	mov	r2,r6
 10013a0:	e0bfff05 	stb	r2,-4(fp)

}
 10013a4:	e037883a 	mov	sp,fp
 10013a8:	df000017 	ldw	fp,0(sp)
 10013ac:	dec00104 	addi	sp,sp,4
 10013b0:	f800283a 	ret

010013b4 <HandleClassSpecificDescriptorRequests>:
void HandleClassSpecificDescriptorRequests(volatile __CONTROL_REQUEST_STATUS *CONTROL_REQUEST_STATUS,
											   volatile unsigned int base, char stage)
{
 10013b4:	defffc04 	addi	sp,sp,-16
 10013b8:	df000315 	stw	fp,12(sp)
 10013bc:	df000304 	addi	fp,sp,12
 10013c0:	e13ffd15 	stw	r4,-12(fp)
 10013c4:	e17ffe15 	stw	r5,-8(fp)
 10013c8:	3005883a 	mov	r2,r6
 10013cc:	e0bfff05 	stb	r2,-4(fp)

}
 10013d0:	e037883a 	mov	sp,fp
 10013d4:	df000017 	ldw	fp,0(sp)
 10013d8:	dec00104 	addi	sp,sp,4
 10013dc:	f800283a 	ret

010013e0 <usb20sr_error_event>:


#define PRINTF_USB_EVENT(str,...) printf(str,##__VA_ARGS__)

void usb20sr_error_event(int event)
{
 10013e0:	defffc04 	addi	sp,sp,-16
 10013e4:	dfc00315 	stw	ra,12(sp)
 10013e8:	df000215 	stw	fp,8(sp)
 10013ec:	df000204 	addi	fp,sp,8
 10013f0:	e13fff15 	stw	r4,-4(fp)

	//printf("usb event before and ERROR_CODE_MASK is 0x%x!\n",event);
	volatile int data = event & ERROR_CODE_MASK;
 10013f4:	e0ffff17 	ldw	r3,-4(fp)
 10013f8:	00800834 	movhi	r2,32
 10013fc:	10a3ffc4 	addi	r2,r2,-28673
 1001400:	1884703a 	and	r2,r3,r2
 1001404:	e0bffe15 	stw	r2,-8(fp)

	//printf("usb event is 0x%x!\n",event);

	if(event & EP_NO_FROM_GENERATED_ERROR_MASK)
 1001408:	e0bfff17 	ldw	r2,-4(fp)
 100140c:	10b3c02c 	andhi	r2,r2,52992
 1001410:	10001f26 	beq	r2,zero,1001490 <usb20sr_error_event+0xb0>
	{
		if(((event & EP_TYPE_MASK) >> 30) == IN_EP_TYPE)
 1001414:	e0bfff17 	ldw	r2,-4(fp)
 1001418:	1004d7ba 	srli	r2,r2,30
 100141c:	10800058 	cmpnei	r2,r2,1
 1001420:	1000041e 	bne	r2,zero,1001434 <usb20sr_error_event+0x54>
			PRINTF_USB_EVENT("IN ");
 1001424:	01004074 	movhi	r4,257
 1001428:	212b4d04 	addi	r4,r4,-21196
 100142c:	100797c0 	call	100797c <printf>
 1001430:	00000f06 	br	1001470 <usb20sr_error_event+0x90>
		else if(((event & EP_TYPE_MASK) >> 30) == OUT_EP_TYPE)
 1001434:	e0bfff17 	ldw	r2,-4(fp)
 1001438:	1004d7ba 	srli	r2,r2,30
 100143c:	10800098 	cmpnei	r2,r2,2
 1001440:	1000041e 	bne	r2,zero,1001454 <usb20sr_error_event+0x74>
			PRINTF_USB_EVENT("OUT ");
 1001444:	01004074 	movhi	r4,257
 1001448:	212b4e04 	addi	r4,r4,-21192
 100144c:	100797c0 	call	100797c <printf>
 1001450:	00000706 	br	1001470 <usb20sr_error_event+0x90>
		else if(((event & EP_TYPE_MASK) >> 30) == CONTROL_EP_TYPE)
 1001454:	e0bfff17 	ldw	r2,-4(fp)
 1001458:	1004d7ba 	srli	r2,r2,30
 100145c:	108000d8 	cmpnei	r2,r2,3
 1001460:	1000031e 	bne	r2,zero,1001470 <usb20sr_error_event+0x90>
			PRINTF_USB_EVENT("CONTROL ");
 1001464:	01004074 	movhi	r4,257
 1001468:	212b5004 	addi	r4,r4,-21184
 100146c:	100797c0 	call	100797c <printf>

		PRINTF_USB_EVENT("Endpoint %d cause ", (event & EP_NO_MASK) >> 24);
 1001470:	e0bfff17 	ldw	r2,-4(fp)
 1001474:	1083c02c 	andhi	r2,r2,3840
 1001478:	1005d63a 	srai	r2,r2,24
 100147c:	01004074 	movhi	r4,257
 1001480:	212b5304 	addi	r4,r4,-21172
 1001484:	100b883a 	mov	r5,r2
 1001488:	100797c0 	call	100797c <printf>
 100148c:	00000606 	br	10014a8 <usb20sr_error_event+0xc8>
	}
	else
		//PRINTF_USB_EVENT("\nUSB cause ");

	if(data & TIME_OUT_ERROR)
 1001490:	e0bffe17 	ldw	r2,-8(fp)
 1001494:	1080004c 	andi	r2,r2,1
 1001498:	10000326 	beq	r2,zero,10014a8 <usb20sr_error_event+0xc8>
		PRINTF_USB_EVENT("\nUSB cause TIME_OUT_ERROR\n");
 100149c:	01004074 	movhi	r4,257
 10014a0:	212b5804 	addi	r4,r4,-21152
 10014a4:	1007a480 	call	1007a48 <puts>

	if(data & BAD_PCK_ERROR)
 10014a8:	e0bffe17 	ldw	r2,-8(fp)
 10014ac:	1080008c 	andi	r2,r2,2
 10014b0:	10000326 	beq	r2,zero,10014c0 <usb20sr_error_event+0xe0>
		PRINTF_USB_EVENT("\nUSB cause BAD_PCK_ERROR\n");
 10014b4:	01004074 	movhi	r4,257
 10014b8:	212b5f04 	addi	r4,r4,-21124
 10014bc:	1007a480 	call	1007a48 <puts>

	if(data & UNEXPTED_PID_ERROR)
 10014c0:	e0bffe17 	ldw	r2,-8(fp)
 10014c4:	1080010c 	andi	r2,r2,4
 10014c8:	10000326 	beq	r2,zero,10014d8 <usb20sr_error_event+0xf8>
		PRINTF_USB_EVENT("\nUSB cause UNEXPECTED_PID_ERROR\n");
 10014cc:	01004074 	movhi	r4,257
 10014d0:	212b6604 	addi	r4,r4,-21096
 10014d4:	1007a480 	call	1007a48 <puts>

	if(data & PID_SEQ_ERROR)
 10014d8:	e0bffe17 	ldw	r2,-8(fp)
 10014dc:	1080080c 	andi	r2,r2,32
 10014e0:	10000326 	beq	r2,zero,10014f0 <usb20sr_error_event+0x110>
		PRINTF_USB_EVENT("\nUSB cause PID_SEQ_ERROR\n");
 10014e4:	01004074 	movhi	r4,257
 10014e8:	212b6e04 	addi	r4,r4,-21064
 10014ec:	1007a480 	call	1007a48 <puts>

	if(data & BAD_TCKN_ERROR)
 10014f0:	e0bffe17 	ldw	r2,-8(fp)
 10014f4:	1080400c 	andi	r2,r2,256
 10014f8:	10000326 	beq	r2,zero,1001508 <usb20sr_error_event+0x128>
		PRINTF_USB_EVENT("\nUSB cause BAD_TCKN_ERROR\n");
 10014fc:	01004074 	movhi	r4,257
 1001500:	212b7504 	addi	r4,r4,-21036
 1001504:	1007a480 	call	1007a48 <puts>

	if(data & PID_ERROR)
 1001508:	e0bffe17 	ldw	r2,-8(fp)
 100150c:	1080800c 	andi	r2,r2,512
 1001510:	10000326 	beq	r2,zero,1001520 <usb20sr_error_event+0x140>
		PRINTF_USB_EVENT("\nUSB cause PID_ERROR\n");
 1001514:	01004074 	movhi	r4,257
 1001518:	212b7c04 	addi	r4,r4,-21008
 100151c:	1007a480 	call	1007a48 <puts>

	if(data & NO_EP_ERROR)
 1001520:	e0bffe17 	ldw	r2,-8(fp)
 1001524:	1081000c 	andi	r2,r2,1024
 1001528:	10000326 	beq	r2,zero,1001538 <usb20sr_error_event+0x158>
		PRINTF_USB_EVENT("\nUSB cause NO_EP_ERROR\n");
 100152c:	01004074 	movhi	r4,257
 1001530:	212b8204 	addi	r4,r4,-20984
 1001534:	1007a480 	call	1007a48 <puts>

	if(data & UTMI_RX_ERROR)
 1001538:	e0bffe17 	ldw	r2,-8(fp)
 100153c:	10a0000c 	andi	r2,r2,32768
 1001540:	10000626 	beq	r2,zero,100155c <usb20sr_error_event+0x17c>
		//PRINTF_USB_EVENT("\nUSB cause UTMI_RX_ERROR\n");

	if(data & ISO_PKT_LOSS)
 1001544:	e0bffe17 	ldw	r2,-8(fp)
 1001548:	1080200c 	andi	r2,r2,128
 100154c:	10000326 	beq	r2,zero,100155c <usb20sr_error_event+0x17c>
		PRINTF_USB_EVENT("\nUSB cause ISO_PKT_LOSS\n");
 1001550:	01004074 	movhi	r4,257
 1001554:	212b8804 	addi	r4,r4,-20960
 1001558:	1007a480 	call	1007a48 <puts>
}
 100155c:	e037883a 	mov	sp,fp
 1001560:	dfc00117 	ldw	ra,4(sp)
 1001564:	df000017 	ldw	fp,0(sp)
 1001568:	dec00204 	addi	sp,sp,8
 100156c:	f800283a 	ret

01001570 <usb20sr_phy_register_enable>:
 1001570:	defffe04 	addi	sp,sp,-8
 1001574:	df000115 	stw	fp,4(sp)
 1001578:	df000104 	addi	fp,sp,4
 100157c:	e13fff15 	stw	r4,-4(fp)
 1001580:	e0bfff17 	ldw	r2,-4(fp)
 1001584:	10801517 	ldw	r2,84(r2)
 1001588:	10807c04 	addi	r2,r2,496
 100158c:	1007883a 	mov	r3,r2
 1001590:	00800044 	movi	r2,1
 1001594:	18800025 	stbio	r2,0(r3)
 1001598:	e037883a 	mov	sp,fp
 100159c:	df000017 	ldw	fp,0(sp)
 10015a0:	dec00104 	addi	sp,sp,4
 10015a4:	f800283a 	ret

010015a8 <usb20sr_phy_register_disable>:
 10015a8:	defffe04 	addi	sp,sp,-8
 10015ac:	df000115 	stw	fp,4(sp)
 10015b0:	df000104 	addi	fp,sp,4
 10015b4:	e13fff15 	stw	r4,-4(fp)
 10015b8:	e0bfff17 	ldw	r2,-4(fp)
 10015bc:	10801517 	ldw	r2,84(r2)
 10015c0:	10807c04 	addi	r2,r2,496
 10015c4:	10000025 	stbio	zero,0(r2)
 10015c8:	e037883a 	mov	sp,fp
 10015cc:	df000017 	ldw	fp,0(sp)
 10015d0:	dec00104 	addi	sp,sp,4
 10015d4:	f800283a 	ret

010015d8 <usb20sr_set_dev_speed>:
 10015d8:	defffd04 	addi	sp,sp,-12
 10015dc:	df000215 	stw	fp,8(sp)
 10015e0:	df000204 	addi	fp,sp,8
 10015e4:	e13ffe15 	stw	r4,-8(fp)
 10015e8:	e17fff15 	stw	r5,-4(fp)
 10015ec:	e0bffe17 	ldw	r2,-8(fp)
 10015f0:	10801517 	ldw	r2,84(r2)
 10015f4:	10807e04 	addi	r2,r2,504
 10015f8:	1007883a 	mov	r3,r2
 10015fc:	e0bfff17 	ldw	r2,-4(fp)
 1001600:	18800025 	stbio	r2,0(r3)
 1001604:	e037883a 	mov	sp,fp
 1001608:	df000017 	ldw	fp,0(sp)
 100160c:	dec00104 	addi	sp,sp,4
 1001610:	f800283a 	ret

01001614 <usb20sr_get_dev_speed>:
 1001614:	defffe04 	addi	sp,sp,-8
 1001618:	df000115 	stw	fp,4(sp)
 100161c:	df000104 	addi	fp,sp,4
 1001620:	e13fff15 	stw	r4,-4(fp)
 1001624:	e0bfff17 	ldw	r2,-4(fp)
 1001628:	10800c17 	ldw	r2,48(r2)
 100162c:	e037883a 	mov	sp,fp
 1001630:	df000017 	ldw	fp,0(sp)
 1001634:	dec00104 	addi	sp,sp,4
 1001638:	f800283a 	ret

0100163c <usb20sr_phy_register_write>:
 100163c:	defffb04 	addi	sp,sp,-20
 1001640:	df000415 	stw	fp,16(sp)
 1001644:	df000404 	addi	fp,sp,16
 1001648:	e13ffd15 	stw	r4,-12(fp)
 100164c:	e17ffe15 	stw	r5,-8(fp)
 1001650:	e1bfff15 	stw	r6,-4(fp)
 1001654:	e03ffc15 	stw	zero,-16(fp)
 1001658:	e0bfff17 	ldw	r2,-4(fp)
 100165c:	1004923a 	slli	r2,r2,8
 1001660:	e0bfff15 	stw	r2,-4(fp)
 1001664:	e0fffe17 	ldw	r3,-8(fp)
 1001668:	e0bfff17 	ldw	r2,-4(fp)
 100166c:	1887883a 	add	r3,r3,r2
 1001670:	00804034 	movhi	r2,256
 1001674:	1885883a 	add	r2,r3,r2
 1001678:	e0bffc15 	stw	r2,-16(fp)
 100167c:	e0bffd17 	ldw	r2,-12(fp)
 1001680:	10801517 	ldw	r2,84(r2)
 1001684:	10807d04 	addi	r2,r2,500
 1001688:	1007883a 	mov	r3,r2
 100168c:	e0bffc17 	ldw	r2,-16(fp)
 1001690:	18800035 	stwio	r2,0(r3)
 1001694:	e0bffd17 	ldw	r2,-12(fp)
 1001698:	10801517 	ldw	r2,84(r2)
 100169c:	10807d04 	addi	r2,r2,500
 10016a0:	10800037 	ldwio	r2,0(r2)
 10016a4:	e037883a 	mov	sp,fp
 10016a8:	df000017 	ldw	fp,0(sp)
 10016ac:	dec00104 	addi	sp,sp,4
 10016b0:	f800283a 	ret

010016b4 <usb20sr_phy_register_read>:
 10016b4:	defffb04 	addi	sp,sp,-20
 10016b8:	df000415 	stw	fp,16(sp)
 10016bc:	df000404 	addi	fp,sp,16
 10016c0:	e13ffd15 	stw	r4,-12(fp)
 10016c4:	e17ffe15 	stw	r5,-8(fp)
 10016c8:	e1bfff15 	stw	r6,-4(fp)
 10016cc:	e03ffc15 	stw	zero,-16(fp)
 10016d0:	e0fffe17 	ldw	r3,-8(fp)
 10016d4:	00808034 	movhi	r2,512
 10016d8:	1885883a 	add	r2,r3,r2
 10016dc:	e0bffc15 	stw	r2,-16(fp)
 10016e0:	e0bffd17 	ldw	r2,-12(fp)
 10016e4:	10801517 	ldw	r2,84(r2)
 10016e8:	10807d04 	addi	r2,r2,500
 10016ec:	1007883a 	mov	r3,r2
 10016f0:	e0bffc17 	ldw	r2,-16(fp)
 10016f4:	18800035 	stwio	r2,0(r3)
 10016f8:	e0bffd17 	ldw	r2,-12(fp)
 10016fc:	10801517 	ldw	r2,84(r2)
 1001700:	10807d04 	addi	r2,r2,500
 1001704:	10800037 	ldwio	r2,0(r2)
 1001708:	e0bffd17 	ldw	r2,-12(fp)
 100170c:	10801517 	ldw	r2,84(r2)
 1001710:	10807d04 	addi	r2,r2,500
 1001714:	10800037 	ldwio	r2,0(r2)
 1001718:	1007d43a 	srai	r3,r2,16
 100171c:	e0bfff17 	ldw	r2,-4(fp)
 1001720:	10c00015 	stw	r3,0(r2)
 1001724:	e037883a 	mov	sp,fp
 1001728:	df000017 	ldw	fp,0(sp)
 100172c:	dec00104 	addi	sp,sp,4
 1001730:	f800283a 	ret

01001734 <usb20sr_set_low_power_mode>:
 1001734:	defffe04 	addi	sp,sp,-8
 1001738:	df000115 	stw	fp,4(sp)
 100173c:	df000104 	addi	fp,sp,4
 1001740:	e13fff15 	stw	r4,-4(fp)
 1001744:	e0bfff17 	ldw	r2,-4(fp)
 1001748:	10801517 	ldw	r2,84(r2)
 100174c:	10807d04 	addi	r2,r2,500
 1001750:	1007883a 	mov	r3,r2
 1001754:	00804034 	movhi	r2,256
 1001758:	10800104 	addi	r2,r2,4
 100175c:	18800035 	stwio	r2,0(r3)
 1001760:	e037883a 	mov	sp,fp
 1001764:	df000017 	ldw	fp,0(sp)
 1001768:	dec00104 	addi	sp,sp,4
 100176c:	f800283a 	ret

01001770 <get_current_micro_frame_no>:
 1001770:	defffe04 	addi	sp,sp,-8
 1001774:	df000115 	stw	fp,4(sp)
 1001778:	df000104 	addi	fp,sp,4
 100177c:	e13fff15 	stw	r4,-4(fp)
 1001780:	e0bfff17 	ldw	r2,-4(fp)
 1001784:	10801517 	ldw	r2,84(r2)
 1001788:	10800504 	addi	r2,r2,20
 100178c:	10800037 	ldwio	r2,0(r2)
 1001790:	10bc002c 	andhi	r2,r2,61440
 1001794:	1004d73a 	srli	r2,r2,28
 1001798:	e037883a 	mov	sp,fp
 100179c:	df000017 	ldw	fp,0(sp)
 10017a0:	dec00104 	addi	sp,sp,4
 10017a4:	f800283a 	ret

010017a8 <get_current_frame_no>:
 10017a8:	defffe04 	addi	sp,sp,-8
 10017ac:	df000115 	stw	fp,4(sp)
 10017b0:	df000104 	addi	fp,sp,4
 10017b4:	e13fff15 	stw	r4,-4(fp)
 10017b8:	e0bfff17 	ldw	r2,-4(fp)
 10017bc:	10801517 	ldw	r2,84(r2)
 10017c0:	10800504 	addi	r2,r2,20
 10017c4:	10800037 	ldwio	r2,0(r2)
 10017c8:	1081ffec 	andhi	r2,r2,2047
 10017cc:	1005d43a 	srai	r2,r2,16
 10017d0:	e037883a 	mov	sp,fp
 10017d4:	df000017 	ldw	fp,0(sp)
 10017d8:	dec00104 	addi	sp,sp,4
 10017dc:	f800283a 	ret

010017e0 <get_sof_time>:
 10017e0:	defffe04 	addi	sp,sp,-8
 10017e4:	df000115 	stw	fp,4(sp)
 10017e8:	df000104 	addi	fp,sp,4
 10017ec:	e13fff15 	stw	r4,-4(fp)
 10017f0:	e0bfff17 	ldw	r2,-4(fp)
 10017f4:	10801517 	ldw	r2,84(r2)
 10017f8:	10800504 	addi	r2,r2,20
 10017fc:	10800037 	ldwio	r2,0(r2)
 1001800:	1083ffcc 	andi	r2,r2,4095
 1001804:	e037883a 	mov	sp,fp
 1001808:	df000017 	ldw	fp,0(sp)
 100180c:	dec00104 	addi	sp,sp,4
 1001810:	f800283a 	ret

01001814 <get_current_config>:
 1001814:	defffe04 	addi	sp,sp,-8
 1001818:	df000115 	stw	fp,4(sp)
 100181c:	df000104 	addi	fp,sp,4
 1001820:	e13fff15 	stw	r4,-4(fp)
 1001824:	e0bfff17 	ldw	r2,-4(fp)
 1001828:	10802817 	ldw	r2,160(r2)
 100182c:	e037883a 	mov	sp,fp
 1001830:	df000017 	ldw	fp,0(sp)
 1001834:	dec00104 	addi	sp,sp,4
 1001838:	f800283a 	ret

0100183c <get_current_interface>:
 100183c:	defffe04 	addi	sp,sp,-8
 1001840:	df000115 	stw	fp,4(sp)
 1001844:	df000104 	addi	fp,sp,4
 1001848:	e13fff15 	stw	r4,-4(fp)
 100184c:	e0bfff17 	ldw	r2,-4(fp)
 1001850:	10802a17 	ldw	r2,168(r2)
 1001854:	e037883a 	mov	sp,fp
 1001858:	df000017 	ldw	fp,0(sp)
 100185c:	dec00104 	addi	sp,sp,4
 1001860:	f800283a 	ret

01001864 <get_current_alt_settings>:
 1001864:	defffe04 	addi	sp,sp,-8
 1001868:	df000115 	stw	fp,4(sp)
 100186c:	df000104 	addi	fp,sp,4
 1001870:	e13fff15 	stw	r4,-4(fp)
 1001874:	e0bfff17 	ldw	r2,-4(fp)
 1001878:	10802b17 	ldw	r2,172(r2)
 100187c:	e037883a 	mov	sp,fp
 1001880:	df000017 	ldw	fp,0(sp)
 1001884:	dec00104 	addi	sp,sp,4
 1001888:	f800283a 	ret

0100188c <ifConfigured>:
 100188c:	defffe04 	addi	sp,sp,-8
 1001890:	df000115 	stw	fp,4(sp)
 1001894:	df000104 	addi	fp,sp,4
 1001898:	e13fff15 	stw	r4,-4(fp)
 100189c:	e0bfff17 	ldw	r2,-4(fp)
 10018a0:	1081bc03 	ldbu	r2,1776(r2)
 10018a4:	10803fcc 	andi	r2,r2,255
 10018a8:	1080201c 	xori	r2,r2,128
 10018ac:	10bfe004 	addi	r2,r2,-128
 10018b0:	e037883a 	mov	sp,fp
 10018b4:	df000017 	ldw	fp,0(sp)
 10018b8:	dec00104 	addi	sp,sp,4
 10018bc:	f800283a 	ret

010018c0 <SetRemoteWakeUp>:
 10018c0:	defffe04 	addi	sp,sp,-8
 10018c4:	df000115 	stw	fp,4(sp)
 10018c8:	df000104 	addi	fp,sp,4
 10018cc:	e13fff15 	stw	r4,-4(fp)
 10018d0:	e0bfff17 	ldw	r2,-4(fp)
 10018d4:	10800f17 	ldw	r2,60(r2)
 10018d8:	10800118 	cmpnei	r2,r2,4
 10018dc:	1000051e 	bne	r2,zero,10018f4 <SetRemoteWakeUp+0x34>
 10018e0:	e0bfff17 	ldw	r2,-4(fp)
 10018e4:	10801517 	ldw	r2,84(r2)
 10018e8:	1007883a 	mov	r3,r2
 10018ec:	00802004 	movi	r2,128
 10018f0:	18800035 	stwio	r2,0(r3)
 10018f4:	e037883a 	mov	sp,fp
 10018f8:	df000017 	ldw	fp,0(sp)
 10018fc:	dec00104 	addi	sp,sp,4
 1001900:	f800283a 	ret

01001904 <USB_SetStallEP>:
 1001904:	defffc04 	addi	sp,sp,-16
 1001908:	df000315 	stw	fp,12(sp)
 100190c:	df000304 	addi	fp,sp,12
 1001910:	e13ffe15 	stw	r4,-8(fp)
 1001914:	e17fff15 	stw	r5,-4(fp)
 1001918:	e0bffe17 	ldw	r2,-8(fp)
 100191c:	10801517 	ldw	r2,84(r2)
 1001920:	1007883a 	mov	r3,r2
 1001924:	e0bfff17 	ldw	r2,-4(fp)
 1001928:	108003cc 	andi	r2,r2,15
 100192c:	1004913a 	slli	r2,r2,4
 1001930:	1885883a 	add	r2,r3,r2
 1001934:	10801004 	addi	r2,r2,64
 1001938:	10800037 	ldwio	r2,0(r2)
 100193c:	e0bffd15 	stw	r2,-12(fp)
 1001940:	e0bffe17 	ldw	r2,-8(fp)
 1001944:	10801517 	ldw	r2,84(r2)
 1001948:	1007883a 	mov	r3,r2
 100194c:	e0bfff17 	ldw	r2,-4(fp)
 1001950:	108003cc 	andi	r2,r2,15
 1001954:	1004913a 	slli	r2,r2,4
 1001958:	1885883a 	add	r2,r3,r2
 100195c:	11001004 	addi	r4,r2,64
 1001960:	e0bffd17 	ldw	r2,-12(fp)
 1001964:	10c02034 	orhi	r3,r2,128
 1001968:	2005883a 	mov	r2,r4
 100196c:	10c00035 	stwio	r3,0(r2)
 1001970:	e037883a 	mov	sp,fp
 1001974:	df000017 	ldw	fp,0(sp)
 1001978:	dec00104 	addi	sp,sp,4
 100197c:	f800283a 	ret

01001980 <USB_ClrStallEP>:
 1001980:	defffc04 	addi	sp,sp,-16
 1001984:	df000315 	stw	fp,12(sp)
 1001988:	df000304 	addi	fp,sp,12
 100198c:	e13ffe15 	stw	r4,-8(fp)
 1001990:	e17fff15 	stw	r5,-4(fp)
 1001994:	e0bffe17 	ldw	r2,-8(fp)
 1001998:	10801517 	ldw	r2,84(r2)
 100199c:	1007883a 	mov	r3,r2
 10019a0:	e0bfff17 	ldw	r2,-4(fp)
 10019a4:	108003cc 	andi	r2,r2,15
 10019a8:	1004913a 	slli	r2,r2,4
 10019ac:	1885883a 	add	r2,r3,r2
 10019b0:	10801004 	addi	r2,r2,64
 10019b4:	10800037 	ldwio	r2,0(r2)
 10019b8:	e0bffd15 	stw	r2,-12(fp)
 10019bc:	e0bffe17 	ldw	r2,-8(fp)
 10019c0:	10801517 	ldw	r2,84(r2)
 10019c4:	1007883a 	mov	r3,r2
 10019c8:	e0bfff17 	ldw	r2,-4(fp)
 10019cc:	108003cc 	andi	r2,r2,15
 10019d0:	1004913a 	slli	r2,r2,4
 10019d4:	1885883a 	add	r2,r3,r2
 10019d8:	11001004 	addi	r4,r2,64
 10019dc:	e0fffd17 	ldw	r3,-12(fp)
 10019e0:	00b3d034 	movhi	r2,53056
 10019e4:	10bfffc4 	addi	r2,r2,-1
 10019e8:	1886703a 	and	r3,r3,r2
 10019ec:	2005883a 	mov	r2,r4
 10019f0:	10c00035 	stwio	r3,0(r2)
 10019f4:	e037883a 	mov	sp,fp
 10019f8:	df000017 	ldw	fp,0(sp)
 10019fc:	dec00104 	addi	sp,sp,4
 1001a00:	f800283a 	ret

01001a04 <usb_initialize_descriptor>:
 1001a04:	defffb04 	addi	sp,sp,-20
 1001a08:	df000415 	stw	fp,16(sp)
 1001a0c:	df000404 	addi	fp,sp,16
 1001a10:	e13ffc15 	stw	r4,-16(fp)
 1001a14:	e17ffd15 	stw	r5,-12(fp)
 1001a18:	e1bffe15 	stw	r6,-8(fp)
 1001a1c:	e1ffff15 	stw	r7,-4(fp)
 1001a20:	e0bffd17 	ldw	r2,-12(fp)
 1001a24:	1007883a 	mov	r3,r2
 1001a28:	e0bffc17 	ldw	r2,-16(fp)
 1001a2c:	10c00315 	stw	r3,12(r2)
 1001a30:	e0bffe17 	ldw	r2,-8(fp)
 1001a34:	1007883a 	mov	r3,r2
 1001a38:	e0bffc17 	ldw	r2,-16(fp)
 1001a3c:	10c00415 	stw	r3,16(r2)
 1001a40:	e0bfff17 	ldw	r2,-4(fp)
 1001a44:	1007883a 	mov	r3,r2
 1001a48:	e0bffc17 	ldw	r2,-16(fp)
 1001a4c:	10c00515 	stw	r3,20(r2)
 1001a50:	e0800117 	ldw	r2,4(fp)
 1001a54:	1007883a 	mov	r3,r2
 1001a58:	e0bffc17 	ldw	r2,-16(fp)
 1001a5c:	10c00615 	stw	r3,24(r2)
 1001a60:	e0800517 	ldw	r2,20(fp)
 1001a64:	1007883a 	mov	r3,r2
 1001a68:	e0bffc17 	ldw	r2,-16(fp)
 1001a6c:	10c00715 	stw	r3,28(r2)
 1001a70:	e0800617 	ldw	r2,24(fp)
 1001a74:	1007883a 	mov	r3,r2
 1001a78:	e0bffc17 	ldw	r2,-16(fp)
 1001a7c:	10c00815 	stw	r3,32(r2)
 1001a80:	e0800817 	ldw	r2,32(fp)
 1001a84:	1007883a 	mov	r3,r2
 1001a88:	e0bffc17 	ldw	r2,-16(fp)
 1001a8c:	10c00915 	stw	r3,36(r2)
 1001a90:	e0800917 	ldw	r2,36(fp)
 1001a94:	1007883a 	mov	r3,r2
 1001a98:	e0bffc17 	ldw	r2,-16(fp)
 1001a9c:	10c00a15 	stw	r3,40(r2)
 1001aa0:	e0800a17 	ldw	r2,40(fp)
 1001aa4:	1007883a 	mov	r3,r2
 1001aa8:	e0bffc17 	ldw	r2,-16(fp)
 1001aac:	10c00b15 	stw	r3,44(r2)
 1001ab0:	e0fffc17 	ldw	r3,-16(fp)
 1001ab4:	e0800217 	ldw	r2,8(fp)
 1001ab8:	18802f15 	stw	r2,188(r3)
 1001abc:	e0fffc17 	ldw	r3,-16(fp)
 1001ac0:	e0800317 	ldw	r2,12(fp)
 1001ac4:	18803015 	stw	r2,192(r3)
 1001ac8:	e0fffc17 	ldw	r3,-16(fp)
 1001acc:	e0800417 	ldw	r2,16(fp)
 1001ad0:	18803115 	stw	r2,196(r3)
 1001ad4:	e0fffc17 	ldw	r3,-16(fp)
 1001ad8:	e0800717 	ldw	r2,28(fp)
 1001adc:	18801815 	stw	r2,96(r3)
 1001ae0:	e0bffc17 	ldw	r2,-16(fp)
 1001ae4:	10003815 	stw	zero,224(r2)
 1001ae8:	e0bffc17 	ldw	r2,-16(fp)
 1001aec:	10003915 	stw	zero,228(r2)
 1001af0:	e0bffc17 	ldw	r2,-16(fp)
 1001af4:	10003615 	stw	zero,216(r2)
 1001af8:	e0bffc17 	ldw	r2,-16(fp)
 1001afc:	10003715 	stw	zero,220(r2)
 1001b00:	e0bffc17 	ldw	r2,-16(fp)
 1001b04:	10003a15 	stw	zero,232(r2)
 1001b08:	e0bffc17 	ldw	r2,-16(fp)
 1001b0c:	10003b15 	stw	zero,236(r2)
 1001b10:	e037883a 	mov	sp,fp
 1001b14:	df000017 	ldw	fp,0(sp)
 1001b18:	dec00104 	addi	sp,sp,4
 1001b1c:	f800283a 	ret

01001b20 <usb_ep_config>:
 1001b20:	defffb04 	addi	sp,sp,-20
 1001b24:	df000415 	stw	fp,16(sp)
 1001b28:	df000404 	addi	fp,sp,16
 1001b2c:	e13ffc15 	stw	r4,-16(fp)
 1001b30:	e17ffd15 	stw	r5,-12(fp)
 1001b34:	e1bffe15 	stw	r6,-8(fp)
 1001b38:	e1ffff15 	stw	r7,-4(fp)
 1001b3c:	e0fffc17 	ldw	r3,-16(fp)
 1001b40:	e0bffd17 	ldw	r2,-12(fp)
 1001b44:	18801915 	stw	r2,100(r3)
 1001b48:	e0fffe17 	ldw	r3,-8(fp)
 1001b4c:	e0bffc17 	ldw	r2,-16(fp)
 1001b50:	10c01a15 	stw	r3,104(r2)
 1001b54:	e0bfff17 	ldw	r2,-4(fp)
 1001b58:	1007883a 	mov	r3,r2
 1001b5c:	e0bffc17 	ldw	r2,-16(fp)
 1001b60:	10c01b15 	stw	r3,108(r2)
 1001b64:	e0800117 	ldw	r2,4(fp)
 1001b68:	1007883a 	mov	r3,r2
 1001b6c:	e0bffc17 	ldw	r2,-16(fp)
 1001b70:	10c01c15 	stw	r3,112(r2)
 1001b74:	e0800217 	ldw	r2,8(fp)
 1001b78:	1007883a 	mov	r3,r2
 1001b7c:	e0bffc17 	ldw	r2,-16(fp)
 1001b80:	10c01d15 	stw	r3,116(r2)
 1001b84:	e0800317 	ldw	r2,12(fp)
 1001b88:	1007883a 	mov	r3,r2
 1001b8c:	e0bffc17 	ldw	r2,-16(fp)
 1001b90:	10c01e15 	stw	r3,120(r2)
 1001b94:	e0800417 	ldw	r2,16(fp)
 1001b98:	1007883a 	mov	r3,r2
 1001b9c:	e0bffc17 	ldw	r2,-16(fp)
 1001ba0:	10c01f15 	stw	r3,124(r2)
 1001ba4:	e0800517 	ldw	r2,20(fp)
 1001ba8:	1007883a 	mov	r3,r2
 1001bac:	e0bffc17 	ldw	r2,-16(fp)
 1001bb0:	10c02015 	stw	r3,128(r2)
 1001bb4:	e0800617 	ldw	r2,24(fp)
 1001bb8:	1007883a 	mov	r3,r2
 1001bbc:	e0bffc17 	ldw	r2,-16(fp)
 1001bc0:	10c02115 	stw	r3,132(r2)
 1001bc4:	e0800717 	ldw	r2,28(fp)
 1001bc8:	1007883a 	mov	r3,r2
 1001bcc:	e0bffc17 	ldw	r2,-16(fp)
 1001bd0:	10c02215 	stw	r3,136(r2)
 1001bd4:	e0800817 	ldw	r2,32(fp)
 1001bd8:	1007883a 	mov	r3,r2
 1001bdc:	e0bffc17 	ldw	r2,-16(fp)
 1001be0:	10c02315 	stw	r3,140(r2)
 1001be4:	e0800917 	ldw	r2,36(fp)
 1001be8:	1007883a 	mov	r3,r2
 1001bec:	e0bffc17 	ldw	r2,-16(fp)
 1001bf0:	10c02415 	stw	r3,144(r2)
 1001bf4:	e0800a17 	ldw	r2,40(fp)
 1001bf8:	1007883a 	mov	r3,r2
 1001bfc:	e0bffc17 	ldw	r2,-16(fp)
 1001c00:	10c02515 	stw	r3,148(r2)
 1001c04:	e0800b17 	ldw	r2,44(fp)
 1001c08:	1007883a 	mov	r3,r2
 1001c0c:	e0bffc17 	ldw	r2,-16(fp)
 1001c10:	10c02615 	stw	r3,152(r2)
 1001c14:	e037883a 	mov	sp,fp
 1001c18:	df000017 	ldw	fp,0(sp)
 1001c1c:	dec00104 	addi	sp,sp,4
 1001c20:	f800283a 	ret

01001c24 <dma_config>:
 1001c24:	defffb04 	addi	sp,sp,-20
 1001c28:	df000415 	stw	fp,16(sp)
 1001c2c:	df000404 	addi	fp,sp,16
 1001c30:	e13ffc15 	stw	r4,-16(fp)
 1001c34:	e17ffd15 	stw	r5,-12(fp)
 1001c38:	e1bffe15 	stw	r6,-8(fp)
 1001c3c:	e1ffff15 	stw	r7,-4(fp)
 1001c40:	e0800117 	ldw	r2,4(fp)
 1001c44:	1004c03a 	cmpne	r2,r2,zero
 1001c48:	10000a1e 	bne	r2,zero,1001c74 <dma_config+0x50>
 1001c4c:	e0fffd17 	ldw	r3,-12(fp)
 1001c50:	e0bffc17 	ldw	r2,-16(fp)
 1001c54:	10c01215 	stw	r3,72(r2)
 1001c58:	e0fffe17 	ldw	r3,-8(fp)
 1001c5c:	e0bffc17 	ldw	r2,-16(fp)
 1001c60:	10c01415 	stw	r3,80(r2)
 1001c64:	e0ffff17 	ldw	r3,-4(fp)
 1001c68:	e0bffc17 	ldw	r2,-16(fp)
 1001c6c:	10c01315 	stw	r3,76(r2)
 1001c70:	00000906 	br	1001c98 <dma_config+0x74>
 1001c74:	e0fffd17 	ldw	r3,-12(fp)
 1001c78:	e0bffc17 	ldw	r2,-16(fp)
 1001c7c:	10c01715 	stw	r3,92(r2)
 1001c80:	e0fffe17 	ldw	r3,-8(fp)
 1001c84:	e0bffc17 	ldw	r2,-16(fp)
 1001c88:	10c01115 	stw	r3,68(r2)
 1001c8c:	e0ffff17 	ldw	r3,-4(fp)
 1001c90:	e0bffc17 	ldw	r2,-16(fp)
 1001c94:	10c00215 	stw	r3,8(r2)
 1001c98:	e037883a 	mov	sp,fp
 1001c9c:	df000017 	ldw	fp,0(sp)
 1001ca0:	dec00104 	addi	sp,sp,4
 1001ca4:	f800283a 	ret

01001ca8 <USB_EnableEP>:
 1001ca8:	defff804 	addi	sp,sp,-32
 1001cac:	df000715 	stw	fp,28(sp)
 1001cb0:	df000704 	addi	fp,sp,28
 1001cb4:	e13ffe15 	stw	r4,-8(fp)
 1001cb8:	e17fff15 	stw	r5,-4(fp)
 1001cbc:	e0bffe17 	ldw	r2,-8(fp)
 1001cc0:	10c01a17 	ldw	r3,104(r2)
 1001cc4:	e0bffe17 	ldw	r2,-8(fp)
 1001cc8:	10802817 	ldw	r2,160(r2)
 1001ccc:	1085883a 	add	r2,r2,r2
 1001cd0:	1085883a 	add	r2,r2,r2
 1001cd4:	1885883a 	add	r2,r3,r2
 1001cd8:	10bfff04 	addi	r2,r2,-4
 1001cdc:	10800017 	ldw	r2,0(r2)
 1001ce0:	e0bff915 	stw	r2,-28(fp)
 1001ce4:	e0bff917 	ldw	r2,-28(fp)
 1001ce8:	10ffffcc 	andi	r3,r2,65535
 1001cec:	e0bfff17 	ldw	r2,-4(fp)
 1001cf0:	10bfffc4 	addi	r2,r2,-1
 1001cf4:	1885d83a 	sra	r2,r3,r2
 1001cf8:	1080004c 	andi	r2,r2,1
 1001cfc:	10803fcc 	andi	r2,r2,255
 1001d00:	1005003a 	cmpeq	r2,r2,zero
 1001d04:	1001341e 	bne	r2,zero,10021d8 <USB_EnableEP+0x530>
 1001d08:	e0bffe17 	ldw	r2,-8(fp)
 1001d0c:	10800c17 	ldw	r2,48(r2)
 1001d10:	10800058 	cmpnei	r2,r2,1
 1001d14:	1000391e 	bne	r2,zero,1001dfc <USB_EnableEP+0x154>
 1001d18:	e0bffe17 	ldw	r2,-8(fp)
 1001d1c:	10c01b17 	ldw	r3,108(r2)
 1001d20:	e0bffe17 	ldw	r2,-8(fp)
 1001d24:	10802817 	ldw	r2,160(r2)
 1001d28:	1085883a 	add	r2,r2,r2
 1001d2c:	1085883a 	add	r2,r2,r2
 1001d30:	1887883a 	add	r3,r3,r2
 1001d34:	e0bfff17 	ldw	r2,-4(fp)
 1001d38:	1085883a 	add	r2,r2,r2
 1001d3c:	1085883a 	add	r2,r2,r2
 1001d40:	1885883a 	add	r2,r3,r2
 1001d44:	10bffe04 	addi	r2,r2,-8
 1001d48:	10800017 	ldw	r2,0(r2)
 1001d4c:	e0bffa15 	stw	r2,-24(fp)
 1001d50:	e0bffe17 	ldw	r2,-8(fp)
 1001d54:	10c02417 	ldw	r3,144(r2)
 1001d58:	e0bffe17 	ldw	r2,-8(fp)
 1001d5c:	10802817 	ldw	r2,160(r2)
 1001d60:	1085883a 	add	r2,r2,r2
 1001d64:	1085883a 	add	r2,r2,r2
 1001d68:	1887883a 	add	r3,r3,r2
 1001d6c:	e0bfff17 	ldw	r2,-4(fp)
 1001d70:	1085883a 	add	r2,r2,r2
 1001d74:	1085883a 	add	r2,r2,r2
 1001d78:	1885883a 	add	r2,r3,r2
 1001d7c:	10bffe04 	addi	r2,r2,-8
 1001d80:	10800017 	ldw	r2,0(r2)
 1001d84:	e0bffd15 	stw	r2,-12(fp)
 1001d88:	e0bffe17 	ldw	r2,-8(fp)
 1001d8c:	10c01e17 	ldw	r3,120(r2)
 1001d90:	e0bffe17 	ldw	r2,-8(fp)
 1001d94:	10802817 	ldw	r2,160(r2)
 1001d98:	1085883a 	add	r2,r2,r2
 1001d9c:	1085883a 	add	r2,r2,r2
 1001da0:	1887883a 	add	r3,r3,r2
 1001da4:	e0bfff17 	ldw	r2,-4(fp)
 1001da8:	1085883a 	add	r2,r2,r2
 1001dac:	1085883a 	add	r2,r2,r2
 1001db0:	1885883a 	add	r2,r3,r2
 1001db4:	10bffe04 	addi	r2,r2,-8
 1001db8:	10800017 	ldw	r2,0(r2)
 1001dbc:	e0bffc15 	stw	r2,-16(fp)
 1001dc0:	e0bffe17 	ldw	r2,-8(fp)
 1001dc4:	10c01f17 	ldw	r3,124(r2)
 1001dc8:	e0bffe17 	ldw	r2,-8(fp)
 1001dcc:	10802817 	ldw	r2,160(r2)
 1001dd0:	1085883a 	add	r2,r2,r2
 1001dd4:	1085883a 	add	r2,r2,r2
 1001dd8:	1887883a 	add	r3,r3,r2
 1001ddc:	e0bfff17 	ldw	r2,-4(fp)
 1001de0:	1085883a 	add	r2,r2,r2
 1001de4:	1085883a 	add	r2,r2,r2
 1001de8:	1885883a 	add	r2,r3,r2
 1001dec:	10bffe04 	addi	r2,r2,-8
 1001df0:	10800017 	ldw	r2,0(r2)
 1001df4:	e0bffb15 	stw	r2,-20(fp)
 1001df8:	00007906 	br	1001fe0 <USB_EnableEP+0x338>
 1001dfc:	e0bffe17 	ldw	r2,-8(fp)
 1001e00:	10800c17 	ldw	r2,48(r2)
 1001e04:	1004c03a 	cmpne	r2,r2,zero
 1001e08:	1000391e 	bne	r2,zero,1001ef0 <USB_EnableEP+0x248>
 1001e0c:	e0bffe17 	ldw	r2,-8(fp)
 1001e10:	10c01c17 	ldw	r3,112(r2)
 1001e14:	e0bffe17 	ldw	r2,-8(fp)
 1001e18:	10802817 	ldw	r2,160(r2)
 1001e1c:	1085883a 	add	r2,r2,r2
 1001e20:	1085883a 	add	r2,r2,r2
 1001e24:	1887883a 	add	r3,r3,r2
 1001e28:	e0bfff17 	ldw	r2,-4(fp)
 1001e2c:	1085883a 	add	r2,r2,r2
 1001e30:	1085883a 	add	r2,r2,r2
 1001e34:	1885883a 	add	r2,r3,r2
 1001e38:	10bffe04 	addi	r2,r2,-8
 1001e3c:	10800017 	ldw	r2,0(r2)
 1001e40:	e0bffa15 	stw	r2,-24(fp)
 1001e44:	e0bffe17 	ldw	r2,-8(fp)
 1001e48:	10c02517 	ldw	r3,148(r2)
 1001e4c:	e0bffe17 	ldw	r2,-8(fp)
 1001e50:	10802817 	ldw	r2,160(r2)
 1001e54:	1085883a 	add	r2,r2,r2
 1001e58:	1085883a 	add	r2,r2,r2
 1001e5c:	1887883a 	add	r3,r3,r2
 1001e60:	e0bfff17 	ldw	r2,-4(fp)
 1001e64:	1085883a 	add	r2,r2,r2
 1001e68:	1085883a 	add	r2,r2,r2
 1001e6c:	1885883a 	add	r2,r3,r2
 1001e70:	10bffe04 	addi	r2,r2,-8
 1001e74:	10800017 	ldw	r2,0(r2)
 1001e78:	e0bffd15 	stw	r2,-12(fp)
 1001e7c:	e0bffe17 	ldw	r2,-8(fp)
 1001e80:	10c02017 	ldw	r3,128(r2)
 1001e84:	e0bffe17 	ldw	r2,-8(fp)
 1001e88:	10802817 	ldw	r2,160(r2)
 1001e8c:	1085883a 	add	r2,r2,r2
 1001e90:	1085883a 	add	r2,r2,r2
 1001e94:	1887883a 	add	r3,r3,r2
 1001e98:	e0bfff17 	ldw	r2,-4(fp)
 1001e9c:	1085883a 	add	r2,r2,r2
 1001ea0:	1085883a 	add	r2,r2,r2
 1001ea4:	1885883a 	add	r2,r3,r2
 1001ea8:	10bffe04 	addi	r2,r2,-8
 1001eac:	10800017 	ldw	r2,0(r2)
 1001eb0:	e0bffc15 	stw	r2,-16(fp)
 1001eb4:	e0bffe17 	ldw	r2,-8(fp)
 1001eb8:	10c02117 	ldw	r3,132(r2)
 1001ebc:	e0bffe17 	ldw	r2,-8(fp)
 1001ec0:	10802817 	ldw	r2,160(r2)
 1001ec4:	1085883a 	add	r2,r2,r2
 1001ec8:	1085883a 	add	r2,r2,r2
 1001ecc:	1887883a 	add	r3,r3,r2
 1001ed0:	e0bfff17 	ldw	r2,-4(fp)
 1001ed4:	1085883a 	add	r2,r2,r2
 1001ed8:	1085883a 	add	r2,r2,r2
 1001edc:	1885883a 	add	r2,r3,r2
 1001ee0:	10bffe04 	addi	r2,r2,-8
 1001ee4:	10800017 	ldw	r2,0(r2)
 1001ee8:	e0bffb15 	stw	r2,-20(fp)
 1001eec:	00003c06 	br	1001fe0 <USB_EnableEP+0x338>
 1001ef0:	e0bffe17 	ldw	r2,-8(fp)
 1001ef4:	10800c17 	ldw	r2,48(r2)
 1001ef8:	10800098 	cmpnei	r2,r2,2
 1001efc:	1000381e 	bne	r2,zero,1001fe0 <USB_EnableEP+0x338>
 1001f00:	e0bffe17 	ldw	r2,-8(fp)
 1001f04:	10c01d17 	ldw	r3,116(r2)
 1001f08:	e0bffe17 	ldw	r2,-8(fp)
 1001f0c:	10802817 	ldw	r2,160(r2)
 1001f10:	1085883a 	add	r2,r2,r2
 1001f14:	1085883a 	add	r2,r2,r2
 1001f18:	1887883a 	add	r3,r3,r2
 1001f1c:	e0bfff17 	ldw	r2,-4(fp)
 1001f20:	1085883a 	add	r2,r2,r2
 1001f24:	1085883a 	add	r2,r2,r2
 1001f28:	1885883a 	add	r2,r3,r2
 1001f2c:	10bffe04 	addi	r2,r2,-8
 1001f30:	10800017 	ldw	r2,0(r2)
 1001f34:	e0bffa15 	stw	r2,-24(fp)
 1001f38:	e0bffe17 	ldw	r2,-8(fp)
 1001f3c:	10c02617 	ldw	r3,152(r2)
 1001f40:	e0bffe17 	ldw	r2,-8(fp)
 1001f44:	10802817 	ldw	r2,160(r2)
 1001f48:	1085883a 	add	r2,r2,r2
 1001f4c:	1085883a 	add	r2,r2,r2
 1001f50:	1887883a 	add	r3,r3,r2
 1001f54:	e0bfff17 	ldw	r2,-4(fp)
 1001f58:	1085883a 	add	r2,r2,r2
 1001f5c:	1085883a 	add	r2,r2,r2
 1001f60:	1885883a 	add	r2,r3,r2
 1001f64:	10bffe04 	addi	r2,r2,-8
 1001f68:	10800017 	ldw	r2,0(r2)
 1001f6c:	e0bffd15 	stw	r2,-12(fp)
 1001f70:	e0bffe17 	ldw	r2,-8(fp)
 1001f74:	10c02217 	ldw	r3,136(r2)
 1001f78:	e0bffe17 	ldw	r2,-8(fp)
 1001f7c:	10802817 	ldw	r2,160(r2)
 1001f80:	1085883a 	add	r2,r2,r2
 1001f84:	1085883a 	add	r2,r2,r2
 1001f88:	1887883a 	add	r3,r3,r2
 1001f8c:	e0bfff17 	ldw	r2,-4(fp)
 1001f90:	1085883a 	add	r2,r2,r2
 1001f94:	1085883a 	add	r2,r2,r2
 1001f98:	1885883a 	add	r2,r3,r2
 1001f9c:	10bffe04 	addi	r2,r2,-8
 1001fa0:	10800017 	ldw	r2,0(r2)
 1001fa4:	e0bffc15 	stw	r2,-16(fp)
 1001fa8:	e0bffe17 	ldw	r2,-8(fp)
 1001fac:	10c02317 	ldw	r3,140(r2)
 1001fb0:	e0bffe17 	ldw	r2,-8(fp)
 1001fb4:	10802817 	ldw	r2,160(r2)
 1001fb8:	1085883a 	add	r2,r2,r2
 1001fbc:	1085883a 	add	r2,r2,r2
 1001fc0:	1887883a 	add	r3,r3,r2
 1001fc4:	e0bfff17 	ldw	r2,-4(fp)
 1001fc8:	1085883a 	add	r2,r2,r2
 1001fcc:	1085883a 	add	r2,r2,r2
 1001fd0:	1885883a 	add	r2,r3,r2
 1001fd4:	10bffe04 	addi	r2,r2,-8
 1001fd8:	10800017 	ldw	r2,0(r2)
 1001fdc:	e0bffb15 	stw	r2,-20(fp)
 1001fe0:	e0bffe17 	ldw	r2,-8(fp)
 1001fe4:	10801517 	ldw	r2,84(r2)
 1001fe8:	1007883a 	mov	r3,r2
 1001fec:	e0bfff17 	ldw	r2,-4(fp)
 1001ff0:	1004913a 	slli	r2,r2,4
 1001ff4:	1885883a 	add	r2,r3,r2
 1001ff8:	10801004 	addi	r2,r2,64
 1001ffc:	1007883a 	mov	r3,r2
 1002000:	e0bffa17 	ldw	r2,-24(fp)
 1002004:	18800035 	stwio	r2,0(r3)
 1002008:	e0bffe17 	ldw	r2,-8(fp)
 100200c:	10801517 	ldw	r2,84(r2)
 1002010:	1007883a 	mov	r3,r2
 1002014:	e0bfff17 	ldw	r2,-4(fp)
 1002018:	1004913a 	slli	r2,r2,4
 100201c:	1885883a 	add	r2,r3,r2
 1002020:	10801104 	addi	r2,r2,68
 1002024:	1007883a 	mov	r3,r2
 1002028:	e0bffd17 	ldw	r2,-12(fp)
 100202c:	18800035 	stwio	r2,0(r3)
 1002030:	e13fff17 	ldw	r4,-4(fp)
 1002034:	e0bffc17 	ldw	r2,-16(fp)
 1002038:	109fffac 	andhi	r2,r2,32766
 100203c:	1005d47a 	srai	r2,r2,17
 1002040:	100b883a 	mov	r5,r2
 1002044:	e0fffe17 	ldw	r3,-8(fp)
 1002048:	2105883a 	add	r2,r4,r4
 100204c:	1085883a 	add	r2,r2,r2
 1002050:	10c5883a 	add	r2,r2,r3
 1002054:	10815a04 	addi	r2,r2,1384
 1002058:	11400015 	stw	r5,0(r2)
 100205c:	e13fff17 	ldw	r4,-4(fp)
 1002060:	e0fffc17 	ldw	r3,-16(fp)
 1002064:	008000b4 	movhi	r2,2
 1002068:	10bfffc4 	addi	r2,r2,-1
 100206c:	188a703a 	and	r5,r3,r2
 1002070:	e0fffe17 	ldw	r3,-8(fp)
 1002074:	2105883a 	add	r2,r4,r4
 1002078:	1085883a 	add	r2,r2,r2
 100207c:	10c5883a 	add	r2,r2,r3
 1002080:	10817a04 	addi	r2,r2,1512
 1002084:	11400015 	stw	r5,0(r2)
 1002088:	e0bffe17 	ldw	r2,-8(fp)
 100208c:	10801517 	ldw	r2,84(r2)
 1002090:	1007883a 	mov	r3,r2
 1002094:	e0bfff17 	ldw	r2,-4(fp)
 1002098:	1004913a 	slli	r2,r2,4
 100209c:	1885883a 	add	r2,r3,r2
 10020a0:	10801204 	addi	r2,r2,72
 10020a4:	1007883a 	mov	r3,r2
 10020a8:	e0bffc17 	ldw	r2,-16(fp)
 10020ac:	18800035 	stwio	r2,0(r3)
 10020b0:	e13fff17 	ldw	r4,-4(fp)
 10020b4:	e0bffb17 	ldw	r2,-20(fp)
 10020b8:	109fffac 	andhi	r2,r2,32766
 10020bc:	1005d47a 	srai	r2,r2,17
 10020c0:	100b883a 	mov	r5,r2
 10020c4:	e0fffe17 	ldw	r3,-8(fp)
 10020c8:	2105883a 	add	r2,r4,r4
 10020cc:	1085883a 	add	r2,r2,r2
 10020d0:	10c5883a 	add	r2,r2,r3
 10020d4:	10816a04 	addi	r2,r2,1448
 10020d8:	11400015 	stw	r5,0(r2)
 10020dc:	e13fff17 	ldw	r4,-4(fp)
 10020e0:	e0fffb17 	ldw	r3,-20(fp)
 10020e4:	008000b4 	movhi	r2,2
 10020e8:	10bfffc4 	addi	r2,r2,-1
 10020ec:	188a703a 	and	r5,r3,r2
 10020f0:	e0fffe17 	ldw	r3,-8(fp)
 10020f4:	2105883a 	add	r2,r4,r4
 10020f8:	1085883a 	add	r2,r2,r2
 10020fc:	10c5883a 	add	r2,r2,r3
 1002100:	10818a04 	addi	r2,r2,1576
 1002104:	11400015 	stw	r5,0(r2)
 1002108:	e0bffe17 	ldw	r2,-8(fp)
 100210c:	10801517 	ldw	r2,84(r2)
 1002110:	1007883a 	mov	r3,r2
 1002114:	e0bfff17 	ldw	r2,-4(fp)
 1002118:	1004913a 	slli	r2,r2,4
 100211c:	1885883a 	add	r2,r3,r2
 1002120:	10801304 	addi	r2,r2,76
 1002124:	1007883a 	mov	r3,r2
 1002128:	e0bffb17 	ldw	r2,-20(fp)
 100212c:	18800035 	stwio	r2,0(r3)
 1002130:	e13fff17 	ldw	r4,-4(fp)
 1002134:	e0bfff17 	ldw	r2,-4(fp)
 1002138:	1085883a 	add	r2,r2,r2
 100213c:	1085883a 	add	r2,r2,r2
 1002140:	10800484 	addi	r2,r2,18
 1002144:	1007883a 	mov	r3,r2
 1002148:	e0bffe17 	ldw	r2,-8(fp)
 100214c:	2085883a 	add	r2,r4,r2
 1002150:	10819a04 	addi	r2,r2,1640
 1002154:	10c00005 	stb	r3,0(r2)
 1002158:	e13fff17 	ldw	r4,-4(fp)
 100215c:	e0bfff17 	ldw	r2,-4(fp)
 1002160:	1085883a 	add	r2,r2,r2
 1002164:	1085883a 	add	r2,r2,r2
 1002168:	108004c4 	addi	r2,r2,19
 100216c:	1007883a 	mov	r3,r2
 1002170:	e0bffe17 	ldw	r2,-8(fp)
 1002174:	2085883a 	add	r2,r4,r2
 1002178:	10819e04 	addi	r2,r2,1656
 100217c:	10c00005 	stb	r3,0(r2)
 1002180:	e13fff17 	ldw	r4,-4(fp)
 1002184:	e0bfff17 	ldw	r2,-4(fp)
 1002188:	e0fffe17 	ldw	r3,-8(fp)
 100218c:	1085883a 	add	r2,r2,r2
 1002190:	1085883a 	add	r2,r2,r2
 1002194:	10c5883a 	add	r2,r2,r3
 1002198:	10815a04 	addi	r2,r2,1384
 100219c:	11400017 	ldw	r5,0(r2)
 10021a0:	e0fffe17 	ldw	r3,-8(fp)
 10021a4:	2105883a 	add	r2,r4,r4
 10021a8:	1085883a 	add	r2,r2,r2
 10021ac:	10c5883a 	add	r2,r2,r3
 10021b0:	10814a04 	addi	r2,r2,1320
 10021b4:	11400015 	stw	r5,0(r2)
 10021b8:	e0bfff17 	ldw	r2,-4(fp)
 10021bc:	e0fffe17 	ldw	r3,-8(fp)
 10021c0:	1085883a 	add	r2,r2,r2
 10021c4:	1085883a 	add	r2,r2,r2
 10021c8:	10c5883a 	add	r2,r2,r3
 10021cc:	10c10a04 	addi	r3,r2,1064
 10021d0:	0085c034 	movhi	r2,5888
 10021d4:	18800015 	stw	r2,0(r3)
 10021d8:	e0bff917 	ldw	r2,-28(fp)
 10021dc:	1007d3fa 	srai	r3,r2,15
 10021e0:	e0bfff17 	ldw	r2,-4(fp)
 10021e4:	1885d83a 	sra	r2,r3,r2
 10021e8:	1080004c 	andi	r2,r2,1
 10021ec:	10803fcc 	andi	r2,r2,255
 10021f0:	1005003a 	cmpeq	r2,r2,zero
 10021f4:	1001371e 	bne	r2,zero,10026d4 <USB_EnableEP+0xa2c>
 10021f8:	e0bfff17 	ldw	r2,-4(fp)
 10021fc:	108003cc 	andi	r2,r2,15
 1002200:	e0bfff15 	stw	r2,-4(fp)
 1002204:	e0bffe17 	ldw	r2,-8(fp)
 1002208:	10800c17 	ldw	r2,48(r2)
 100220c:	10800058 	cmpnei	r2,r2,1
 1002210:	1000391e 	bne	r2,zero,10022f8 <USB_EnableEP+0x650>
 1002214:	e0bffe17 	ldw	r2,-8(fp)
 1002218:	10c01b17 	ldw	r3,108(r2)
 100221c:	e0bffe17 	ldw	r2,-8(fp)
 1002220:	10802817 	ldw	r2,160(r2)
 1002224:	1085883a 	add	r2,r2,r2
 1002228:	1085883a 	add	r2,r2,r2
 100222c:	1887883a 	add	r3,r3,r2
 1002230:	e0bfff17 	ldw	r2,-4(fp)
 1002234:	1085883a 	add	r2,r2,r2
 1002238:	1085883a 	add	r2,r2,r2
 100223c:	1885883a 	add	r2,r3,r2
 1002240:	10bffe04 	addi	r2,r2,-8
 1002244:	10800017 	ldw	r2,0(r2)
 1002248:	e0bffa15 	stw	r2,-24(fp)
 100224c:	e0bffe17 	ldw	r2,-8(fp)
 1002250:	10c02417 	ldw	r3,144(r2)
 1002254:	e0bffe17 	ldw	r2,-8(fp)
 1002258:	10802817 	ldw	r2,160(r2)
 100225c:	1085883a 	add	r2,r2,r2
 1002260:	1085883a 	add	r2,r2,r2
 1002264:	1887883a 	add	r3,r3,r2
 1002268:	e0bfff17 	ldw	r2,-4(fp)
 100226c:	1085883a 	add	r2,r2,r2
 1002270:	1085883a 	add	r2,r2,r2
 1002274:	1885883a 	add	r2,r3,r2
 1002278:	10bffe04 	addi	r2,r2,-8
 100227c:	10800017 	ldw	r2,0(r2)
 1002280:	e0bffd15 	stw	r2,-12(fp)
 1002284:	e0bffe17 	ldw	r2,-8(fp)
 1002288:	10c01e17 	ldw	r3,120(r2)
 100228c:	e0bffe17 	ldw	r2,-8(fp)
 1002290:	10802817 	ldw	r2,160(r2)
 1002294:	1085883a 	add	r2,r2,r2
 1002298:	1085883a 	add	r2,r2,r2
 100229c:	1887883a 	add	r3,r3,r2
 10022a0:	e0bfff17 	ldw	r2,-4(fp)
 10022a4:	1085883a 	add	r2,r2,r2
 10022a8:	1085883a 	add	r2,r2,r2
 10022ac:	1885883a 	add	r2,r3,r2
 10022b0:	10bffe04 	addi	r2,r2,-8
 10022b4:	10800017 	ldw	r2,0(r2)
 10022b8:	e0bffc15 	stw	r2,-16(fp)
 10022bc:	e0bffe17 	ldw	r2,-8(fp)
 10022c0:	10c01f17 	ldw	r3,124(r2)
 10022c4:	e0bffe17 	ldw	r2,-8(fp)
 10022c8:	10802817 	ldw	r2,160(r2)
 10022cc:	1085883a 	add	r2,r2,r2
 10022d0:	1085883a 	add	r2,r2,r2
 10022d4:	1887883a 	add	r3,r3,r2
 10022d8:	e0bfff17 	ldw	r2,-4(fp)
 10022dc:	1085883a 	add	r2,r2,r2
 10022e0:	1085883a 	add	r2,r2,r2
 10022e4:	1885883a 	add	r2,r3,r2
 10022e8:	10bffe04 	addi	r2,r2,-8
 10022ec:	10800017 	ldw	r2,0(r2)
 10022f0:	e0bffb15 	stw	r2,-20(fp)
 10022f4:	00007906 	br	10024dc <USB_EnableEP+0x834>
 10022f8:	e0bffe17 	ldw	r2,-8(fp)
 10022fc:	10800c17 	ldw	r2,48(r2)
 1002300:	1004c03a 	cmpne	r2,r2,zero
 1002304:	1000391e 	bne	r2,zero,10023ec <USB_EnableEP+0x744>
 1002308:	e0bffe17 	ldw	r2,-8(fp)
 100230c:	10c01c17 	ldw	r3,112(r2)
 1002310:	e0bffe17 	ldw	r2,-8(fp)
 1002314:	10802817 	ldw	r2,160(r2)
 1002318:	1085883a 	add	r2,r2,r2
 100231c:	1085883a 	add	r2,r2,r2
 1002320:	1887883a 	add	r3,r3,r2
 1002324:	e0bfff17 	ldw	r2,-4(fp)
 1002328:	1085883a 	add	r2,r2,r2
 100232c:	1085883a 	add	r2,r2,r2
 1002330:	1885883a 	add	r2,r3,r2
 1002334:	10bffe04 	addi	r2,r2,-8
 1002338:	10800017 	ldw	r2,0(r2)
 100233c:	e0bffa15 	stw	r2,-24(fp)
 1002340:	e0bffe17 	ldw	r2,-8(fp)
 1002344:	10c02517 	ldw	r3,148(r2)
 1002348:	e0bffe17 	ldw	r2,-8(fp)
 100234c:	10802817 	ldw	r2,160(r2)
 1002350:	1085883a 	add	r2,r2,r2
 1002354:	1085883a 	add	r2,r2,r2
 1002358:	1887883a 	add	r3,r3,r2
 100235c:	e0bfff17 	ldw	r2,-4(fp)
 1002360:	1085883a 	add	r2,r2,r2
 1002364:	1085883a 	add	r2,r2,r2
 1002368:	1885883a 	add	r2,r3,r2
 100236c:	10bffe04 	addi	r2,r2,-8
 1002370:	10800017 	ldw	r2,0(r2)
 1002374:	e0bffd15 	stw	r2,-12(fp)
 1002378:	e0bffe17 	ldw	r2,-8(fp)
 100237c:	10c02017 	ldw	r3,128(r2)
 1002380:	e0bffe17 	ldw	r2,-8(fp)
 1002384:	10802817 	ldw	r2,160(r2)
 1002388:	1085883a 	add	r2,r2,r2
 100238c:	1085883a 	add	r2,r2,r2
 1002390:	1887883a 	add	r3,r3,r2
 1002394:	e0bfff17 	ldw	r2,-4(fp)
 1002398:	1085883a 	add	r2,r2,r2
 100239c:	1085883a 	add	r2,r2,r2
 10023a0:	1885883a 	add	r2,r3,r2
 10023a4:	10bffe04 	addi	r2,r2,-8
 10023a8:	10800017 	ldw	r2,0(r2)
 10023ac:	e0bffc15 	stw	r2,-16(fp)
 10023b0:	e0bffe17 	ldw	r2,-8(fp)
 10023b4:	10c02117 	ldw	r3,132(r2)
 10023b8:	e0bffe17 	ldw	r2,-8(fp)
 10023bc:	10802817 	ldw	r2,160(r2)
 10023c0:	1085883a 	add	r2,r2,r2
 10023c4:	1085883a 	add	r2,r2,r2
 10023c8:	1887883a 	add	r3,r3,r2
 10023cc:	e0bfff17 	ldw	r2,-4(fp)
 10023d0:	1085883a 	add	r2,r2,r2
 10023d4:	1085883a 	add	r2,r2,r2
 10023d8:	1885883a 	add	r2,r3,r2
 10023dc:	10bffe04 	addi	r2,r2,-8
 10023e0:	10800017 	ldw	r2,0(r2)
 10023e4:	e0bffb15 	stw	r2,-20(fp)
 10023e8:	00003c06 	br	10024dc <USB_EnableEP+0x834>
 10023ec:	e0bffe17 	ldw	r2,-8(fp)
 10023f0:	10800c17 	ldw	r2,48(r2)
 10023f4:	10800098 	cmpnei	r2,r2,2
 10023f8:	1000381e 	bne	r2,zero,10024dc <USB_EnableEP+0x834>
 10023fc:	e0bffe17 	ldw	r2,-8(fp)
 1002400:	10c01d17 	ldw	r3,116(r2)
 1002404:	e0bffe17 	ldw	r2,-8(fp)
 1002408:	10802817 	ldw	r2,160(r2)
 100240c:	1085883a 	add	r2,r2,r2
 1002410:	1085883a 	add	r2,r2,r2
 1002414:	1887883a 	add	r3,r3,r2
 1002418:	e0bfff17 	ldw	r2,-4(fp)
 100241c:	1085883a 	add	r2,r2,r2
 1002420:	1085883a 	add	r2,r2,r2
 1002424:	1885883a 	add	r2,r3,r2
 1002428:	10bffe04 	addi	r2,r2,-8
 100242c:	10800017 	ldw	r2,0(r2)
 1002430:	e0bffa15 	stw	r2,-24(fp)
 1002434:	e0bffe17 	ldw	r2,-8(fp)
 1002438:	10c02617 	ldw	r3,152(r2)
 100243c:	e0bffe17 	ldw	r2,-8(fp)
 1002440:	10802817 	ldw	r2,160(r2)
 1002444:	1085883a 	add	r2,r2,r2
 1002448:	1085883a 	add	r2,r2,r2
 100244c:	1887883a 	add	r3,r3,r2
 1002450:	e0bfff17 	ldw	r2,-4(fp)
 1002454:	1085883a 	add	r2,r2,r2
 1002458:	1085883a 	add	r2,r2,r2
 100245c:	1885883a 	add	r2,r3,r2
 1002460:	10bffe04 	addi	r2,r2,-8
 1002464:	10800017 	ldw	r2,0(r2)
 1002468:	e0bffd15 	stw	r2,-12(fp)
 100246c:	e0bffe17 	ldw	r2,-8(fp)
 1002470:	10c02217 	ldw	r3,136(r2)
 1002474:	e0bffe17 	ldw	r2,-8(fp)
 1002478:	10802817 	ldw	r2,160(r2)
 100247c:	1085883a 	add	r2,r2,r2
 1002480:	1085883a 	add	r2,r2,r2
 1002484:	1887883a 	add	r3,r3,r2
 1002488:	e0bfff17 	ldw	r2,-4(fp)
 100248c:	1085883a 	add	r2,r2,r2
 1002490:	1085883a 	add	r2,r2,r2
 1002494:	1885883a 	add	r2,r3,r2
 1002498:	10bffe04 	addi	r2,r2,-8
 100249c:	10800017 	ldw	r2,0(r2)
 10024a0:	e0bffc15 	stw	r2,-16(fp)
 10024a4:	e0bffe17 	ldw	r2,-8(fp)
 10024a8:	10c02317 	ldw	r3,140(r2)
 10024ac:	e0bffe17 	ldw	r2,-8(fp)
 10024b0:	10802817 	ldw	r2,160(r2)
 10024b4:	1085883a 	add	r2,r2,r2
 10024b8:	1085883a 	add	r2,r2,r2
 10024bc:	1887883a 	add	r3,r3,r2
 10024c0:	e0bfff17 	ldw	r2,-4(fp)
 10024c4:	1085883a 	add	r2,r2,r2
 10024c8:	1085883a 	add	r2,r2,r2
 10024cc:	1885883a 	add	r2,r3,r2
 10024d0:	10bffe04 	addi	r2,r2,-8
 10024d4:	10800017 	ldw	r2,0(r2)
 10024d8:	e0bffb15 	stw	r2,-20(fp)
 10024dc:	e0bffe17 	ldw	r2,-8(fp)
 10024e0:	10801517 	ldw	r2,84(r2)
 10024e4:	1007883a 	mov	r3,r2
 10024e8:	e0bfff17 	ldw	r2,-4(fp)
 10024ec:	1004913a 	slli	r2,r2,4
 10024f0:	1885883a 	add	r2,r3,r2
 10024f4:	10801004 	addi	r2,r2,64
 10024f8:	1007883a 	mov	r3,r2
 10024fc:	e0bffa17 	ldw	r2,-24(fp)
 1002500:	18800035 	stwio	r2,0(r3)
 1002504:	e0bffe17 	ldw	r2,-8(fp)
 1002508:	10801517 	ldw	r2,84(r2)
 100250c:	1007883a 	mov	r3,r2
 1002510:	e0bfff17 	ldw	r2,-4(fp)
 1002514:	1004913a 	slli	r2,r2,4
 1002518:	1885883a 	add	r2,r3,r2
 100251c:	10801104 	addi	r2,r2,68
 1002520:	1007883a 	mov	r3,r2
 1002524:	e0bffd17 	ldw	r2,-12(fp)
 1002528:	18800035 	stwio	r2,0(r3)
 100252c:	e13fff17 	ldw	r4,-4(fp)
 1002530:	e0bffc17 	ldw	r2,-16(fp)
 1002534:	109fffac 	andhi	r2,r2,32766
 1002538:	1005d47a 	srai	r2,r2,17
 100253c:	100b883a 	mov	r5,r2
 1002540:	e0fffe17 	ldw	r3,-8(fp)
 1002544:	2105883a 	add	r2,r4,r4
 1002548:	1085883a 	add	r2,r2,r2
 100254c:	10c5883a 	add	r2,r2,r3
 1002550:	1080a104 	addi	r2,r2,644
 1002554:	11400015 	stw	r5,0(r2)
 1002558:	e13fff17 	ldw	r4,-4(fp)
 100255c:	e0fffc17 	ldw	r3,-16(fp)
 1002560:	008000b4 	movhi	r2,2
 1002564:	10bfffc4 	addi	r2,r2,-1
 1002568:	188a703a 	and	r5,r3,r2
 100256c:	e0fffe17 	ldw	r3,-8(fp)
 1002570:	2105883a 	add	r2,r4,r4
 1002574:	1085883a 	add	r2,r2,r2
 1002578:	10c5883a 	add	r2,r2,r3
 100257c:	1080c104 	addi	r2,r2,772
 1002580:	11400015 	stw	r5,0(r2)
 1002584:	e0bffe17 	ldw	r2,-8(fp)
 1002588:	10801517 	ldw	r2,84(r2)
 100258c:	1007883a 	mov	r3,r2
 1002590:	e0bfff17 	ldw	r2,-4(fp)
 1002594:	1004913a 	slli	r2,r2,4
 1002598:	1885883a 	add	r2,r3,r2
 100259c:	10801204 	addi	r2,r2,72
 10025a0:	1007883a 	mov	r3,r2
 10025a4:	e0bffc17 	ldw	r2,-16(fp)
 10025a8:	18800035 	stwio	r2,0(r3)
 10025ac:	e13fff17 	ldw	r4,-4(fp)
 10025b0:	e0bffb17 	ldw	r2,-20(fp)
 10025b4:	109fffac 	andhi	r2,r2,32766
 10025b8:	1005d47a 	srai	r2,r2,17
 10025bc:	100b883a 	mov	r5,r2
 10025c0:	e0fffe17 	ldw	r3,-8(fp)
 10025c4:	2105883a 	add	r2,r4,r4
 10025c8:	1085883a 	add	r2,r2,r2
 10025cc:	10c5883a 	add	r2,r2,r3
 10025d0:	1080b104 	addi	r2,r2,708
 10025d4:	11400015 	stw	r5,0(r2)
 10025d8:	e13fff17 	ldw	r4,-4(fp)
 10025dc:	e0fffb17 	ldw	r3,-20(fp)
 10025e0:	008000b4 	movhi	r2,2
 10025e4:	10bfffc4 	addi	r2,r2,-1
 10025e8:	188a703a 	and	r5,r3,r2
 10025ec:	e0fffe17 	ldw	r3,-8(fp)
 10025f0:	2105883a 	add	r2,r4,r4
 10025f4:	1085883a 	add	r2,r2,r2
 10025f8:	10c5883a 	add	r2,r2,r3
 10025fc:	1080d104 	addi	r2,r2,836
 1002600:	11400015 	stw	r5,0(r2)
 1002604:	e0bffe17 	ldw	r2,-8(fp)
 1002608:	10801517 	ldw	r2,84(r2)
 100260c:	1007883a 	mov	r3,r2
 1002610:	e0bfff17 	ldw	r2,-4(fp)
 1002614:	1004913a 	slli	r2,r2,4
 1002618:	1885883a 	add	r2,r3,r2
 100261c:	10801304 	addi	r2,r2,76
 1002620:	1007883a 	mov	r3,r2
 1002624:	e0bffb17 	ldw	r2,-20(fp)
 1002628:	18800035 	stwio	r2,0(r3)
 100262c:	e13fff17 	ldw	r4,-4(fp)
 1002630:	e0bfff17 	ldw	r2,-4(fp)
 1002634:	1085883a 	add	r2,r2,r2
 1002638:	1085883a 	add	r2,r2,r2
 100263c:	10800484 	addi	r2,r2,18
 1002640:	1007883a 	mov	r3,r2
 1002644:	e0bffe17 	ldw	r2,-8(fp)
 1002648:	2085883a 	add	r2,r4,r2
 100264c:	1080e104 	addi	r2,r2,900
 1002650:	10c00005 	stb	r3,0(r2)
 1002654:	e13fff17 	ldw	r4,-4(fp)
 1002658:	e0bfff17 	ldw	r2,-4(fp)
 100265c:	1085883a 	add	r2,r2,r2
 1002660:	1085883a 	add	r2,r2,r2
 1002664:	108004c4 	addi	r2,r2,19
 1002668:	1007883a 	mov	r3,r2
 100266c:	e0bffe17 	ldw	r2,-8(fp)
 1002670:	2085883a 	add	r2,r4,r2
 1002674:	1080e504 	addi	r2,r2,916
 1002678:	10c00005 	stb	r3,0(r2)
 100267c:	e13fff17 	ldw	r4,-4(fp)
 1002680:	e0bfff17 	ldw	r2,-4(fp)
 1002684:	e0fffe17 	ldw	r3,-8(fp)
 1002688:	1085883a 	add	r2,r2,r2
 100268c:	1085883a 	add	r2,r2,r2
 1002690:	10c5883a 	add	r2,r2,r3
 1002694:	1080a104 	addi	r2,r2,644
 1002698:	11400017 	ldw	r5,0(r2)
 100269c:	e0fffe17 	ldw	r3,-8(fp)
 10026a0:	2105883a 	add	r2,r4,r4
 10026a4:	1085883a 	add	r2,r2,r2
 10026a8:	10c5883a 	add	r2,r2,r3
 10026ac:	10809104 	addi	r2,r2,580
 10026b0:	11400015 	stw	r5,0(r2)
 10026b4:	e0bfff17 	ldw	r2,-4(fp)
 10026b8:	e0fffe17 	ldw	r3,-8(fp)
 10026bc:	1085883a 	add	r2,r2,r2
 10026c0:	1085883a 	add	r2,r2,r2
 10026c4:	10c5883a 	add	r2,r2,r3
 10026c8:	10c05104 	addi	r3,r2,324
 10026cc:	0085c034 	movhi	r2,5888
 10026d0:	18800015 	stw	r2,0(r3)
 10026d4:	e037883a 	mov	sp,fp
 10026d8:	df000017 	ldw	fp,0(sp)
 10026dc:	dec00104 	addi	sp,sp,4
 10026e0:	f800283a 	ret

010026e4 <USB_DisableEP>:
 10026e4:	defffc04 	addi	sp,sp,-16
 10026e8:	df000315 	stw	fp,12(sp)
 10026ec:	df000304 	addi	fp,sp,12
 10026f0:	e13ffe15 	stw	r4,-8(fp)
 10026f4:	e17fff15 	stw	r5,-4(fp)
 10026f8:	e0bffe17 	ldw	r2,-8(fp)
 10026fc:	10c01a17 	ldw	r3,104(r2)
 1002700:	e0bffe17 	ldw	r2,-8(fp)
 1002704:	10802817 	ldw	r2,160(r2)
 1002708:	1085883a 	add	r2,r2,r2
 100270c:	1085883a 	add	r2,r2,r2
 1002710:	1885883a 	add	r2,r3,r2
 1002714:	10bfff04 	addi	r2,r2,-4
 1002718:	10800017 	ldw	r2,0(r2)
 100271c:	e0bffd15 	stw	r2,-12(fp)
 1002720:	e0bffd17 	ldw	r2,-12(fp)
 1002724:	10ffffcc 	andi	r3,r2,65535
 1002728:	e0bfff17 	ldw	r2,-4(fp)
 100272c:	10bfffc4 	addi	r2,r2,-1
 1002730:	1885d83a 	sra	r2,r3,r2
 1002734:	1080004c 	andi	r2,r2,1
 1002738:	10803fcc 	andi	r2,r2,255
 100273c:	1005003a 	cmpeq	r2,r2,zero
 1002740:	10001e1e 	bne	r2,zero,10027bc <USB_DisableEP+0xd8>
 1002744:	e0bffe17 	ldw	r2,-8(fp)
 1002748:	10801517 	ldw	r2,84(r2)
 100274c:	1007883a 	mov	r3,r2
 1002750:	e0bfff17 	ldw	r2,-4(fp)
 1002754:	1004913a 	slli	r2,r2,4
 1002758:	1885883a 	add	r2,r3,r2
 100275c:	10801004 	addi	r2,r2,64
 1002760:	1007883a 	mov	r3,r2
 1002764:	00802034 	movhi	r2,128
 1002768:	18800035 	stwio	r2,0(r3)
 100276c:	e0bffe17 	ldw	r2,-8(fp)
 1002770:	10801517 	ldw	r2,84(r2)
 1002774:	1007883a 	mov	r3,r2
 1002778:	e0bfff17 	ldw	r2,-4(fp)
 100277c:	1004913a 	slli	r2,r2,4
 1002780:	1885883a 	add	r2,r3,r2
 1002784:	10801204 	addi	r2,r2,72
 1002788:	1007883a 	mov	r3,r2
 100278c:	00bfffc4 	movi	r2,-1
 1002790:	18800035 	stwio	r2,0(r3)
 1002794:	e0bffe17 	ldw	r2,-8(fp)
 1002798:	10801517 	ldw	r2,84(r2)
 100279c:	1007883a 	mov	r3,r2
 10027a0:	e0bfff17 	ldw	r2,-4(fp)
 10027a4:	1004913a 	slli	r2,r2,4
 10027a8:	1885883a 	add	r2,r3,r2
 10027ac:	10801304 	addi	r2,r2,76
 10027b0:	1007883a 	mov	r3,r2
 10027b4:	00bfffc4 	movi	r2,-1
 10027b8:	18800035 	stwio	r2,0(r3)
 10027bc:	e0bffd17 	ldw	r2,-12(fp)
 10027c0:	1007d3fa 	srai	r3,r2,15
 10027c4:	e0bfff17 	ldw	r2,-4(fp)
 10027c8:	1885d83a 	sra	r2,r3,r2
 10027cc:	1080004c 	andi	r2,r2,1
 10027d0:	10803fcc 	andi	r2,r2,255
 10027d4:	1005003a 	cmpeq	r2,r2,zero
 10027d8:	10001e1e 	bne	r2,zero,1002854 <USB_DisableEP+0x170>
 10027dc:	e0bffe17 	ldw	r2,-8(fp)
 10027e0:	10801517 	ldw	r2,84(r2)
 10027e4:	1007883a 	mov	r3,r2
 10027e8:	e0bfff17 	ldw	r2,-4(fp)
 10027ec:	1004913a 	slli	r2,r2,4
 10027f0:	1885883a 	add	r2,r3,r2
 10027f4:	10801004 	addi	r2,r2,64
 10027f8:	1007883a 	mov	r3,r2
 10027fc:	00802034 	movhi	r2,128
 1002800:	18800035 	stwio	r2,0(r3)
 1002804:	e0bffe17 	ldw	r2,-8(fp)
 1002808:	10801517 	ldw	r2,84(r2)
 100280c:	1007883a 	mov	r3,r2
 1002810:	e0bfff17 	ldw	r2,-4(fp)
 1002814:	1004913a 	slli	r2,r2,4
 1002818:	1885883a 	add	r2,r3,r2
 100281c:	10801204 	addi	r2,r2,72
 1002820:	1007883a 	mov	r3,r2
 1002824:	00bfffc4 	movi	r2,-1
 1002828:	18800035 	stwio	r2,0(r3)
 100282c:	e0bffe17 	ldw	r2,-8(fp)
 1002830:	10801517 	ldw	r2,84(r2)
 1002834:	1007883a 	mov	r3,r2
 1002838:	e0bfff17 	ldw	r2,-4(fp)
 100283c:	1004913a 	slli	r2,r2,4
 1002840:	1885883a 	add	r2,r3,r2
 1002844:	10801304 	addi	r2,r2,76
 1002848:	1007883a 	mov	r3,r2
 100284c:	00bfffc4 	movi	r2,-1
 1002850:	18800035 	stwio	r2,0(r3)
 1002854:	e037883a 	mov	sp,fp
 1002858:	df000017 	ldw	fp,0(sp)
 100285c:	dec00104 	addi	sp,sp,4
 1002860:	f800283a 	ret

01002864 <usb20sr_connect>:
 1002864:	defffe04 	addi	sp,sp,-8
 1002868:	df000115 	stw	fp,4(sp)
 100286c:	df000104 	addi	fp,sp,4
 1002870:	e13fff15 	stw	r4,-4(fp)
 1002874:	e0bfff17 	ldw	r2,-4(fp)
 1002878:	10c1b304 	addi	r3,r2,1740
 100287c:	e0bfff17 	ldw	r2,-4(fp)
 1002880:	10c03f15 	stw	r3,252(r2)
 1002884:	e0bfff17 	ldw	r2,-4(fp)
 1002888:	10c1b504 	addi	r3,r2,1748
 100288c:	e0bfff17 	ldw	r2,-4(fp)
 1002890:	10c04015 	stw	r3,256(r2)
 1002894:	e0bfff17 	ldw	r2,-4(fp)
 1002898:	10c04017 	ldw	r3,256(r2)
 100289c:	00800104 	movi	r2,4
 10028a0:	18800215 	stw	r2,8(r3)
 10028a4:	e0bfff17 	ldw	r2,-4(fp)
 10028a8:	10801517 	ldw	r2,84(r2)
 10028ac:	10807f04 	addi	r2,r2,508
 10028b0:	1007883a 	mov	r3,r2
 10028b4:	00800044 	movi	r2,1
 10028b8:	18800025 	stbio	r2,0(r3)
 10028bc:	e037883a 	mov	sp,fp
 10028c0:	df000017 	ldw	fp,0(sp)
 10028c4:	dec00104 	addi	sp,sp,4
 10028c8:	f800283a 	ret

010028cc <usb20sr_disconnect>:
 10028cc:	defffe04 	addi	sp,sp,-8
 10028d0:	df000115 	stw	fp,4(sp)
 10028d4:	df000104 	addi	fp,sp,4
 10028d8:	e13fff15 	stw	r4,-4(fp)
 10028dc:	e0bfff17 	ldw	r2,-4(fp)
 10028e0:	10801517 	ldw	r2,84(r2)
 10028e4:	10807f04 	addi	r2,r2,508
 10028e8:	10000025 	stbio	zero,0(r2)
 10028ec:	e0ffff17 	ldw	r3,-4(fp)
 10028f0:	00800044 	movi	r2,1
 10028f4:	18800e15 	stw	r2,56(r3)
 10028f8:	e037883a 	mov	sp,fp
 10028fc:	df000017 	ldw	fp,0(sp)
 1002900:	dec00104 	addi	sp,sp,4
 1002904:	f800283a 	ret

01002908 <sls_avalon_usb20_irq>:
 1002908:	deffc604 	addi	sp,sp,-232
 100290c:	dfc03915 	stw	ra,228(sp)
 1002910:	df003815 	stw	fp,224(sp)
 1002914:	df003804 	addi	fp,sp,224
 1002918:	e13ff215 	stw	r4,-56(fp)
 100291c:	e0bff217 	ldw	r2,-56(fp)
 1002920:	e0bfd515 	stw	r2,-172(fp)
 1002924:	e03fd645 	stb	zero,-167(fp)
 1002928:	e03fd715 	stw	zero,-164(fp)
 100292c:	e03fdb15 	stw	zero,-148(fp)
 1002930:	e03fdc15 	stw	zero,-144(fp)
 1002934:	e03fe115 	stw	zero,-124(fp)
 1002938:	e03fe215 	stw	zero,-120(fp)
 100293c:	e03fe315 	stw	zero,-116(fp)
 1002940:	e03fe415 	stw	zero,-112(fp)
 1002944:	e0bfd517 	ldw	r2,-172(fp)
 1002948:	10803217 	ldw	r2,200(r2)
 100294c:	e0bfe515 	stw	r2,-108(fp)
 1002950:	e03fd30d 	sth	zero,-180(fp)
 1002954:	e03fd28d 	sth	zero,-182(fp)
 1002958:	e03fd20d 	sth	zero,-184(fp)
 100295c:	e03fd115 	stw	zero,-188(fp)
 1002960:	e0bfd517 	ldw	r2,-172(fp)
 1002964:	10800043 	ldbu	r2,1(r2)
 1002968:	10803fcc 	andi	r2,r2,255
 100296c:	e0bfe915 	stw	r2,-92(fp)
 1002970:	e0bfd517 	ldw	r2,-172(fp)
 1002974:	10801517 	ldw	r2,84(r2)
 1002978:	e0bfea15 	stw	r2,-88(fp)
 100297c:	e0bfd517 	ldw	r2,-172(fp)
 1002980:	10803f17 	ldw	r2,252(r2)
 1002984:	e0bfd015 	stw	r2,-192(fp)
 1002988:	e0bfd517 	ldw	r2,-172(fp)
 100298c:	10804017 	ldw	r2,256(r2)
 1002990:	e0bfcf15 	stw	r2,-196(fp)
 1002994:	e0bfea17 	ldw	r2,-88(fp)
 1002998:	10800304 	addi	r2,r2,12
 100299c:	10800037 	ldwio	r2,0(r2)
 10029a0:	e0bfe115 	stw	r2,-124(fp)
 10029a4:	e0bfe117 	ldw	r2,-124(fp)
 10029a8:	1084002c 	andhi	r2,r2,4096
 10029ac:	1005003a 	cmpeq	r2,r2,zero
 10029b0:	10004f1e 	bne	r2,zero,1002af0 <sls_avalon_usb20_irq+0x1e8>
 10029b4:	e0bfd517 	ldw	r2,-172(fp)
 10029b8:	10803317 	ldw	r2,204(r2)
 10029bc:	1004c03a 	cmpne	r2,r2,zero
 10029c0:	1000031e 	bne	r2,zero,10029d0 <sls_avalon_usb20_irq+0xc8>
 10029c4:	e0ffd517 	ldw	r3,-172(fp)
 10029c8:	00800044 	movi	r2,1
 10029cc:	18803315 	stw	r2,204(r3)
 10029d0:	e0bfd517 	ldw	r2,-172(fp)
 10029d4:	10003215 	stw	zero,200(r2)
 10029d8:	e0ffcf17 	ldw	r3,-196(fp)
 10029dc:	00800084 	movi	r2,2
 10029e0:	18800215 	stw	r2,8(r3)
 10029e4:	e0bfd517 	ldw	r2,-172(fp)
 10029e8:	10000005 	stb	zero,0(r2)
 10029ec:	e0bfd517 	ldw	r2,-172(fp)
 10029f0:	10002815 	stw	zero,160(r2)
 10029f4:	e0bfd517 	ldw	r2,-172(fp)
 10029f8:	10002915 	stw	zero,164(r2)
 10029fc:	e0bfd517 	ldw	r2,-172(fp)
 1002a00:	10002c15 	stw	zero,176(r2)
 1002a04:	e0bfd517 	ldw	r2,-172(fp)
 1002a08:	10002d15 	stw	zero,180(r2)
 1002a0c:	e0ffd517 	ldw	r3,-172(fp)
 1002a10:	00800044 	movi	r2,1
 1002a14:	18800f15 	stw	r2,60(r3)
 1002a18:	e0bfd517 	ldw	r2,-172(fp)
 1002a1c:	10000e15 	stw	zero,56(r2)
 1002a20:	e0bfd517 	ldw	r2,-172(fp)
 1002a24:	10003415 	stw	zero,208(r2)
 1002a28:	e0bfcf17 	ldw	r2,-196(fp)
 1002a2c:	10000415 	stw	zero,16(r2)
 1002a30:	e0bfd517 	ldw	r2,-172(fp)
 1002a34:	1001bc45 	stb	zero,1777(r2)
 1002a38:	e0bfd517 	ldw	r2,-172(fp)
 1002a3c:	1001bc05 	stb	zero,1776(r2)
 1002a40:	e0bfd517 	ldw	r2,-172(fp)
 1002a44:	10803817 	ldw	r2,224(r2)
 1002a48:	1005003a 	cmpeq	r2,r2,zero
 1002a4c:	1000041e 	bne	r2,zero,1002a60 <sls_avalon_usb20_irq+0x158>
 1002a50:	e0bfd517 	ldw	r2,-172(fp)
 1002a54:	10803817 	ldw	r2,224(r2)
 1002a58:	e13fd517 	ldw	r4,-172(fp)
 1002a5c:	103ee83a 	callr	r2
 1002a60:	e03fd715 	stw	zero,-164(fp)
 1002a64:	00001106 	br	1002aac <sls_avalon_usb20_irq+0x1a4>
 1002a68:	e0bfd717 	ldw	r2,-164(fp)
 1002a6c:	e0ffd517 	ldw	r3,-172(fp)
 1002a70:	1085883a 	add	r2,r2,r2
 1002a74:	1085883a 	add	r2,r2,r2
 1002a78:	10c5883a 	add	r2,r2,r3
 1002a7c:	1080e904 	addi	r2,r2,932
 1002a80:	10000015 	stw	zero,0(r2)
 1002a84:	e0bfd717 	ldw	r2,-164(fp)
 1002a88:	e0ffd517 	ldw	r3,-172(fp)
 1002a8c:	1085883a 	add	r2,r2,r2
 1002a90:	1085883a 	add	r2,r2,r2
 1002a94:	10c5883a 	add	r2,r2,r3
 1002a98:	1081a204 	addi	r2,r2,1672
 1002a9c:	10000015 	stw	zero,0(r2)
 1002aa0:	e0bfd717 	ldw	r2,-164(fp)
 1002aa4:	10800044 	addi	r2,r2,1
 1002aa8:	e0bfd715 	stw	r2,-164(fp)
 1002aac:	e0bfd717 	ldw	r2,-164(fp)
 1002ab0:	108003f0 	cmpltui	r2,r2,15
 1002ab4:	103fec1e 	bne	r2,zero,1002a68 <__alt_data_end+0xfffe1b10>
 1002ab8:	e0bfea17 	ldw	r2,-88(fp)
 1002abc:	11001004 	addi	r4,r2,64
 1002ac0:	e0bfe917 	ldw	r2,-92(fp)
 1002ac4:	10c0c0f4 	orhi	r3,r2,771
 1002ac8:	2005883a 	mov	r2,r4
 1002acc:	10c00035 	stwio	r3,0(r2)
 1002ad0:	e0bfea17 	ldw	r2,-88(fp)
 1002ad4:	10801104 	addi	r2,r2,68
 1002ad8:	1007883a 	mov	r3,r2
 1002adc:	008fc034 	movhi	r2,16128
 1002ae0:	18800035 	stwio	r2,0(r3)
 1002ae4:	e0ffd517 	ldw	r3,-172(fp)
 1002ae8:	00800084 	movi	r2,2
 1002aec:	18800c15 	stw	r2,48(r3)
 1002af0:	e0bfe117 	ldw	r2,-124(fp)
 1002af4:	1088002c 	andhi	r2,r2,8192
 1002af8:	1005003a 	cmpeq	r2,r2,zero
 1002afc:	1000691e 	bne	r2,zero,1002ca4 <sls_avalon_usb20_irq+0x39c>
 1002b00:	e0ffcf17 	ldw	r3,-196(fp)
 1002b04:	00800084 	movi	r2,2
 1002b08:	18800215 	stw	r2,8(r3)
 1002b0c:	e03fd715 	stw	zero,-164(fp)
 1002b10:	00001106 	br	1002b58 <sls_avalon_usb20_irq+0x250>
 1002b14:	e0bfd717 	ldw	r2,-164(fp)
 1002b18:	e0ffd517 	ldw	r3,-172(fp)
 1002b1c:	1085883a 	add	r2,r2,r2
 1002b20:	1085883a 	add	r2,r2,r2
 1002b24:	10c5883a 	add	r2,r2,r3
 1002b28:	1080e904 	addi	r2,r2,932
 1002b2c:	10000015 	stw	zero,0(r2)
 1002b30:	e0bfd717 	ldw	r2,-164(fp)
 1002b34:	e0ffd517 	ldw	r3,-172(fp)
 1002b38:	1085883a 	add	r2,r2,r2
 1002b3c:	1085883a 	add	r2,r2,r2
 1002b40:	10c5883a 	add	r2,r2,r3
 1002b44:	1081a204 	addi	r2,r2,1672
 1002b48:	10000015 	stw	zero,0(r2)
 1002b4c:	e0bfd717 	ldw	r2,-164(fp)
 1002b50:	10800044 	addi	r2,r2,1
 1002b54:	e0bfd715 	stw	r2,-164(fp)
 1002b58:	e0bfd717 	ldw	r2,-164(fp)
 1002b5c:	10800430 	cmpltui	r2,r2,16
 1002b60:	103fec1e 	bne	r2,zero,1002b14 <__alt_data_end+0xfffe1bbc>
 1002b64:	e0bfea17 	ldw	r2,-88(fp)
 1002b68:	10800404 	addi	r2,r2,16
 1002b6c:	10800037 	ldwio	r2,0(r2)
 1002b70:	1080008c 	andi	r2,r2,2
 1002b74:	1005003a 	cmpeq	r2,r2,zero
 1002b78:	1000271e 	bne	r2,zero,1002c18 <sls_avalon_usb20_irq+0x310>
 1002b7c:	e0bfd517 	ldw	r2,-172(fp)
 1002b80:	10800317 	ldw	r2,12(r2)
 1002b84:	10800084 	addi	r2,r2,2
 1002b88:	10000005 	stb	zero,0(r2)
 1002b8c:	e0bfd517 	ldw	r2,-172(fp)
 1002b90:	10800317 	ldw	r2,12(r2)
 1002b94:	10c000c4 	addi	r3,r2,3
 1002b98:	00800084 	movi	r2,2
 1002b9c:	18800005 	stb	r2,0(r3)
 1002ba0:	d0a00117 	ldw	r2,-32764(gp)
 1002ba4:	10bfffe0 	cmpeqi	r2,r2,-1
 1002ba8:	1000031e 	bne	r2,zero,1002bb8 <sls_avalon_usb20_irq+0x2b0>
 1002bac:	d0a00117 	ldw	r2,-32764(gp)
 1002bb0:	1004c03a 	cmpne	r2,r2,zero
 1002bb4:	1000051e 	bne	r2,zero,1002bcc <sls_avalon_usb20_irq+0x2c4>
 1002bb8:	00800044 	movi	r2,1
 1002bbc:	d0a00115 	stw	r2,-32764(gp)
 1002bc0:	e0ffd517 	ldw	r3,-172(fp)
 1002bc4:	00800044 	movi	r2,1
 1002bc8:	18800e15 	stw	r2,56(r3)
 1002bcc:	e0ffd517 	ldw	r3,-172(fp)
 1002bd0:	00800044 	movi	r2,1
 1002bd4:	18800c15 	stw	r2,48(r3)
 1002bd8:	e0bfd517 	ldw	r2,-172(fp)
 1002bdc:	1001bc45 	stb	zero,1777(r2)
 1002be0:	e0bfea17 	ldw	r2,-88(fp)
 1002be4:	11001004 	addi	r4,r2,64
 1002be8:	e0ffe917 	ldw	r3,-92(fp)
 1002bec:	0080c0f4 	movhi	r2,771
 1002bf0:	10820004 	addi	r2,r2,2048
 1002bf4:	1886b03a 	or	r3,r3,r2
 1002bf8:	2005883a 	mov	r2,r4
 1002bfc:	10c00035 	stwio	r3,0(r2)
 1002c00:	e0bfea17 	ldw	r2,-88(fp)
 1002c04:	10801104 	addi	r2,r2,68
 1002c08:	1007883a 	mov	r3,r2
 1002c0c:	008fc034 	movhi	r2,16128
 1002c10:	18800035 	stwio	r2,0(r3)
 1002c14:	00002306 	br	1002ca4 <sls_avalon_usb20_irq+0x39c>
 1002c18:	e0bfd517 	ldw	r2,-172(fp)
 1002c1c:	10800317 	ldw	r2,12(r2)
 1002c20:	10c00084 	addi	r3,r2,2
 1002c24:	00800404 	movi	r2,16
 1002c28:	18800005 	stb	r2,0(r3)
 1002c2c:	e0bfd517 	ldw	r2,-172(fp)
 1002c30:	10800317 	ldw	r2,12(r2)
 1002c34:	10c000c4 	addi	r3,r2,3
 1002c38:	00800044 	movi	r2,1
 1002c3c:	18800005 	stb	r2,0(r3)
 1002c40:	d0a00117 	ldw	r2,-32764(gp)
 1002c44:	10bfffe0 	cmpeqi	r2,r2,-1
 1002c48:	1000031e 	bne	r2,zero,1002c58 <sls_avalon_usb20_irq+0x350>
 1002c4c:	d0a00117 	ldw	r2,-32764(gp)
 1002c50:	10800058 	cmpnei	r2,r2,1
 1002c54:	1000041e 	bne	r2,zero,1002c68 <sls_avalon_usb20_irq+0x360>
 1002c58:	d0200115 	stw	zero,-32764(gp)
 1002c5c:	e0ffd517 	ldw	r3,-172(fp)
 1002c60:	00800044 	movi	r2,1
 1002c64:	18800e15 	stw	r2,56(r3)
 1002c68:	e0bfd517 	ldw	r2,-172(fp)
 1002c6c:	10000c15 	stw	zero,48(r2)
 1002c70:	e0bfd517 	ldw	r2,-172(fp)
 1002c74:	1001bc45 	stb	zero,1777(r2)
 1002c78:	e0bfea17 	ldw	r2,-88(fp)
 1002c7c:	11001004 	addi	r4,r2,64
 1002c80:	e0bfe917 	ldw	r2,-92(fp)
 1002c84:	10c0c0f4 	orhi	r3,r2,771
 1002c88:	2005883a 	mov	r2,r4
 1002c8c:	10c00035 	stwio	r3,0(r2)
 1002c90:	e0bfea17 	ldw	r2,-88(fp)
 1002c94:	10801104 	addi	r2,r2,68
 1002c98:	1007883a 	mov	r3,r2
 1002c9c:	008fc034 	movhi	r2,16128
 1002ca0:	18800035 	stwio	r2,0(r3)
 1002ca4:	e0bfe117 	ldw	r2,-124(fp)
 1002ca8:	1080004c 	andi	r2,r2,1
 1002cac:	10803fcc 	andi	r2,r2,255
 1002cb0:	1005003a 	cmpeq	r2,r2,zero
 1002cb4:	1001fe1e 	bne	r2,zero,10034b0 <sls_avalon_usb20_irq+0xba8>
 1002cb8:	e0bfea17 	ldw	r2,-88(fp)
 1002cbc:	10801104 	addi	r2,r2,68
 1002cc0:	10800037 	ldwio	r2,0(r2)
 1002cc4:	e0bfdc15 	stw	r2,-144(fp)
 1002cc8:	e0bfdc17 	ldw	r2,-144(fp)
 1002ccc:	1080040c 	andi	r2,r2,16
 1002cd0:	1005003a 	cmpeq	r2,r2,zero
 1002cd4:	1000b61e 	bne	r2,zero,1002fb0 <sls_avalon_usb20_irq+0x6a8>
 1002cd8:	e0bfe517 	ldw	r2,-108(fp)
 1002cdc:	1005003a 	cmpeq	r2,r2,zero
 1002ce0:	1000221e 	bne	r2,zero,1002d6c <sls_avalon_usb20_irq+0x464>
 1002ce4:	e0bfe517 	ldw	r2,-108(fp)
 1002ce8:	10800058 	cmpnei	r2,r2,1
 1002cec:	1000051e 	bne	r2,zero,1002d04 <sls_avalon_usb20_irq+0x3fc>
 1002cf0:	e0bfea17 	ldw	r2,-88(fp)
 1002cf4:	10800804 	addi	r2,r2,32
 1002cf8:	1007883a 	mov	r3,r2
 1002cfc:	00800444 	movi	r2,17
 1002d00:	18800025 	stbio	r2,0(r3)
 1002d04:	e0bfe517 	ldw	r2,-108(fp)
 1002d08:	10800098 	cmpnei	r2,r2,2
 1002d0c:	1000051e 	bne	r2,zero,1002d24 <sls_avalon_usb20_irq+0x41c>
 1002d10:	e0bfea17 	ldw	r2,-88(fp)
 1002d14:	10800804 	addi	r2,r2,32
 1002d18:	1007883a 	mov	r3,r2
 1002d1c:	00800484 	movi	r2,18
 1002d20:	18800025 	stbio	r2,0(r3)
 1002d24:	e0bfe517 	ldw	r2,-108(fp)
 1002d28:	10800118 	cmpnei	r2,r2,4
 1002d2c:	1000051e 	bne	r2,zero,1002d44 <sls_avalon_usb20_irq+0x43c>
 1002d30:	e0bfea17 	ldw	r2,-88(fp)
 1002d34:	10800804 	addi	r2,r2,32
 1002d38:	1007883a 	mov	r3,r2
 1002d3c:	00800504 	movi	r2,20
 1002d40:	18800025 	stbio	r2,0(r3)
 1002d44:	e0bfe517 	ldw	r2,-108(fp)
 1002d48:	10800218 	cmpnei	r2,r2,8
 1002d4c:	1000051e 	bne	r2,zero,1002d64 <sls_avalon_usb20_irq+0x45c>
 1002d50:	e0bfea17 	ldw	r2,-88(fp)
 1002d54:	10800804 	addi	r2,r2,32
 1002d58:	1007883a 	mov	r3,r2
 1002d5c:	00800604 	movi	r2,24
 1002d60:	18800025 	stbio	r2,0(r3)
 1002d64:	e0bfd517 	ldw	r2,-172(fp)
 1002d68:	10003215 	stw	zero,200(r2)
 1002d6c:	e0bfcf17 	ldw	r2,-196(fp)
 1002d70:	10800617 	ldw	r2,24(r2)
 1002d74:	10c00183 	ldbu	r3,6(r2)
 1002d78:	108001c3 	ldbu	r2,7(r2)
 1002d7c:	1004923a 	slli	r2,r2,8
 1002d80:	10c4b03a 	or	r2,r2,r3
 1002d84:	10bfffcc 	andi	r2,r2,65535
 1002d88:	1004c03a 	cmpne	r2,r2,zero
 1002d8c:	1000071e 	bne	r2,zero,1002dac <sls_avalon_usb20_irq+0x4a4>
 1002d90:	e0bfcf17 	ldw	r2,-196(fp)
 1002d94:	10800217 	ldw	r2,8(r2)
 1002d98:	1004c03a 	cmpne	r2,r2,zero
 1002d9c:	1000031e 	bne	r2,zero,1002dac <sls_avalon_usb20_irq+0x4a4>
 1002da0:	e0ffcf17 	ldw	r3,-196(fp)
 1002da4:	00800084 	movi	r2,2
 1002da8:	18800215 	stw	r2,8(r3)
 1002dac:	e0bfcf17 	ldw	r2,-196(fp)
 1002db0:	10800617 	ldw	r2,24(r2)
 1002db4:	10c00183 	ldbu	r3,6(r2)
 1002db8:	108001c3 	ldbu	r2,7(r2)
 1002dbc:	1004923a 	slli	r2,r2,8
 1002dc0:	10c4b03a 	or	r2,r2,r3
 1002dc4:	10bfffcc 	andi	r2,r2,65535
 1002dc8:	1005003a 	cmpeq	r2,r2,zero
 1002dcc:	1000681e 	bne	r2,zero,1002f70 <sls_avalon_usb20_irq+0x668>
 1002dd0:	e0bfcf17 	ldw	r2,-196(fp)
 1002dd4:	10800217 	ldw	r2,8(r2)
 1002dd8:	1004c03a 	cmpne	r2,r2,zero
 1002ddc:	1000641e 	bne	r2,zero,1002f70 <sls_avalon_usb20_irq+0x668>
 1002de0:	e03fdf15 	stw	zero,-132(fp)
 1002de4:	e0bfd517 	ldw	r2,-172(fp)
 1002de8:	10803417 	ldw	r2,208(r2)
 1002dec:	e0bfd915 	stw	r2,-156(fp)
 1002df0:	e0bfcf17 	ldw	r2,-196(fp)
 1002df4:	10c00417 	ldw	r3,16(r2)
 1002df8:	e0bfd917 	ldw	r2,-156(fp)
 1002dfc:	10c03f2e 	bgeu	r2,r3,1002efc <sls_avalon_usb20_irq+0x5f4>
 1002e00:	e0bfcf17 	ldw	r2,-196(fp)
 1002e04:	10c00417 	ldw	r3,16(r2)
 1002e08:	e0bfd917 	ldw	r2,-156(fp)
 1002e0c:	1885c83a 	sub	r2,r3,r2
 1002e10:	e0bfdf15 	stw	r2,-132(fp)
 1002e14:	e0bfe917 	ldw	r2,-92(fp)
 1002e18:	1007883a 	mov	r3,r2
 1002e1c:	e0bfdf17 	ldw	r2,-132(fp)
 1002e20:	1880022e 	bgeu	r3,r2,1002e2c <sls_avalon_usb20_irq+0x524>
 1002e24:	e0bfe917 	ldw	r2,-92(fp)
 1002e28:	e0bfdf15 	stw	r2,-132(fp)
 1002e2c:	e03fe015 	stw	zero,-128(fp)
 1002e30:	00001606 	br	1002e8c <sls_avalon_usb20_irq+0x584>
 1002e34:	e0bfea17 	ldw	r2,-88(fp)
 1002e38:	1007883a 	mov	r3,r2
 1002e3c:	e0bfe017 	ldw	r2,-128(fp)
 1002e40:	1887883a 	add	r3,r3,r2
 1002e44:	008000b4 	movhi	r2,2
 1002e48:	1889883a 	add	r4,r3,r2
 1002e4c:	e0bfcf17 	ldw	r2,-196(fp)
 1002e50:	10800117 	ldw	r2,4(r2)
 1002e54:	1007883a 	mov	r3,r2
 1002e58:	e0bfe017 	ldw	r2,-128(fp)
 1002e5c:	1887883a 	add	r3,r3,r2
 1002e60:	e0bfd917 	ldw	r2,-156(fp)
 1002e64:	1885883a 	add	r2,r3,r2
 1002e68:	10800003 	ldbu	r2,0(r2)
 1002e6c:	10c03fcc 	andi	r3,r2,255
 1002e70:	18c0201c 	xori	r3,r3,128
 1002e74:	18ffe004 	addi	r3,r3,-128
 1002e78:	2005883a 	mov	r2,r4
 1002e7c:	10c00025 	stbio	r3,0(r2)
 1002e80:	e0bfe017 	ldw	r2,-128(fp)
 1002e84:	10800044 	addi	r2,r2,1
 1002e88:	e0bfe015 	stw	r2,-128(fp)
 1002e8c:	e0ffe017 	ldw	r3,-128(fp)
 1002e90:	e0bfdf17 	ldw	r2,-132(fp)
 1002e94:	18bfe736 	bltu	r3,r2,1002e34 <__alt_data_end+0xfffe1edc>
 1002e98:	e0bfea17 	ldw	r2,-88(fp)
 1002e9c:	11001304 	addi	r4,r2,76
 1002ea0:	e0bfdf17 	ldw	r2,-132(fp)
 1002ea4:	1004947a 	slli	r2,r2,17
 1002ea8:	1007883a 	mov	r3,r2
 1002eac:	2005883a 	mov	r2,r4
 1002eb0:	10c00035 	stwio	r3,0(r2)
 1002eb4:	e0bfd517 	ldw	r2,-172(fp)
 1002eb8:	10c03417 	ldw	r3,208(r2)
 1002ebc:	e0bfdf17 	ldw	r2,-132(fp)
 1002ec0:	1887883a 	add	r3,r3,r2
 1002ec4:	e0bfd517 	ldw	r2,-172(fp)
 1002ec8:	10c03415 	stw	r3,208(r2)
 1002ecc:	e0bfd517 	ldw	r2,-172(fp)
 1002ed0:	1081bc43 	ldbu	r2,1777(r2)
 1002ed4:	10803fcc 	andi	r2,r2,255
 1002ed8:	1004c03a 	cmpne	r2,r2,zero
 1002edc:	1001741e 	bne	r2,zero,10034b0 <sls_avalon_usb20_irq+0xba8>
 1002ee0:	e0bfea17 	ldw	r2,-88(fp)
 1002ee4:	11001204 	addi	r4,r2,72
 1002ee8:	e0bfe917 	ldw	r2,-92(fp)
 1002eec:	1006947a 	slli	r3,r2,17
 1002ef0:	2005883a 	mov	r2,r4
 1002ef4:	10c00035 	stwio	r3,0(r2)
 1002ef8:	00016d06 	br	10034b0 <sls_avalon_usb20_irq+0xba8>
 1002efc:	e0bfd517 	ldw	r2,-172(fp)
 1002f00:	10c03417 	ldw	r3,208(r2)
 1002f04:	e0bfcf17 	ldw	r2,-196(fp)
 1002f08:	10800417 	ldw	r2,16(r2)
 1002f0c:	18802836 	bltu	r3,r2,1002fb0 <sls_avalon_usb20_irq+0x6a8>
 1002f10:	e0bfcf17 	ldw	r2,-196(fp)
 1002f14:	11000417 	ldw	r4,16(r2)
 1002f18:	e0bfe917 	ldw	r2,-92(fp)
 1002f1c:	100b883a 	mov	r5,r2
 1002f20:	10079380 	call	1007938 <__umodsi3>
 1002f24:	1004c03a 	cmpne	r2,r2,zero
 1002f28:	1000031e 	bne	r2,zero,1002f38 <sls_avalon_usb20_irq+0x630>
 1002f2c:	e0bfea17 	ldw	r2,-88(fp)
 1002f30:	10801304 	addi	r2,r2,76
 1002f34:	10000035 	stwio	zero,0(r2)
 1002f38:	e0bfea17 	ldw	r2,-88(fp)
 1002f3c:	11001204 	addi	r4,r2,72
 1002f40:	e0bfe917 	ldw	r2,-92(fp)
 1002f44:	1006947a 	slli	r3,r2,17
 1002f48:	2005883a 	mov	r2,r4
 1002f4c:	10c00035 	stwio	r3,0(r2)
 1002f50:	e0ffcf17 	ldw	r3,-196(fp)
 1002f54:	00800044 	movi	r2,1
 1002f58:	18800215 	stw	r2,8(r3)
 1002f5c:	e0bfd517 	ldw	r2,-172(fp)
 1002f60:	10003415 	stw	zero,208(r2)
 1002f64:	e0bfcf17 	ldw	r2,-196(fp)
 1002f68:	10000415 	stw	zero,16(r2)
 1002f6c:	00001006 	br	1002fb0 <sls_avalon_usb20_irq+0x6a8>
 1002f70:	e0bfcf17 	ldw	r2,-196(fp)
 1002f74:	10800617 	ldw	r2,24(r2)
 1002f78:	10c00183 	ldbu	r3,6(r2)
 1002f7c:	108001c3 	ldbu	r2,7(r2)
 1002f80:	1004923a 	slli	r2,r2,8
 1002f84:	10c4b03a 	or	r2,r2,r3
 1002f88:	10bfffcc 	andi	r2,r2,65535
 1002f8c:	1005003a 	cmpeq	r2,r2,zero
 1002f90:	1000071e 	bne	r2,zero,1002fb0 <sls_avalon_usb20_irq+0x6a8>
 1002f94:	e0bfcf17 	ldw	r2,-196(fp)
 1002f98:	10800217 	ldw	r2,8(r2)
 1002f9c:	10800058 	cmpnei	r2,r2,1
 1002fa0:	1000031e 	bne	r2,zero,1002fb0 <sls_avalon_usb20_irq+0x6a8>
 1002fa4:	e0ffcf17 	ldw	r3,-196(fp)
 1002fa8:	00800084 	movi	r2,2
 1002fac:	18800215 	stw	r2,8(r3)
 1002fb0:	e0bfdc17 	ldw	r2,-144(fp)
 1002fb4:	1080020c 	andi	r2,r2,8
 1002fb8:	1005003a 	cmpeq	r2,r2,zero
 1002fbc:	10012d1e 	bne	r2,zero,1003474 <sls_avalon_usb20_irq+0xb6c>
 1002fc0:	e0bfcf17 	ldw	r2,-196(fp)
 1002fc4:	10800617 	ldw	r2,24(r2)
 1002fc8:	10c00183 	ldbu	r3,6(r2)
 1002fcc:	108001c3 	ldbu	r2,7(r2)
 1002fd0:	1004923a 	slli	r2,r2,8
 1002fd4:	10c4b03a 	or	r2,r2,r3
 1002fd8:	10bfffcc 	andi	r2,r2,65535
 1002fdc:	1005003a 	cmpeq	r2,r2,zero
 1002fe0:	1000a71e 	bne	r2,zero,1003280 <sls_avalon_usb20_irq+0x978>
 1002fe4:	e0bfcf17 	ldw	r2,-196(fp)
 1002fe8:	10800617 	ldw	r2,24(r2)
 1002fec:	10c00003 	ldbu	r3,0(r2)
 1002ff0:	00bfe004 	movi	r2,-128
 1002ff4:	1884703a 	and	r2,r3,r2
 1002ff8:	10803fcc 	andi	r2,r2,255
 1002ffc:	1004c03a 	cmpne	r2,r2,zero
 1003000:	10009f1e 	bne	r2,zero,1003280 <sls_avalon_usb20_irq+0x978>
 1003004:	e0bfcf17 	ldw	r2,-196(fp)
 1003008:	10800217 	ldw	r2,8(r2)
 100300c:	1004c03a 	cmpne	r2,r2,zero
 1003010:	10009b1e 	bne	r2,zero,1003280 <sls_avalon_usb20_irq+0x978>
 1003014:	e0bfea17 	ldw	r2,-88(fp)
 1003018:	10801204 	addi	r2,r2,72
 100301c:	10800037 	ldwio	r2,0(r2)
 1003020:	e0bfeb15 	stw	r2,-84(fp)
 1003024:	e0ffe917 	ldw	r3,-92(fp)
 1003028:	e0bfeb17 	ldw	r2,-84(fp)
 100302c:	109fffac 	andhi	r2,r2,32766
 1003030:	1005d47a 	srai	r2,r2,17
 1003034:	1885c83a 	sub	r2,r3,r2
 1003038:	e0bfda15 	stw	r2,-152(fp)
 100303c:	e0bfcf17 	ldw	r2,-196(fp)
 1003040:	11000417 	ldw	r4,16(r2)
 1003044:	e0bfcf17 	ldw	r2,-196(fp)
 1003048:	10800617 	ldw	r2,24(r2)
 100304c:	10c00183 	ldbu	r3,6(r2)
 1003050:	108001c3 	ldbu	r2,7(r2)
 1003054:	1004923a 	slli	r2,r2,8
 1003058:	10c4b03a 	or	r2,r2,r3
 100305c:	10bfffcc 	andi	r2,r2,65535
 1003060:	2080352e 	bgeu	r4,r2,1003138 <sls_avalon_usb20_irq+0x830>
 1003064:	e0bfcf17 	ldw	r2,-196(fp)
 1003068:	10800417 	ldw	r2,16(r2)
 100306c:	e0bfdf15 	stw	r2,-132(fp)
 1003070:	e03fd715 	stw	zero,-164(fp)
 1003074:	00001606 	br	10030d0 <sls_avalon_usb20_irq+0x7c8>
 1003078:	e0bfcf17 	ldw	r2,-196(fp)
 100307c:	10800117 	ldw	r2,4(r2)
 1003080:	1009883a 	mov	r4,r2
 1003084:	e0ffd717 	ldw	r3,-164(fp)
 1003088:	e0bfdf17 	ldw	r2,-132(fp)
 100308c:	1885883a 	add	r2,r3,r2
 1003090:	2089883a 	add	r4,r4,r2
 1003094:	e0bfea17 	ldw	r2,-88(fp)
 1003098:	1007883a 	mov	r3,r2
 100309c:	e0bfd717 	ldw	r2,-164(fp)
 10030a0:	1887883a 	add	r3,r3,r2
 10030a4:	008000b4 	movhi	r2,2
 10030a8:	1885883a 	add	r2,r3,r2
 10030ac:	10800003 	ldbu	r2,0(r2)
 10030b0:	10c03fcc 	andi	r3,r2,255
 10030b4:	18c0201c 	xori	r3,r3,128
 10030b8:	18ffe004 	addi	r3,r3,-128
 10030bc:	2005883a 	mov	r2,r4
 10030c0:	10c00025 	stbio	r3,0(r2)
 10030c4:	e0bfd717 	ldw	r2,-164(fp)
 10030c8:	10800044 	addi	r2,r2,1
 10030cc:	e0bfd715 	stw	r2,-164(fp)
 10030d0:	e0ffd717 	ldw	r3,-164(fp)
 10030d4:	e0bfda17 	ldw	r2,-152(fp)
 10030d8:	18bfe736 	bltu	r3,r2,1003078 <__alt_data_end+0xfffe2120>
 10030dc:	e0bfcf17 	ldw	r2,-196(fp)
 10030e0:	10c00417 	ldw	r3,16(r2)
 10030e4:	e0bfda17 	ldw	r2,-152(fp)
 10030e8:	1887883a 	add	r3,r3,r2
 10030ec:	e0bfcf17 	ldw	r2,-196(fp)
 10030f0:	10c00415 	stw	r3,16(r2)
 10030f4:	e0bfcf17 	ldw	r2,-196(fp)
 10030f8:	11000417 	ldw	r4,16(r2)
 10030fc:	e0bfcf17 	ldw	r2,-196(fp)
 1003100:	10800617 	ldw	r2,24(r2)
 1003104:	10c00183 	ldbu	r3,6(r2)
 1003108:	108001c3 	ldbu	r2,7(r2)
 100310c:	1004923a 	slli	r2,r2,8
 1003110:	10c4b03a 	or	r2,r2,r3
 1003114:	10bfffcc 	andi	r2,r2,65535
 1003118:	2080072e 	bgeu	r4,r2,1003138 <sls_avalon_usb20_irq+0x830>
 100311c:	e0bfea17 	ldw	r2,-88(fp)
 1003120:	11001204 	addi	r4,r2,72
 1003124:	e0bfe917 	ldw	r2,-92(fp)
 1003128:	1006947a 	slli	r3,r2,17
 100312c:	2005883a 	mov	r2,r4
 1003130:	10c00035 	stwio	r3,0(r2)
 1003134:	0000de06 	br	10034b0 <sls_avalon_usb20_irq+0xba8>
 1003138:	e0ffcf17 	ldw	r3,-196(fp)
 100313c:	00800044 	movi	r2,1
 1003140:	18800215 	stw	r2,8(r3)
 1003144:	e0bfcf17 	ldw	r2,-196(fp)
 1003148:	10000015 	stw	zero,0(r2)
 100314c:	e0bfcf17 	ldw	r2,-196(fp)
 1003150:	10000515 	stw	zero,20(r2)
 1003154:	e0bfd517 	ldw	r2,-172(fp)
 1003158:	10803d17 	ldw	r2,244(r2)
 100315c:	1005003a 	cmpeq	r2,r2,zero
 1003160:	10000f1e 	bne	r2,zero,10031a0 <sls_avalon_usb20_irq+0x898>
 1003164:	e0bfd517 	ldw	r2,-172(fp)
 1003168:	10803d17 	ldw	r2,244(r2)
 100316c:	e13fcf17 	ldw	r4,-196(fp)
 1003170:	e17fea17 	ldw	r5,-88(fp)
 1003174:	01800044 	movi	r6,1
 1003178:	103ee83a 	callr	r2
 100317c:	e0bfd517 	ldw	r2,-172(fp)
 1003180:	10003415 	stw	zero,208(r2)
 1003184:	e0bfcf17 	ldw	r2,-196(fp)
 1003188:	10000415 	stw	zero,16(r2)
 100318c:	e0bfcf17 	ldw	r2,-196(fp)
 1003190:	10800517 	ldw	r2,20(r2)
 1003194:	1005003a 	cmpeq	r2,r2,zero
 1003198:	10000c1e 	bne	r2,zero,10031cc <sls_avalon_usb20_irq+0x8c4>
 100319c:	00001506 	br	10031f4 <sls_avalon_usb20_irq+0x8ec>
 10031a0:	e13fd517 	ldw	r4,-172(fp)
 10031a4:	01402004 	movi	r5,128
 10031a8:	10019040 	call	1001904 <USB_SetStallEP>
 10031ac:	e0ffcf17 	ldw	r3,-196(fp)
 10031b0:	00800084 	movi	r2,2
 10031b4:	18800215 	stw	r2,8(r3)
 10031b8:	e0bfd517 	ldw	r2,-172(fp)
 10031bc:	10003415 	stw	zero,208(r2)
 10031c0:	e0bfcf17 	ldw	r2,-196(fp)
 10031c4:	10000415 	stw	zero,16(r2)
 10031c8:	0000b906 	br	10034b0 <sls_avalon_usb20_irq+0xba8>
 10031cc:	e0bfea17 	ldw	r2,-88(fp)
 10031d0:	11001204 	addi	r4,r2,72
 10031d4:	e0bfe917 	ldw	r2,-92(fp)
 10031d8:	1006947a 	slli	r3,r2,17
 10031dc:	2005883a 	mov	r2,r4
 10031e0:	10c00035 	stwio	r3,0(r2)
 10031e4:	e0bfea17 	ldw	r2,-88(fp)
 10031e8:	10801304 	addi	r2,r2,76
 10031ec:	10000035 	stwio	zero,0(r2)
 10031f0:	0000af06 	br	10034b0 <sls_avalon_usb20_irq+0xba8>
 10031f4:	e03fd715 	stw	zero,-164(fp)
 10031f8:	00001406 	br	100324c <sls_avalon_usb20_irq+0x944>
 10031fc:	e0bfcf17 	ldw	r2,-196(fp)
 1003200:	10800017 	ldw	r2,0(r2)
 1003204:	1007883a 	mov	r3,r2
 1003208:	e0bfd717 	ldw	r2,-164(fp)
 100320c:	1885883a 	add	r2,r3,r2
 1003210:	10800003 	ldbu	r2,0(r2)
 1003214:	e0bfd605 	stb	r2,-168(fp)
 1003218:	e0bfea17 	ldw	r2,-88(fp)
 100321c:	1007883a 	mov	r3,r2
 1003220:	e0bfd717 	ldw	r2,-164(fp)
 1003224:	1887883a 	add	r3,r3,r2
 1003228:	008000b4 	movhi	r2,2
 100322c:	1889883a 	add	r4,r3,r2
 1003230:	e0bfd603 	ldbu	r2,-168(fp)
 1003234:	10c03fcc 	andi	r3,r2,255
 1003238:	2005883a 	mov	r2,r4
 100323c:	10c00025 	stbio	r3,0(r2)
 1003240:	e0bfd717 	ldw	r2,-164(fp)
 1003244:	10800044 	addi	r2,r2,1
 1003248:	e0bfd715 	stw	r2,-164(fp)
 100324c:	e0bfcf17 	ldw	r2,-196(fp)
 1003250:	10c00517 	ldw	r3,20(r2)
 1003254:	e0bfd717 	ldw	r2,-164(fp)
 1003258:	10ffe836 	bltu	r2,r3,10031fc <__alt_data_end+0xfffe22a4>
 100325c:	e0bfea17 	ldw	r2,-88(fp)
 1003260:	11001304 	addi	r4,r2,76
 1003264:	e0bfcf17 	ldw	r2,-196(fp)
 1003268:	10800517 	ldw	r2,20(r2)
 100326c:	1004947a 	slli	r2,r2,17
 1003270:	1007883a 	mov	r3,r2
 1003274:	2005883a 	mov	r2,r4
 1003278:	10c00035 	stwio	r3,0(r2)
 100327c:	00008c06 	br	10034b0 <sls_avalon_usb20_irq+0xba8>
 1003280:	e0bfcf17 	ldw	r2,-196(fp)
 1003284:	10800617 	ldw	r2,24(r2)
 1003288:	10c00183 	ldbu	r3,6(r2)
 100328c:	108001c3 	ldbu	r2,7(r2)
 1003290:	1004923a 	slli	r2,r2,8
 1003294:	10c4b03a 	or	r2,r2,r3
 1003298:	10bfffcc 	andi	r2,r2,65535
 100329c:	1005003a 	cmpeq	r2,r2,zero
 10032a0:	10000a1e 	bne	r2,zero,10032cc <sls_avalon_usb20_irq+0x9c4>
 10032a4:	e0bfcf17 	ldw	r2,-196(fp)
 10032a8:	10800217 	ldw	r2,8(r2)
 10032ac:	10800058 	cmpnei	r2,r2,1
 10032b0:	1000061e 	bne	r2,zero,10032cc <sls_avalon_usb20_irq+0x9c4>
 10032b4:	e0bfcf17 	ldw	r2,-196(fp)
 10032b8:	10000515 	stw	zero,20(r2)
 10032bc:	e0ffcf17 	ldw	r3,-196(fp)
 10032c0:	00800084 	movi	r2,2
 10032c4:	18800215 	stw	r2,8(r3)
 10032c8:	00006a06 	br	1003474 <sls_avalon_usb20_irq+0xb6c>
 10032cc:	e0bfcf17 	ldw	r2,-196(fp)
 10032d0:	10800617 	ldw	r2,24(r2)
 10032d4:	10c00183 	ldbu	r3,6(r2)
 10032d8:	108001c3 	ldbu	r2,7(r2)
 10032dc:	1004923a 	slli	r2,r2,8
 10032e0:	10c4b03a 	or	r2,r2,r3
 10032e4:	10bfffcc 	andi	r2,r2,65535
 10032e8:	1004c03a 	cmpne	r2,r2,zero
 10032ec:	1000611e 	bne	r2,zero,1003474 <sls_avalon_usb20_irq+0xb6c>
 10032f0:	e0bfcf17 	ldw	r2,-196(fp)
 10032f4:	10800617 	ldw	r2,24(r2)
 10032f8:	10c00003 	ldbu	r3,0(r2)
 10032fc:	00bfe004 	movi	r2,-128
 1003300:	1884703a 	and	r2,r3,r2
 1003304:	10803fcc 	andi	r2,r2,255
 1003308:	1004c03a 	cmpne	r2,r2,zero
 100330c:	1000591e 	bne	r2,zero,1003474 <sls_avalon_usb20_irq+0xb6c>
 1003310:	e0bfcf17 	ldw	r2,-196(fp)
 1003314:	10800217 	ldw	r2,8(r2)
 1003318:	1004c03a 	cmpne	r2,r2,zero
 100331c:	1000551e 	bne	r2,zero,1003474 <sls_avalon_usb20_irq+0xb6c>
 1003320:	e0bfcf17 	ldw	r2,-196(fp)
 1003324:	10c00417 	ldw	r3,16(r2)
 1003328:	e0bfe917 	ldw	r2,-92(fp)
 100332c:	10bfffc4 	addi	r2,r2,-1
 1003330:	1884703a 	and	r2,r3,r2
 1003334:	1004c03a 	cmpne	r2,r2,zero
 1003338:	10004e1e 	bne	r2,zero,1003474 <sls_avalon_usb20_irq+0xb6c>
 100333c:	e0ffcf17 	ldw	r3,-196(fp)
 1003340:	00800044 	movi	r2,1
 1003344:	18800215 	stw	r2,8(r3)
 1003348:	e0bfcf17 	ldw	r2,-196(fp)
 100334c:	10000515 	stw	zero,20(r2)
 1003350:	e0bfcf17 	ldw	r2,-196(fp)
 1003354:	10000015 	stw	zero,0(r2)
 1003358:	e0bfd517 	ldw	r2,-172(fp)
 100335c:	10803d17 	ldw	r2,244(r2)
 1003360:	1005003a 	cmpeq	r2,r2,zero
 1003364:	10000f1e 	bne	r2,zero,10033a4 <sls_avalon_usb20_irq+0xa9c>
 1003368:	e0bfd517 	ldw	r2,-172(fp)
 100336c:	10803d17 	ldw	r2,244(r2)
 1003370:	e13fcf17 	ldw	r4,-196(fp)
 1003374:	e17fea17 	ldw	r5,-88(fp)
 1003378:	01800044 	movi	r6,1
 100337c:	103ee83a 	callr	r2
 1003380:	e0bfd517 	ldw	r2,-172(fp)
 1003384:	10003415 	stw	zero,208(r2)
 1003388:	e0bfcf17 	ldw	r2,-196(fp)
 100338c:	10000415 	stw	zero,16(r2)
 1003390:	e0bfcf17 	ldw	r2,-196(fp)
 1003394:	10800517 	ldw	r2,20(r2)
 1003398:	1005003a 	cmpeq	r2,r2,zero
 100339c:	10000c1e 	bne	r2,zero,10033d0 <sls_avalon_usb20_irq+0xac8>
 10033a0:	00000f06 	br	10033e0 <sls_avalon_usb20_irq+0xad8>
 10033a4:	e13fd517 	ldw	r4,-172(fp)
 10033a8:	01402004 	movi	r5,128
 10033ac:	10019040 	call	1001904 <USB_SetStallEP>
 10033b0:	e0ffcf17 	ldw	r3,-196(fp)
 10033b4:	00800084 	movi	r2,2
 10033b8:	18800215 	stw	r2,8(r3)
 10033bc:	e0bfd517 	ldw	r2,-172(fp)
 10033c0:	10003415 	stw	zero,208(r2)
 10033c4:	e0bfcf17 	ldw	r2,-196(fp)
 10033c8:	10000415 	stw	zero,16(r2)
 10033cc:	00003806 	br	10034b0 <sls_avalon_usb20_irq+0xba8>
 10033d0:	e0bfea17 	ldw	r2,-88(fp)
 10033d4:	10801304 	addi	r2,r2,76
 10033d8:	10000035 	stwio	zero,0(r2)
 10033dc:	00003406 	br	10034b0 <sls_avalon_usb20_irq+0xba8>
 10033e0:	e03fd715 	stw	zero,-164(fp)
 10033e4:	00001406 	br	1003438 <sls_avalon_usb20_irq+0xb30>
 10033e8:	e0bfcf17 	ldw	r2,-196(fp)
 10033ec:	10800017 	ldw	r2,0(r2)
 10033f0:	1007883a 	mov	r3,r2
 10033f4:	e0bfd717 	ldw	r2,-164(fp)
 10033f8:	1885883a 	add	r2,r3,r2
 10033fc:	10800003 	ldbu	r2,0(r2)
 1003400:	e0bfd605 	stb	r2,-168(fp)
 1003404:	e0bfea17 	ldw	r2,-88(fp)
 1003408:	1007883a 	mov	r3,r2
 100340c:	e0bfd717 	ldw	r2,-164(fp)
 1003410:	1887883a 	add	r3,r3,r2
 1003414:	008000b4 	movhi	r2,2
 1003418:	1889883a 	add	r4,r3,r2
 100341c:	e0bfd603 	ldbu	r2,-168(fp)
 1003420:	10c03fcc 	andi	r3,r2,255
 1003424:	2005883a 	mov	r2,r4
 1003428:	10c00025 	stbio	r3,0(r2)
 100342c:	e0bfd717 	ldw	r2,-164(fp)
 1003430:	10800044 	addi	r2,r2,1
 1003434:	e0bfd715 	stw	r2,-164(fp)
 1003438:	e0bfcf17 	ldw	r2,-196(fp)
 100343c:	10c00517 	ldw	r3,20(r2)
 1003440:	e0bfd717 	ldw	r2,-164(fp)
 1003444:	10ffe836 	bltu	r2,r3,10033e8 <__alt_data_end+0xfffe2490>
 1003448:	e0bfea17 	ldw	r2,-88(fp)
 100344c:	11001304 	addi	r4,r2,76
 1003450:	e0bfcf17 	ldw	r2,-196(fp)
 1003454:	10800517 	ldw	r2,20(r2)
 1003458:	1004947a 	slli	r2,r2,17
 100345c:	1007883a 	mov	r3,r2
 1003460:	2005883a 	mov	r2,r4
 1003464:	10c00035 	stwio	r3,0(r2)
 1003468:	e0bfcf17 	ldw	r2,-196(fp)
 100346c:	10000515 	stw	zero,20(r2)
 1003470:	00000f06 	br	10034b0 <sls_avalon_usb20_irq+0xba8>
 1003474:	e0bfdc17 	ldw	r2,-144(fp)
 1003478:	108009cc 	andi	r2,r2,39
 100347c:	1005003a 	cmpeq	r2,r2,zero
 1003480:	10000b1e 	bne	r2,zero,10034b0 <sls_avalon_usb20_irq+0xba8>
 1003484:	e0bfd517 	ldw	r2,-172(fp)
 1003488:	10803c17 	ldw	r2,240(r2)
 100348c:	1005003a 	cmpeq	r2,r2,zero
 1003490:	1000071e 	bne	r2,zero,10034b0 <sls_avalon_usb20_irq+0xba8>
 1003494:	e0bfd517 	ldw	r2,-172(fp)
 1003498:	10c03c17 	ldw	r3,240(r2)
 100349c:	e0bfdc17 	ldw	r2,-144(fp)
 10034a0:	108029cc 	andi	r2,r2,167
 10034a4:	10b00034 	orhi	r2,r2,49152
 10034a8:	1009883a 	mov	r4,r2
 10034ac:	183ee83a 	callr	r3
 10034b0:	e0bfdc17 	ldw	r2,-144(fp)
 10034b4:	1080100c 	andi	r2,r2,64
 10034b8:	1005003a 	cmpeq	r2,r2,zero
 10034bc:	10088d1e 	bne	r2,zero,10056f4 <sls_avalon_usb20_irq+0x2dec>
 10034c0:	e0bfea17 	ldw	r2,-88(fp)
 10034c4:	10800c04 	addi	r2,r2,48
 10034c8:	10800037 	ldwio	r2,0(r2)
 10034cc:	e0bfdc15 	stw	r2,-144(fp)
 10034d0:	e0bfdc17 	ldw	r2,-144(fp)
 10034d4:	1080200c 	andi	r2,r2,128
 10034d8:	1004d1fa 	srli	r2,r2,7
 10034dc:	e0bfe615 	stw	r2,-104(fp)
 10034e0:	e0bfdc17 	ldw	r2,-144(fp)
 10034e4:	1080180c 	andi	r2,r2,96
 10034e8:	1004d17a 	srli	r2,r2,5
 10034ec:	e0bfe715 	stw	r2,-100(fp)
 10034f0:	e0bfdc17 	ldw	r2,-144(fp)
 10034f4:	108007cc 	andi	r2,r2,31
 10034f8:	e0bfe815 	stw	r2,-96(fp)
 10034fc:	e0bfdc17 	ldw	r2,-144(fp)
 1003500:	10bfc00c 	andi	r2,r2,65280
 1003504:	1004d23a 	srli	r2,r2,8
 1003508:	e0bfd115 	stw	r2,-188(fp)
 100350c:	e0bfdc17 	ldw	r2,-144(fp)
 1003510:	10bfffec 	andhi	r2,r2,65535
 1003514:	1004d43a 	srli	r2,r2,16
 1003518:	e0bfd30d 	sth	r2,-180(fp)
 100351c:	e0bfea17 	ldw	r2,-88(fp)
 1003520:	10800d04 	addi	r2,r2,52
 1003524:	10800037 	ldwio	r2,0(r2)
 1003528:	e0bfdc15 	stw	r2,-144(fp)
 100352c:	e0bfdc17 	ldw	r2,-144(fp)
 1003530:	e0bfd28d 	sth	r2,-182(fp)
 1003534:	e0bfdc17 	ldw	r2,-144(fp)
 1003538:	10bfffec 	andhi	r2,r2,65535
 100353c:	1004d43a 	srli	r2,r2,16
 1003540:	e0bfd20d 	sth	r2,-184(fp)
 1003544:	e0bfe817 	ldw	r2,-96(fp)
 1003548:	108007cc 	andi	r2,r2,31
 100354c:	e17fd017 	ldw	r5,-192(fp)
 1003550:	110007cc 	andi	r4,r2,31
 1003554:	28c00003 	ldbu	r3,0(r5)
 1003558:	00bff804 	movi	r2,-32
 100355c:	1884703a 	and	r2,r3,r2
 1003560:	1007883a 	mov	r3,r2
 1003564:	2005883a 	mov	r2,r4
 1003568:	1884b03a 	or	r2,r3,r2
 100356c:	28800005 	stb	r2,0(r5)
 1003570:	e0bfe717 	ldw	r2,-100(fp)
 1003574:	108000cc 	andi	r2,r2,3
 1003578:	e17fd017 	ldw	r5,-192(fp)
 100357c:	108000cc 	andi	r2,r2,3
 1003580:	1008917a 	slli	r4,r2,5
 1003584:	28c00003 	ldbu	r3,0(r5)
 1003588:	00bfe7c4 	movi	r2,-97
 100358c:	1884703a 	and	r2,r3,r2
 1003590:	1007883a 	mov	r3,r2
 1003594:	2005883a 	mov	r2,r4
 1003598:	1884b03a 	or	r2,r3,r2
 100359c:	28800005 	stb	r2,0(r5)
 10035a0:	e0bfe617 	ldw	r2,-104(fp)
 10035a4:	1080004c 	andi	r2,r2,1
 10035a8:	e17fd017 	ldw	r5,-192(fp)
 10035ac:	100891fa 	slli	r4,r2,7
 10035b0:	28800003 	ldbu	r2,0(r5)
 10035b4:	10801fcc 	andi	r2,r2,127
 10035b8:	1007883a 	mov	r3,r2
 10035bc:	2005883a 	mov	r2,r4
 10035c0:	1884b03a 	or	r2,r3,r2
 10035c4:	28800005 	stb	r2,0(r5)
 10035c8:	e0bfd117 	ldw	r2,-188(fp)
 10035cc:	1007883a 	mov	r3,r2
 10035d0:	e0bfd017 	ldw	r2,-192(fp)
 10035d4:	10c00045 	stb	r3,1(r2)
 10035d8:	e13fd017 	ldw	r4,-192(fp)
 10035dc:	e0bfd317 	ldw	r2,-180(fp)
 10035e0:	11403fcc 	andi	r5,r2,255
 10035e4:	20800103 	ldbu	r2,4(r4)
 10035e8:	1004703a 	and	r2,r2,zero
 10035ec:	1007883a 	mov	r3,r2
 10035f0:	2805883a 	mov	r2,r5
 10035f4:	1884b03a 	or	r2,r3,r2
 10035f8:	20800105 	stb	r2,4(r4)
 10035fc:	e0bfd317 	ldw	r2,-180(fp)
 1003600:	1004d23a 	srli	r2,r2,8
 1003604:	11403fcc 	andi	r5,r2,255
 1003608:	20800143 	ldbu	r2,5(r4)
 100360c:	1004703a 	and	r2,r2,zero
 1003610:	1007883a 	mov	r3,r2
 1003614:	2805883a 	mov	r2,r5
 1003618:	1884b03a 	or	r2,r3,r2
 100361c:	20800145 	stb	r2,5(r4)
 1003620:	e13fd017 	ldw	r4,-192(fp)
 1003624:	e0bfd28b 	ldhu	r2,-182(fp)
 1003628:	11403fcc 	andi	r5,r2,255
 100362c:	20800083 	ldbu	r2,2(r4)
 1003630:	1004703a 	and	r2,r2,zero
 1003634:	1007883a 	mov	r3,r2
 1003638:	2805883a 	mov	r2,r5
 100363c:	1884b03a 	or	r2,r3,r2
 1003640:	20800085 	stb	r2,2(r4)
 1003644:	e0bfd28b 	ldhu	r2,-182(fp)
 1003648:	1004d23a 	srli	r2,r2,8
 100364c:	117fffcc 	andi	r5,r2,65535
 1003650:	208000c3 	ldbu	r2,3(r4)
 1003654:	1004703a 	and	r2,r2,zero
 1003658:	1007883a 	mov	r3,r2
 100365c:	2805883a 	mov	r2,r5
 1003660:	1884b03a 	or	r2,r3,r2
 1003664:	208000c5 	stb	r2,3(r4)
 1003668:	e13fd017 	ldw	r4,-192(fp)
 100366c:	e0bfd217 	ldw	r2,-184(fp)
 1003670:	11403fcc 	andi	r5,r2,255
 1003674:	20800183 	ldbu	r2,6(r4)
 1003678:	1004703a 	and	r2,r2,zero
 100367c:	1007883a 	mov	r3,r2
 1003680:	2805883a 	mov	r2,r5
 1003684:	1884b03a 	or	r2,r3,r2
 1003688:	20800185 	stb	r2,6(r4)
 100368c:	e0bfd217 	ldw	r2,-184(fp)
 1003690:	1004d23a 	srli	r2,r2,8
 1003694:	11403fcc 	andi	r5,r2,255
 1003698:	208001c3 	ldbu	r2,7(r4)
 100369c:	1004703a 	and	r2,r2,zero
 10036a0:	1007883a 	mov	r3,r2
 10036a4:	2805883a 	mov	r2,r5
 10036a8:	1884b03a 	or	r2,r3,r2
 10036ac:	208001c5 	stb	r2,7(r4)
 10036b0:	e0ffd017 	ldw	r3,-192(fp)
 10036b4:	e0bfcf17 	ldw	r2,-196(fp)
 10036b8:	10c00615 	stw	r3,24(r2)
 10036bc:	e0bfcf17 	ldw	r2,-196(fp)
 10036c0:	10000215 	stw	zero,8(r2)
 10036c4:	e0bfcf17 	ldw	r2,-196(fp)
 10036c8:	10000515 	stw	zero,20(r2)
 10036cc:	e0bfcf17 	ldw	r2,-196(fp)
 10036d0:	10000415 	stw	zero,16(r2)
 10036d4:	e0ffd017 	ldw	r3,-192(fp)
 10036d8:	18800183 	ldbu	r2,6(r3)
 10036dc:	11003fcc 	andi	r4,r2,255
 10036e0:	188001c3 	ldbu	r2,7(r3)
 10036e4:	10803fcc 	andi	r2,r2,255
 10036e8:	1004923a 	slli	r2,r2,8
 10036ec:	1104b03a 	or	r2,r2,r4
 10036f0:	10bfffcc 	andi	r2,r2,65535
 10036f4:	1004c03a 	cmpne	r2,r2,zero
 10036f8:	1000041e 	bne	r2,zero,100370c <sls_avalon_usb20_irq+0xe04>
 10036fc:	e0ffcf17 	ldw	r3,-196(fp)
 1003700:	00800084 	movi	r2,2
 1003704:	18800315 	stw	r2,12(r3)
 1003708:	00001306 	br	1003758 <sls_avalon_usb20_irq+0xe50>
 100370c:	e0bfd017 	ldw	r2,-192(fp)
 1003710:	10c00003 	ldbu	r3,0(r2)
 1003714:	00bfe004 	movi	r2,-128
 1003718:	1884703a 	and	r2,r3,r2
 100371c:	10803fcc 	andi	r2,r2,255
 1003720:	1004c03a 	cmpne	r2,r2,zero
 1003724:	1000021e 	bne	r2,zero,1003730 <sls_avalon_usb20_irq+0xe28>
 1003728:	e0bfcf17 	ldw	r2,-196(fp)
 100372c:	10000315 	stw	zero,12(r2)
 1003730:	e0bfd017 	ldw	r2,-192(fp)
 1003734:	10c00003 	ldbu	r3,0(r2)
 1003738:	00bfe004 	movi	r2,-128
 100373c:	1884703a 	and	r2,r3,r2
 1003740:	10803fcc 	andi	r2,r2,255
 1003744:	1005003a 	cmpeq	r2,r2,zero
 1003748:	1000031e 	bne	r2,zero,1003758 <sls_avalon_usb20_irq+0xe50>
 100374c:	e0ffcf17 	ldw	r3,-196(fp)
 1003750:	00800044 	movi	r2,1
 1003754:	18800315 	stw	r2,12(r3)
 1003758:	e0bfd017 	ldw	r2,-192(fp)
 100375c:	10800003 	ldbu	r2,0(r2)
 1003760:	1080180c 	andi	r2,r2,96
 1003764:	10803fcc 	andi	r2,r2,255
 1003768:	1004c03a 	cmpne	r2,r2,zero
 100376c:	1007111e 	bne	r2,zero,10053b4 <sls_avalon_usb20_irq+0x2aac>
 1003770:	e0bfd117 	ldw	r2,-188(fp)
 1003774:	10800328 	cmpgeui	r2,r2,12
 1003778:	1008781e 	bne	r2,zero,100595c <sls_avalon_usb20_irq+0x3054>
 100377c:	e0bfd117 	ldw	r2,-188(fp)
 1003780:	1085883a 	add	r2,r2,r2
 1003784:	1087883a 	add	r3,r2,r2
 1003788:	00804034 	movhi	r2,256
 100378c:	108de704 	addi	r2,r2,14236
 1003790:	1885883a 	add	r2,r3,r2
 1003794:	10800017 	ldw	r2,0(r2)
 1003798:	1000683a 	jmp	r2
 100379c:	010037cc 	andi	r4,zero,223
 10037a0:	01004d40 	call	1004d4 <__reset-0xeffb2c>
 10037a4:	0100595c 	xori	r4,zero,357
 10037a8:	01004a68 	cmpgeui	r4,zero,297
 10037ac:	0100595c 	xori	r4,zero,357
 10037b0:	010043b8 	rdprs	r4,zero,270
 10037b4:	0100396c 	andhi	r4,zero,229
 10037b8:	0100595c 	xori	r4,zero,357
 10037bc:	01004990 	cmplti	r4,zero,294
 10037c0:	01004430 	cmpltui	r4,zero,272
 10037c4:	01005308 	cmpgei	r4,zero,332
 10037c8:	01004f50 	cmplti	r4,zero,317
 10037cc:	e0bfe817 	ldw	r2,-96(fp)
 10037d0:	e0bfff15 	stw	r2,-4(fp)
 10037d4:	e0ffff17 	ldw	r3,-4(fp)
 10037d8:	18800060 	cmpeqi	r2,r3,1
 10037dc:	1000171e 	bne	r2,zero,100383c <sls_avalon_usb20_irq+0xf34>
 10037e0:	e13fff17 	ldw	r4,-4(fp)
 10037e4:	208000a0 	cmpeqi	r2,r4,2
 10037e8:	10002f1e 	bne	r2,zero,10038a8 <sls_avalon_usb20_irq+0xfa0>
 10037ec:	e0ffff17 	ldw	r3,-4(fp)
 10037f0:	1805003a 	cmpeq	r2,r3,zero
 10037f4:	1000011e 	bne	r2,zero,10037fc <sls_avalon_usb20_irq+0xef4>
 10037f8:	00085806 	br	100595c <sls_avalon_usb20_irq+0x3054>
 10037fc:	e0bfea17 	ldw	r2,-88(fp)
 1003800:	1007883a 	mov	r3,r2
 1003804:	008000b4 	movhi	r2,2
 1003808:	1889883a 	add	r4,r3,r2
 100380c:	e0bfd517 	ldw	r2,-172(fp)
 1003810:	10802917 	ldw	r2,164(r2)
 1003814:	1007883a 	mov	r3,r2
 1003818:	2005883a 	mov	r2,r4
 100381c:	10c00035 	stwio	r3,0(r2)
 1003820:	e0bfea17 	ldw	r2,-88(fp)
 1003824:	11001304 	addi	r4,r2,76
 1003828:	e0bfd20b 	ldhu	r2,-184(fp)
 100382c:	1006947a 	slli	r3,r2,17
 1003830:	2005883a 	mov	r2,r4
 1003834:	10c00035 	stwio	r3,0(r2)
 1003838:	00084806 	br	100595c <sls_avalon_usb20_irq+0x3054>
 100383c:	e0bfd517 	ldw	r2,-172(fp)
 1003840:	10802817 	ldw	r2,160(r2)
 1003844:	1005003a 	cmpeq	r2,r2,zero
 1003848:	1000101e 	bne	r2,zero,100388c <sls_avalon_usb20_irq+0xf84>
 100384c:	e0bfd28b 	ldhu	r2,-182(fp)
 1003850:	e0ffd517 	ldw	r3,-172(fp)
 1003854:	18c02e17 	ldw	r3,184(r3)
 1003858:	10c00c2e 	bgeu	r2,r3,100388c <sls_avalon_usb20_irq+0xf84>
 100385c:	e0bfea17 	ldw	r2,-88(fp)
 1003860:	1007883a 	mov	r3,r2
 1003864:	008000b4 	movhi	r2,2
 1003868:	1885883a 	add	r2,r3,r2
 100386c:	10000035 	stwio	zero,0(r2)
 1003870:	e0bfea17 	ldw	r2,-88(fp)
 1003874:	11001304 	addi	r4,r2,76
 1003878:	e0bfd20b 	ldhu	r2,-184(fp)
 100387c:	1006947a 	slli	r3,r2,17
 1003880:	2005883a 	mov	r2,r4
 1003884:	10c00035 	stwio	r3,0(r2)
 1003888:	00083406 	br	100595c <sls_avalon_usb20_irq+0x3054>
 100388c:	e13fd517 	ldw	r4,-172(fp)
 1003890:	01402004 	movi	r5,128
 1003894:	10019040 	call	1001904 <USB_SetStallEP>
 1003898:	e0ffcf17 	ldw	r3,-196(fp)
 100389c:	00800084 	movi	r2,2
 10038a0:	18800215 	stw	r2,8(r3)
 10038a4:	00082d06 	br	100595c <sls_avalon_usb20_irq+0x3054>
 10038a8:	e0bfd28b 	ldhu	r2,-182(fp)
 10038ac:	108023cc 	andi	r2,r2,143
 10038b0:	e0bfd915 	stw	r2,-156(fp)
 10038b4:	e0bfd517 	ldw	r2,-172(fp)
 10038b8:	10802817 	ldw	r2,160(r2)
 10038bc:	1004c03a 	cmpne	r2,r2,zero
 10038c0:	1000041e 	bne	r2,zero,10038d4 <sls_avalon_usb20_irq+0xfcc>
 10038c4:	e0bfd917 	ldw	r2,-156(fp)
 10038c8:	108003cc 	andi	r2,r2,15
 10038cc:	1004c03a 	cmpne	r2,r2,zero
 10038d0:	10001f1e 	bne	r2,zero,1003950 <sls_avalon_usb20_irq+0x1048>
 10038d4:	e0bfd28b 	ldhu	r2,-182(fp)
 10038d8:	108003cc 	andi	r2,r2,15
 10038dc:	1004913a 	slli	r2,r2,4
 10038e0:	1007883a 	mov	r3,r2
 10038e4:	e0bfea17 	ldw	r2,-88(fp)
 10038e8:	1885883a 	add	r2,r3,r2
 10038ec:	10801004 	addi	r2,r2,64
 10038f0:	10800037 	ldwio	r2,0(r2)
 10038f4:	1080202c 	andhi	r2,r2,128
 10038f8:	1005003a 	cmpeq	r2,r2,zero
 10038fc:	1000081e 	bne	r2,zero,1003920 <sls_avalon_usb20_irq+0x1018>
 1003900:	e0bfea17 	ldw	r2,-88(fp)
 1003904:	1007883a 	mov	r3,r2
 1003908:	008000b4 	movhi	r2,2
 100390c:	1885883a 	add	r2,r3,r2
 1003910:	1007883a 	mov	r3,r2
 1003914:	00800044 	movi	r2,1
 1003918:	18800025 	stbio	r2,0(r3)
 100391c:	00000506 	br	1003934 <sls_avalon_usb20_irq+0x102c>
 1003920:	e0bfea17 	ldw	r2,-88(fp)
 1003924:	1007883a 	mov	r3,r2
 1003928:	008000b4 	movhi	r2,2
 100392c:	1885883a 	add	r2,r3,r2
 1003930:	10000025 	stbio	zero,0(r2)
 1003934:	e0bfea17 	ldw	r2,-88(fp)
 1003938:	11001304 	addi	r4,r2,76
 100393c:	e0bfd20b 	ldhu	r2,-184(fp)
 1003940:	1006947a 	slli	r3,r2,17
 1003944:	2005883a 	mov	r2,r4
 1003948:	10c00035 	stwio	r3,0(r2)
 100394c:	00080306 	br	100595c <sls_avalon_usb20_irq+0x3054>
 1003950:	e13fd517 	ldw	r4,-172(fp)
 1003954:	01402004 	movi	r5,128
 1003958:	10019040 	call	1001904 <USB_SetStallEP>
 100395c:	e0ffcf17 	ldw	r3,-196(fp)
 1003960:	00800084 	movi	r2,2
 1003964:	18800215 	stw	r2,8(r3)
 1003968:	0007fc06 	br	100595c <sls_avalon_usb20_irq+0x3054>
 100396c:	e13fe817 	ldw	r4,-96(fp)
 1003970:	e13ffe15 	stw	r4,-8(fp)
 1003974:	e0fffe17 	ldw	r3,-8(fp)
 1003978:	18800060 	cmpeqi	r2,r3,1
 100397c:	1002181e 	bne	r2,zero,10041e0 <sls_avalon_usb20_irq+0x18d8>
 1003980:	e13ffe17 	ldw	r4,-8(fp)
 1003984:	208000a0 	cmpeqi	r2,r4,2
 1003988:	1002531e 	bne	r2,zero,10042d8 <sls_avalon_usb20_irq+0x19d0>
 100398c:	e0fffe17 	ldw	r3,-8(fp)
 1003990:	1805003a 	cmpeq	r2,r3,zero
 1003994:	1000011e 	bne	r2,zero,100399c <sls_avalon_usb20_irq+0x1094>
 1003998:	00028006 	br	100439c <sls_avalon_usb20_irq+0x1a94>
 100399c:	e0bfd30b 	ldhu	r2,-180(fp)
 10039a0:	10bfc00c 	andi	r2,r2,65280
 10039a4:	1005d23a 	srai	r2,r2,8
 10039a8:	e0bffd15 	stw	r2,-12(fp)
 10039ac:	e13ffd17 	ldw	r4,-12(fp)
 10039b0:	20800228 	cmpgeui	r2,r4,8
 10039b4:	1002031e 	bne	r2,zero,10041c4 <sls_avalon_usb20_irq+0x18bc>
 10039b8:	e0fffd17 	ldw	r3,-12(fp)
 10039bc:	e0fffd17 	ldw	r3,-12(fp)
 10039c0:	18c5883a 	add	r2,r3,r3
 10039c4:	1087883a 	add	r3,r2,r2
 10039c8:	00804034 	movhi	r2,256
 10039cc:	108e7704 	addi	r2,r2,14812
 10039d0:	1885883a 	add	r2,r3,r2
 10039d4:	10800017 	ldw	r2,0(r2)
 10039d8:	1000683a 	jmp	r2
 10039dc:	010041c4 	movi	r4,263
 10039e0:	010039fc 	xorhi	r4,zero,231
 10039e4:	01003ae8 	cmpgeui	r4,zero,235
 10039e8:	01003da0 	cmpeqi	r4,zero,246
 10039ec:	010041c4 	movi	r4,263
 10039f0:	010041c4 	movi	r4,263
 10039f4:	01003f38 	rdprs	r4,zero,252
 10039f8:	01004034 	movhi	r4,256
 10039fc:	e0bfd20b 	ldhu	r2,-184(fp)
 1003a00:	108004e8 	cmpgeui	r2,r2,19
 1003a04:	1000031e 	bne	r2,zero,1003a14 <sls_avalon_usb20_irq+0x110c>
 1003a08:	e13fd20b 	ldhu	r4,-184(fp)
 1003a0c:	e13ffc15 	stw	r4,-16(fp)
 1003a10:	00000206 	br	1003a1c <sls_avalon_usb20_irq+0x1114>
 1003a14:	00800484 	movi	r2,18
 1003a18:	e0bffc15 	stw	r2,-16(fp)
 1003a1c:	e0fffc17 	ldw	r3,-16(fp)
 1003a20:	e0ffcd15 	stw	r3,-204(fp)
 1003a24:	e0ffcd17 	ldw	r3,-204(fp)
 1003a28:	e0bfd517 	ldw	r2,-172(fp)
 1003a2c:	10c03415 	stw	r3,208(r2)
 1003a30:	e0ffe917 	ldw	r3,-92(fp)
 1003a34:	e0bfcd17 	ldw	r2,-204(fp)
 1003a38:	1880040e 	bge	r3,r2,1003a4c <sls_avalon_usb20_irq+0x1144>
 1003a3c:	e0bfe917 	ldw	r2,-92(fp)
 1003a40:	1007883a 	mov	r3,r2
 1003a44:	e0bfd517 	ldw	r2,-172(fp)
 1003a48:	10c03415 	stw	r3,208(r2)
 1003a4c:	e03fd715 	stw	zero,-164(fp)
 1003a50:	00001106 	br	1003a98 <sls_avalon_usb20_irq+0x1190>
 1003a54:	e0bfea17 	ldw	r2,-88(fp)
 1003a58:	1007883a 	mov	r3,r2
 1003a5c:	e0bfd717 	ldw	r2,-164(fp)
 1003a60:	1887883a 	add	r3,r3,r2
 1003a64:	008000b4 	movhi	r2,2
 1003a68:	1889883a 	add	r4,r3,r2
 1003a6c:	e0bfd517 	ldw	r2,-172(fp)
 1003a70:	10c00317 	ldw	r3,12(r2)
 1003a74:	e0bfd717 	ldw	r2,-164(fp)
 1003a78:	1885883a 	add	r2,r3,r2
 1003a7c:	10800003 	ldbu	r2,0(r2)
 1003a80:	10c03fcc 	andi	r3,r2,255
 1003a84:	2005883a 	mov	r2,r4
 1003a88:	10c00025 	stbio	r3,0(r2)
 1003a8c:	e0bfd717 	ldw	r2,-164(fp)
 1003a90:	10800044 	addi	r2,r2,1
 1003a94:	e0bfd715 	stw	r2,-164(fp)
 1003a98:	e0bfd517 	ldw	r2,-172(fp)
 1003a9c:	10c03417 	ldw	r3,208(r2)
 1003aa0:	e0bfd717 	ldw	r2,-164(fp)
 1003aa4:	10ffeb36 	bltu	r2,r3,1003a54 <__alt_data_end+0xfffe2afc>
 1003aa8:	e0bfd517 	ldw	r2,-172(fp)
 1003aac:	10c00317 	ldw	r3,12(r2)
 1003ab0:	e0bfcf17 	ldw	r2,-196(fp)
 1003ab4:	10c00115 	stw	r3,4(r2)
 1003ab8:	e0ffcd17 	ldw	r3,-204(fp)
 1003abc:	e0bfcf17 	ldw	r2,-196(fp)
 1003ac0:	10c00415 	stw	r3,16(r2)
 1003ac4:	e0bfea17 	ldw	r2,-88(fp)
 1003ac8:	11001304 	addi	r4,r2,76
 1003acc:	e0bfd517 	ldw	r2,-172(fp)
 1003ad0:	10803417 	ldw	r2,208(r2)
 1003ad4:	1004947a 	slli	r2,r2,17
 1003ad8:	1007883a 	mov	r3,r2
 1003adc:	2005883a 	mov	r2,r4
 1003ae0:	10c00035 	stwio	r3,0(r2)
 1003ae4:	00079d06 	br	100595c <sls_avalon_usb20_irq+0x3054>
 1003ae8:	e0bfd517 	ldw	r2,-172(fp)
 1003aec:	10800c17 	ldw	r2,48(r2)
 1003af0:	10800058 	cmpnei	r2,r2,1
 1003af4:	1000041e 	bne	r2,zero,1003b08 <sls_avalon_usb20_irq+0x1200>
 1003af8:	e0bfd517 	ldw	r2,-172(fp)
 1003afc:	10800417 	ldw	r2,16(r2)
 1003b00:	e0bfce15 	stw	r2,-200(fp)
 1003b04:	00000f06 	br	1003b44 <sls_avalon_usb20_irq+0x123c>
 1003b08:	e0bfd517 	ldw	r2,-172(fp)
 1003b0c:	10800c17 	ldw	r2,48(r2)
 1003b10:	1004c03a 	cmpne	r2,r2,zero
 1003b14:	1000041e 	bne	r2,zero,1003b28 <sls_avalon_usb20_irq+0x1220>
 1003b18:	e0bfd517 	ldw	r2,-172(fp)
 1003b1c:	10800517 	ldw	r2,20(r2)
 1003b20:	e0bfce15 	stw	r2,-200(fp)
 1003b24:	00000706 	br	1003b44 <sls_avalon_usb20_irq+0x123c>
 1003b28:	e0bfd517 	ldw	r2,-172(fp)
 1003b2c:	10800c17 	ldw	r2,48(r2)
 1003b30:	10800098 	cmpnei	r2,r2,2
 1003b34:	1000031e 	bne	r2,zero,1003b44 <sls_avalon_usb20_irq+0x123c>
 1003b38:	e0bfd517 	ldw	r2,-172(fp)
 1003b3c:	10800617 	ldw	r2,24(r2)
 1003b40:	e0bfce15 	stw	r2,-200(fp)
 1003b44:	e0bfce17 	ldw	r2,-200(fp)
 1003b48:	10800003 	ldbu	r2,0(r2)
 1003b4c:	10803fcc 	andi	r2,r2,255
 1003b50:	e0bfdf15 	stw	r2,-132(fp)
 1003b54:	e0bfce17 	ldw	r2,-200(fp)
 1003b58:	10c00083 	ldbu	r3,2(r2)
 1003b5c:	108000c3 	ldbu	r2,3(r2)
 1003b60:	1004923a 	slli	r2,r2,8
 1003b64:	10c4b03a 	or	r2,r2,r3
 1003b68:	10bfffcc 	andi	r2,r2,65535
 1003b6c:	e0bfd815 	stw	r2,-160(fp)
 1003b70:	e03fd915 	stw	zero,-156(fp)
 1003b74:	00000b06 	br	1003ba4 <sls_avalon_usb20_irq+0x129c>
 1003b78:	e0bfdf17 	ldw	r2,-132(fp)
 1003b7c:	1005003a 	cmpeq	r2,r2,zero
 1003b80:	1000051e 	bne	r2,zero,1003b98 <sls_avalon_usb20_irq+0x1290>
 1003b84:	e0bfd817 	ldw	r2,-160(fp)
 1003b88:	1007883a 	mov	r3,r2
 1003b8c:	e0bfce17 	ldw	r2,-200(fp)
 1003b90:	10c5883a 	add	r2,r2,r3
 1003b94:	e0bfce15 	stw	r2,-200(fp)
 1003b98:	e0bfd917 	ldw	r2,-156(fp)
 1003b9c:	10800044 	addi	r2,r2,1
 1003ba0:	e0bfd915 	stw	r2,-156(fp)
 1003ba4:	e0bfd30b 	ldhu	r2,-180(fp)
 1003ba8:	10c03fcc 	andi	r3,r2,255
 1003bac:	e0bfd917 	ldw	r2,-156(fp)
 1003bb0:	18bff11e 	bne	r3,r2,1003b78 <__alt_data_end+0xfffe2c20>
 1003bb4:	e0bfce17 	ldw	r2,-200(fp)
 1003bb8:	10800003 	ldbu	r2,0(r2)
 1003bbc:	10803fcc 	andi	r2,r2,255
 1003bc0:	e0bfdf15 	stw	r2,-132(fp)
 1003bc4:	e0bfdf17 	ldw	r2,-132(fp)
 1003bc8:	1004c03a 	cmpne	r2,r2,zero
 1003bcc:	1000071e 	bne	r2,zero,1003bec <sls_avalon_usb20_irq+0x12e4>
 1003bd0:	e13fd517 	ldw	r4,-172(fp)
 1003bd4:	01402004 	movi	r5,128
 1003bd8:	10019040 	call	1001904 <USB_SetStallEP>
 1003bdc:	e0ffcf17 	ldw	r3,-196(fp)
 1003be0:	00800084 	movi	r2,2
 1003be4:	18800215 	stw	r2,8(r3)
 1003be8:	00075c06 	br	100595c <sls_avalon_usb20_irq+0x3054>
 1003bec:	e0bfce17 	ldw	r2,-200(fp)
 1003bf0:	e0bfd415 	stw	r2,-176(fp)
 1003bf4:	e0bfd20b 	ldhu	r2,-184(fp)
 1003bf8:	10800258 	cmpnei	r2,r2,9
 1003bfc:	1000281e 	bne	r2,zero,1003ca0 <sls_avalon_usb20_irq+0x1398>
 1003c00:	e0bfd20b 	ldhu	r2,-184(fp)
 1003c04:	e0bfda15 	stw	r2,-152(fp)
 1003c08:	e0ffda17 	ldw	r3,-152(fp)
 1003c0c:	e0bfcf17 	ldw	r2,-196(fp)
 1003c10:	10c00415 	stw	r3,16(r2)
 1003c14:	e0ffda17 	ldw	r3,-152(fp)
 1003c18:	e0bfd517 	ldw	r2,-172(fp)
 1003c1c:	10c03415 	stw	r3,208(r2)
 1003c20:	e03fec15 	stw	zero,-80(fp)
 1003c24:	00001206 	br	1003c70 <sls_avalon_usb20_irq+0x1368>
 1003c28:	e0bfea17 	ldw	r2,-88(fp)
 1003c2c:	1007883a 	mov	r3,r2
 1003c30:	e0bfec17 	ldw	r2,-80(fp)
 1003c34:	1887883a 	add	r3,r3,r2
 1003c38:	008000b4 	movhi	r2,2
 1003c3c:	1889883a 	add	r4,r3,r2
 1003c40:	e0ffd417 	ldw	r3,-176(fp)
 1003c44:	e0bfec17 	ldw	r2,-80(fp)
 1003c48:	1885883a 	add	r2,r3,r2
 1003c4c:	10800003 	ldbu	r2,0(r2)
 1003c50:	10c03fcc 	andi	r3,r2,255
 1003c54:	18c0201c 	xori	r3,r3,128
 1003c58:	18ffe004 	addi	r3,r3,-128
 1003c5c:	2005883a 	mov	r2,r4
 1003c60:	10c00025 	stbio	r3,0(r2)
 1003c64:	e0bfec17 	ldw	r2,-80(fp)
 1003c68:	10800044 	addi	r2,r2,1
 1003c6c:	e0bfec15 	stw	r2,-80(fp)
 1003c70:	e0bfec17 	ldw	r2,-80(fp)
 1003c74:	1007883a 	mov	r3,r2
 1003c78:	e0bfda17 	ldw	r2,-152(fp)
 1003c7c:	18bfea36 	bltu	r3,r2,1003c28 <__alt_data_end+0xfffe2cd0>
 1003c80:	e0bfea17 	ldw	r2,-88(fp)
 1003c84:	11001304 	addi	r4,r2,76
 1003c88:	e0bfda17 	ldw	r2,-152(fp)
 1003c8c:	1004947a 	slli	r2,r2,17
 1003c90:	1007883a 	mov	r3,r2
 1003c94:	2005883a 	mov	r2,r4
 1003c98:	10c00035 	stwio	r3,0(r2)
 1003c9c:	00072f06 	br	100595c <sls_avalon_usb20_irq+0x3054>
 1003ca0:	e0ffcf17 	ldw	r3,-196(fp)
 1003ca4:	e0bfce17 	ldw	r2,-200(fp)
 1003ca8:	18800115 	stw	r2,4(r3)
 1003cac:	e0bfd417 	ldw	r2,-176(fp)
 1003cb0:	10c00083 	ldbu	r3,2(r2)
 1003cb4:	108000c3 	ldbu	r2,3(r2)
 1003cb8:	1004923a 	slli	r2,r2,8
 1003cbc:	10c4b03a 	or	r2,r2,r3
 1003cc0:	10bfffcc 	andi	r2,r2,65535
 1003cc4:	e0bfda15 	stw	r2,-152(fp)
 1003cc8:	e0ffd20b 	ldhu	r3,-184(fp)
 1003ccc:	e0bfda17 	ldw	r2,-152(fp)
 1003cd0:	1880022e 	bgeu	r3,r2,1003cdc <sls_avalon_usb20_irq+0x13d4>
 1003cd4:	e0bfd20b 	ldhu	r2,-184(fp)
 1003cd8:	e0bfda15 	stw	r2,-152(fp)
 1003cdc:	e0ffda17 	ldw	r3,-152(fp)
 1003ce0:	e0bfcf17 	ldw	r2,-196(fp)
 1003ce4:	10c00415 	stw	r3,16(r2)
 1003ce8:	e0ffda17 	ldw	r3,-152(fp)
 1003cec:	e0bfd517 	ldw	r2,-172(fp)
 1003cf0:	10c03415 	stw	r3,208(r2)
 1003cf4:	e0bfe917 	ldw	r2,-92(fp)
 1003cf8:	1007883a 	mov	r3,r2
 1003cfc:	e0bfda17 	ldw	r2,-152(fp)
 1003d00:	1880042e 	bgeu	r3,r2,1003d14 <sls_avalon_usb20_irq+0x140c>
 1003d04:	e0bfe917 	ldw	r2,-92(fp)
 1003d08:	1007883a 	mov	r3,r2
 1003d0c:	e0bfd517 	ldw	r2,-172(fp)
 1003d10:	10c03415 	stw	r3,208(r2)
 1003d14:	e0bfd517 	ldw	r2,-172(fp)
 1003d18:	10803417 	ldw	r2,208(r2)
 1003d1c:	e0bfda15 	stw	r2,-152(fp)
 1003d20:	e03fed15 	stw	zero,-76(fp)
 1003d24:	00001206 	br	1003d70 <sls_avalon_usb20_irq+0x1468>
 1003d28:	e0bfea17 	ldw	r2,-88(fp)
 1003d2c:	1007883a 	mov	r3,r2
 1003d30:	e0bfed17 	ldw	r2,-76(fp)
 1003d34:	1887883a 	add	r3,r3,r2
 1003d38:	008000b4 	movhi	r2,2
 1003d3c:	1889883a 	add	r4,r3,r2
 1003d40:	e0ffd417 	ldw	r3,-176(fp)
 1003d44:	e0bfed17 	ldw	r2,-76(fp)
 1003d48:	1885883a 	add	r2,r3,r2
 1003d4c:	10800003 	ldbu	r2,0(r2)
 1003d50:	10c03fcc 	andi	r3,r2,255
 1003d54:	18c0201c 	xori	r3,r3,128
 1003d58:	18ffe004 	addi	r3,r3,-128
 1003d5c:	2005883a 	mov	r2,r4
 1003d60:	10c00025 	stbio	r3,0(r2)
 1003d64:	e0bfed17 	ldw	r2,-76(fp)
 1003d68:	10800044 	addi	r2,r2,1
 1003d6c:	e0bfed15 	stw	r2,-76(fp)
 1003d70:	e0bfed17 	ldw	r2,-76(fp)
 1003d74:	1007883a 	mov	r3,r2
 1003d78:	e0bfda17 	ldw	r2,-152(fp)
 1003d7c:	18bfea36 	bltu	r3,r2,1003d28 <__alt_data_end+0xfffe2dd0>
 1003d80:	e0bfea17 	ldw	r2,-88(fp)
 1003d84:	11001304 	addi	r4,r2,76
 1003d88:	e0bfda17 	ldw	r2,-152(fp)
 1003d8c:	1004947a 	slli	r2,r2,17
 1003d90:	1007883a 	mov	r3,r2
 1003d94:	2005883a 	mov	r2,r4
 1003d98:	10c00035 	stwio	r3,0(r2)
 1003d9c:	0006ef06 	br	100595c <sls_avalon_usb20_irq+0x3054>
 1003da0:	e0bfd30b 	ldhu	r2,-180(fp)
 1003da4:	10c03fcc 	andi	r3,r2,255
 1003da8:	e0bfd517 	ldw	r2,-172(fp)
 1003dac:	10801817 	ldw	r2,96(r2)
 1003db0:	1880042e 	bgeu	r3,r2,1003dc4 <sls_avalon_usb20_irq+0x14bc>
 1003db4:	e0bfd517 	ldw	r2,-172(fp)
 1003db8:	10800717 	ldw	r2,28(r2)
 1003dbc:	1004c03a 	cmpne	r2,r2,zero
 1003dc0:	1000071e 	bne	r2,zero,1003de0 <sls_avalon_usb20_irq+0x14d8>
 1003dc4:	e13fd517 	ldw	r4,-172(fp)
 1003dc8:	01402004 	movi	r5,128
 1003dcc:	10019040 	call	1001904 <USB_SetStallEP>
 1003dd0:	e0ffcf17 	ldw	r3,-196(fp)
 1003dd4:	00800084 	movi	r2,2
 1003dd8:	18800215 	stw	r2,8(r3)
 1003ddc:	0006df06 	br	100595c <sls_avalon_usb20_irq+0x3054>
 1003de0:	e0bfd517 	ldw	r2,-172(fp)
 1003de4:	11000817 	ldw	r4,32(r2)
 1003de8:	e0bfd517 	ldw	r2,-172(fp)
 1003dec:	10c00717 	ldw	r3,28(r2)
 1003df0:	e0bfd30b 	ldhu	r2,-180(fp)
 1003df4:	10803fcc 	andi	r2,r2,255
 1003df8:	1085883a 	add	r2,r2,r2
 1003dfc:	1085883a 	add	r2,r2,r2
 1003e00:	1885883a 	add	r2,r3,r2
 1003e04:	10800017 	ldw	r2,0(r2)
 1003e08:	2085883a 	add	r2,r4,r2
 1003e0c:	e0bfce15 	stw	r2,-200(fp)
 1003e10:	e0bfce17 	ldw	r2,-200(fp)
 1003e14:	10800003 	ldbu	r2,0(r2)
 1003e18:	10803fcc 	andi	r2,r2,255
 1003e1c:	e0bfdf15 	stw	r2,-132(fp)
 1003e20:	e0bfdf17 	ldw	r2,-132(fp)
 1003e24:	e0bfda15 	stw	r2,-152(fp)
 1003e28:	e0ffd20b 	ldhu	r3,-184(fp)
 1003e2c:	e0bfda17 	ldw	r2,-152(fp)
 1003e30:	1880022e 	bgeu	r3,r2,1003e3c <sls_avalon_usb20_irq+0x1534>
 1003e34:	e0bfd20b 	ldhu	r2,-184(fp)
 1003e38:	e0bfda15 	stw	r2,-152(fp)
 1003e3c:	e0ffda17 	ldw	r3,-152(fp)
 1003e40:	e0bfcf17 	ldw	r2,-196(fp)
 1003e44:	10c00415 	stw	r3,16(r2)
 1003e48:	e0ffda17 	ldw	r3,-152(fp)
 1003e4c:	e0bfd517 	ldw	r2,-172(fp)
 1003e50:	10c03415 	stw	r3,208(r2)
 1003e54:	e0bfe917 	ldw	r2,-92(fp)
 1003e58:	1007883a 	mov	r3,r2
 1003e5c:	e0bfda17 	ldw	r2,-152(fp)
 1003e60:	1880042e 	bgeu	r3,r2,1003e74 <sls_avalon_usb20_irq+0x156c>
 1003e64:	e0bfe917 	ldw	r2,-92(fp)
 1003e68:	1007883a 	mov	r3,r2
 1003e6c:	e0bfd517 	ldw	r2,-172(fp)
 1003e70:	10c03415 	stw	r3,208(r2)
 1003e74:	e0bfd517 	ldw	r2,-172(fp)
 1003e78:	10803417 	ldw	r2,208(r2)
 1003e7c:	e0bfda15 	stw	r2,-152(fp)
 1003e80:	e0bfd517 	ldw	r2,-172(fp)
 1003e84:	11000817 	ldw	r4,32(r2)
 1003e88:	e0bfd517 	ldw	r2,-172(fp)
 1003e8c:	10c00717 	ldw	r3,28(r2)
 1003e90:	e0bfd30b 	ldhu	r2,-180(fp)
 1003e94:	10803fcc 	andi	r2,r2,255
 1003e98:	1085883a 	add	r2,r2,r2
 1003e9c:	1085883a 	add	r2,r2,r2
 1003ea0:	1885883a 	add	r2,r3,r2
 1003ea4:	10800017 	ldw	r2,0(r2)
 1003ea8:	2085883a 	add	r2,r4,r2
 1003eac:	e0bfce15 	stw	r2,-200(fp)
 1003eb0:	e0ffcf17 	ldw	r3,-196(fp)
 1003eb4:	e0bfce17 	ldw	r2,-200(fp)
 1003eb8:	18800115 	stw	r2,4(r3)
 1003ebc:	e03fd715 	stw	zero,-164(fp)
 1003ec0:	00001206 	br	1003f0c <sls_avalon_usb20_irq+0x1604>
 1003ec4:	e0bfea17 	ldw	r2,-88(fp)
 1003ec8:	1007883a 	mov	r3,r2
 1003ecc:	e0bfd717 	ldw	r2,-164(fp)
 1003ed0:	1887883a 	add	r3,r3,r2
 1003ed4:	008000b4 	movhi	r2,2
 1003ed8:	1889883a 	add	r4,r3,r2
 1003edc:	e0ffce17 	ldw	r3,-200(fp)
 1003ee0:	e0bfd717 	ldw	r2,-164(fp)
 1003ee4:	1885883a 	add	r2,r3,r2
 1003ee8:	10800003 	ldbu	r2,0(r2)
 1003eec:	10c03fcc 	andi	r3,r2,255
 1003ef0:	18c0201c 	xori	r3,r3,128
 1003ef4:	18ffe004 	addi	r3,r3,-128
 1003ef8:	2005883a 	mov	r2,r4
 1003efc:	10c00025 	stbio	r3,0(r2)
 1003f00:	e0bfd717 	ldw	r2,-164(fp)
 1003f04:	10800044 	addi	r2,r2,1
 1003f08:	e0bfd715 	stw	r2,-164(fp)
 1003f0c:	e0ffd717 	ldw	r3,-164(fp)
 1003f10:	e0bfda17 	ldw	r2,-152(fp)
 1003f14:	18bfeb36 	bltu	r3,r2,1003ec4 <__alt_data_end+0xfffe2f6c>
 1003f18:	e0bfea17 	ldw	r2,-88(fp)
 1003f1c:	11001304 	addi	r4,r2,76
 1003f20:	e0bfda17 	ldw	r2,-152(fp)
 1003f24:	1004947a 	slli	r2,r2,17
 1003f28:	1007883a 	mov	r3,r2
 1003f2c:	2005883a 	mov	r2,r4
 1003f30:	10c00035 	stwio	r3,0(r2)
 1003f34:	00068906 	br	100595c <sls_avalon_usb20_irq+0x3054>
 1003f38:	e0bfd517 	ldw	r2,-172(fp)
 1003f3c:	10800917 	ldw	r2,36(r2)
 1003f40:	e0bfce15 	stw	r2,-200(fp)
 1003f44:	e0bfd20b 	ldhu	r2,-184(fp)
 1003f48:	10800118 	cmpnei	r2,r2,4
 1003f4c:	10001d1e 	bne	r2,zero,1003fc4 <sls_avalon_usb20_irq+0x16bc>
 1003f50:	e03fd715 	stw	zero,-164(fp)
 1003f54:	00001106 	br	1003f9c <sls_avalon_usb20_irq+0x1694>
 1003f58:	e0bfea17 	ldw	r2,-88(fp)
 1003f5c:	1007883a 	mov	r3,r2
 1003f60:	e0bfd717 	ldw	r2,-164(fp)
 1003f64:	1887883a 	add	r3,r3,r2
 1003f68:	008000b4 	movhi	r2,2
 1003f6c:	1889883a 	add	r4,r3,r2
 1003f70:	e0bfd717 	ldw	r2,-164(fp)
 1003f74:	1007883a 	mov	r3,r2
 1003f78:	e0bfce17 	ldw	r2,-200(fp)
 1003f7c:	1885883a 	add	r2,r3,r2
 1003f80:	10800003 	ldbu	r2,0(r2)
 1003f84:	10c03fcc 	andi	r3,r2,255
 1003f88:	2005883a 	mov	r2,r4
 1003f8c:	10c00025 	stbio	r3,0(r2)
 1003f90:	e0bfd717 	ldw	r2,-164(fp)
 1003f94:	10800044 	addi	r2,r2,1
 1003f98:	e0bfd715 	stw	r2,-164(fp)
 1003f9c:	e0ffd20b 	ldhu	r3,-184(fp)
 1003fa0:	e0bfd717 	ldw	r2,-164(fp)
 1003fa4:	10ffec36 	bltu	r2,r3,1003f58 <__alt_data_end+0xfffe3000>
 1003fa8:	e0bfea17 	ldw	r2,-88(fp)
 1003fac:	11001304 	addi	r4,r2,76
 1003fb0:	e0bfd20b 	ldhu	r2,-184(fp)
 1003fb4:	1006947a 	slli	r3,r2,17
 1003fb8:	2005883a 	mov	r2,r4
 1003fbc:	10c00035 	stwio	r3,0(r2)
 1003fc0:	00066606 	br	100595c <sls_avalon_usb20_irq+0x3054>
 1003fc4:	e03fd715 	stw	zero,-164(fp)
 1003fc8:	00001106 	br	1004010 <sls_avalon_usb20_irq+0x1708>
 1003fcc:	e0bfea17 	ldw	r2,-88(fp)
 1003fd0:	1007883a 	mov	r3,r2
 1003fd4:	e0bfd717 	ldw	r2,-164(fp)
 1003fd8:	1887883a 	add	r3,r3,r2
 1003fdc:	008000b4 	movhi	r2,2
 1003fe0:	1889883a 	add	r4,r3,r2
 1003fe4:	e0bfd717 	ldw	r2,-164(fp)
 1003fe8:	1007883a 	mov	r3,r2
 1003fec:	e0bfce17 	ldw	r2,-200(fp)
 1003ff0:	1885883a 	add	r2,r3,r2
 1003ff4:	10800003 	ldbu	r2,0(r2)
 1003ff8:	10c03fcc 	andi	r3,r2,255
 1003ffc:	2005883a 	mov	r2,r4
 1004000:	10c00025 	stbio	r3,0(r2)
 1004004:	e0bfd717 	ldw	r2,-164(fp)
 1004008:	10800044 	addi	r2,r2,1
 100400c:	e0bfd715 	stw	r2,-164(fp)
 1004010:	e0bfd717 	ldw	r2,-164(fp)
 1004014:	108002b0 	cmpltui	r2,r2,10
 1004018:	103fec1e 	bne	r2,zero,1003fcc <__alt_data_end+0xfffe3074>
 100401c:	e0bfea17 	ldw	r2,-88(fp)
 1004020:	10801304 	addi	r2,r2,76
 1004024:	1007883a 	mov	r3,r2
 1004028:	00800534 	movhi	r2,20
 100402c:	18800035 	stwio	r2,0(r3)
 1004030:	00064a06 	br	100595c <sls_avalon_usb20_irq+0x3054>
 1004034:	e0bfd517 	ldw	r2,-172(fp)
 1004038:	10800c17 	ldw	r2,48(r2)
 100403c:	1005003a 	cmpeq	r2,r2,zero
 1004040:	1000041e 	bne	r2,zero,1004054 <sls_avalon_usb20_irq+0x174c>
 1004044:	e0bfd517 	ldw	r2,-172(fp)
 1004048:	10800b17 	ldw	r2,44(r2)
 100404c:	e0bfce15 	stw	r2,-200(fp)
 1004050:	00000306 	br	1004060 <sls_avalon_usb20_irq+0x1758>
 1004054:	e0bfd517 	ldw	r2,-172(fp)
 1004058:	10800a17 	ldw	r2,40(r2)
 100405c:	e0bfce15 	stw	r2,-200(fp)
 1004060:	e0bfd20b 	ldhu	r2,-184(fp)
 1004064:	10800258 	cmpnei	r2,r2,9
 1004068:	10001d1e 	bne	r2,zero,10040e0 <sls_avalon_usb20_irq+0x17d8>
 100406c:	e03fd715 	stw	zero,-164(fp)
 1004070:	00001106 	br	10040b8 <sls_avalon_usb20_irq+0x17b0>
 1004074:	e0bfea17 	ldw	r2,-88(fp)
 1004078:	1007883a 	mov	r3,r2
 100407c:	e0bfd717 	ldw	r2,-164(fp)
 1004080:	1887883a 	add	r3,r3,r2
 1004084:	008000b4 	movhi	r2,2
 1004088:	1889883a 	add	r4,r3,r2
 100408c:	e0bfd717 	ldw	r2,-164(fp)
 1004090:	1007883a 	mov	r3,r2
 1004094:	e0bfce17 	ldw	r2,-200(fp)
 1004098:	1885883a 	add	r2,r3,r2
 100409c:	10800003 	ldbu	r2,0(r2)
 10040a0:	10c03fcc 	andi	r3,r2,255
 10040a4:	2005883a 	mov	r2,r4
 10040a8:	10c00025 	stbio	r3,0(r2)
 10040ac:	e0bfd717 	ldw	r2,-164(fp)
 10040b0:	10800044 	addi	r2,r2,1
 10040b4:	e0bfd715 	stw	r2,-164(fp)
 10040b8:	e0ffd20b 	ldhu	r3,-184(fp)
 10040bc:	e0bfd717 	ldw	r2,-164(fp)
 10040c0:	10ffec36 	bltu	r2,r3,1004074 <__alt_data_end+0xfffe311c>
 10040c4:	e0bfea17 	ldw	r2,-88(fp)
 10040c8:	11001304 	addi	r4,r2,76
 10040cc:	e0bfd20b 	ldhu	r2,-184(fp)
 10040d0:	1006947a 	slli	r3,r2,17
 10040d4:	2005883a 	mov	r2,r4
 10040d8:	10c00035 	stwio	r3,0(r2)
 10040dc:	00061f06 	br	100595c <sls_avalon_usb20_irq+0x3054>
 10040e0:	e0bfce17 	ldw	r2,-200(fp)
 10040e4:	10c00083 	ldbu	r3,2(r2)
 10040e8:	108000c3 	ldbu	r2,3(r2)
 10040ec:	1004923a 	slli	r2,r2,8
 10040f0:	10c4b03a 	or	r2,r2,r3
 10040f4:	10bfffcc 	andi	r2,r2,65535
 10040f8:	e0bfda15 	stw	r2,-152(fp)
 10040fc:	e0ffda17 	ldw	r3,-152(fp)
 1004100:	e0bfcf17 	ldw	r2,-196(fp)
 1004104:	10c00415 	stw	r3,16(r2)
 1004108:	e0ffda17 	ldw	r3,-152(fp)
 100410c:	e0bfd517 	ldw	r2,-172(fp)
 1004110:	10c03415 	stw	r3,208(r2)
 1004114:	e0bfe917 	ldw	r2,-92(fp)
 1004118:	1007883a 	mov	r3,r2
 100411c:	e0bfda17 	ldw	r2,-152(fp)
 1004120:	1880042e 	bgeu	r3,r2,1004134 <sls_avalon_usb20_irq+0x182c>
 1004124:	e0bfe917 	ldw	r2,-92(fp)
 1004128:	1007883a 	mov	r3,r2
 100412c:	e0bfd517 	ldw	r2,-172(fp)
 1004130:	10c03415 	stw	r3,208(r2)
 1004134:	e0bfd517 	ldw	r2,-172(fp)
 1004138:	10803417 	ldw	r2,208(r2)
 100413c:	e0bfda15 	stw	r2,-152(fp)
 1004140:	e0ffcf17 	ldw	r3,-196(fp)
 1004144:	e0bfce17 	ldw	r2,-200(fp)
 1004148:	18800115 	stw	r2,4(r3)
 100414c:	e03fd715 	stw	zero,-164(fp)
 1004150:	00001106 	br	1004198 <sls_avalon_usb20_irq+0x1890>
 1004154:	e0bfea17 	ldw	r2,-88(fp)
 1004158:	1007883a 	mov	r3,r2
 100415c:	e0bfd717 	ldw	r2,-164(fp)
 1004160:	1887883a 	add	r3,r3,r2
 1004164:	008000b4 	movhi	r2,2
 1004168:	1889883a 	add	r4,r3,r2
 100416c:	e0bfd717 	ldw	r2,-164(fp)
 1004170:	1007883a 	mov	r3,r2
 1004174:	e0bfce17 	ldw	r2,-200(fp)
 1004178:	1885883a 	add	r2,r3,r2
 100417c:	10800003 	ldbu	r2,0(r2)
 1004180:	10c03fcc 	andi	r3,r2,255
 1004184:	2005883a 	mov	r2,r4
 1004188:	10c00025 	stbio	r3,0(r2)
 100418c:	e0bfd717 	ldw	r2,-164(fp)
 1004190:	10800044 	addi	r2,r2,1
 1004194:	e0bfd715 	stw	r2,-164(fp)
 1004198:	e0ffd717 	ldw	r3,-164(fp)
 100419c:	e0bfda17 	ldw	r2,-152(fp)
 10041a0:	18bfec36 	bltu	r3,r2,1004154 <__alt_data_end+0xfffe31fc>
 10041a4:	e0bfea17 	ldw	r2,-88(fp)
 10041a8:	11001304 	addi	r4,r2,76
 10041ac:	e0bfda17 	ldw	r2,-152(fp)
 10041b0:	1004947a 	slli	r2,r2,17
 10041b4:	1007883a 	mov	r3,r2
 10041b8:	2005883a 	mov	r2,r4
 10041bc:	10c00035 	stwio	r3,0(r2)
 10041c0:	0005e606 	br	100595c <sls_avalon_usb20_irq+0x3054>
 10041c4:	e13fd517 	ldw	r4,-172(fp)
 10041c8:	01402004 	movi	r5,128
 10041cc:	10019040 	call	1001904 <USB_SetStallEP>
 10041d0:	e0ffcf17 	ldw	r3,-196(fp)
 10041d4:	00800084 	movi	r2,2
 10041d8:	18800215 	stw	r2,8(r3)
 10041dc:	0005df06 	br	100595c <sls_avalon_usb20_irq+0x3054>
 10041e0:	e0bfd30b 	ldhu	r2,-180(fp)
 10041e4:	1004d23a 	srli	r2,r2,8
 10041e8:	10bfffcc 	andi	r2,r2,65535
 10041ec:	108008a0 	cmpeqi	r2,r2,34
 10041f0:	1000011e 	bne	r2,zero,10041f8 <sls_avalon_usb20_irq+0x18f0>
 10041f4:	00003106 	br	10042bc <sls_avalon_usb20_irq+0x19b4>
 10041f8:	e0bfd517 	ldw	r2,-172(fp)
 10041fc:	10803e17 	ldw	r2,248(r2)
 1004200:	1005003a 	cmpeq	r2,r2,zero
 1004204:	1000061e 	bne	r2,zero,1004220 <sls_avalon_usb20_irq+0x1918>
 1004208:	e0bfd517 	ldw	r2,-172(fp)
 100420c:	10803e17 	ldw	r2,248(r2)
 1004210:	e13fcf17 	ldw	r4,-196(fp)
 1004214:	e17fea17 	ldw	r5,-88(fp)
 1004218:	01800044 	movi	r6,1
 100421c:	103ee83a 	callr	r2
 1004220:	e0bfcf17 	ldw	r2,-196(fp)
 1004224:	10c00417 	ldw	r3,16(r2)
 1004228:	e0bfd517 	ldw	r2,-172(fp)
 100422c:	10c03415 	stw	r3,208(r2)
 1004230:	e03fd715 	stw	zero,-164(fp)
 1004234:	00001406 	br	1004288 <sls_avalon_usb20_irq+0x1980>
 1004238:	e0bfea17 	ldw	r2,-88(fp)
 100423c:	1007883a 	mov	r3,r2
 1004240:	e0bfd717 	ldw	r2,-164(fp)
 1004244:	1887883a 	add	r3,r3,r2
 1004248:	008000b4 	movhi	r2,2
 100424c:	1889883a 	add	r4,r3,r2
 1004250:	e0bfcf17 	ldw	r2,-196(fp)
 1004254:	10800117 	ldw	r2,4(r2)
 1004258:	1007883a 	mov	r3,r2
 100425c:	e0bfd717 	ldw	r2,-164(fp)
 1004260:	1885883a 	add	r2,r3,r2
 1004264:	10800003 	ldbu	r2,0(r2)
 1004268:	10c03fcc 	andi	r3,r2,255
 100426c:	18c0201c 	xori	r3,r3,128
 1004270:	18ffe004 	addi	r3,r3,-128
 1004274:	2005883a 	mov	r2,r4
 1004278:	10c00025 	stbio	r3,0(r2)
 100427c:	e0bfd717 	ldw	r2,-164(fp)
 1004280:	10800044 	addi	r2,r2,1
 1004284:	e0bfd715 	stw	r2,-164(fp)
 1004288:	e0bfd517 	ldw	r2,-172(fp)
 100428c:	10c03417 	ldw	r3,208(r2)
 1004290:	e0bfd717 	ldw	r2,-164(fp)
 1004294:	10ffe836 	bltu	r2,r3,1004238 <__alt_data_end+0xfffe32e0>
 1004298:	e0bfea17 	ldw	r2,-88(fp)
 100429c:	11001304 	addi	r4,r2,76
 10042a0:	e0bfd517 	ldw	r2,-172(fp)
 10042a4:	10803417 	ldw	r2,208(r2)
 10042a8:	1004947a 	slli	r2,r2,17
 10042ac:	1007883a 	mov	r3,r2
 10042b0:	2005883a 	mov	r2,r4
 10042b4:	10c00035 	stwio	r3,0(r2)
 10042b8:	0005a806 	br	100595c <sls_avalon_usb20_irq+0x3054>
 10042bc:	e13fd517 	ldw	r4,-172(fp)
 10042c0:	01402004 	movi	r5,128
 10042c4:	10019040 	call	1001904 <USB_SetStallEP>
 10042c8:	e0ffcf17 	ldw	r3,-196(fp)
 10042cc:	00800084 	movi	r2,2
 10042d0:	18800215 	stw	r2,8(r3)
 10042d4:	0005a106 	br	100595c <sls_avalon_usb20_irq+0x3054>
 10042d8:	e0bfd517 	ldw	r2,-172(fp)
 10042dc:	10803e17 	ldw	r2,248(r2)
 10042e0:	1005003a 	cmpeq	r2,r2,zero
 10042e4:	1000061e 	bne	r2,zero,1004300 <sls_avalon_usb20_irq+0x19f8>
 10042e8:	e0bfd517 	ldw	r2,-172(fp)
 10042ec:	10803e17 	ldw	r2,248(r2)
 10042f0:	e13fcf17 	ldw	r4,-196(fp)
 10042f4:	e17fea17 	ldw	r5,-88(fp)
 10042f8:	01800084 	movi	r6,2
 10042fc:	103ee83a 	callr	r2
 1004300:	e0bfcf17 	ldw	r2,-196(fp)
 1004304:	10c00417 	ldw	r3,16(r2)
 1004308:	e0bfd517 	ldw	r2,-172(fp)
 100430c:	10c03415 	stw	r3,208(r2)
 1004310:	e03fd715 	stw	zero,-164(fp)
 1004314:	00001406 	br	1004368 <sls_avalon_usb20_irq+0x1a60>
 1004318:	e0bfea17 	ldw	r2,-88(fp)
 100431c:	1007883a 	mov	r3,r2
 1004320:	e0bfd717 	ldw	r2,-164(fp)
 1004324:	1887883a 	add	r3,r3,r2
 1004328:	008000b4 	movhi	r2,2
 100432c:	1889883a 	add	r4,r3,r2
 1004330:	e0bfcf17 	ldw	r2,-196(fp)
 1004334:	10800117 	ldw	r2,4(r2)
 1004338:	1007883a 	mov	r3,r2
 100433c:	e0bfd717 	ldw	r2,-164(fp)
 1004340:	1885883a 	add	r2,r3,r2
 1004344:	10800003 	ldbu	r2,0(r2)
 1004348:	10c03fcc 	andi	r3,r2,255
 100434c:	18c0201c 	xori	r3,r3,128
 1004350:	18ffe004 	addi	r3,r3,-128
 1004354:	2005883a 	mov	r2,r4
 1004358:	10c00025 	stbio	r3,0(r2)
 100435c:	e0bfd717 	ldw	r2,-164(fp)
 1004360:	10800044 	addi	r2,r2,1
 1004364:	e0bfd715 	stw	r2,-164(fp)
 1004368:	e0bfd517 	ldw	r2,-172(fp)
 100436c:	10c03417 	ldw	r3,208(r2)
 1004370:	e0bfd717 	ldw	r2,-164(fp)
 1004374:	10ffe836 	bltu	r2,r3,1004318 <__alt_data_end+0xfffe33c0>
 1004378:	e0bfea17 	ldw	r2,-88(fp)
 100437c:	11001304 	addi	r4,r2,76
 1004380:	e0bfd517 	ldw	r2,-172(fp)
 1004384:	10803417 	ldw	r2,208(r2)
 1004388:	1004947a 	slli	r2,r2,17
 100438c:	1007883a 	mov	r3,r2
 1004390:	2005883a 	mov	r2,r4
 1004394:	10c00035 	stwio	r3,0(r2)
 1004398:	00057006 	br	100595c <sls_avalon_usb20_irq+0x3054>
 100439c:	e13fd517 	ldw	r4,-172(fp)
 10043a0:	01402004 	movi	r5,128
 10043a4:	10019040 	call	1001904 <USB_SetStallEP>
 10043a8:	e0ffcf17 	ldw	r3,-196(fp)
 10043ac:	00800084 	movi	r2,2
 10043b0:	18800215 	stw	r2,8(r3)
 10043b4:	00056906 	br	100595c <sls_avalon_usb20_irq+0x3054>
 10043b8:	e0bfe817 	ldw	r2,-96(fp)
 10043bc:	1005003a 	cmpeq	r2,r2,zero
 10043c0:	1000091e 	bne	r2,zero,10043e8 <sls_avalon_usb20_irq+0x1ae0>
 10043c4:	e0bfd517 	ldw	r2,-172(fp)
 10043c8:	10000005 	stb	zero,0(r2)
 10043cc:	e13fd517 	ldw	r4,-172(fp)
 10043d0:	01402004 	movi	r5,128
 10043d4:	10019040 	call	1001904 <USB_SetStallEP>
 10043d8:	e0ffcf17 	ldw	r3,-196(fp)
 10043dc:	00800084 	movi	r2,2
 10043e0:	18800215 	stw	r2,8(r3)
 10043e4:	00055d06 	br	100595c <sls_avalon_usb20_irq+0x3054>
 10043e8:	e0ffd517 	ldw	r3,-172(fp)
 10043ec:	00800044 	movi	r2,1
 10043f0:	1881bc45 	stb	r2,1777(r3)
 10043f4:	e0bfd30b 	ldhu	r2,-180(fp)
 10043f8:	1007883a 	mov	r3,r2
 10043fc:	e0bfd517 	ldw	r2,-172(fp)
 1004400:	10c00005 	stb	r3,0(r2)
 1004404:	e0bfea17 	ldw	r2,-88(fp)
 1004408:	11000104 	addi	r4,r2,4
 100440c:	e0bfd517 	ldw	r2,-172(fp)
 1004410:	10800003 	ldbu	r2,0(r2)
 1004414:	10c03fcc 	andi	r3,r2,255
 1004418:	2005883a 	mov	r2,r4
 100441c:	10c00035 	stwio	r3,0(r2)
 1004420:	e0bfea17 	ldw	r2,-88(fp)
 1004424:	10801304 	addi	r2,r2,76
 1004428:	10000035 	stwio	zero,0(r2)
 100442c:	00054b06 	br	100595c <sls_avalon_usb20_irq+0x3054>
 1004430:	e0ffd517 	ldw	r3,-172(fp)
 1004434:	00800044 	movi	r2,1
 1004438:	18800e15 	stw	r2,56(r3)
 100443c:	e0bfcf17 	ldw	r2,-196(fp)
 1004440:	10000415 	stw	zero,16(r2)
 1004444:	e0bfd517 	ldw	r2,-172(fp)
 1004448:	1001bc05 	stb	zero,1776(r2)
 100444c:	e03fd715 	stw	zero,-164(fp)
 1004450:	00001106 	br	1004498 <sls_avalon_usb20_irq+0x1b90>
 1004454:	e0bfd717 	ldw	r2,-164(fp)
 1004458:	e0ffd517 	ldw	r3,-172(fp)
 100445c:	1085883a 	add	r2,r2,r2
 1004460:	1085883a 	add	r2,r2,r2
 1004464:	10c5883a 	add	r2,r2,r3
 1004468:	1080e904 	addi	r2,r2,932
 100446c:	10000015 	stw	zero,0(r2)
 1004470:	e0bfd717 	ldw	r2,-164(fp)
 1004474:	e0ffd517 	ldw	r3,-172(fp)
 1004478:	1085883a 	add	r2,r2,r2
 100447c:	1085883a 	add	r2,r2,r2
 1004480:	10c5883a 	add	r2,r2,r3
 1004484:	1081a204 	addi	r2,r2,1672
 1004488:	10000015 	stw	zero,0(r2)
 100448c:	e0bfd717 	ldw	r2,-164(fp)
 1004490:	10800044 	addi	r2,r2,1
 1004494:	e0bfd715 	stw	r2,-164(fp)
 1004498:	e0bfd717 	ldw	r2,-164(fp)
 100449c:	108003f0 	cmpltui	r2,r2,15
 10044a0:	103fec1e 	bne	r2,zero,1004454 <__alt_data_end+0xfffe34fc>
 10044a4:	e0bfd517 	ldw	r2,-172(fp)
 10044a8:	10803317 	ldw	r2,204(r2)
 10044ac:	1004c03a 	cmpne	r2,r2,zero
 10044b0:	1000031e 	bne	r2,zero,10044c0 <sls_avalon_usb20_irq+0x1bb8>
 10044b4:	e0ffd517 	ldw	r3,-172(fp)
 10044b8:	00800044 	movi	r2,1
 10044bc:	18803315 	stw	r2,204(r3)
 10044c0:	e0bfd30b 	ldhu	r2,-180(fp)
 10044c4:	10803fcc 	andi	r2,r2,255
 10044c8:	1005003a 	cmpeq	r2,r2,zero
 10044cc:	1000e71e 	bne	r2,zero,100486c <sls_avalon_usb20_irq+0x1f64>
 10044d0:	e0bfd517 	ldw	r2,-172(fp)
 10044d4:	10800c17 	ldw	r2,48(r2)
 10044d8:	10800058 	cmpnei	r2,r2,1
 10044dc:	1000071e 	bne	r2,zero,10044fc <sls_avalon_usb20_irq+0x1bf4>
 10044e0:	e0bfd517 	ldw	r2,-172(fp)
 10044e4:	10800417 	ldw	r2,16(r2)
 10044e8:	e0bfcc15 	stw	r2,-208(fp)
 10044ec:	e0bfd517 	ldw	r2,-172(fp)
 10044f0:	10802f17 	ldw	r2,188(r2)
 10044f4:	e0bfde15 	stw	r2,-136(fp)
 10044f8:	00001506 	br	1004550 <sls_avalon_usb20_irq+0x1c48>
 10044fc:	e0bfd517 	ldw	r2,-172(fp)
 1004500:	10800c17 	ldw	r2,48(r2)
 1004504:	1004c03a 	cmpne	r2,r2,zero
 1004508:	1000071e 	bne	r2,zero,1004528 <sls_avalon_usb20_irq+0x1c20>
 100450c:	e0bfd517 	ldw	r2,-172(fp)
 1004510:	10800517 	ldw	r2,20(r2)
 1004514:	e0bfcc15 	stw	r2,-208(fp)
 1004518:	e0bfd517 	ldw	r2,-172(fp)
 100451c:	10803017 	ldw	r2,192(r2)
 1004520:	e0bfde15 	stw	r2,-136(fp)
 1004524:	00000a06 	br	1004550 <sls_avalon_usb20_irq+0x1c48>
 1004528:	e0bfd517 	ldw	r2,-172(fp)
 100452c:	10800c17 	ldw	r2,48(r2)
 1004530:	10800098 	cmpnei	r2,r2,2
 1004534:	1000061e 	bne	r2,zero,1004550 <sls_avalon_usb20_irq+0x1c48>
 1004538:	e0bfd517 	ldw	r2,-172(fp)
 100453c:	10800617 	ldw	r2,24(r2)
 1004540:	e0bfcc15 	stw	r2,-208(fp)
 1004544:	e0bfd517 	ldw	r2,-172(fp)
 1004548:	10803117 	ldw	r2,196(r2)
 100454c:	e0bfde15 	stw	r2,-136(fp)
 1004550:	e03fdd15 	stw	zero,-140(fp)
 1004554:	00000006 	br	1004558 <sls_avalon_usb20_irq+0x1c50>
 1004558:	e0bfcc17 	ldw	r2,-208(fp)
 100455c:	10800043 	ldbu	r2,1(r2)
 1004560:	10803fcc 	andi	r2,r2,255
 1004564:	1080201c 	xori	r2,r2,128
 1004568:	10bfe004 	addi	r2,r2,-128
 100456c:	e0bffb15 	stw	r2,-20(fp)
 1004570:	e13ffb17 	ldw	r4,-20(fp)
 1004574:	20800120 	cmpeqi	r2,r4,4
 1004578:	1000761e 	bne	r2,zero,1004754 <sls_avalon_usb20_irq+0x1e4c>
 100457c:	e0fffb17 	ldw	r3,-20(fp)
 1004580:	18800160 	cmpeqi	r2,r3,5
 1004584:	1000781e 	bne	r2,zero,1004768 <sls_avalon_usb20_irq+0x1e60>
 1004588:	e13ffb17 	ldw	r4,-20(fp)
 100458c:	208000a0 	cmpeqi	r2,r4,2
 1004590:	1000011e 	bne	r2,zero,1004598 <sls_avalon_usb20_irq+0x1c90>
 1004594:	00009a06 	br	1004800 <sls_avalon_usb20_irq+0x1ef8>
 1004598:	e0bfcc17 	ldw	r2,-208(fp)
 100459c:	10800143 	ldbu	r2,5(r2)
 10045a0:	10803fcc 	andi	r2,r2,255
 10045a4:	e0bfdf15 	stw	r2,-132(fp)
 10045a8:	e0bfd30b 	ldhu	r2,-180(fp)
 10045ac:	10c03fcc 	andi	r3,r2,255
 10045b0:	e0bfdf17 	ldw	r2,-132(fp)
 10045b4:	1880541e 	bne	r3,r2,1004708 <sls_avalon_usb20_irq+0x1e00>
 10045b8:	e0bfd30b 	ldhu	r2,-180(fp)
 10045bc:	10c03fcc 	andi	r3,r2,255
 10045c0:	e0bfd517 	ldw	r2,-172(fp)
 10045c4:	10c02815 	stw	r3,160(r2)
 10045c8:	e0bfcc17 	ldw	r2,-208(fp)
 10045cc:	10800103 	ldbu	r2,4(r2)
 10045d0:	10c03fcc 	andi	r3,r2,255
 10045d4:	e0bfd517 	ldw	r2,-172(fp)
 10045d8:	10c02e15 	stw	r3,184(r2)
 10045dc:	e03fd915 	stw	zero,-156(fp)
 10045e0:	00000806 	br	1004604 <sls_avalon_usb20_irq+0x1cfc>
 10045e4:	e0ffd917 	ldw	r3,-156(fp)
 10045e8:	e0bfd517 	ldw	r2,-172(fp)
 10045ec:	1885883a 	add	r2,r3,r2
 10045f0:	10803504 	addi	r2,r2,212
 10045f4:	10000005 	stb	zero,0(r2)
 10045f8:	e0bfd917 	ldw	r2,-156(fp)
 10045fc:	10800044 	addi	r2,r2,1
 1004600:	e0bfd915 	stw	r2,-156(fp)
 1004604:	e0bfd917 	ldw	r2,-156(fp)
 1004608:	10800130 	cmpltui	r2,r2,4
 100460c:	103ff51e 	bne	r2,zero,10045e4 <__alt_data_end+0xfffe368c>
 1004610:	00800044 	movi	r2,1
 1004614:	e0bfd915 	stw	r2,-156(fp)
 1004618:	00001e06 	br	1004694 <sls_avalon_usb20_irq+0x1d8c>
 100461c:	e0bfd517 	ldw	r2,-172(fp)
 1004620:	11002c17 	ldw	r4,176(r2)
 1004624:	e0bfd917 	ldw	r2,-156(fp)
 1004628:	10bfffc4 	addi	r2,r2,-1
 100462c:	1007883a 	mov	r3,r2
 1004630:	00800044 	movi	r2,1
 1004634:	10c4983a 	sll	r2,r2,r3
 1004638:	2084703a 	and	r2,r4,r2
 100463c:	1005003a 	cmpeq	r2,r2,zero
 1004640:	1000041e 	bne	r2,zero,1004654 <sls_avalon_usb20_irq+0x1d4c>
 1004644:	e13fd517 	ldw	r4,-172(fp)
 1004648:	e0bfd917 	ldw	r2,-156(fp)
 100464c:	100b883a 	mov	r5,r2
 1004650:	10026e40 	call	10026e4 <USB_DisableEP>
 1004654:	e0bfd517 	ldw	r2,-172(fp)
 1004658:	11002c17 	ldw	r4,176(r2)
 100465c:	e0bfd917 	ldw	r2,-156(fp)
 1004660:	1007883a 	mov	r3,r2
 1004664:	00a00014 	movui	r2,32768
 1004668:	10c4983a 	sll	r2,r2,r3
 100466c:	2084703a 	and	r2,r4,r2
 1004670:	1005003a 	cmpeq	r2,r2,zero
 1004674:	1000041e 	bne	r2,zero,1004688 <sls_avalon_usb20_irq+0x1d80>
 1004678:	e13fd517 	ldw	r4,-172(fp)
 100467c:	e0bfd917 	ldw	r2,-156(fp)
 1004680:	100b883a 	mov	r5,r2
 1004684:	10026e40 	call	10026e4 <USB_DisableEP>
 1004688:	e0bfd917 	ldw	r2,-156(fp)
 100468c:	10800044 	addi	r2,r2,1
 1004690:	e0bfd915 	stw	r2,-156(fp)
 1004694:	e0bfd917 	ldw	r2,-156(fp)
 1004698:	10800430 	cmpltui	r2,r2,16
 100469c:	103fdf1e 	bne	r2,zero,100461c <__alt_data_end+0xfffe36c4>
 10046a0:	e0bfd517 	ldw	r2,-172(fp)
 10046a4:	10002d15 	stw	zero,180(r2)
 10046a8:	e0ffd517 	ldw	r3,-172(fp)
 10046ac:	00800084 	movi	r2,2
 10046b0:	1881bc45 	stb	r2,1777(r3)
 10046b4:	e0bfcc17 	ldw	r2,-208(fp)
 10046b8:	108001c3 	ldbu	r2,7(r2)
 10046bc:	10803fcc 	andi	r2,r2,255
 10046c0:	e0bfdf15 	stw	r2,-132(fp)
 10046c4:	e0bfdf17 	ldw	r2,-132(fp)
 10046c8:	1080100c 	andi	r2,r2,64
 10046cc:	1005003a 	cmpeq	r2,r2,zero
 10046d0:	1000061e 	bne	r2,zero,10046ec <sls_avalon_usb20_irq+0x1de4>
 10046d4:	e0bfd517 	ldw	r2,-172(fp)
 10046d8:	10802917 	ldw	r2,164(r2)
 10046dc:	10c00054 	ori	r3,r2,1
 10046e0:	e0bfd517 	ldw	r2,-172(fp)
 10046e4:	10c02915 	stw	r3,164(r2)
 10046e8:	00004506 	br	1004800 <sls_avalon_usb20_irq+0x1ef8>
 10046ec:	e0bfd517 	ldw	r2,-172(fp)
 10046f0:	10c02917 	ldw	r3,164(r2)
 10046f4:	00bfff84 	movi	r2,-2
 10046f8:	1886703a 	and	r3,r3,r2
 10046fc:	e0bfd517 	ldw	r2,-172(fp)
 1004700:	10c02915 	stw	r3,164(r2)
 1004704:	00003e06 	br	1004800 <sls_avalon_usb20_irq+0x1ef8>
 1004708:	e0bfcc17 	ldw	r2,-208(fp)
 100470c:	10c00083 	ldbu	r3,2(r2)
 1004710:	108000c3 	ldbu	r2,3(r2)
 1004714:	1004923a 	slli	r2,r2,8
 1004718:	10c4b03a 	or	r2,r2,r3
 100471c:	10bfffcc 	andi	r2,r2,65535
 1004720:	e0bfdf15 	stw	r2,-132(fp)
 1004724:	e0ffdd17 	ldw	r3,-140(fp)
 1004728:	e0bfdf17 	ldw	r2,-132(fp)
 100472c:	1885883a 	add	r2,r3,r2
 1004730:	e0bfdd15 	stw	r2,-140(fp)
 1004734:	e0bfcc17 	ldw	r2,-208(fp)
 1004738:	1007883a 	mov	r3,r2
 100473c:	e0bfdf17 	ldw	r2,-132(fp)
 1004740:	1885883a 	add	r2,r3,r2
 1004744:	e0bfda15 	stw	r2,-152(fp)
 1004748:	e0bfda17 	ldw	r2,-152(fp)
 100474c:	e0bfcc15 	stw	r2,-208(fp)
 1004750:	003f8106 	br	1004558 <__alt_data_end+0xfffe3600>
 1004754:	e0bfcc17 	ldw	r2,-208(fp)
 1004758:	108000c3 	ldbu	r2,3(r2)
 100475c:	10803fcc 	andi	r2,r2,255
 1004760:	e0bfdb15 	stw	r2,-148(fp)
 1004764:	00002606 	br	1004800 <sls_avalon_usb20_irq+0x1ef8>
 1004768:	e0bfcc17 	ldw	r2,-208(fp)
 100476c:	10800083 	ldbu	r2,2(r2)
 1004770:	10803fcc 	andi	r2,r2,255
 1004774:	e0bfdf15 	stw	r2,-132(fp)
 1004778:	e0bfdb17 	ldw	r2,-148(fp)
 100477c:	1004c03a 	cmpne	r2,r2,zero
 1004780:	10001f1e 	bne	r2,zero,1004800 <sls_avalon_usb20_irq+0x1ef8>
 1004784:	e0bfdf17 	ldw	r2,-132(fp)
 1004788:	108023cc 	andi	r2,r2,143
 100478c:	e0bfd915 	stw	r2,-156(fp)
 1004790:	e0bfd917 	ldw	r2,-156(fp)
 1004794:	1080200c 	andi	r2,r2,128
 1004798:	1005003a 	cmpeq	r2,r2,zero
 100479c:	1000061e 	bne	r2,zero,10047b8 <sls_avalon_usb20_irq+0x1eb0>
 10047a0:	e0bfd917 	ldw	r2,-156(fp)
 10047a4:	10c003cc 	andi	r3,r2,15
 10047a8:	00a00014 	movui	r2,32768
 10047ac:	10c4983a 	sll	r2,r2,r3
 10047b0:	e0bffa15 	stw	r2,-24(fp)
 10047b4:	00000606 	br	10047d0 <sls_avalon_usb20_irq+0x1ec8>
 10047b8:	e0bfd917 	ldw	r2,-156(fp)
 10047bc:	10bfffc4 	addi	r2,r2,-1
 10047c0:	1007883a 	mov	r3,r2
 10047c4:	00800044 	movi	r2,1
 10047c8:	10c4983a 	sll	r2,r2,r3
 10047cc:	e0bffa15 	stw	r2,-24(fp)
 10047d0:	e0bffa17 	ldw	r2,-24(fp)
 10047d4:	e0bfd815 	stw	r2,-160(fp)
 10047d8:	e0bfd517 	ldw	r2,-172(fp)
 10047dc:	10c02c17 	ldw	r3,176(r2)
 10047e0:	e0bfd817 	ldw	r2,-160(fp)
 10047e4:	1886b03a 	or	r3,r3,r2
 10047e8:	e0bfd517 	ldw	r2,-172(fp)
 10047ec:	10c02c15 	stw	r3,176(r2)
 10047f0:	e13fd517 	ldw	r4,-172(fp)
 10047f4:	e0bfd917 	ldw	r2,-156(fp)
 10047f8:	114003cc 	andi	r5,r2,15
 10047fc:	1001ca80 	call	1001ca8 <USB_EnableEP>
 1004800:	e0bfcc17 	ldw	r2,-208(fp)
 1004804:	10800003 	ldbu	r2,0(r2)
 1004808:	10803fcc 	andi	r2,r2,255
 100480c:	1080201c 	xori	r2,r2,128
 1004810:	10bfe004 	addi	r2,r2,-128
 1004814:	e0bfdf15 	stw	r2,-132(fp)
 1004818:	e0ffdd17 	ldw	r3,-140(fp)
 100481c:	e0bfdf17 	ldw	r2,-132(fp)
 1004820:	1885883a 	add	r2,r3,r2
 1004824:	e0bfdd15 	stw	r2,-140(fp)
 1004828:	e0bfcc17 	ldw	r2,-208(fp)
 100482c:	1007883a 	mov	r3,r2
 1004830:	e0bfdf17 	ldw	r2,-132(fp)
 1004834:	1885883a 	add	r2,r3,r2
 1004838:	e0bfda15 	stw	r2,-152(fp)
 100483c:	e0bfda17 	ldw	r2,-152(fp)
 1004840:	e0bfcc15 	stw	r2,-208(fp)
 1004844:	e0ffdd17 	ldw	r3,-140(fp)
 1004848:	e0bfde17 	ldw	r2,-136(fp)
 100484c:	1880012e 	bgeu	r3,r2,1004854 <sls_avalon_usb20_irq+0x1f4c>
 1004850:	003f4106 	br	1004558 <__alt_data_end+0xfffe3600>
 1004854:	e0bfd517 	ldw	r2,-172(fp)
 1004858:	10c02817 	ldw	r3,160(r2)
 100485c:	e0bfd30b 	ldhu	r2,-180(fp)
 1004860:	10803fcc 	andi	r2,r2,255
 1004864:	1880351e 	bne	r3,r2,100493c <sls_avalon_usb20_irq+0x2034>
 1004868:	00003b06 	br	1004958 <sls_avalon_usb20_irq+0x2050>
 100486c:	e0bfd517 	ldw	r2,-172(fp)
 1004870:	10002815 	stw	zero,160(r2)
 1004874:	e0ffd517 	ldw	r3,-172(fp)
 1004878:	00800084 	movi	r2,2
 100487c:	18800f15 	stw	r2,60(r3)
 1004880:	00800044 	movi	r2,1
 1004884:	e0bfd915 	stw	r2,-156(fp)
 1004888:	00001e06 	br	1004904 <sls_avalon_usb20_irq+0x1ffc>
 100488c:	e0bfd517 	ldw	r2,-172(fp)
 1004890:	11002c17 	ldw	r4,176(r2)
 1004894:	e0bfd917 	ldw	r2,-156(fp)
 1004898:	10bfffc4 	addi	r2,r2,-1
 100489c:	1007883a 	mov	r3,r2
 10048a0:	00800044 	movi	r2,1
 10048a4:	10c4983a 	sll	r2,r2,r3
 10048a8:	2084703a 	and	r2,r4,r2
 10048ac:	1005003a 	cmpeq	r2,r2,zero
 10048b0:	1000041e 	bne	r2,zero,10048c4 <sls_avalon_usb20_irq+0x1fbc>
 10048b4:	e13fd517 	ldw	r4,-172(fp)
 10048b8:	e0bfd917 	ldw	r2,-156(fp)
 10048bc:	100b883a 	mov	r5,r2
 10048c0:	10026e40 	call	10026e4 <USB_DisableEP>
 10048c4:	e0bfd517 	ldw	r2,-172(fp)
 10048c8:	11002c17 	ldw	r4,176(r2)
 10048cc:	e0bfd917 	ldw	r2,-156(fp)
 10048d0:	1007883a 	mov	r3,r2
 10048d4:	00a00014 	movui	r2,32768
 10048d8:	10c4983a 	sll	r2,r2,r3
 10048dc:	2084703a 	and	r2,r4,r2
 10048e0:	1005003a 	cmpeq	r2,r2,zero
 10048e4:	1000041e 	bne	r2,zero,10048f8 <sls_avalon_usb20_irq+0x1ff0>
 10048e8:	e13fd517 	ldw	r4,-172(fp)
 10048ec:	e0bfd917 	ldw	r2,-156(fp)
 10048f0:	100b883a 	mov	r5,r2
 10048f4:	10026e40 	call	10026e4 <USB_DisableEP>
 10048f8:	e0bfd917 	ldw	r2,-156(fp)
 10048fc:	10800044 	addi	r2,r2,1
 1004900:	e0bfd915 	stw	r2,-156(fp)
 1004904:	e0bfd917 	ldw	r2,-156(fp)
 1004908:	10800430 	cmpltui	r2,r2,16
 100490c:	103fdf1e 	bne	r2,zero,100488c <__alt_data_end+0xfffe3934>
 1004910:	e0bfd517 	ldw	r2,-172(fp)
 1004914:	10002c15 	stw	zero,176(r2)
 1004918:	e0bfd517 	ldw	r2,-172(fp)
 100491c:	10002d15 	stw	zero,180(r2)
 1004920:	e0ffd517 	ldw	r3,-172(fp)
 1004924:	00800044 	movi	r2,1
 1004928:	1881bc45 	stb	r2,1777(r3)
 100492c:	e0bfea17 	ldw	r2,-88(fp)
 1004930:	10801304 	addi	r2,r2,76
 1004934:	10000035 	stwio	zero,0(r2)
 1004938:	00040806 	br	100595c <sls_avalon_usb20_irq+0x3054>
 100493c:	e13fd517 	ldw	r4,-172(fp)
 1004940:	01402004 	movi	r5,128
 1004944:	10019040 	call	1001904 <USB_SetStallEP>
 1004948:	e0ffcf17 	ldw	r3,-196(fp)
 100494c:	00800084 	movi	r2,2
 1004950:	18800215 	stw	r2,8(r3)
 1004954:	00040106 	br	100595c <sls_avalon_usb20_irq+0x3054>
 1004958:	e0bfd517 	ldw	r2,-172(fp)
 100495c:	10003415 	stw	zero,208(r2)
 1004960:	e0ffd517 	ldw	r3,-172(fp)
 1004964:	008000c4 	movi	r2,3
 1004968:	18800f15 	stw	r2,60(r3)
 100496c:	e0bfea17 	ldw	r2,-88(fp)
 1004970:	10801304 	addi	r2,r2,76
 1004974:	10000035 	stwio	zero,0(r2)
 1004978:	e0ffd517 	ldw	r3,-172(fp)
 100497c:	00800044 	movi	r2,1
 1004980:	1881bc05 	stb	r2,1776(r3)
 1004984:	e0bfd517 	ldw	r2,-172(fp)
 1004988:	10000e15 	stw	zero,56(r2)
 100498c:	0003f306 	br	100595c <sls_avalon_usb20_irq+0x3054>
 1004990:	e0bfe817 	ldw	r2,-96(fp)
 1004994:	1005003a 	cmpeq	r2,r2,zero
 1004998:	1000071e 	bne	r2,zero,10049b8 <sls_avalon_usb20_irq+0x20b0>
 100499c:	e13fd517 	ldw	r4,-172(fp)
 10049a0:	01402004 	movi	r5,128
 10049a4:	10019040 	call	1001904 <USB_SetStallEP>
 10049a8:	e0ffcf17 	ldw	r3,-196(fp)
 10049ac:	00800084 	movi	r2,2
 10049b0:	18800215 	stw	r2,8(r3)
 10049b4:	0003e906 	br	100595c <sls_avalon_usb20_irq+0x3054>
 10049b8:	e0bfd517 	ldw	r2,-172(fp)
 10049bc:	1081bc43 	ldbu	r2,1777(r2)
 10049c0:	10803fcc 	andi	r2,r2,255
 10049c4:	e0bff915 	stw	r2,-28(fp)
 10049c8:	e0fff917 	ldw	r3,-28(fp)
 10049cc:	18800060 	cmpeqi	r2,r3,1
 10049d0:	10000b1e 	bne	r2,zero,1004a00 <sls_avalon_usb20_irq+0x20f8>
 10049d4:	e13ff917 	ldw	r4,-28(fp)
 10049d8:	208000a0 	cmpeqi	r2,r4,2
 10049dc:	1000131e 	bne	r2,zero,1004a2c <sls_avalon_usb20_irq+0x2124>
 10049e0:	e0fff917 	ldw	r3,-28(fp)
 10049e4:	1805003a 	cmpeq	r2,r3,zero
 10049e8:	1000011e 	bne	r2,zero,10049f0 <sls_avalon_usb20_irq+0x20e8>
 10049ec:	0003db06 	br	100595c <sls_avalon_usb20_irq+0x3054>
 10049f0:	e0bfea17 	ldw	r2,-88(fp)
 10049f4:	10801304 	addi	r2,r2,76
 10049f8:	10000035 	stwio	zero,0(r2)
 10049fc:	0003d706 	br	100595c <sls_avalon_usb20_irq+0x3054>
 1004a00:	e0bfea17 	ldw	r2,-88(fp)
 1004a04:	1007883a 	mov	r3,r2
 1004a08:	008000b4 	movhi	r2,2
 1004a0c:	1885883a 	add	r2,r3,r2
 1004a10:	10000035 	stwio	zero,0(r2)
 1004a14:	e0bfea17 	ldw	r2,-88(fp)
 1004a18:	10801304 	addi	r2,r2,76
 1004a1c:	1007883a 	mov	r3,r2
 1004a20:	008000b4 	movhi	r2,2
 1004a24:	18800035 	stwio	r2,0(r3)
 1004a28:	0003cc06 	br	100595c <sls_avalon_usb20_irq+0x3054>
 1004a2c:	e0bfea17 	ldw	r2,-88(fp)
 1004a30:	1007883a 	mov	r3,r2
 1004a34:	008000b4 	movhi	r2,2
 1004a38:	1889883a 	add	r4,r3,r2
 1004a3c:	e0bfd517 	ldw	r2,-172(fp)
 1004a40:	10802817 	ldw	r2,160(r2)
 1004a44:	1007883a 	mov	r3,r2
 1004a48:	2005883a 	mov	r2,r4
 1004a4c:	10c00035 	stwio	r3,0(r2)
 1004a50:	e0bfea17 	ldw	r2,-88(fp)
 1004a54:	10801304 	addi	r2,r2,76
 1004a58:	1007883a 	mov	r3,r2
 1004a5c:	008000b4 	movhi	r2,2
 1004a60:	18800035 	stwio	r2,0(r3)
 1004a64:	0003bd06 	br	100595c <sls_avalon_usb20_irq+0x3054>
 1004a68:	e13fe817 	ldw	r4,-96(fp)
 1004a6c:	e13ff815 	stw	r4,-32(fp)
 1004a70:	e0fff817 	ldw	r3,-32(fp)
 1004a74:	18800060 	cmpeqi	r2,r3,1
 1004a78:	1000561e 	bne	r2,zero,1004bd4 <sls_avalon_usb20_irq+0x22cc>
 1004a7c:	e13ff817 	ldw	r4,-32(fp)
 1004a80:	208000a0 	cmpeqi	r2,r4,2
 1004a84:	10005a1e 	bne	r2,zero,1004bf0 <sls_avalon_usb20_irq+0x22e8>
 1004a88:	e0fff817 	ldw	r3,-32(fp)
 1004a8c:	1805003a 	cmpeq	r2,r3,zero
 1004a90:	1000011e 	bne	r2,zero,1004a98 <sls_avalon_usb20_irq+0x2190>
 1004a94:	00009f06 	br	1004d14 <sls_avalon_usb20_irq+0x240c>
 1004a98:	e0bfd30b 	ldhu	r2,-180(fp)
 1004a9c:	108003cc 	andi	r2,r2,15
 1004aa0:	10800098 	cmpnei	r2,r2,2
 1004aa4:	1000131e 	bne	r2,zero,1004af4 <sls_avalon_usb20_irq+0x21ec>
 1004aa8:	e0bfd28b 	ldhu	r2,-182(fp)
 1004aac:	10bfc00c 	andi	r2,r2,65280
 1004ab0:	1005d23a 	srai	r2,r2,8
 1004ab4:	1007883a 	mov	r3,r2
 1004ab8:	e0bfd517 	ldw	r2,-172(fp)
 1004abc:	10c03215 	stw	r3,200(r2)
 1004ac0:	e0bfd517 	ldw	r2,-172(fp)
 1004ac4:	10803217 	ldw	r2,200(r2)
 1004ac8:	10bfffc4 	addi	r2,r2,-1
 1004acc:	1007883a 	mov	r3,r2
 1004ad0:	00800044 	movi	r2,1
 1004ad4:	10c4983a 	sll	r2,r2,r3
 1004ad8:	1007883a 	mov	r3,r2
 1004adc:	e0bfd517 	ldw	r2,-172(fp)
 1004ae0:	10c03215 	stw	r3,200(r2)
 1004ae4:	e0bfea17 	ldw	r2,-88(fp)
 1004ae8:	10801304 	addi	r2,r2,76
 1004aec:	10000035 	stwio	zero,0(r2)
 1004af0:	00008f06 	br	1004d30 <sls_avalon_usb20_irq+0x2428>
 1004af4:	e0bfd30b 	ldhu	r2,-180(fp)
 1004af8:	10800058 	cmpnei	r2,r2,1
 1004afc:	10002e1e 	bne	r2,zero,1004bb8 <sls_avalon_usb20_irq+0x22b0>
 1004b00:	e0bfd517 	ldw	r2,-172(fp)
 1004b04:	10800c17 	ldw	r2,48(r2)
 1004b08:	10800058 	cmpnei	r2,r2,1
 1004b0c:	1000041e 	bne	r2,zero,1004b20 <sls_avalon_usb20_irq+0x2218>
 1004b10:	e0bfd517 	ldw	r2,-172(fp)
 1004b14:	10800417 	ldw	r2,16(r2)
 1004b18:	e0bfcb15 	stw	r2,-212(fp)
 1004b1c:	00000f06 	br	1004b5c <sls_avalon_usb20_irq+0x2254>
 1004b20:	e0bfd517 	ldw	r2,-172(fp)
 1004b24:	10800c17 	ldw	r2,48(r2)
 1004b28:	1004c03a 	cmpne	r2,r2,zero
 1004b2c:	1000041e 	bne	r2,zero,1004b40 <sls_avalon_usb20_irq+0x2238>
 1004b30:	e0bfd517 	ldw	r2,-172(fp)
 1004b34:	10800517 	ldw	r2,20(r2)
 1004b38:	e0bfcb15 	stw	r2,-212(fp)
 1004b3c:	00000706 	br	1004b5c <sls_avalon_usb20_irq+0x2254>
 1004b40:	e0bfd517 	ldw	r2,-172(fp)
 1004b44:	10800c17 	ldw	r2,48(r2)
 1004b48:	10800098 	cmpnei	r2,r2,2
 1004b4c:	1000031e 	bne	r2,zero,1004b5c <sls_avalon_usb20_irq+0x2254>
 1004b50:	e0bfd517 	ldw	r2,-172(fp)
 1004b54:	10800617 	ldw	r2,24(r2)
 1004b58:	e0bfcb15 	stw	r2,-212(fp)
 1004b5c:	e0bfcb17 	ldw	r2,-212(fp)
 1004b60:	108001c3 	ldbu	r2,7(r2)
 1004b64:	e0bfca05 	stb	r2,-216(fp)
 1004b68:	e0bfca03 	ldbu	r2,-216(fp)
 1004b6c:	10803fcc 	andi	r2,r2,255
 1004b70:	1080080c 	andi	r2,r2,32
 1004b74:	1005003a 	cmpeq	r2,r2,zero
 1004b78:	10006d1e 	bne	r2,zero,1004d30 <sls_avalon_usb20_irq+0x2428>
 1004b7c:	e0bfd517 	ldw	r2,-172(fp)
 1004b80:	10802917 	ldw	r2,164(r2)
 1004b84:	10c00094 	ori	r3,r2,2
 1004b88:	e0bfd517 	ldw	r2,-172(fp)
 1004b8c:	10c02915 	stw	r3,164(r2)
 1004b90:	e0bfd517 	ldw	r2,-172(fp)
 1004b94:	10803b17 	ldw	r2,236(r2)
 1004b98:	1005003a 	cmpeq	r2,r2,zero
 1004b9c:	1000641e 	bne	r2,zero,1004d30 <sls_avalon_usb20_irq+0x2428>
 1004ba0:	e0bfd517 	ldw	r2,-172(fp)
 1004ba4:	10803b17 	ldw	r2,236(r2)
 1004ba8:	e13fd517 	ldw	r4,-172(fp)
 1004bac:	01400044 	movi	r5,1
 1004bb0:	103ee83a 	callr	r2
 1004bb4:	00005e06 	br	1004d30 <sls_avalon_usb20_irq+0x2428>
 1004bb8:	e13fd517 	ldw	r4,-172(fp)
 1004bbc:	01402004 	movi	r5,128
 1004bc0:	10019040 	call	1001904 <USB_SetStallEP>
 1004bc4:	e0ffcf17 	ldw	r3,-196(fp)
 1004bc8:	00800084 	movi	r2,2
 1004bcc:	18800215 	stw	r2,8(r3)
 1004bd0:	00036206 	br	100595c <sls_avalon_usb20_irq+0x3054>
 1004bd4:	e13fd517 	ldw	r4,-172(fp)
 1004bd8:	01402004 	movi	r5,128
 1004bdc:	10019040 	call	1001904 <USB_SetStallEP>
 1004be0:	e0ffcf17 	ldw	r3,-196(fp)
 1004be4:	00800084 	movi	r2,2
 1004be8:	18800215 	stw	r2,8(r3)
 1004bec:	00035b06 	br	100595c <sls_avalon_usb20_irq+0x3054>
 1004bf0:	e0bfd28b 	ldhu	r2,-182(fp)
 1004bf4:	108023cc 	andi	r2,r2,143
 1004bf8:	e0bfd915 	stw	r2,-156(fp)
 1004bfc:	e0bfd917 	ldw	r2,-156(fp)
 1004c00:	1080200c 	andi	r2,r2,128
 1004c04:	1005003a 	cmpeq	r2,r2,zero
 1004c08:	1000061e 	bne	r2,zero,1004c24 <sls_avalon_usb20_irq+0x231c>
 1004c0c:	e0bfd917 	ldw	r2,-156(fp)
 1004c10:	10c003cc 	andi	r3,r2,15
 1004c14:	00a00014 	movui	r2,32768
 1004c18:	10c4983a 	sll	r2,r2,r3
 1004c1c:	e0bff715 	stw	r2,-36(fp)
 1004c20:	00000606 	br	1004c3c <sls_avalon_usb20_irq+0x2334>
 1004c24:	e0bfd917 	ldw	r2,-156(fp)
 1004c28:	10bfffc4 	addi	r2,r2,-1
 1004c2c:	1007883a 	mov	r3,r2
 1004c30:	00800044 	movi	r2,1
 1004c34:	10c4983a 	sll	r2,r2,r3
 1004c38:	e0bff715 	stw	r2,-36(fp)
 1004c3c:	e13ff717 	ldw	r4,-36(fp)
 1004c40:	e13fd815 	stw	r4,-160(fp)
 1004c44:	e0bfd517 	ldw	r2,-172(fp)
 1004c48:	10802817 	ldw	r2,160(r2)
 1004c4c:	1005003a 	cmpeq	r2,r2,zero
 1004c50:	1000291e 	bne	r2,zero,1004cf8 <sls_avalon_usb20_irq+0x23f0>
 1004c54:	e0bfd917 	ldw	r2,-156(fp)
 1004c58:	108003cc 	andi	r2,r2,15
 1004c5c:	1005003a 	cmpeq	r2,r2,zero
 1004c60:	1000251e 	bne	r2,zero,1004cf8 <sls_avalon_usb20_irq+0x23f0>
 1004c64:	e0bfd30b 	ldhu	r2,-180(fp)
 1004c68:	1004c03a 	cmpne	r2,r2,zero
 1004c6c:	10001b1e 	bne	r2,zero,1004cdc <sls_avalon_usb20_irq+0x23d4>
 1004c70:	e0bfd917 	ldw	r2,-156(fp)
 1004c74:	108003cc 	andi	r2,r2,15
 1004c78:	1004913a 	slli	r2,r2,4
 1004c7c:	1007883a 	mov	r3,r2
 1004c80:	e0bfea17 	ldw	r2,-88(fp)
 1004c84:	1885883a 	add	r2,r3,r2
 1004c88:	10801004 	addi	r2,r2,64
 1004c8c:	10800037 	ldwio	r2,0(r2)
 1004c90:	e0bfee15 	stw	r2,-72(fp)
 1004c94:	e0bfd917 	ldw	r2,-156(fp)
 1004c98:	108003cc 	andi	r2,r2,15
 1004c9c:	1004913a 	slli	r2,r2,4
 1004ca0:	1007883a 	mov	r3,r2
 1004ca4:	e0bfea17 	ldw	r2,-88(fp)
 1004ca8:	1885883a 	add	r2,r3,r2
 1004cac:	11001004 	addi	r4,r2,64
 1004cb0:	e0bfee17 	ldw	r2,-72(fp)
 1004cb4:	10c02034 	orhi	r3,r2,128
 1004cb8:	2005883a 	mov	r2,r4
 1004cbc:	10c00035 	stwio	r3,0(r2)
 1004cc0:	e0bfd517 	ldw	r2,-172(fp)
 1004cc4:	10c02d17 	ldw	r3,180(r2)
 1004cc8:	e0bfd817 	ldw	r2,-160(fp)
 1004ccc:	1886b03a 	or	r3,r3,r2
 1004cd0:	e0bfd517 	ldw	r2,-172(fp)
 1004cd4:	10c02d15 	stw	r3,180(r2)
 1004cd8:	00001506 	br	1004d30 <sls_avalon_usb20_irq+0x2428>
 1004cdc:	e13fd517 	ldw	r4,-172(fp)
 1004ce0:	01402004 	movi	r5,128
 1004ce4:	10019040 	call	1001904 <USB_SetStallEP>
 1004ce8:	e0ffcf17 	ldw	r3,-196(fp)
 1004cec:	00800084 	movi	r2,2
 1004cf0:	18800215 	stw	r2,8(r3)
 1004cf4:	00031906 	br	100595c <sls_avalon_usb20_irq+0x3054>
 1004cf8:	e13fd517 	ldw	r4,-172(fp)
 1004cfc:	01402004 	movi	r5,128
 1004d00:	10019040 	call	1001904 <USB_SetStallEP>
 1004d04:	e0ffcf17 	ldw	r3,-196(fp)
 1004d08:	00800084 	movi	r2,2
 1004d0c:	18800215 	stw	r2,8(r3)
 1004d10:	00031206 	br	100595c <sls_avalon_usb20_irq+0x3054>
 1004d14:	e13fd517 	ldw	r4,-172(fp)
 1004d18:	01402004 	movi	r5,128
 1004d1c:	10019040 	call	1001904 <USB_SetStallEP>
 1004d20:	e0ffcf17 	ldw	r3,-196(fp)
 1004d24:	00800084 	movi	r2,2
 1004d28:	18800215 	stw	r2,8(r3)
 1004d2c:	00030b06 	br	100595c <sls_avalon_usb20_irq+0x3054>
 1004d30:	e0bfea17 	ldw	r2,-88(fp)
 1004d34:	10801304 	addi	r2,r2,76
 1004d38:	10000035 	stwio	zero,0(r2)
 1004d3c:	00030706 	br	100595c <sls_avalon_usb20_irq+0x3054>
 1004d40:	e0bfe817 	ldw	r2,-96(fp)
 1004d44:	e0bff615 	stw	r2,-40(fp)
 1004d48:	e0fff617 	ldw	r3,-40(fp)
 1004d4c:	18800060 	cmpeqi	r2,r3,1
 1004d50:	1000211e 	bne	r2,zero,1004dd8 <sls_avalon_usb20_irq+0x24d0>
 1004d54:	e13ff617 	ldw	r4,-40(fp)
 1004d58:	208000a0 	cmpeqi	r2,r4,2
 1004d5c:	1000251e 	bne	r2,zero,1004df4 <sls_avalon_usb20_irq+0x24ec>
 1004d60:	e0fff617 	ldw	r3,-40(fp)
 1004d64:	1805003a 	cmpeq	r2,r3,zero
 1004d68:	1000011e 	bne	r2,zero,1004d70 <sls_avalon_usb20_irq+0x2468>
 1004d6c:	00006d06 	br	1004f24 <sls_avalon_usb20_irq+0x261c>
 1004d70:	e0bfd30b 	ldhu	r2,-180(fp)
 1004d74:	10800058 	cmpnei	r2,r2,1
 1004d78:	1000101e 	bne	r2,zero,1004dbc <sls_avalon_usb20_irq+0x24b4>
 1004d7c:	e0bfd517 	ldw	r2,-172(fp)
 1004d80:	10803b17 	ldw	r2,236(r2)
 1004d84:	1005003a 	cmpeq	r2,r2,zero
 1004d88:	1000051e 	bne	r2,zero,1004da0 <sls_avalon_usb20_irq+0x2498>
 1004d8c:	e0bfd517 	ldw	r2,-172(fp)
 1004d90:	10803b17 	ldw	r2,236(r2)
 1004d94:	e13fd517 	ldw	r4,-172(fp)
 1004d98:	000b883a 	mov	r5,zero
 1004d9c:	103ee83a 	callr	r2
 1004da0:	e0bfd517 	ldw	r2,-172(fp)
 1004da4:	10c02917 	ldw	r3,164(r2)
 1004da8:	00bfff44 	movi	r2,-3
 1004dac:	1886703a 	and	r3,r3,r2
 1004db0:	e0bfd517 	ldw	r2,-172(fp)
 1004db4:	10c02915 	stw	r3,164(r2)
 1004db8:	00006106 	br	1004f40 <sls_avalon_usb20_irq+0x2638>
 1004dbc:	e13fd517 	ldw	r4,-172(fp)
 1004dc0:	01402004 	movi	r5,128
 1004dc4:	10019040 	call	1001904 <USB_SetStallEP>
 1004dc8:	e0ffcf17 	ldw	r3,-196(fp)
 1004dcc:	00800084 	movi	r2,2
 1004dd0:	18800215 	stw	r2,8(r3)
 1004dd4:	0002e106 	br	100595c <sls_avalon_usb20_irq+0x3054>
 1004dd8:	e13fd517 	ldw	r4,-172(fp)
 1004ddc:	01402004 	movi	r5,128
 1004de0:	10019040 	call	1001904 <USB_SetStallEP>
 1004de4:	e0ffcf17 	ldw	r3,-196(fp)
 1004de8:	00800084 	movi	r2,2
 1004dec:	18800215 	stw	r2,8(r3)
 1004df0:	0002da06 	br	100595c <sls_avalon_usb20_irq+0x3054>
 1004df4:	e0bfd28b 	ldhu	r2,-182(fp)
 1004df8:	108023cc 	andi	r2,r2,143
 1004dfc:	e0bfd915 	stw	r2,-156(fp)
 1004e00:	e0bfd917 	ldw	r2,-156(fp)
 1004e04:	1080200c 	andi	r2,r2,128
 1004e08:	1005003a 	cmpeq	r2,r2,zero
 1004e0c:	1000061e 	bne	r2,zero,1004e28 <sls_avalon_usb20_irq+0x2520>
 1004e10:	e0bfd917 	ldw	r2,-156(fp)
 1004e14:	10c003cc 	andi	r3,r2,15
 1004e18:	00a00014 	movui	r2,32768
 1004e1c:	10c4983a 	sll	r2,r2,r3
 1004e20:	e0bff515 	stw	r2,-44(fp)
 1004e24:	00000606 	br	1004e40 <sls_avalon_usb20_irq+0x2538>
 1004e28:	e0bfd917 	ldw	r2,-156(fp)
 1004e2c:	10bfffc4 	addi	r2,r2,-1
 1004e30:	1007883a 	mov	r3,r2
 1004e34:	00800044 	movi	r2,1
 1004e38:	10c4983a 	sll	r2,r2,r3
 1004e3c:	e0bff515 	stw	r2,-44(fp)
 1004e40:	e13ff517 	ldw	r4,-44(fp)
 1004e44:	e13fd815 	stw	r4,-160(fp)
 1004e48:	e0bfd517 	ldw	r2,-172(fp)
 1004e4c:	10802817 	ldw	r2,160(r2)
 1004e50:	1005003a 	cmpeq	r2,r2,zero
 1004e54:	10002c1e 	bne	r2,zero,1004f08 <sls_avalon_usb20_irq+0x2600>
 1004e58:	e0bfd917 	ldw	r2,-156(fp)
 1004e5c:	108003cc 	andi	r2,r2,15
 1004e60:	1005003a 	cmpeq	r2,r2,zero
 1004e64:	1000281e 	bne	r2,zero,1004f08 <sls_avalon_usb20_irq+0x2600>
 1004e68:	e0bfd30b 	ldhu	r2,-180(fp)
 1004e6c:	1004c03a 	cmpne	r2,r2,zero
 1004e70:	10001e1e 	bne	r2,zero,1004eec <sls_avalon_usb20_irq+0x25e4>
 1004e74:	e0bfd917 	ldw	r2,-156(fp)
 1004e78:	108003cc 	andi	r2,r2,15
 1004e7c:	1004913a 	slli	r2,r2,4
 1004e80:	1007883a 	mov	r3,r2
 1004e84:	e0bfea17 	ldw	r2,-88(fp)
 1004e88:	1885883a 	add	r2,r3,r2
 1004e8c:	10801004 	addi	r2,r2,64
 1004e90:	10800037 	ldwio	r2,0(r2)
 1004e94:	e0bfef15 	stw	r2,-68(fp)
 1004e98:	e0bfd917 	ldw	r2,-156(fp)
 1004e9c:	108003cc 	andi	r2,r2,15
 1004ea0:	1004913a 	slli	r2,r2,4
 1004ea4:	1007883a 	mov	r3,r2
 1004ea8:	e0bfea17 	ldw	r2,-88(fp)
 1004eac:	1885883a 	add	r2,r3,r2
 1004eb0:	11001004 	addi	r4,r2,64
 1004eb4:	e0ffef17 	ldw	r3,-68(fp)
 1004eb8:	00b3d034 	movhi	r2,53056
 1004ebc:	10bfffc4 	addi	r2,r2,-1
 1004ec0:	1886703a 	and	r3,r3,r2
 1004ec4:	2005883a 	mov	r2,r4
 1004ec8:	10c00035 	stwio	r3,0(r2)
 1004ecc:	e0bfd517 	ldw	r2,-172(fp)
 1004ed0:	10c02d17 	ldw	r3,180(r2)
 1004ed4:	e0bfd817 	ldw	r2,-160(fp)
 1004ed8:	0084303a 	nor	r2,zero,r2
 1004edc:	1886703a 	and	r3,r3,r2
 1004ee0:	e0bfd517 	ldw	r2,-172(fp)
 1004ee4:	10c02d15 	stw	r3,180(r2)
 1004ee8:	00001506 	br	1004f40 <sls_avalon_usb20_irq+0x2638>
 1004eec:	e13fd517 	ldw	r4,-172(fp)
 1004ef0:	01402004 	movi	r5,128
 1004ef4:	10019040 	call	1001904 <USB_SetStallEP>
 1004ef8:	e0ffcf17 	ldw	r3,-196(fp)
 1004efc:	00800084 	movi	r2,2
 1004f00:	18800215 	stw	r2,8(r3)
 1004f04:	00029506 	br	100595c <sls_avalon_usb20_irq+0x3054>
 1004f08:	e13fd517 	ldw	r4,-172(fp)
 1004f0c:	01402004 	movi	r5,128
 1004f10:	10019040 	call	1001904 <USB_SetStallEP>
 1004f14:	e0ffcf17 	ldw	r3,-196(fp)
 1004f18:	00800084 	movi	r2,2
 1004f1c:	18800215 	stw	r2,8(r3)
 1004f20:	00028e06 	br	100595c <sls_avalon_usb20_irq+0x3054>
 1004f24:	e13fd517 	ldw	r4,-172(fp)
 1004f28:	01402004 	movi	r5,128
 1004f2c:	10019040 	call	1001904 <USB_SetStallEP>
 1004f30:	e0ffcf17 	ldw	r3,-196(fp)
 1004f34:	00800084 	movi	r2,2
 1004f38:	18800215 	stw	r2,8(r3)
 1004f3c:	00028706 	br	100595c <sls_avalon_usb20_irq+0x3054>
 1004f40:	e0bfea17 	ldw	r2,-88(fp)
 1004f44:	10801304 	addi	r2,r2,76
 1004f48:	10000035 	stwio	zero,0(r2)
 1004f4c:	00028306 	br	100595c <sls_avalon_usb20_irq+0x3054>
 1004f50:	e03fe215 	stw	zero,-120(fp)
 1004f54:	e03fdb15 	stw	zero,-148(fp)
 1004f58:	e0bfd517 	ldw	r2,-172(fp)
 1004f5c:	10802817 	ldw	r2,160(r2)
 1004f60:	1004c03a 	cmpne	r2,r2,zero
 1004f64:	1000071e 	bne	r2,zero,1004f84 <sls_avalon_usb20_irq+0x267c>
 1004f68:	e13fd517 	ldw	r4,-172(fp)
 1004f6c:	01402004 	movi	r5,128
 1004f70:	10019040 	call	1001904 <USB_SetStallEP>
 1004f74:	e0ffcf17 	ldw	r3,-196(fp)
 1004f78:	00800084 	movi	r2,2
 1004f7c:	18800215 	stw	r2,8(r3)
 1004f80:	00027606 	br	100595c <sls_avalon_usb20_irq+0x3054>
 1004f84:	e0bfd517 	ldw	r2,-172(fp)
 1004f88:	10800c17 	ldw	r2,48(r2)
 1004f8c:	10800058 	cmpnei	r2,r2,1
 1004f90:	1000071e 	bne	r2,zero,1004fb0 <sls_avalon_usb20_irq+0x26a8>
 1004f94:	e0bfd517 	ldw	r2,-172(fp)
 1004f98:	10800417 	ldw	r2,16(r2)
 1004f9c:	e0bfc915 	stw	r2,-220(fp)
 1004fa0:	e0bfd517 	ldw	r2,-172(fp)
 1004fa4:	10802f17 	ldw	r2,188(r2)
 1004fa8:	e0bfde15 	stw	r2,-136(fp)
 1004fac:	00001506 	br	1005004 <sls_avalon_usb20_irq+0x26fc>
 1004fb0:	e0bfd517 	ldw	r2,-172(fp)
 1004fb4:	10800c17 	ldw	r2,48(r2)
 1004fb8:	1004c03a 	cmpne	r2,r2,zero
 1004fbc:	1000071e 	bne	r2,zero,1004fdc <sls_avalon_usb20_irq+0x26d4>
 1004fc0:	e0bfd517 	ldw	r2,-172(fp)
 1004fc4:	10800517 	ldw	r2,20(r2)
 1004fc8:	e0bfc915 	stw	r2,-220(fp)
 1004fcc:	e0bfd517 	ldw	r2,-172(fp)
 1004fd0:	10803017 	ldw	r2,192(r2)
 1004fd4:	e0bfde15 	stw	r2,-136(fp)
 1004fd8:	00000a06 	br	1005004 <sls_avalon_usb20_irq+0x26fc>
 1004fdc:	e0bfd517 	ldw	r2,-172(fp)
 1004fe0:	10800c17 	ldw	r2,48(r2)
 1004fe4:	10800098 	cmpnei	r2,r2,2
 1004fe8:	1000061e 	bne	r2,zero,1005004 <sls_avalon_usb20_irq+0x26fc>
 1004fec:	e0bfd517 	ldw	r2,-172(fp)
 1004ff0:	10800617 	ldw	r2,24(r2)
 1004ff4:	e0bfc915 	stw	r2,-220(fp)
 1004ff8:	e0bfd517 	ldw	r2,-172(fp)
 1004ffc:	10803117 	ldw	r2,196(r2)
 1005000:	e0bfde15 	stw	r2,-136(fp)
 1005004:	e03fdd15 	stw	zero,-140(fp)
 1005008:	00000006 	br	100500c <sls_avalon_usb20_irq+0x2704>
 100500c:	e0bfc917 	ldw	r2,-220(fp)
 1005010:	10800043 	ldbu	r2,1(r2)
 1005014:	10803fcc 	andi	r2,r2,255
 1005018:	1080201c 	xori	r2,r2,128
 100501c:	10bfe004 	addi	r2,r2,-128
 1005020:	e0bff415 	stw	r2,-48(fp)
 1005024:	e0fff417 	ldw	r3,-48(fp)
 1005028:	18800120 	cmpeqi	r2,r3,4
 100502c:	1000221e 	bne	r2,zero,10050b8 <sls_avalon_usb20_irq+0x27b0>
 1005030:	e13ff417 	ldw	r4,-48(fp)
 1005034:	20800160 	cmpeqi	r2,r4,5
 1005038:	1000401e 	bne	r2,zero,100513c <sls_avalon_usb20_irq+0x2834>
 100503c:	e0fff417 	ldw	r3,-48(fp)
 1005040:	188000a0 	cmpeqi	r2,r3,2
 1005044:	1000011e 	bne	r2,zero,100504c <sls_avalon_usb20_irq+0x2744>
 1005048:	00008d06 	br	1005280 <sls_avalon_usb20_irq+0x2978>
 100504c:	e0bfc917 	ldw	r2,-220(fp)
 1005050:	10800143 	ldbu	r2,5(r2)
 1005054:	10803fcc 	andi	r2,r2,255
 1005058:	e0bfdf15 	stw	r2,-132(fp)
 100505c:	e0bfd517 	ldw	r2,-172(fp)
 1005060:	10c02817 	ldw	r3,160(r2)
 1005064:	e0bfdf17 	ldw	r2,-132(fp)
 1005068:	18808526 	beq	r3,r2,1005280 <sls_avalon_usb20_irq+0x2978>
 100506c:	e0bfc917 	ldw	r2,-220(fp)
 1005070:	10c00083 	ldbu	r3,2(r2)
 1005074:	108000c3 	ldbu	r2,3(r2)
 1005078:	1004923a 	slli	r2,r2,8
 100507c:	10c4b03a 	or	r2,r2,r3
 1005080:	10bfffcc 	andi	r2,r2,65535
 1005084:	e0bfdf15 	stw	r2,-132(fp)
 1005088:	e0ffdd17 	ldw	r3,-140(fp)
 100508c:	e0bfdf17 	ldw	r2,-132(fp)
 1005090:	1885883a 	add	r2,r3,r2
 1005094:	e0bfdd15 	stw	r2,-140(fp)
 1005098:	e0bfc917 	ldw	r2,-220(fp)
 100509c:	1007883a 	mov	r3,r2
 10050a0:	e0bfdf17 	ldw	r2,-132(fp)
 10050a4:	1885883a 	add	r2,r3,r2
 10050a8:	e0bfda15 	stw	r2,-152(fp)
 10050ac:	e0bfda17 	ldw	r2,-152(fp)
 10050b0:	e0bfc915 	stw	r2,-220(fp)
 10050b4:	003fd506 	br	100500c <__alt_data_end+0xfffe40b4>
 10050b8:	e0bfc917 	ldw	r2,-220(fp)
 10050bc:	10800083 	ldbu	r2,2(r2)
 10050c0:	10803fcc 	andi	r2,r2,255
 10050c4:	e0bfe215 	stw	r2,-120(fp)
 10050c8:	e0bfc917 	ldw	r2,-220(fp)
 10050cc:	108000c3 	ldbu	r2,3(r2)
 10050d0:	10803fcc 	andi	r2,r2,255
 10050d4:	e0bfdb15 	stw	r2,-148(fp)
 10050d8:	e03fe415 	stw	zero,-112(fp)
 10050dc:	e0ffd28b 	ldhu	r3,-182(fp)
 10050e0:	e0bfe217 	ldw	r2,-120(fp)
 10050e4:	1880661e 	bne	r3,r2,1005280 <sls_avalon_usb20_irq+0x2978>
 10050e8:	e0bfd30b 	ldhu	r2,-180(fp)
 10050ec:	10c03fcc 	andi	r3,r2,255
 10050f0:	e0bfdb17 	ldw	r2,-148(fp)
 10050f4:	1880621e 	bne	r3,r2,1005280 <sls_avalon_usb20_irq+0x2978>
 10050f8:	00800044 	movi	r2,1
 10050fc:	e0bfd645 	stb	r2,-167(fp)
 1005100:	e0ffe217 	ldw	r3,-120(fp)
 1005104:	e0bfd517 	ldw	r2,-172(fp)
 1005108:	1885883a 	add	r2,r3,r2
 100510c:	10803504 	addi	r2,r2,212
 1005110:	10800003 	ldbu	r2,0(r2)
 1005114:	10803fcc 	andi	r2,r2,255
 1005118:	e0bfe315 	stw	r2,-116(fp)
 100511c:	e0ffe217 	ldw	r3,-120(fp)
 1005120:	e0bfdb17 	ldw	r2,-148(fp)
 1005124:	1009883a 	mov	r4,r2
 1005128:	e0bfd517 	ldw	r2,-172(fp)
 100512c:	1885883a 	add	r2,r3,r2
 1005130:	10803504 	addi	r2,r2,212
 1005134:	11000005 	stb	r4,0(r2)
 1005138:	00005106 	br	1005280 <sls_avalon_usb20_irq+0x2978>
 100513c:	e0bfc917 	ldw	r2,-220(fp)
 1005140:	10800083 	ldbu	r2,2(r2)
 1005144:	10803fcc 	andi	r2,r2,255
 1005148:	e0bfdf15 	stw	r2,-132(fp)
 100514c:	e0bfd28b 	ldhu	r2,-182(fp)
 1005150:	10c03fcc 	andi	r3,r2,255
 1005154:	e0bfe217 	ldw	r2,-120(fp)
 1005158:	1880491e 	bne	r3,r2,1005280 <sls_avalon_usb20_irq+0x2978>
 100515c:	e0bfdf17 	ldw	r2,-132(fp)
 1005160:	108023cc 	andi	r2,r2,143
 1005164:	e0bfd915 	stw	r2,-156(fp)
 1005168:	e0bfd917 	ldw	r2,-156(fp)
 100516c:	1080200c 	andi	r2,r2,128
 1005170:	1005003a 	cmpeq	r2,r2,zero
 1005174:	1000061e 	bne	r2,zero,1005190 <sls_avalon_usb20_irq+0x2888>
 1005178:	e0bfd917 	ldw	r2,-156(fp)
 100517c:	10c003cc 	andi	r3,r2,15
 1005180:	00a00014 	movui	r2,32768
 1005184:	10c4983a 	sll	r2,r2,r3
 1005188:	e0bff315 	stw	r2,-52(fp)
 100518c:	00000606 	br	10051a8 <sls_avalon_usb20_irq+0x28a0>
 1005190:	e0bfd917 	ldw	r2,-156(fp)
 1005194:	10bfffc4 	addi	r2,r2,-1
 1005198:	1007883a 	mov	r3,r2
 100519c:	00800044 	movi	r2,1
 10051a0:	10c4983a 	sll	r2,r2,r3
 10051a4:	e0bff315 	stw	r2,-52(fp)
 10051a8:	e13ff317 	ldw	r4,-52(fp)
 10051ac:	e13fd815 	stw	r4,-160(fp)
 10051b0:	e0bfd30b 	ldhu	r2,-180(fp)
 10051b4:	10c03fcc 	andi	r3,r2,255
 10051b8:	e0bfdb17 	ldw	r2,-148(fp)
 10051bc:	1880161e 	bne	r3,r2,1005218 <sls_avalon_usb20_irq+0x2910>
 10051c0:	e0bfd517 	ldw	r2,-172(fp)
 10051c4:	10c02c17 	ldw	r3,176(r2)
 10051c8:	e0bfd817 	ldw	r2,-160(fp)
 10051cc:	1886b03a 	or	r3,r3,r2
 10051d0:	e0bfd517 	ldw	r2,-172(fp)
 10051d4:	10c02c15 	stw	r3,176(r2)
 10051d8:	e0bfd517 	ldw	r2,-172(fp)
 10051dc:	10c02d17 	ldw	r3,180(r2)
 10051e0:	e0bfd817 	ldw	r2,-160(fp)
 10051e4:	0084303a 	nor	r2,zero,r2
 10051e8:	1886703a 	and	r3,r3,r2
 10051ec:	e0bfd517 	ldw	r2,-172(fp)
 10051f0:	10c02d15 	stw	r3,180(r2)
 10051f4:	e13fd517 	ldw	r4,-172(fp)
 10051f8:	e0bfd917 	ldw	r2,-156(fp)
 10051fc:	114003cc 	andi	r5,r2,15
 1005200:	1001ca80 	call	1001ca8 <USB_EnableEP>
 1005204:	e0ffe417 	ldw	r3,-112(fp)
 1005208:	e0bfd817 	ldw	r2,-160(fp)
 100520c:	1884b03a 	or	r2,r3,r2
 1005210:	e0bfe415 	stw	r2,-112(fp)
 1005214:	00001a06 	br	1005280 <sls_avalon_usb20_irq+0x2978>
 1005218:	e0ffdb17 	ldw	r3,-148(fp)
 100521c:	e0bfe317 	ldw	r2,-116(fp)
 1005220:	1880171e 	bne	r3,r2,1005280 <sls_avalon_usb20_irq+0x2978>
 1005224:	e0ffe417 	ldw	r3,-112(fp)
 1005228:	e0bfd817 	ldw	r2,-160(fp)
 100522c:	1884703a 	and	r2,r3,r2
 1005230:	1004c03a 	cmpne	r2,r2,zero
 1005234:	1000121e 	bne	r2,zero,1005280 <sls_avalon_usb20_irq+0x2978>
 1005238:	e0bfd517 	ldw	r2,-172(fp)
 100523c:	10c02c17 	ldw	r3,176(r2)
 1005240:	e0bfd817 	ldw	r2,-160(fp)
 1005244:	0084303a 	nor	r2,zero,r2
 1005248:	1886703a 	and	r3,r3,r2
 100524c:	e0bfd517 	ldw	r2,-172(fp)
 1005250:	10c02c15 	stw	r3,176(r2)
 1005254:	e0bfd517 	ldw	r2,-172(fp)
 1005258:	10c02d17 	ldw	r3,180(r2)
 100525c:	e0bfd817 	ldw	r2,-160(fp)
 1005260:	0084303a 	nor	r2,zero,r2
 1005264:	1886703a 	and	r3,r3,r2
 1005268:	e0bfd517 	ldw	r2,-172(fp)
 100526c:	10c02d15 	stw	r3,180(r2)
 1005270:	e13fd517 	ldw	r4,-172(fp)
 1005274:	e0bfd917 	ldw	r2,-156(fp)
 1005278:	114003cc 	andi	r5,r2,15
 100527c:	10026e40 	call	10026e4 <USB_DisableEP>
 1005280:	e0bfc917 	ldw	r2,-220(fp)
 1005284:	10800003 	ldbu	r2,0(r2)
 1005288:	10803fcc 	andi	r2,r2,255
 100528c:	1080201c 	xori	r2,r2,128
 1005290:	10bfe004 	addi	r2,r2,-128
 1005294:	e0bfdf15 	stw	r2,-132(fp)
 1005298:	e0ffdd17 	ldw	r3,-140(fp)
 100529c:	e0bfdf17 	ldw	r2,-132(fp)
 10052a0:	1885883a 	add	r2,r3,r2
 10052a4:	e0bfdd15 	stw	r2,-140(fp)
 10052a8:	e0bfc917 	ldw	r2,-220(fp)
 10052ac:	1007883a 	mov	r3,r2
 10052b0:	e0bfdf17 	ldw	r2,-132(fp)
 10052b4:	1885883a 	add	r2,r3,r2
 10052b8:	e0bfda15 	stw	r2,-152(fp)
 10052bc:	e0bfda17 	ldw	r2,-152(fp)
 10052c0:	e0bfc915 	stw	r2,-220(fp)
 10052c4:	e0ffdd17 	ldw	r3,-140(fp)
 10052c8:	e0bfde17 	ldw	r2,-136(fp)
 10052cc:	1880012e 	bgeu	r3,r2,10052d4 <sls_avalon_usb20_irq+0x29cc>
 10052d0:	003f4e06 	br	100500c <__alt_data_end+0xfffe40b4>
 10052d4:	e0bfea17 	ldw	r2,-88(fp)
 10052d8:	10801304 	addi	r2,r2,76
 10052dc:	10000035 	stwio	zero,0(r2)
 10052e0:	e0bfd017 	ldw	r2,-192(fp)
 10052e4:	10800083 	ldbu	r2,2(r2)
 10052e8:	10c03fcc 	andi	r3,r2,255
 10052ec:	e0bfd517 	ldw	r2,-172(fp)
 10052f0:	10c02a15 	stw	r3,168(r2)
 10052f4:	e0bfd30b 	ldhu	r2,-180(fp)
 10052f8:	10c03fcc 	andi	r3,r2,255
 10052fc:	e0bfd517 	ldw	r2,-172(fp)
 1005300:	10c02b15 	stw	r3,172(r2)
 1005304:	00019506 	br	100595c <sls_avalon_usb20_irq+0x3054>
 1005308:	e0bfe817 	ldw	r2,-96(fp)
 100530c:	10800060 	cmpeqi	r2,r2,1
 1005310:	1000071e 	bne	r2,zero,1005330 <sls_avalon_usb20_irq+0x2a28>
 1005314:	e13fd517 	ldw	r4,-172(fp)
 1005318:	01402004 	movi	r5,128
 100531c:	10019040 	call	1001904 <USB_SetStallEP>
 1005320:	e0ffcf17 	ldw	r3,-196(fp)
 1005324:	00800084 	movi	r2,2
 1005328:	18800215 	stw	r2,8(r3)
 100532c:	00018b06 	br	100595c <sls_avalon_usb20_irq+0x3054>
 1005330:	e0bfd517 	ldw	r2,-172(fp)
 1005334:	10802817 	ldw	r2,160(r2)
 1005338:	1005003a 	cmpeq	r2,r2,zero
 100533c:	1000161e 	bne	r2,zero,1005398 <sls_avalon_usb20_irq+0x2a90>
 1005340:	e0bfd28b 	ldhu	r2,-182(fp)
 1005344:	e0ffd517 	ldw	r3,-172(fp)
 1005348:	18c02e17 	ldw	r3,184(r3)
 100534c:	10c0122e 	bgeu	r2,r3,1005398 <sls_avalon_usb20_irq+0x2a90>
 1005350:	e0bfea17 	ldw	r2,-88(fp)
 1005354:	1007883a 	mov	r3,r2
 1005358:	008000b4 	movhi	r2,2
 100535c:	1889883a 	add	r4,r3,r2
 1005360:	e0ffd28b 	ldhu	r3,-182(fp)
 1005364:	e0bfd517 	ldw	r2,-172(fp)
 1005368:	1885883a 	add	r2,r3,r2
 100536c:	10803504 	addi	r2,r2,212
 1005370:	10800003 	ldbu	r2,0(r2)
 1005374:	10c03fcc 	andi	r3,r2,255
 1005378:	2005883a 	mov	r2,r4
 100537c:	10c00025 	stbio	r3,0(r2)
 1005380:	e0bfea17 	ldw	r2,-88(fp)
 1005384:	10801304 	addi	r2,r2,76
 1005388:	1007883a 	mov	r3,r2
 100538c:	008000b4 	movhi	r2,2
 1005390:	18800035 	stwio	r2,0(r3)
 1005394:	00017106 	br	100595c <sls_avalon_usb20_irq+0x3054>
 1005398:	e13fd517 	ldw	r4,-172(fp)
 100539c:	01402004 	movi	r5,128
 10053a0:	10019040 	call	1001904 <USB_SetStallEP>
 10053a4:	e0ffcf17 	ldw	r3,-196(fp)
 10053a8:	00800084 	movi	r2,2
 10053ac:	18800215 	stw	r2,8(r3)
 10053b0:	00016a06 	br	100595c <sls_avalon_usb20_irq+0x3054>
 10053b4:	e0bfcf17 	ldw	r2,-196(fp)
 10053b8:	10800317 	ldw	r2,12(r2)
 10053bc:	10800098 	cmpnei	r2,r2,2
 10053c0:	1000441e 	bne	r2,zero,10054d4 <sls_avalon_usb20_irq+0x2bcc>
 10053c4:	e0bfcf17 	ldw	r2,-196(fp)
 10053c8:	10000015 	stw	zero,0(r2)
 10053cc:	e0ffcf17 	ldw	r3,-196(fp)
 10053d0:	00800084 	movi	r2,2
 10053d4:	18800215 	stw	r2,8(r3)
 10053d8:	e0bfcf17 	ldw	r2,-196(fp)
 10053dc:	10000515 	stw	zero,20(r2)
 10053e0:	e0bfd517 	ldw	r2,-172(fp)
 10053e4:	10803d17 	ldw	r2,244(r2)
 10053e8:	1005003a 	cmpeq	r2,r2,zero
 10053ec:	10000b1e 	bne	r2,zero,100541c <sls_avalon_usb20_irq+0x2b14>
 10053f0:	e0bfd517 	ldw	r2,-172(fp)
 10053f4:	10803d17 	ldw	r2,244(r2)
 10053f8:	e13fcf17 	ldw	r4,-196(fp)
 10053fc:	e17fea17 	ldw	r5,-88(fp)
 1005400:	000d883a 	mov	r6,zero
 1005404:	103ee83a 	callr	r2
 1005408:	e0bfcf17 	ldw	r2,-196(fp)
 100540c:	10800517 	ldw	r2,20(r2)
 1005410:	1005003a 	cmpeq	r2,r2,zero
 1005414:	1000081e 	bne	r2,zero,1005438 <sls_avalon_usb20_irq+0x2b30>
 1005418:	00000b06 	br	1005448 <sls_avalon_usb20_irq+0x2b40>
 100541c:	e13fd517 	ldw	r4,-172(fp)
 1005420:	01402004 	movi	r5,128
 1005424:	10019040 	call	1001904 <USB_SetStallEP>
 1005428:	e0ffcf17 	ldw	r3,-196(fp)
 100542c:	00800084 	movi	r2,2
 1005430:	18800215 	stw	r2,8(r3)
 1005434:	00014906 	br	100595c <sls_avalon_usb20_irq+0x3054>
 1005438:	e0bfea17 	ldw	r2,-88(fp)
 100543c:	10801304 	addi	r2,r2,76
 1005440:	10000035 	stwio	zero,0(r2)
 1005444:	00014506 	br	100595c <sls_avalon_usb20_irq+0x3054>
 1005448:	e03fe015 	stw	zero,-128(fp)
 100544c:	00001406 	br	10054a0 <sls_avalon_usb20_irq+0x2b98>
 1005450:	e0bfea17 	ldw	r2,-88(fp)
 1005454:	1007883a 	mov	r3,r2
 1005458:	e0bfe017 	ldw	r2,-128(fp)
 100545c:	1887883a 	add	r3,r3,r2
 1005460:	008000b4 	movhi	r2,2
 1005464:	1889883a 	add	r4,r3,r2
 1005468:	e0bfcf17 	ldw	r2,-196(fp)
 100546c:	10800017 	ldw	r2,0(r2)
 1005470:	1007883a 	mov	r3,r2
 1005474:	e0bfe017 	ldw	r2,-128(fp)
 1005478:	1885883a 	add	r2,r3,r2
 100547c:	10800003 	ldbu	r2,0(r2)
 1005480:	10c03fcc 	andi	r3,r2,255
 1005484:	18c0201c 	xori	r3,r3,128
 1005488:	18ffe004 	addi	r3,r3,-128
 100548c:	2005883a 	mov	r2,r4
 1005490:	10c00025 	stbio	r3,0(r2)
 1005494:	e0bfe017 	ldw	r2,-128(fp)
 1005498:	10800044 	addi	r2,r2,1
 100549c:	e0bfe015 	stw	r2,-128(fp)
 10054a0:	e0bfcf17 	ldw	r2,-196(fp)
 10054a4:	10c00517 	ldw	r3,20(r2)
 10054a8:	e0bfe017 	ldw	r2,-128(fp)
 10054ac:	10ffe836 	bltu	r2,r3,1005450 <__alt_data_end+0xfffe44f8>
 10054b0:	e0bfea17 	ldw	r2,-88(fp)
 10054b4:	11001304 	addi	r4,r2,76
 10054b8:	e0bfcf17 	ldw	r2,-196(fp)
 10054bc:	10800517 	ldw	r2,20(r2)
 10054c0:	1004947a 	slli	r2,r2,17
 10054c4:	1007883a 	mov	r3,r2
 10054c8:	2005883a 	mov	r2,r4
 10054cc:	10c00035 	stwio	r3,0(r2)
 10054d0:	00012206 	br	100595c <sls_avalon_usb20_irq+0x3054>
 10054d4:	e0bfcf17 	ldw	r2,-196(fp)
 10054d8:	10800317 	ldw	r2,12(r2)
 10054dc:	10800058 	cmpnei	r2,r2,1
 10054e0:	1000641e 	bne	r2,zero,1005674 <sls_avalon_usb20_irq+0x2d6c>
 10054e4:	e0bfcf17 	ldw	r2,-196(fp)
 10054e8:	10000115 	stw	zero,4(r2)
 10054ec:	e0bfcf17 	ldw	r2,-196(fp)
 10054f0:	10800417 	ldw	r2,16(r2)
 10054f4:	1004c03a 	cmpne	r2,r2,zero
 10054f8:	1000141e 	bne	r2,zero,100554c <sls_avalon_usb20_irq+0x2c44>
 10054fc:	e0bfd517 	ldw	r2,-172(fp)
 1005500:	10003415 	stw	zero,208(r2)
 1005504:	e0bfd517 	ldw	r2,-172(fp)
 1005508:	10803d17 	ldw	r2,244(r2)
 100550c:	1005003a 	cmpeq	r2,r2,zero
 1005510:	1000071e 	bne	r2,zero,1005530 <sls_avalon_usb20_irq+0x2c28>
 1005514:	e0bfd517 	ldw	r2,-172(fp)
 1005518:	10803d17 	ldw	r2,244(r2)
 100551c:	e13fcf17 	ldw	r4,-196(fp)
 1005520:	e17fea17 	ldw	r5,-88(fp)
 1005524:	01800084 	movi	r6,2
 1005528:	103ee83a 	callr	r2
 100552c:	00000706 	br	100554c <sls_avalon_usb20_irq+0x2c44>
 1005530:	e13fd517 	ldw	r4,-172(fp)
 1005534:	01402004 	movi	r5,128
 1005538:	10019040 	call	1001904 <USB_SetStallEP>
 100553c:	e0ffcf17 	ldw	r3,-196(fp)
 1005540:	00800084 	movi	r2,2
 1005544:	18800215 	stw	r2,8(r3)
 1005548:	00010406 	br	100595c <sls_avalon_usb20_irq+0x3054>
 100554c:	e0bfcf17 	ldw	r2,-196(fp)
 1005550:	10800417 	ldw	r2,16(r2)
 1005554:	1004c03a 	cmpne	r2,r2,zero
 1005558:	1000061e 	bne	r2,zero,1005574 <sls_avalon_usb20_irq+0x2c6c>
 100555c:	e0bfcf17 	ldw	r2,-196(fp)
 1005560:	10000215 	stw	zero,8(r2)
 1005564:	e0bfea17 	ldw	r2,-88(fp)
 1005568:	10801304 	addi	r2,r2,76
 100556c:	10000035 	stwio	zero,0(r2)
 1005570:	0000fa06 	br	100595c <sls_avalon_usb20_irq+0x3054>
 1005574:	e03fdf15 	stw	zero,-132(fp)
 1005578:	e0bfd517 	ldw	r2,-172(fp)
 100557c:	10803417 	ldw	r2,208(r2)
 1005580:	e0bfd915 	stw	r2,-156(fp)
 1005584:	e0bfd517 	ldw	r2,-172(fp)
 1005588:	10c03417 	ldw	r3,208(r2)
 100558c:	e0bfcf17 	ldw	r2,-196(fp)
 1005590:	10800417 	ldw	r2,16(r2)
 1005594:	1880272e 	bgeu	r3,r2,1005634 <sls_avalon_usb20_irq+0x2d2c>
 1005598:	e0bfcf17 	ldw	r2,-196(fp)
 100559c:	10c00417 	ldw	r3,16(r2)
 10055a0:	e0bfd517 	ldw	r2,-172(fp)
 10055a4:	10803417 	ldw	r2,208(r2)
 10055a8:	1885c83a 	sub	r2,r3,r2
 10055ac:	e0bfdf15 	stw	r2,-132(fp)
 10055b0:	e0bfe917 	ldw	r2,-92(fp)
 10055b4:	1007883a 	mov	r3,r2
 10055b8:	e0bfdf17 	ldw	r2,-132(fp)
 10055bc:	1880022e 	bgeu	r3,r2,10055c8 <sls_avalon_usb20_irq+0x2cc0>
 10055c0:	e0bfe917 	ldw	r2,-92(fp)
 10055c4:	e0bfdf15 	stw	r2,-132(fp)
 10055c8:	e03fe015 	stw	zero,-128(fp)
 10055cc:	00001606 	br	1005628 <sls_avalon_usb20_irq+0x2d20>
 10055d0:	e0bfea17 	ldw	r2,-88(fp)
 10055d4:	1007883a 	mov	r3,r2
 10055d8:	e0bfe017 	ldw	r2,-128(fp)
 10055dc:	1887883a 	add	r3,r3,r2
 10055e0:	008000b4 	movhi	r2,2
 10055e4:	1889883a 	add	r4,r3,r2
 10055e8:	e0bfcf17 	ldw	r2,-196(fp)
 10055ec:	10800117 	ldw	r2,4(r2)
 10055f0:	1007883a 	mov	r3,r2
 10055f4:	e0bfe017 	ldw	r2,-128(fp)
 10055f8:	1887883a 	add	r3,r3,r2
 10055fc:	e0bfd917 	ldw	r2,-156(fp)
 1005600:	1885883a 	add	r2,r3,r2
 1005604:	10800003 	ldbu	r2,0(r2)
 1005608:	10c03fcc 	andi	r3,r2,255
 100560c:	18c0201c 	xori	r3,r3,128
 1005610:	18ffe004 	addi	r3,r3,-128
 1005614:	2005883a 	mov	r2,r4
 1005618:	10c00025 	stbio	r3,0(r2)
 100561c:	e0bfe017 	ldw	r2,-128(fp)
 1005620:	10800044 	addi	r2,r2,1
 1005624:	e0bfe015 	stw	r2,-128(fp)
 1005628:	e0ffe017 	ldw	r3,-128(fp)
 100562c:	e0bfdf17 	ldw	r2,-132(fp)
 1005630:	18bfe736 	bltu	r3,r2,10055d0 <__alt_data_end+0xfffe4678>
 1005634:	e0bfea17 	ldw	r2,-88(fp)
 1005638:	11001304 	addi	r4,r2,76
 100563c:	e0bfdf17 	ldw	r2,-132(fp)
 1005640:	1004947a 	slli	r2,r2,17
 1005644:	1007883a 	mov	r3,r2
 1005648:	2005883a 	mov	r2,r4
 100564c:	10c00035 	stwio	r3,0(r2)
 1005650:	e0bfd517 	ldw	r2,-172(fp)
 1005654:	10c03417 	ldw	r3,208(r2)
 1005658:	e0bfdf17 	ldw	r2,-132(fp)
 100565c:	1887883a 	add	r3,r3,r2
 1005660:	e0bfd517 	ldw	r2,-172(fp)
 1005664:	10c03415 	stw	r3,208(r2)
 1005668:	e0bfcf17 	ldw	r2,-196(fp)
 100566c:	10000215 	stw	zero,8(r2)
 1005670:	0000ba06 	br	100595c <sls_avalon_usb20_irq+0x3054>
 1005674:	e0bfcf17 	ldw	r2,-196(fp)
 1005678:	10800317 	ldw	r2,12(r2)
 100567c:	1004c03a 	cmpne	r2,r2,zero
 1005680:	10001c1e 	bne	r2,zero,10056f4 <sls_avalon_usb20_irq+0x2dec>
 1005684:	e0bfcf17 	ldw	r2,-196(fp)
 1005688:	10000115 	stw	zero,4(r2)
 100568c:	e0bfd517 	ldw	r2,-172(fp)
 1005690:	10803d17 	ldw	r2,244(r2)
 1005694:	1005003a 	cmpeq	r2,r2,zero
 1005698:	1000061e 	bne	r2,zero,10056b4 <sls_avalon_usb20_irq+0x2dac>
 100569c:	e0bfd517 	ldw	r2,-172(fp)
 10056a0:	10803d17 	ldw	r2,244(r2)
 10056a4:	e13fcf17 	ldw	r4,-196(fp)
 10056a8:	e17fea17 	ldw	r5,-88(fp)
 10056ac:	018000c4 	movi	r6,3
 10056b0:	103ee83a 	callr	r2
 10056b4:	e0bfcf17 	ldw	r2,-196(fp)
 10056b8:	10000415 	stw	zero,16(r2)
 10056bc:	e0bfea17 	ldw	r2,-88(fp)
 10056c0:	10801204 	addi	r2,r2,72
 10056c4:	10800037 	ldwio	r2,0(r2)
 10056c8:	e0bfdf15 	stw	r2,-132(fp)
 10056cc:	e0bfdf17 	ldw	r2,-132(fp)
 10056d0:	1004403a 	cmpge	r2,r2,zero
 10056d4:	1000071e 	bne	r2,zero,10056f4 <sls_avalon_usb20_irq+0x2dec>
 10056d8:	e0bfea17 	ldw	r2,-88(fp)
 10056dc:	11001204 	addi	r4,r2,72
 10056e0:	e0bfe917 	ldw	r2,-92(fp)
 10056e4:	1006947a 	slli	r3,r2,17
 10056e8:	2005883a 	mov	r2,r4
 10056ec:	10c00035 	stwio	r3,0(r2)
 10056f0:	00009a06 	br	100595c <sls_avalon_usb20_irq+0x3054>
 10056f4:	e0bfe117 	ldw	r2,-124(fp)
 10056f8:	10bfff8c 	andi	r2,r2,65534
 10056fc:	108000b0 	cmpltui	r2,r2,2
 1005700:	1000381e 	bne	r2,zero,10057e4 <sls_avalon_usb20_irq+0x2edc>
 1005704:	e03ff015 	stw	zero,-64(fp)
 1005708:	00800044 	movi	r2,1
 100570c:	e0bfd715 	stw	r2,-164(fp)
 1005710:	00003106 	br	10057d8 <sls_avalon_usb20_irq+0x2ed0>
 1005714:	e0bfe117 	ldw	r2,-124(fp)
 1005718:	10ffff8c 	andi	r3,r2,65534
 100571c:	e0bfd717 	ldw	r2,-164(fp)
 1005720:	1884d83a 	srl	r2,r3,r2
 1005724:	10800058 	cmpnei	r2,r2,1
 1005728:	1000281e 	bne	r2,zero,10057cc <sls_avalon_usb20_irq+0x2ec4>
 100572c:	e0bfd717 	ldw	r2,-164(fp)
 1005730:	e0bff015 	stw	r2,-64(fp)
 1005734:	e0bff017 	ldw	r2,-64(fp)
 1005738:	1004913a 	slli	r2,r2,4
 100573c:	1007883a 	mov	r3,r2
 1005740:	e0bfea17 	ldw	r2,-88(fp)
 1005744:	1885883a 	add	r2,r3,r2
 1005748:	10801104 	addi	r2,r2,68
 100574c:	10800037 	ldwio	r2,0(r2)
 1005750:	10803fcc 	andi	r2,r2,255
 1005754:	e0bfdc15 	stw	r2,-144(fp)
 1005758:	e0bfdc17 	ldw	r2,-144(fp)
 100575c:	108029cc 	andi	r2,r2,167
 1005760:	1005003a 	cmpeq	r2,r2,zero
 1005764:	1000191e 	bne	r2,zero,10057cc <sls_avalon_usb20_irq+0x2ec4>
 1005768:	e0bff017 	ldw	r2,-64(fp)
 100576c:	1004913a 	slli	r2,r2,4
 1005770:	1007883a 	mov	r3,r2
 1005774:	e0bfea17 	ldw	r2,-88(fp)
 1005778:	1885883a 	add	r2,r3,r2
 100577c:	10801004 	addi	r2,r2,64
 1005780:	10800037 	ldwio	r2,0(r2)
 1005784:	1083002c 	andhi	r2,r2,3072
 1005788:	1004913a 	slli	r2,r2,4
 100578c:	e0bfc815 	stw	r2,-224(fp)
 1005790:	e0bfd517 	ldw	r2,-172(fp)
 1005794:	10803c17 	ldw	r2,240(r2)
 1005798:	1005003a 	cmpeq	r2,r2,zero
 100579c:	10000b1e 	bne	r2,zero,10057cc <sls_avalon_usb20_irq+0x2ec4>
 10057a0:	e0bfd517 	ldw	r2,-172(fp)
 10057a4:	11403c17 	ldw	r5,240(r2)
 10057a8:	e0bfdc17 	ldw	r2,-144(fp)
 10057ac:	10c029cc 	andi	r3,r2,167
 10057b0:	e0bfc817 	ldw	r2,-224(fp)
 10057b4:	1886b03a 	or	r3,r3,r2
 10057b8:	e0bff017 	ldw	r2,-64(fp)
 10057bc:	1004963a 	slli	r2,r2,24
 10057c0:	1884b03a 	or	r2,r3,r2
 10057c4:	1009883a 	mov	r4,r2
 10057c8:	283ee83a 	callr	r5
 10057cc:	e0bfd717 	ldw	r2,-164(fp)
 10057d0:	10800044 	addi	r2,r2,1
 10057d4:	e0bfd715 	stw	r2,-164(fp)
 10057d8:	e0bfd717 	ldw	r2,-164(fp)
 10057dc:	10800430 	cmpltui	r2,r2,16
 10057e0:	103fcc1e 	bne	r2,zero,1005714 <__alt_data_end+0xfffe47bc>
 10057e4:	e0bfe117 	ldw	r2,-124(fp)
 10057e8:	10821c2c 	andhi	r2,r2,2160
 10057ec:	1005003a 	cmpeq	r2,r2,zero
 10057f0:	10000f1e 	bne	r2,zero,1005830 <sls_avalon_usb20_irq+0x2f28>
 10057f4:	e0ffcf17 	ldw	r3,-196(fp)
 10057f8:	00800084 	movi	r2,2
 10057fc:	18800215 	stw	r2,8(r3)
 1005800:	e0bfd517 	ldw	r2,-172(fp)
 1005804:	10803c17 	ldw	r2,240(r2)
 1005808:	1005003a 	cmpeq	r2,r2,zero
 100580c:	1000081e 	bne	r2,zero,1005830 <sls_avalon_usb20_irq+0x2f28>
 1005810:	e0bfe117 	ldw	r2,-124(fp)
 1005814:	10821c2c 	andhi	r2,r2,2160
 1005818:	e0bff115 	stw	r2,-60(fp)
 100581c:	e0bfd517 	ldw	r2,-172(fp)
 1005820:	10c03c17 	ldw	r3,240(r2)
 1005824:	e0bff117 	ldw	r2,-60(fp)
 1005828:	1009d33a 	srai	r4,r2,12
 100582c:	183ee83a 	callr	r3
 1005830:	e0bfe117 	ldw	r2,-124(fp)
 1005834:	1080402c 	andhi	r2,r2,256
 1005838:	1005003a 	cmpeq	r2,r2,zero
 100583c:	10000b1e 	bne	r2,zero,100586c <sls_avalon_usb20_irq+0x2f64>
 1005840:	e0bfd517 	ldw	r2,-172(fp)
 1005844:	10803917 	ldw	r2,228(r2)
 1005848:	1005003a 	cmpeq	r2,r2,zero
 100584c:	1000041e 	bne	r2,zero,1005860 <sls_avalon_usb20_irq+0x2f58>
 1005850:	e0bfd517 	ldw	r2,-172(fp)
 1005854:	10803917 	ldw	r2,228(r2)
 1005858:	e13fd517 	ldw	r4,-172(fp)
 100585c:	103ee83a 	callr	r2
 1005860:	e0ffd517 	ldw	r3,-172(fp)
 1005864:	00800144 	movi	r2,5
 1005868:	18800f15 	stw	r2,60(r3)
 100586c:	e0bfe117 	ldw	r2,-124(fp)
 1005870:	1080202c 	andhi	r2,r2,128
 1005874:	1005003a 	cmpeq	r2,r2,zero
 1005878:	10000b1e 	bne	r2,zero,10058a8 <sls_avalon_usb20_irq+0x2fa0>
 100587c:	e0ffd517 	ldw	r3,-172(fp)
 1005880:	00800104 	movi	r2,4
 1005884:	18800f15 	stw	r2,60(r3)
 1005888:	e0bfd517 	ldw	r2,-172(fp)
 100588c:	10803a17 	ldw	r2,232(r2)
 1005890:	1005003a 	cmpeq	r2,r2,zero
 1005894:	1000041e 	bne	r2,zero,10058a8 <sls_avalon_usb20_irq+0x2fa0>
 1005898:	e0bfd517 	ldw	r2,-172(fp)
 100589c:	10803a17 	ldw	r2,232(r2)
 10058a0:	e13fd517 	ldw	r4,-172(fp)
 10058a4:	103ee83a 	callr	r2
 10058a8:	e0bfe117 	ldw	r2,-124(fp)
 10058ac:	1081002c 	andhi	r2,r2,1024
 10058b0:	1005003a 	cmpeq	r2,r2,zero
 10058b4:	10001d1e 	bne	r2,zero,100592c <sls_avalon_usb20_irq+0x3024>
 10058b8:	e0ffd517 	ldw	r3,-172(fp)
 10058bc:	00800044 	movi	r2,1
 10058c0:	18800e15 	stw	r2,56(r3)
 10058c4:	e0bfd517 	ldw	r2,-172(fp)
 10058c8:	1001bc45 	stb	zero,1777(r2)
 10058cc:	e0bfd517 	ldw	r2,-172(fp)
 10058d0:	1001bc05 	stb	zero,1776(r2)
 10058d4:	e0bfd517 	ldw	r2,-172(fp)
 10058d8:	10803317 	ldw	r2,204(r2)
 10058dc:	1004c03a 	cmpne	r2,r2,zero
 10058e0:	1000031e 	bne	r2,zero,10058f0 <sls_avalon_usb20_irq+0x2fe8>
 10058e4:	e0ffd517 	ldw	r3,-172(fp)
 10058e8:	00800044 	movi	r2,1
 10058ec:	18803315 	stw	r2,204(r3)
 10058f0:	e0bfd517 	ldw	r2,-172(fp)
 10058f4:	10000f15 	stw	zero,60(r2)
 10058f8:	e0bfd517 	ldw	r2,-172(fp)
 10058fc:	10003215 	stw	zero,200(r2)
 1005900:	e0bfd517 	ldw	r2,-172(fp)
 1005904:	10803717 	ldw	r2,220(r2)
 1005908:	1005003a 	cmpeq	r2,r2,zero
 100590c:	1000041e 	bne	r2,zero,1005920 <sls_avalon_usb20_irq+0x3018>
 1005910:	e0bfd517 	ldw	r2,-172(fp)
 1005914:	10803717 	ldw	r2,220(r2)
 1005918:	e13fd517 	ldw	r4,-172(fp)
 100591c:	103ee83a 	callr	r2
 1005920:	e0ffcf17 	ldw	r3,-196(fp)
 1005924:	00800084 	movi	r2,2
 1005928:	18800215 	stw	r2,8(r3)
 100592c:	e0bfe117 	ldw	r2,-124(fp)
 1005930:	1080802c 	andhi	r2,r2,512
 1005934:	1005003a 	cmpeq	r2,r2,zero
 1005938:	1000081e 	bne	r2,zero,100595c <sls_avalon_usb20_irq+0x3054>
 100593c:	e0bfd517 	ldw	r2,-172(fp)
 1005940:	10803617 	ldw	r2,216(r2)
 1005944:	1005003a 	cmpeq	r2,r2,zero
 1005948:	1000041e 	bne	r2,zero,100595c <sls_avalon_usb20_irq+0x3054>
 100594c:	e0bfd517 	ldw	r2,-172(fp)
 1005950:	10803617 	ldw	r2,216(r2)
 1005954:	e13fd517 	ldw	r4,-172(fp)
 1005958:	103ee83a 	callr	r2
 100595c:	e037883a 	mov	sp,fp
 1005960:	dfc00117 	ldw	ra,4(sp)
 1005964:	df000017 	ldw	fp,0(sp)
 1005968:	dec00204 	addi	sp,sp,8
 100596c:	f800283a 	ret

01005970 <usb20sr_config>:
 1005970:	defff704 	addi	sp,sp,-36
 1005974:	dfc00815 	stw	ra,32(sp)
 1005978:	df000715 	stw	fp,28(sp)
 100597c:	df000704 	addi	fp,sp,28
 1005980:	e13ffb15 	stw	r4,-20(fp)
 1005984:	e17ffc15 	stw	r5,-16(fp)
 1005988:	e1bffd15 	stw	r6,-12(fp)
 100598c:	e1fffe15 	stw	r7,-8(fp)
 1005990:	e03ffa15 	stw	zero,-24(fp)
 1005994:	e13ffd17 	ldw	r4,-12(fp)
 1005998:	e17ffb17 	ldw	r5,-20(fp)
 100599c:	01804034 	movhi	r6,256
 10059a0:	318a4204 	addi	r6,r6,10504
 10059a4:	10081c40 	call	10081c4 <alt_irq_register>
 10059a8:	e0bff915 	stw	r2,-28(fp)
 10059ac:	e0bff917 	ldw	r2,-28(fp)
 10059b0:	1004803a 	cmplt	r2,r2,zero
 10059b4:	1000391e 	bne	r2,zero,1005a9c <usb20sr_config+0x12c>
 10059b8:	00800044 	movi	r2,1
 10059bc:	e0bffa15 	stw	r2,-24(fp)
 10059c0:	e0fffe17 	ldw	r3,-8(fp)
 10059c4:	e0bffb17 	ldw	r2,-20(fp)
 10059c8:	10c00115 	stw	r3,4(r2)
 10059cc:	e0bffc17 	ldw	r2,-16(fp)
 10059d0:	1007883a 	mov	r3,r2
 10059d4:	e0bffb17 	ldw	r2,-20(fp)
 10059d8:	10c01515 	stw	r3,84(r2)
 10059dc:	e0bffd17 	ldw	r2,-12(fp)
 10059e0:	1007883a 	mov	r3,r2
 10059e4:	e0bffb17 	ldw	r2,-20(fp)
 10059e8:	10c00d15 	stw	r3,52(r2)
 10059ec:	e0bffb17 	ldw	r2,-20(fp)
 10059f0:	10c01517 	ldw	r3,84(r2)
 10059f4:	008000b4 	movhi	r2,2
 10059f8:	1887883a 	add	r3,r3,r2
 10059fc:	e0bffb17 	ldw	r2,-20(fp)
 1005a00:	10c01615 	stw	r3,88(r2)
 1005a04:	e0c00217 	ldw	r3,8(fp)
 1005a08:	e0bffb17 	ldw	r2,-20(fp)
 1005a0c:	10c03c15 	stw	r3,240(r2)
 1005a10:	e0c00317 	ldw	r3,12(fp)
 1005a14:	e0bffb17 	ldw	r2,-20(fp)
 1005a18:	10c03d15 	stw	r3,244(r2)
 1005a1c:	e0c00417 	ldw	r3,16(fp)
 1005a20:	e0bffb17 	ldw	r2,-20(fp)
 1005a24:	10c03e15 	stw	r3,248(r2)
 1005a28:	e0bffb17 	ldw	r2,-20(fp)
 1005a2c:	10000e15 	stw	zero,56(r2)
 1005a30:	e0bffb17 	ldw	r2,-20(fp)
 1005a34:	10000f15 	stw	zero,60(r2)
 1005a38:	e0bffb17 	ldw	r2,-20(fp)
 1005a3c:	10800317 	ldw	r2,12(r2)
 1005a40:	108001c4 	addi	r2,r2,7
 1005a44:	10c00003 	ldbu	r3,0(r2)
 1005a48:	e0bffb17 	ldw	r2,-20(fp)
 1005a4c:	10c00045 	stb	r3,1(r2)
 1005a50:	e0bffb17 	ldw	r2,-20(fp)
 1005a54:	10000005 	stb	zero,0(r2)
 1005a58:	e0bffb17 	ldw	r2,-20(fp)
 1005a5c:	10002915 	stw	zero,164(r2)
 1005a60:	e0bffb17 	ldw	r2,-20(fp)
 1005a64:	10002815 	stw	zero,160(r2)
 1005a68:	e0bffb17 	ldw	r2,-20(fp)
 1005a6c:	10002a15 	stw	zero,168(r2)
 1005a70:	e0bffb17 	ldw	r2,-20(fp)
 1005a74:	10002b15 	stw	zero,172(r2)
 1005a78:	e0bffb17 	ldw	r2,-20(fp)
 1005a7c:	10801517 	ldw	r2,84(r2)
 1005a80:	10800204 	addi	r2,r2,8
 1005a84:	1007883a 	mov	r3,r2
 1005a88:	0080ffc4 	movi	r2,1023
 1005a8c:	18800035 	stwio	r2,0(r3)
 1005a90:	e0bffa17 	ldw	r2,-24(fp)
 1005a94:	e0bfff15 	stw	r2,-4(fp)
 1005a98:	00000206 	br	1005aa4 <usb20sr_config+0x134>
 1005a9c:	e0bffa17 	ldw	r2,-24(fp)
 1005aa0:	e0bfff15 	stw	r2,-4(fp)
 1005aa4:	e0bfff17 	ldw	r2,-4(fp)
 1005aa8:	e037883a 	mov	sp,fp
 1005aac:	dfc00117 	ldw	ra,4(sp)
 1005ab0:	df000017 	ldw	fp,0(sp)
 1005ab4:	dec00204 	addi	sp,sp,8
 1005ab8:	f800283a 	ret

01005abc <usb20_event_isr>:
 1005abc:	defffb04 	addi	sp,sp,-20
 1005ac0:	df000415 	stw	fp,16(sp)
 1005ac4:	df000404 	addi	fp,sp,16
 1005ac8:	e13ffc15 	stw	r4,-16(fp)
 1005acc:	e17ffd15 	stw	r5,-12(fp)
 1005ad0:	e1bffe15 	stw	r6,-8(fp)
 1005ad4:	e1ffff15 	stw	r7,-4(fp)
 1005ad8:	e0ffff17 	ldw	r3,-4(fp)
 1005adc:	e0bffc17 	ldw	r2,-16(fp)
 1005ae0:	10c03815 	stw	r3,224(r2)
 1005ae4:	e0c00117 	ldw	r3,4(fp)
 1005ae8:	e0bffc17 	ldw	r2,-16(fp)
 1005aec:	10c03915 	stw	r3,228(r2)
 1005af0:	e0fffd17 	ldw	r3,-12(fp)
 1005af4:	e0bffc17 	ldw	r2,-16(fp)
 1005af8:	10c03615 	stw	r3,216(r2)
 1005afc:	e0fffe17 	ldw	r3,-8(fp)
 1005b00:	e0bffc17 	ldw	r2,-16(fp)
 1005b04:	10c03715 	stw	r3,220(r2)
 1005b08:	e0c00217 	ldw	r3,8(fp)
 1005b0c:	e0bffc17 	ldw	r2,-16(fp)
 1005b10:	10c03a15 	stw	r3,232(r2)
 1005b14:	e0c00317 	ldw	r3,12(fp)
 1005b18:	e0bffc17 	ldw	r2,-16(fp)
 1005b1c:	10c03b15 	stw	r3,236(r2)
 1005b20:	e037883a 	mov	sp,fp
 1005b24:	df000017 	ldw	fp,0(sp)
 1005b28:	dec00104 	addi	sp,sp,4
 1005b2c:	f800283a 	ret

01005b30 <usb20sr_with_dma_write>:
 1005b30:	deffe704 	addi	sp,sp,-100
 1005b34:	dfc01815 	stw	ra,96(sp)
 1005b38:	df001715 	stw	fp,92(sp)
 1005b3c:	df001704 	addi	fp,sp,92
 1005b40:	e13ffb15 	stw	r4,-20(fp)
 1005b44:	e1bffd15 	stw	r6,-12(fp)
 1005b48:	e1fffe15 	stw	r7,-8(fp)
 1005b4c:	e17ffc05 	stb	r5,-16(fp)
 1005b50:	e0bffb17 	ldw	r2,-20(fp)
 1005b54:	10800e17 	ldw	r2,56(r2)
 1005b58:	1004c03a 	cmpne	r2,r2,zero
 1005b5c:	103ffc1e 	bne	r2,zero,1005b50 <__alt_data_end+0xfffe4bf8>
 1005b60:	e0bffb17 	ldw	r2,-20(fp)
 1005b64:	10003315 	stw	zero,204(r2)
 1005b68:	e0bffd17 	ldw	r2,-12(fp)
 1005b6c:	e0bfeb15 	stw	r2,-84(fp)
 1005b70:	e0bffd17 	ldw	r2,-12(fp)
 1005b74:	e0bfec15 	stw	r2,-80(fp)
 1005b78:	e03fed15 	stw	zero,-76(fp)
 1005b7c:	e0bfec17 	ldw	r2,-80(fp)
 1005b80:	108000cc 	andi	r2,r2,3
 1005b84:	1005003a 	cmpeq	r2,r2,zero
 1005b88:	1000021e 	bne	r2,zero,1005b94 <usb20sr_with_dma_write+0x64>
 1005b8c:	00800044 	movi	r2,1
 1005b90:	e0bfed15 	stw	r2,-76(fp)
 1005b94:	e0bffe17 	ldw	r2,-8(fp)
 1005b98:	e0bfee15 	stw	r2,-72(fp)
 1005b9c:	e03fef15 	stw	zero,-68(fp)
 1005ba0:	e0bffb17 	ldw	r2,-20(fp)
 1005ba4:	10801717 	ldw	r2,92(r2)
 1005ba8:	e0bff015 	stw	r2,-64(fp)
 1005bac:	e0bffb17 	ldw	r2,-20(fp)
 1005bb0:	10801517 	ldw	r2,84(r2)
 1005bb4:	e0bff115 	stw	r2,-60(fp)
 1005bb8:	e0fffc03 	ldbu	r3,-16(fp)
 1005bbc:	e0bffb17 	ldw	r2,-20(fp)
 1005bc0:	1885883a 	add	r2,r3,r2
 1005bc4:	1080e104 	addi	r2,r2,900
 1005bc8:	10800003 	ldbu	r2,0(r2)
 1005bcc:	10803fcc 	andi	r2,r2,255
 1005bd0:	e0bff215 	stw	r2,-56(fp)
 1005bd4:	e0fffc03 	ldbu	r3,-16(fp)
 1005bd8:	e0bffb17 	ldw	r2,-20(fp)
 1005bdc:	1885883a 	add	r2,r3,r2
 1005be0:	1080e504 	addi	r2,r2,916
 1005be4:	10800003 	ldbu	r2,0(r2)
 1005be8:	10803fcc 	andi	r2,r2,255
 1005bec:	e0bff315 	stw	r2,-52(fp)
 1005bf0:	e0bffb17 	ldw	r2,-20(fp)
 1005bf4:	10801617 	ldw	r2,88(r2)
 1005bf8:	e0bff415 	stw	r2,-48(fp)
 1005bfc:	e0bffc03 	ldbu	r2,-16(fp)
 1005c00:	e0fffb17 	ldw	r3,-20(fp)
 1005c04:	1085883a 	add	r2,r2,r2
 1005c08:	1085883a 	add	r2,r2,r2
 1005c0c:	10c5883a 	add	r2,r2,r3
 1005c10:	1080c104 	addi	r2,r2,772
 1005c14:	10800017 	ldw	r2,0(r2)
 1005c18:	e0bff515 	stw	r2,-44(fp)
 1005c1c:	e0bffc03 	ldbu	r2,-16(fp)
 1005c20:	e0fffb17 	ldw	r3,-20(fp)
 1005c24:	1085883a 	add	r2,r2,r2
 1005c28:	1085883a 	add	r2,r2,r2
 1005c2c:	10c5883a 	add	r2,r2,r3
 1005c30:	1080d104 	addi	r2,r2,836
 1005c34:	10800017 	ldw	r2,0(r2)
 1005c38:	e0bff615 	stw	r2,-40(fp)
 1005c3c:	e0fff417 	ldw	r3,-48(fp)
 1005c40:	e0bff517 	ldw	r2,-44(fp)
 1005c44:	1885883a 	add	r2,r3,r2
 1005c48:	e0bff715 	stw	r2,-36(fp)
 1005c4c:	e0fff417 	ldw	r3,-48(fp)
 1005c50:	e0bff617 	ldw	r2,-40(fp)
 1005c54:	1885883a 	add	r2,r3,r2
 1005c58:	e0bff815 	stw	r2,-32(fp)
 1005c5c:	e0bffc03 	ldbu	r2,-16(fp)
 1005c60:	e0fffb17 	ldw	r3,-20(fp)
 1005c64:	1085883a 	add	r2,r2,r2
 1005c68:	1085883a 	add	r2,r2,r2
 1005c6c:	10c5883a 	add	r2,r2,r3
 1005c70:	10809104 	addi	r2,r2,580
 1005c74:	10800017 	ldw	r2,0(r2)
 1005c78:	e0bff915 	stw	r2,-28(fp)
 1005c7c:	e0bffc03 	ldbu	r2,-16(fp)
 1005c80:	e0fffb17 	ldw	r3,-20(fp)
 1005c84:	1085883a 	add	r2,r2,r2
 1005c88:	1085883a 	add	r2,r2,r2
 1005c8c:	10c5883a 	add	r2,r2,r3
 1005c90:	1080e904 	addi	r2,r2,932
 1005c94:	10800017 	ldw	r2,0(r2)
 1005c98:	e0bffa15 	stw	r2,-24(fp)
 1005c9c:	00005506 	br	1005df4 <usb20sr_with_dma_write+0x2c4>
 1005ca0:	e0bffa17 	ldw	r2,-24(fp)
 1005ca4:	1004c03a 	cmpne	r2,r2,zero
 1005ca8:	1000231e 	bne	r2,zero,1005d38 <usb20sr_with_dma_write+0x208>
 1005cac:	e0bff217 	ldw	r2,-56(fp)
 1005cb0:	1085883a 	add	r2,r2,r2
 1005cb4:	1085883a 	add	r2,r2,r2
 1005cb8:	1007883a 	mov	r3,r2
 1005cbc:	e0bff117 	ldw	r2,-60(fp)
 1005cc0:	1885883a 	add	r2,r3,r2
 1005cc4:	10800037 	ldwio	r2,0(r2)
 1005cc8:	1004403a 	cmpge	r2,r2,zero
 1005ccc:	10001a1e 	bne	r2,zero,1005d38 <usb20sr_with_dma_write+0x208>
 1005cd0:	e0bffb17 	ldw	r2,-20(fp)
 1005cd4:	10803317 	ldw	r2,204(r2)
 1005cd8:	1004c03a 	cmpne	r2,r2,zero
 1005cdc:	10000c1e 	bne	r2,zero,1005d10 <usb20sr_with_dma_write+0x1e0>
 1005ce0:	e0bff217 	ldw	r2,-56(fp)
 1005ce4:	1085883a 	add	r2,r2,r2
 1005ce8:	1085883a 	add	r2,r2,r2
 1005cec:	1007883a 	mov	r3,r2
 1005cf0:	e0bff117 	ldw	r2,-60(fp)
 1005cf4:	1889883a 	add	r4,r3,r2
 1005cf8:	e0bfee17 	ldw	r2,-72(fp)
 1005cfc:	1006947a 	slli	r3,r2,17
 1005d00:	e0bff517 	ldw	r2,-44(fp)
 1005d04:	1886b03a 	or	r3,r3,r2
 1005d08:	2005883a 	mov	r2,r4
 1005d0c:	10c00035 	stwio	r3,0(r2)
 1005d10:	e0bffc03 	ldbu	r2,-16(fp)
 1005d14:	e0fffb17 	ldw	r3,-20(fp)
 1005d18:	1085883a 	add	r2,r2,r2
 1005d1c:	1085883a 	add	r2,r2,r2
 1005d20:	10c5883a 	add	r2,r2,r3
 1005d24:	10c0e904 	addi	r3,r2,932
 1005d28:	00800044 	movi	r2,1
 1005d2c:	18800015 	stw	r2,0(r3)
 1005d30:	e03fff15 	stw	zero,-4(fp)
 1005d34:	00014206 	br	1006240 <usb20sr_with_dma_write+0x710>
 1005d38:	e0bffa17 	ldw	r2,-24(fp)
 1005d3c:	1005003a 	cmpeq	r2,r2,zero
 1005d40:	1000221e 	bne	r2,zero,1005dcc <usb20sr_with_dma_write+0x29c>
 1005d44:	e0bff317 	ldw	r2,-52(fp)
 1005d48:	1085883a 	add	r2,r2,r2
 1005d4c:	1085883a 	add	r2,r2,r2
 1005d50:	1007883a 	mov	r3,r2
 1005d54:	e0bff117 	ldw	r2,-60(fp)
 1005d58:	1885883a 	add	r2,r3,r2
 1005d5c:	10800037 	ldwio	r2,0(r2)
 1005d60:	1004403a 	cmpge	r2,r2,zero
 1005d64:	1000191e 	bne	r2,zero,1005dcc <usb20sr_with_dma_write+0x29c>
 1005d68:	e0bffb17 	ldw	r2,-20(fp)
 1005d6c:	10803317 	ldw	r2,204(r2)
 1005d70:	1004c03a 	cmpne	r2,r2,zero
 1005d74:	10000c1e 	bne	r2,zero,1005da8 <usb20sr_with_dma_write+0x278>
 1005d78:	e0bff217 	ldw	r2,-56(fp)
 1005d7c:	1085883a 	add	r2,r2,r2
 1005d80:	1085883a 	add	r2,r2,r2
 1005d84:	1007883a 	mov	r3,r2
 1005d88:	e0bff117 	ldw	r2,-60(fp)
 1005d8c:	1889883a 	add	r4,r3,r2
 1005d90:	e0bfee17 	ldw	r2,-72(fp)
 1005d94:	1006947a 	slli	r3,r2,17
 1005d98:	e0bff617 	ldw	r2,-40(fp)
 1005d9c:	1886b03a 	or	r3,r3,r2
 1005da0:	2005883a 	mov	r2,r4
 1005da4:	10c00035 	stwio	r3,0(r2)
 1005da8:	e0bffc03 	ldbu	r2,-16(fp)
 1005dac:	e0fffb17 	ldw	r3,-20(fp)
 1005db0:	1085883a 	add	r2,r2,r2
 1005db4:	1085883a 	add	r2,r2,r2
 1005db8:	10c5883a 	add	r2,r2,r3
 1005dbc:	1080e904 	addi	r2,r2,932
 1005dc0:	10000015 	stw	zero,0(r2)
 1005dc4:	e03fff15 	stw	zero,-4(fp)
 1005dc8:	00011d06 	br	1006240 <usb20sr_with_dma_write+0x710>
 1005dcc:	e0bffb17 	ldw	r2,-20(fp)
 1005dd0:	10803317 	ldw	r2,204(r2)
 1005dd4:	1005003a 	cmpeq	r2,r2,zero
 1005dd8:	1000061e 	bne	r2,zero,1005df4 <usb20sr_with_dma_write+0x2c4>
 1005ddc:	e0fffb17 	ldw	r3,-20(fp)
 1005de0:	00800084 	movi	r2,2
 1005de4:	18803315 	stw	r2,204(r3)
 1005de8:	00bfffc4 	movi	r2,-1
 1005dec:	e0bfff15 	stw	r2,-4(fp)
 1005df0:	00011306 	br	1006240 <usb20sr_with_dma_write+0x710>
 1005df4:	e0bfee17 	ldw	r2,-72(fp)
 1005df8:	1005003a 	cmpeq	r2,r2,zero
 1005dfc:	103fa81e 	bne	r2,zero,1005ca0 <__alt_data_end+0xfffe4d48>
 1005e00:	e0800217 	ldw	r2,8(fp)
 1005e04:	1004c03a 	cmpne	r2,r2,zero
 1005e08:	1000fa1e 	bne	r2,zero,10061f4 <usb20sr_with_dma_write+0x6c4>
 1005e0c:	e17ffe17 	ldw	r5,-8(fp)
 1005e10:	e13feb17 	ldw	r4,-84(fp)
 1005e14:	10081500 	call	1008150 <alt_dcache_flush>
 1005e18:	e0bffb17 	ldw	r2,-20(fp)
 1005e1c:	10801217 	ldw	r2,72(r2)
 1005e20:	e0bfea15 	stw	r2,-88(fp)
 1005e24:	e0bffc03 	ldbu	r2,-16(fp)
 1005e28:	10800c14 	ori	r2,r2,48
 1005e2c:	10803fcc 	andi	r2,r2,255
 1005e30:	e0bfe915 	stw	r2,-92(fp)
 1005e34:	e0bfea17 	ldw	r2,-88(fp)
 1005e38:	10800104 	addi	r2,r2,4
 1005e3c:	1007883a 	mov	r3,r2
 1005e40:	e0bffe17 	ldw	r2,-8(fp)
 1005e44:	18800035 	stwio	r2,0(r3)
 1005e48:	e0bfea17 	ldw	r2,-88(fp)
 1005e4c:	10800204 	addi	r2,r2,8
 1005e50:	e0ffeb17 	ldw	r3,-84(fp)
 1005e54:	10c00035 	stwio	r3,0(r2)
 1005e58:	e0bfea17 	ldw	r2,-88(fp)
 1005e5c:	10800304 	addi	r2,r2,12
 1005e60:	e0fff717 	ldw	r3,-36(fp)
 1005e64:	10c00035 	stwio	r3,0(r2)
 1005e68:	e0bfea17 	ldw	r2,-88(fp)
 1005e6c:	10800504 	addi	r2,r2,20
 1005e70:	e0fff117 	ldw	r3,-60(fp)
 1005e74:	10c00035 	stwio	r3,0(r2)
 1005e78:	e0bfea17 	ldw	r2,-88(fp)
 1005e7c:	1007883a 	mov	r3,r2
 1005e80:	e0bfe917 	ldw	r2,-92(fp)
 1005e84:	18800035 	stwio	r2,0(r3)
 1005e88:	e0bfea17 	ldw	r2,-88(fp)
 1005e8c:	10800404 	addi	r2,r2,16
 1005e90:	10800037 	ldwio	r2,0(r2)
 1005e94:	1080004c 	andi	r2,r2,1
 1005e98:	10803fcc 	andi	r2,r2,255
 1005e9c:	1004c03a 	cmpne	r2,r2,zero
 1005ea0:	103ff91e 	bne	r2,zero,1005e88 <__alt_data_end+0xfffe4f30>
 1005ea4:	e0bffe17 	ldw	r2,-8(fp)
 1005ea8:	1007883a 	mov	r3,r2
 1005eac:	e0bfeb17 	ldw	r2,-84(fp)
 1005eb0:	10c5883a 	add	r2,r2,r3
 1005eb4:	e0bfeb15 	stw	r2,-84(fp)
 1005eb8:	0000d106 	br	1006200 <usb20sr_with_dma_write+0x6d0>
 1005ebc:	e0bffa17 	ldw	r2,-24(fp)
 1005ec0:	1004c03a 	cmpne	r2,r2,zero
 1005ec4:	10005e1e 	bne	r2,zero,1006040 <usb20sr_with_dma_write+0x510>
 1005ec8:	e0bff217 	ldw	r2,-56(fp)
 1005ecc:	1085883a 	add	r2,r2,r2
 1005ed0:	1085883a 	add	r2,r2,r2
 1005ed4:	1007883a 	mov	r3,r2
 1005ed8:	e0bff117 	ldw	r2,-60(fp)
 1005edc:	1885883a 	add	r2,r3,r2
 1005ee0:	10800037 	ldwio	r2,0(r2)
 1005ee4:	1004403a 	cmpge	r2,r2,zero
 1005ee8:	1000551e 	bne	r2,zero,1006040 <usb20sr_with_dma_write+0x510>
 1005eec:	e0ffee17 	ldw	r3,-72(fp)
 1005ef0:	e0bff917 	ldw	r2,-28(fp)
 1005ef4:	1880030e 	bge	r3,r2,1005f04 <usb20sr_with_dma_write+0x3d4>
 1005ef8:	e0bfee17 	ldw	r2,-72(fp)
 1005efc:	e0bfef15 	stw	r2,-68(fp)
 1005f00:	00000206 	br	1005f0c <usb20sr_with_dma_write+0x3dc>
 1005f04:	e0bff917 	ldw	r2,-28(fp)
 1005f08:	e0bfef15 	stw	r2,-68(fp)
 1005f0c:	e0bfef17 	ldw	r2,-68(fp)
 1005f10:	100b883a 	mov	r5,r2
 1005f14:	e13feb17 	ldw	r4,-84(fp)
 1005f18:	10081500 	call	1008150 <alt_dcache_flush>
 1005f1c:	e0bff017 	ldw	r2,-64(fp)
 1005f20:	10800037 	ldwio	r2,0(r2)
 1005f24:	1080008c 	andi	r2,r2,2
 1005f28:	1004c03a 	cmpne	r2,r2,zero
 1005f2c:	103ffb1e 	bne	r2,zero,1005f1c <__alt_data_end+0xfffe4fc4>
 1005f30:	e0bff017 	ldw	r2,-64(fp)
 1005f34:	10800604 	addi	r2,r2,24
 1005f38:	10000035 	stwio	zero,0(r2)
 1005f3c:	e0bff017 	ldw	r2,-64(fp)
 1005f40:	10800104 	addi	r2,r2,4
 1005f44:	e0ffeb17 	ldw	r3,-84(fp)
 1005f48:	10c00035 	stwio	r3,0(r2)
 1005f4c:	e0bff017 	ldw	r2,-64(fp)
 1005f50:	10800204 	addi	r2,r2,8
 1005f54:	e0fff717 	ldw	r3,-36(fp)
 1005f58:	10c00035 	stwio	r3,0(r2)
 1005f5c:	e0bff017 	ldw	r2,-64(fp)
 1005f60:	10800304 	addi	r2,r2,12
 1005f64:	e0ffef17 	ldw	r3,-68(fp)
 1005f68:	10c00035 	stwio	r3,0(r2)
 1005f6c:	e0bfef17 	ldw	r2,-68(fp)
 1005f70:	108000cc 	andi	r2,r2,3
 1005f74:	1004c03a 	cmpne	r2,r2,zero
 1005f78:	1000031e 	bne	r2,zero,1005f88 <usb20sr_with_dma_write+0x458>
 1005f7c:	e0bfed17 	ldw	r2,-76(fp)
 1005f80:	1005003a 	cmpeq	r2,r2,zero
 1005f84:	1000061e 	bne	r2,zero,1005fa0 <usb20sr_with_dma_write+0x470>
 1005f88:	e0bff017 	ldw	r2,-64(fp)
 1005f8c:	10800604 	addi	r2,r2,24
 1005f90:	1007883a 	mov	r3,r2
 1005f94:	00802244 	movi	r2,137
 1005f98:	18800035 	stwio	r2,0(r3)
 1005f9c:	00000506 	br	1005fb4 <usb20sr_with_dma_write+0x484>
 1005fa0:	e0bff017 	ldw	r2,-64(fp)
 1005fa4:	10800604 	addi	r2,r2,24
 1005fa8:	1007883a 	mov	r3,r2
 1005fac:	00802304 	movi	r2,140
 1005fb0:	18800035 	stwio	r2,0(r3)
 1005fb4:	e0bff017 	ldw	r2,-64(fp)
 1005fb8:	10800037 	ldwio	r2,0(r2)
 1005fbc:	1080008c 	andi	r2,r2,2
 1005fc0:	1004c03a 	cmpne	r2,r2,zero
 1005fc4:	103ffb1e 	bne	r2,zero,1005fb4 <__alt_data_end+0xfffe505c>
 1005fc8:	e0bff017 	ldw	r2,-64(fp)
 1005fcc:	10800604 	addi	r2,r2,24
 1005fd0:	10000035 	stwio	zero,0(r2)
 1005fd4:	e0bffb17 	ldw	r2,-20(fp)
 1005fd8:	10803317 	ldw	r2,204(r2)
 1005fdc:	1004c03a 	cmpne	r2,r2,zero
 1005fe0:	10000c1e 	bne	r2,zero,1006014 <usb20sr_with_dma_write+0x4e4>
 1005fe4:	e0bff217 	ldw	r2,-56(fp)
 1005fe8:	1085883a 	add	r2,r2,r2
 1005fec:	1085883a 	add	r2,r2,r2
 1005ff0:	1007883a 	mov	r3,r2
 1005ff4:	e0bff117 	ldw	r2,-60(fp)
 1005ff8:	1889883a 	add	r4,r3,r2
 1005ffc:	e0bfef17 	ldw	r2,-68(fp)
 1006000:	1006947a 	slli	r3,r2,17
 1006004:	e0bff517 	ldw	r2,-44(fp)
 1006008:	1886b03a 	or	r3,r3,r2
 100600c:	2005883a 	mov	r2,r4
 1006010:	10c00035 	stwio	r3,0(r2)
 1006014:	00800044 	movi	r2,1
 1006018:	e0bffa15 	stw	r2,-24(fp)
 100601c:	e0ffee17 	ldw	r3,-72(fp)
 1006020:	e0bfef17 	ldw	r2,-68(fp)
 1006024:	1885c83a 	sub	r2,r3,r2
 1006028:	e0bfee15 	stw	r2,-72(fp)
 100602c:	e0bfef17 	ldw	r2,-68(fp)
 1006030:	1007883a 	mov	r3,r2
 1006034:	e0bfeb17 	ldw	r2,-84(fp)
 1006038:	10c5883a 	add	r2,r2,r3
 100603c:	e0bfeb15 	stw	r2,-84(fp)
 1006040:	e0bfee17 	ldw	r2,-72(fp)
 1006044:	10800050 	cmplti	r2,r2,1
 1006048:	1000601e 	bne	r2,zero,10061cc <usb20sr_with_dma_write+0x69c>
 100604c:	e0bffa17 	ldw	r2,-24(fp)
 1006050:	1005003a 	cmpeq	r2,r2,zero
 1006054:	10005d1e 	bne	r2,zero,10061cc <usb20sr_with_dma_write+0x69c>
 1006058:	e0bff317 	ldw	r2,-52(fp)
 100605c:	1085883a 	add	r2,r2,r2
 1006060:	1085883a 	add	r2,r2,r2
 1006064:	1007883a 	mov	r3,r2
 1006068:	e0bff117 	ldw	r2,-60(fp)
 100606c:	1885883a 	add	r2,r3,r2
 1006070:	10800037 	ldwio	r2,0(r2)
 1006074:	1004403a 	cmpge	r2,r2,zero
 1006078:	1000541e 	bne	r2,zero,10061cc <usb20sr_with_dma_write+0x69c>
 100607c:	e0ffee17 	ldw	r3,-72(fp)
 1006080:	e0bff917 	ldw	r2,-28(fp)
 1006084:	1880030e 	bge	r3,r2,1006094 <usb20sr_with_dma_write+0x564>
 1006088:	e0bfee17 	ldw	r2,-72(fp)
 100608c:	e0bfef15 	stw	r2,-68(fp)
 1006090:	00000206 	br	100609c <usb20sr_with_dma_write+0x56c>
 1006094:	e0bff917 	ldw	r2,-28(fp)
 1006098:	e0bfef15 	stw	r2,-68(fp)
 100609c:	e0bfef17 	ldw	r2,-68(fp)
 10060a0:	100b883a 	mov	r5,r2
 10060a4:	e13feb17 	ldw	r4,-84(fp)
 10060a8:	10081500 	call	1008150 <alt_dcache_flush>
 10060ac:	e0bff017 	ldw	r2,-64(fp)
 10060b0:	10800037 	ldwio	r2,0(r2)
 10060b4:	1080008c 	andi	r2,r2,2
 10060b8:	1004c03a 	cmpne	r2,r2,zero
 10060bc:	103ffb1e 	bne	r2,zero,10060ac <__alt_data_end+0xfffe5154>
 10060c0:	e0bff017 	ldw	r2,-64(fp)
 10060c4:	10800604 	addi	r2,r2,24
 10060c8:	10000035 	stwio	zero,0(r2)
 10060cc:	e0bff017 	ldw	r2,-64(fp)
 10060d0:	10800104 	addi	r2,r2,4
 10060d4:	e0ffeb17 	ldw	r3,-84(fp)
 10060d8:	10c00035 	stwio	r3,0(r2)
 10060dc:	e0bff017 	ldw	r2,-64(fp)
 10060e0:	10800204 	addi	r2,r2,8
 10060e4:	e0fff817 	ldw	r3,-32(fp)
 10060e8:	10c00035 	stwio	r3,0(r2)
 10060ec:	e0bff017 	ldw	r2,-64(fp)
 10060f0:	10800304 	addi	r2,r2,12
 10060f4:	e0ffef17 	ldw	r3,-68(fp)
 10060f8:	10c00035 	stwio	r3,0(r2)
 10060fc:	e0bfef17 	ldw	r2,-68(fp)
 1006100:	108000cc 	andi	r2,r2,3
 1006104:	1004c03a 	cmpne	r2,r2,zero
 1006108:	1000031e 	bne	r2,zero,1006118 <usb20sr_with_dma_write+0x5e8>
 100610c:	e0bfed17 	ldw	r2,-76(fp)
 1006110:	1005003a 	cmpeq	r2,r2,zero
 1006114:	1000061e 	bne	r2,zero,1006130 <usb20sr_with_dma_write+0x600>
 1006118:	e0bff017 	ldw	r2,-64(fp)
 100611c:	10800604 	addi	r2,r2,24
 1006120:	1007883a 	mov	r3,r2
 1006124:	00802244 	movi	r2,137
 1006128:	18800035 	stwio	r2,0(r3)
 100612c:	00000506 	br	1006144 <usb20sr_with_dma_write+0x614>
 1006130:	e0bff017 	ldw	r2,-64(fp)
 1006134:	10800604 	addi	r2,r2,24
 1006138:	1007883a 	mov	r3,r2
 100613c:	00802304 	movi	r2,140
 1006140:	18800035 	stwio	r2,0(r3)
 1006144:	e0bff017 	ldw	r2,-64(fp)
 1006148:	10800037 	ldwio	r2,0(r2)
 100614c:	1080008c 	andi	r2,r2,2
 1006150:	1004c03a 	cmpne	r2,r2,zero
 1006154:	103ffb1e 	bne	r2,zero,1006144 <__alt_data_end+0xfffe51ec>
 1006158:	e0bff017 	ldw	r2,-64(fp)
 100615c:	10800604 	addi	r2,r2,24
 1006160:	10000035 	stwio	zero,0(r2)
 1006164:	e0bffb17 	ldw	r2,-20(fp)
 1006168:	10803317 	ldw	r2,204(r2)
 100616c:	1004c03a 	cmpne	r2,r2,zero
 1006170:	10000c1e 	bne	r2,zero,10061a4 <usb20sr_with_dma_write+0x674>
 1006174:	e0bff317 	ldw	r2,-52(fp)
 1006178:	1085883a 	add	r2,r2,r2
 100617c:	1085883a 	add	r2,r2,r2
 1006180:	1007883a 	mov	r3,r2
 1006184:	e0bff117 	ldw	r2,-60(fp)
 1006188:	1889883a 	add	r4,r3,r2
 100618c:	e0bfef17 	ldw	r2,-68(fp)
 1006190:	1006947a 	slli	r3,r2,17
 1006194:	e0bff617 	ldw	r2,-40(fp)
 1006198:	1886b03a 	or	r3,r3,r2
 100619c:	2005883a 	mov	r2,r4
 10061a0:	10c00035 	stwio	r3,0(r2)
 10061a4:	e0ffee17 	ldw	r3,-72(fp)
 10061a8:	e0bfef17 	ldw	r2,-68(fp)
 10061ac:	1885c83a 	sub	r2,r3,r2
 10061b0:	e0bfee15 	stw	r2,-72(fp)
 10061b4:	e03ffa15 	stw	zero,-24(fp)
 10061b8:	e0bfef17 	ldw	r2,-68(fp)
 10061bc:	1007883a 	mov	r3,r2
 10061c0:	e0bfeb17 	ldw	r2,-84(fp)
 10061c4:	10c5883a 	add	r2,r2,r3
 10061c8:	e0bfeb15 	stw	r2,-84(fp)
 10061cc:	e0bffb17 	ldw	r2,-20(fp)
 10061d0:	10803317 	ldw	r2,204(r2)
 10061d4:	1005003a 	cmpeq	r2,r2,zero
 10061d8:	1000061e 	bne	r2,zero,10061f4 <usb20sr_with_dma_write+0x6c4>
 10061dc:	e0fffb17 	ldw	r3,-20(fp)
 10061e0:	00800084 	movi	r2,2
 10061e4:	18803315 	stw	r2,204(r3)
 10061e8:	00bfffc4 	movi	r2,-1
 10061ec:	e0bfff15 	stw	r2,-4(fp)
 10061f0:	00001306 	br	1006240 <usb20sr_with_dma_write+0x710>
 10061f4:	e0bfee17 	ldw	r2,-72(fp)
 10061f8:	10800048 	cmpgei	r2,r2,1
 10061fc:	103f2f1e 	bne	r2,zero,1005ebc <__alt_data_end+0xfffe4f64>
 1006200:	e0fffc03 	ldbu	r3,-16(fp)
 1006204:	e0bffa17 	ldw	r2,-24(fp)
 1006208:	100b883a 	mov	r5,r2
 100620c:	e13ffb17 	ldw	r4,-20(fp)
 1006210:	18c5883a 	add	r2,r3,r3
 1006214:	1085883a 	add	r2,r2,r2
 1006218:	1105883a 	add	r2,r2,r4
 100621c:	1080e904 	addi	r2,r2,932
 1006220:	11400015 	stw	r5,0(r2)
 1006224:	e0fffb17 	ldw	r3,-20(fp)
 1006228:	00800084 	movi	r2,2
 100622c:	18803315 	stw	r2,204(r3)
 1006230:	e0ffeb17 	ldw	r3,-84(fp)
 1006234:	e0bffd17 	ldw	r2,-12(fp)
 1006238:	1887c83a 	sub	r3,r3,r2
 100623c:	e0ffff15 	stw	r3,-4(fp)
 1006240:	e0bfff17 	ldw	r2,-4(fp)
 1006244:	e037883a 	mov	sp,fp
 1006248:	dfc00117 	ldw	ra,4(sp)
 100624c:	df000017 	ldw	fp,0(sp)
 1006250:	dec00204 	addi	sp,sp,8
 1006254:	f800283a 	ret

01006258 <usb20sr_without_dma_write>:
 1006258:	deffec04 	addi	sp,sp,-80
 100625c:	dfc01315 	stw	ra,76(sp)
 1006260:	df001215 	stw	fp,72(sp)
 1006264:	df001204 	addi	fp,sp,72
 1006268:	e13ffb15 	stw	r4,-20(fp)
 100626c:	e1bffd15 	stw	r6,-12(fp)
 1006270:	e1fffe15 	stw	r7,-8(fp)
 1006274:	e17ffc05 	stb	r5,-16(fp)
 1006278:	e0bffb17 	ldw	r2,-20(fp)
 100627c:	10800e17 	ldw	r2,56(r2)
 1006280:	1004c03a 	cmpne	r2,r2,zero
 1006284:	103ffc1e 	bne	r2,zero,1006278 <__alt_data_end+0xfffe5320>
 1006288:	e0bffb17 	ldw	r2,-20(fp)
 100628c:	10003315 	stw	zero,204(r2)
 1006290:	e0bffd17 	ldw	r2,-12(fp)
 1006294:	e0bfee15 	stw	r2,-72(fp)
 1006298:	e0bffe17 	ldw	r2,-8(fp)
 100629c:	e0bfef15 	stw	r2,-68(fp)
 10062a0:	e03ff015 	stw	zero,-64(fp)
 10062a4:	e0bffb17 	ldw	r2,-20(fp)
 10062a8:	10801517 	ldw	r2,84(r2)
 10062ac:	e0bff115 	stw	r2,-60(fp)
 10062b0:	e0fffc03 	ldbu	r3,-16(fp)
 10062b4:	e0bffb17 	ldw	r2,-20(fp)
 10062b8:	1885883a 	add	r2,r3,r2
 10062bc:	1080e104 	addi	r2,r2,900
 10062c0:	10800003 	ldbu	r2,0(r2)
 10062c4:	10803fcc 	andi	r2,r2,255
 10062c8:	e0bff215 	stw	r2,-56(fp)
 10062cc:	e0fffc03 	ldbu	r3,-16(fp)
 10062d0:	e0bffb17 	ldw	r2,-20(fp)
 10062d4:	1885883a 	add	r2,r3,r2
 10062d8:	1080e504 	addi	r2,r2,916
 10062dc:	10800003 	ldbu	r2,0(r2)
 10062e0:	10803fcc 	andi	r2,r2,255
 10062e4:	e0bff315 	stw	r2,-52(fp)
 10062e8:	e0bffb17 	ldw	r2,-20(fp)
 10062ec:	10801617 	ldw	r2,88(r2)
 10062f0:	e0bff415 	stw	r2,-48(fp)
 10062f4:	e0bffc03 	ldbu	r2,-16(fp)
 10062f8:	e0fffb17 	ldw	r3,-20(fp)
 10062fc:	1085883a 	add	r2,r2,r2
 1006300:	1085883a 	add	r2,r2,r2
 1006304:	10c5883a 	add	r2,r2,r3
 1006308:	1080c104 	addi	r2,r2,772
 100630c:	10800017 	ldw	r2,0(r2)
 1006310:	e0bff515 	stw	r2,-44(fp)
 1006314:	e0bffc03 	ldbu	r2,-16(fp)
 1006318:	e0fffb17 	ldw	r3,-20(fp)
 100631c:	1085883a 	add	r2,r2,r2
 1006320:	1085883a 	add	r2,r2,r2
 1006324:	10c5883a 	add	r2,r2,r3
 1006328:	1080d104 	addi	r2,r2,836
 100632c:	10800017 	ldw	r2,0(r2)
 1006330:	e0bff615 	stw	r2,-40(fp)
 1006334:	e0fff417 	ldw	r3,-48(fp)
 1006338:	e0bff517 	ldw	r2,-44(fp)
 100633c:	1885883a 	add	r2,r3,r2
 1006340:	e0bff715 	stw	r2,-36(fp)
 1006344:	e0fff417 	ldw	r3,-48(fp)
 1006348:	e0bff617 	ldw	r2,-40(fp)
 100634c:	1885883a 	add	r2,r3,r2
 1006350:	e0bff815 	stw	r2,-32(fp)
 1006354:	e0bffc03 	ldbu	r2,-16(fp)
 1006358:	e0fffb17 	ldw	r3,-20(fp)
 100635c:	1085883a 	add	r2,r2,r2
 1006360:	1085883a 	add	r2,r2,r2
 1006364:	10c5883a 	add	r2,r2,r3
 1006368:	10809104 	addi	r2,r2,580
 100636c:	10800017 	ldw	r2,0(r2)
 1006370:	e0bff915 	stw	r2,-28(fp)
 1006374:	e0bffc03 	ldbu	r2,-16(fp)
 1006378:	e0fffb17 	ldw	r3,-20(fp)
 100637c:	1085883a 	add	r2,r2,r2
 1006380:	1085883a 	add	r2,r2,r2
 1006384:	10c5883a 	add	r2,r2,r3
 1006388:	1080e904 	addi	r2,r2,932
 100638c:	10800017 	ldw	r2,0(r2)
 1006390:	e0bffa15 	stw	r2,-24(fp)
 1006394:	00005506 	br	10064ec <usb20sr_without_dma_write+0x294>
 1006398:	e0bffa17 	ldw	r2,-24(fp)
 100639c:	1004c03a 	cmpne	r2,r2,zero
 10063a0:	1000231e 	bne	r2,zero,1006430 <usb20sr_without_dma_write+0x1d8>
 10063a4:	e0bff217 	ldw	r2,-56(fp)
 10063a8:	1085883a 	add	r2,r2,r2
 10063ac:	1085883a 	add	r2,r2,r2
 10063b0:	1007883a 	mov	r3,r2
 10063b4:	e0bff117 	ldw	r2,-60(fp)
 10063b8:	1885883a 	add	r2,r3,r2
 10063bc:	10800037 	ldwio	r2,0(r2)
 10063c0:	1004403a 	cmpge	r2,r2,zero
 10063c4:	10001a1e 	bne	r2,zero,1006430 <usb20sr_without_dma_write+0x1d8>
 10063c8:	e0bffb17 	ldw	r2,-20(fp)
 10063cc:	10803317 	ldw	r2,204(r2)
 10063d0:	1004c03a 	cmpne	r2,r2,zero
 10063d4:	10000c1e 	bne	r2,zero,1006408 <usb20sr_without_dma_write+0x1b0>
 10063d8:	e0bff217 	ldw	r2,-56(fp)
 10063dc:	1085883a 	add	r2,r2,r2
 10063e0:	1085883a 	add	r2,r2,r2
 10063e4:	1007883a 	mov	r3,r2
 10063e8:	e0bff117 	ldw	r2,-60(fp)
 10063ec:	1889883a 	add	r4,r3,r2
 10063f0:	e0bfef17 	ldw	r2,-68(fp)
 10063f4:	1006947a 	slli	r3,r2,17
 10063f8:	e0bff517 	ldw	r2,-44(fp)
 10063fc:	1886b03a 	or	r3,r3,r2
 1006400:	2005883a 	mov	r2,r4
 1006404:	10c00035 	stwio	r3,0(r2)
 1006408:	e0bffc03 	ldbu	r2,-16(fp)
 100640c:	e0fffb17 	ldw	r3,-20(fp)
 1006410:	1085883a 	add	r2,r2,r2
 1006414:	1085883a 	add	r2,r2,r2
 1006418:	10c5883a 	add	r2,r2,r3
 100641c:	10c0e904 	addi	r3,r2,932
 1006420:	00800044 	movi	r2,1
 1006424:	18800015 	stw	r2,0(r3)
 1006428:	e03fff15 	stw	zero,-4(fp)
 100642c:	0000d006 	br	1006770 <usb20sr_without_dma_write+0x518>
 1006430:	e0bffa17 	ldw	r2,-24(fp)
 1006434:	1005003a 	cmpeq	r2,r2,zero
 1006438:	1000221e 	bne	r2,zero,10064c4 <usb20sr_without_dma_write+0x26c>
 100643c:	e0bff317 	ldw	r2,-52(fp)
 1006440:	1085883a 	add	r2,r2,r2
 1006444:	1085883a 	add	r2,r2,r2
 1006448:	1007883a 	mov	r3,r2
 100644c:	e0bff117 	ldw	r2,-60(fp)
 1006450:	1885883a 	add	r2,r3,r2
 1006454:	10800037 	ldwio	r2,0(r2)
 1006458:	1004403a 	cmpge	r2,r2,zero
 100645c:	1000191e 	bne	r2,zero,10064c4 <usb20sr_without_dma_write+0x26c>
 1006460:	e0bffb17 	ldw	r2,-20(fp)
 1006464:	10803317 	ldw	r2,204(r2)
 1006468:	1004c03a 	cmpne	r2,r2,zero
 100646c:	10000c1e 	bne	r2,zero,10064a0 <usb20sr_without_dma_write+0x248>
 1006470:	e0bff217 	ldw	r2,-56(fp)
 1006474:	1085883a 	add	r2,r2,r2
 1006478:	1085883a 	add	r2,r2,r2
 100647c:	1007883a 	mov	r3,r2
 1006480:	e0bff117 	ldw	r2,-60(fp)
 1006484:	1889883a 	add	r4,r3,r2
 1006488:	e0bfef17 	ldw	r2,-68(fp)
 100648c:	1006947a 	slli	r3,r2,17
 1006490:	e0bff617 	ldw	r2,-40(fp)
 1006494:	1886b03a 	or	r3,r3,r2
 1006498:	2005883a 	mov	r2,r4
 100649c:	10c00035 	stwio	r3,0(r2)
 10064a0:	e0bffc03 	ldbu	r2,-16(fp)
 10064a4:	e0fffb17 	ldw	r3,-20(fp)
 10064a8:	1085883a 	add	r2,r2,r2
 10064ac:	1085883a 	add	r2,r2,r2
 10064b0:	10c5883a 	add	r2,r2,r3
 10064b4:	1080e904 	addi	r2,r2,932
 10064b8:	10000015 	stw	zero,0(r2)
 10064bc:	e03fff15 	stw	zero,-4(fp)
 10064c0:	0000ab06 	br	1006770 <usb20sr_without_dma_write+0x518>
 10064c4:	e0bffb17 	ldw	r2,-20(fp)
 10064c8:	10803317 	ldw	r2,204(r2)
 10064cc:	1005003a 	cmpeq	r2,r2,zero
 10064d0:	1000061e 	bne	r2,zero,10064ec <usb20sr_without_dma_write+0x294>
 10064d4:	e0fffb17 	ldw	r3,-20(fp)
 10064d8:	00800084 	movi	r2,2
 10064dc:	18803315 	stw	r2,204(r3)
 10064e0:	00bfffc4 	movi	r2,-1
 10064e4:	e0bfff15 	stw	r2,-4(fp)
 10064e8:	0000a106 	br	1006770 <usb20sr_without_dma_write+0x518>
 10064ec:	e0bfef17 	ldw	r2,-68(fp)
 10064f0:	1005003a 	cmpeq	r2,r2,zero
 10064f4:	103fa81e 	bne	r2,zero,1006398 <__alt_data_end+0xfffe5440>
 10064f8:	00008a06 	br	1006724 <usb20sr_without_dma_write+0x4cc>
 10064fc:	e0bffa17 	ldw	r2,-24(fp)
 1006500:	1004c03a 	cmpne	r2,r2,zero
 1006504:	10003c1e 	bne	r2,zero,10065f8 <usb20sr_without_dma_write+0x3a0>
 1006508:	e0bff217 	ldw	r2,-56(fp)
 100650c:	1085883a 	add	r2,r2,r2
 1006510:	1085883a 	add	r2,r2,r2
 1006514:	1007883a 	mov	r3,r2
 1006518:	e0bff117 	ldw	r2,-60(fp)
 100651c:	1885883a 	add	r2,r3,r2
 1006520:	10800037 	ldwio	r2,0(r2)
 1006524:	1004403a 	cmpge	r2,r2,zero
 1006528:	1000331e 	bne	r2,zero,10065f8 <usb20sr_without_dma_write+0x3a0>
 100652c:	e0ffef17 	ldw	r3,-68(fp)
 1006530:	e0bff917 	ldw	r2,-28(fp)
 1006534:	1880030e 	bge	r3,r2,1006544 <usb20sr_without_dma_write+0x2ec>
 1006538:	e0bfef17 	ldw	r2,-68(fp)
 100653c:	e0bff015 	stw	r2,-64(fp)
 1006540:	00000206 	br	100654c <usb20sr_without_dma_write+0x2f4>
 1006544:	e0bff917 	ldw	r2,-28(fp)
 1006548:	e0bff015 	stw	r2,-64(fp)
 100654c:	e0bff717 	ldw	r2,-36(fp)
 1006550:	1009883a 	mov	r4,r2
 1006554:	e17ffe17 	ldw	r5,-8(fp)
 1006558:	10081500 	call	1008150 <alt_dcache_flush>
 100655c:	e13ff117 	ldw	r4,-60(fp)
 1006560:	e0bff717 	ldw	r2,-36(fp)
 1006564:	10a00034 	orhi	r2,r2,32768
 1006568:	100b883a 	mov	r5,r2
 100656c:	e1bfee17 	ldw	r6,-72(fp)
 1006570:	e1fff017 	ldw	r7,-64(fp)
 1006574:	10067880 	call	1006788 <slsmemcpy>
 1006578:	e0bff717 	ldw	r2,-36(fp)
 100657c:	1009883a 	mov	r4,r2
 1006580:	e0bff017 	ldw	r2,-64(fp)
 1006584:	100b883a 	mov	r5,r2
 1006588:	10081500 	call	1008150 <alt_dcache_flush>
 100658c:	e0bffb17 	ldw	r2,-20(fp)
 1006590:	10803317 	ldw	r2,204(r2)
 1006594:	1004c03a 	cmpne	r2,r2,zero
 1006598:	10000c1e 	bne	r2,zero,10065cc <usb20sr_without_dma_write+0x374>
 100659c:	e0bff217 	ldw	r2,-56(fp)
 10065a0:	1085883a 	add	r2,r2,r2
 10065a4:	1085883a 	add	r2,r2,r2
 10065a8:	1007883a 	mov	r3,r2
 10065ac:	e0bff117 	ldw	r2,-60(fp)
 10065b0:	1889883a 	add	r4,r3,r2
 10065b4:	e0bff017 	ldw	r2,-64(fp)
 10065b8:	1006947a 	slli	r3,r2,17
 10065bc:	e0bff517 	ldw	r2,-44(fp)
 10065c0:	1886b03a 	or	r3,r3,r2
 10065c4:	2005883a 	mov	r2,r4
 10065c8:	10c00035 	stwio	r3,0(r2)
 10065cc:	00800044 	movi	r2,1
 10065d0:	e0bffa15 	stw	r2,-24(fp)
 10065d4:	e0ffef17 	ldw	r3,-68(fp)
 10065d8:	e0bff017 	ldw	r2,-64(fp)
 10065dc:	1885c83a 	sub	r2,r3,r2
 10065e0:	e0bfef15 	stw	r2,-68(fp)
 10065e4:	e0bff017 	ldw	r2,-64(fp)
 10065e8:	1007883a 	mov	r3,r2
 10065ec:	e0bfee17 	ldw	r2,-72(fp)
 10065f0:	10c5883a 	add	r2,r2,r3
 10065f4:	e0bfee15 	stw	r2,-72(fp)
 10065f8:	e0bfef17 	ldw	r2,-68(fp)
 10065fc:	10800050 	cmplti	r2,r2,1
 1006600:	10003e1e 	bne	r2,zero,10066fc <usb20sr_without_dma_write+0x4a4>
 1006604:	e0bffa17 	ldw	r2,-24(fp)
 1006608:	1005003a 	cmpeq	r2,r2,zero
 100660c:	10003b1e 	bne	r2,zero,10066fc <usb20sr_without_dma_write+0x4a4>
 1006610:	e0bff317 	ldw	r2,-52(fp)
 1006614:	1085883a 	add	r2,r2,r2
 1006618:	1085883a 	add	r2,r2,r2
 100661c:	1007883a 	mov	r3,r2
 1006620:	e0bff117 	ldw	r2,-60(fp)
 1006624:	1885883a 	add	r2,r3,r2
 1006628:	10800037 	ldwio	r2,0(r2)
 100662c:	1004403a 	cmpge	r2,r2,zero
 1006630:	1000321e 	bne	r2,zero,10066fc <usb20sr_without_dma_write+0x4a4>
 1006634:	e0ffef17 	ldw	r3,-68(fp)
 1006638:	e0bff917 	ldw	r2,-28(fp)
 100663c:	1880030e 	bge	r3,r2,100664c <usb20sr_without_dma_write+0x3f4>
 1006640:	e0bfef17 	ldw	r2,-68(fp)
 1006644:	e0bff015 	stw	r2,-64(fp)
 1006648:	00000206 	br	1006654 <usb20sr_without_dma_write+0x3fc>
 100664c:	e0bff917 	ldw	r2,-28(fp)
 1006650:	e0bff015 	stw	r2,-64(fp)
 1006654:	e0bff817 	ldw	r2,-32(fp)
 1006658:	1009883a 	mov	r4,r2
 100665c:	e17ffe17 	ldw	r5,-8(fp)
 1006660:	10081500 	call	1008150 <alt_dcache_flush>
 1006664:	e13ff117 	ldw	r4,-60(fp)
 1006668:	e0bff817 	ldw	r2,-32(fp)
 100666c:	10a00034 	orhi	r2,r2,32768
 1006670:	100b883a 	mov	r5,r2
 1006674:	e1bfee17 	ldw	r6,-72(fp)
 1006678:	e1fff017 	ldw	r7,-64(fp)
 100667c:	10067880 	call	1006788 <slsmemcpy>
 1006680:	e0bff817 	ldw	r2,-32(fp)
 1006684:	1009883a 	mov	r4,r2
 1006688:	e0bff017 	ldw	r2,-64(fp)
 100668c:	100b883a 	mov	r5,r2
 1006690:	10081500 	call	1008150 <alt_dcache_flush>
 1006694:	e0bffb17 	ldw	r2,-20(fp)
 1006698:	10803317 	ldw	r2,204(r2)
 100669c:	1004c03a 	cmpne	r2,r2,zero
 10066a0:	10000c1e 	bne	r2,zero,10066d4 <usb20sr_without_dma_write+0x47c>
 10066a4:	e0bff317 	ldw	r2,-52(fp)
 10066a8:	1085883a 	add	r2,r2,r2
 10066ac:	1085883a 	add	r2,r2,r2
 10066b0:	1007883a 	mov	r3,r2
 10066b4:	e0bff117 	ldw	r2,-60(fp)
 10066b8:	1889883a 	add	r4,r3,r2
 10066bc:	e0bff017 	ldw	r2,-64(fp)
 10066c0:	1006947a 	slli	r3,r2,17
 10066c4:	e0bff617 	ldw	r2,-40(fp)
 10066c8:	1886b03a 	or	r3,r3,r2
 10066cc:	2005883a 	mov	r2,r4
 10066d0:	10c00035 	stwio	r3,0(r2)
 10066d4:	e03ffa15 	stw	zero,-24(fp)
 10066d8:	e0bff017 	ldw	r2,-64(fp)
 10066dc:	1007883a 	mov	r3,r2
 10066e0:	e0bfee17 	ldw	r2,-72(fp)
 10066e4:	10c5883a 	add	r2,r2,r3
 10066e8:	e0bfee15 	stw	r2,-72(fp)
 10066ec:	e0ffef17 	ldw	r3,-68(fp)
 10066f0:	e0bff017 	ldw	r2,-64(fp)
 10066f4:	1885c83a 	sub	r2,r3,r2
 10066f8:	e0bfef15 	stw	r2,-68(fp)
 10066fc:	e0bffb17 	ldw	r2,-20(fp)
 1006700:	10803317 	ldw	r2,204(r2)
 1006704:	1005003a 	cmpeq	r2,r2,zero
 1006708:	1000061e 	bne	r2,zero,1006724 <usb20sr_without_dma_write+0x4cc>
 100670c:	e0fffb17 	ldw	r3,-20(fp)
 1006710:	00800084 	movi	r2,2
 1006714:	18803315 	stw	r2,204(r3)
 1006718:	00bfffc4 	movi	r2,-1
 100671c:	e0bfff15 	stw	r2,-4(fp)
 1006720:	00001306 	br	1006770 <usb20sr_without_dma_write+0x518>
 1006724:	e0bfef17 	ldw	r2,-68(fp)
 1006728:	10800048 	cmpgei	r2,r2,1
 100672c:	103f731e 	bne	r2,zero,10064fc <__alt_data_end+0xfffe55a4>
 1006730:	e0fffc03 	ldbu	r3,-16(fp)
 1006734:	e0bffa17 	ldw	r2,-24(fp)
 1006738:	100b883a 	mov	r5,r2
 100673c:	e13ffb17 	ldw	r4,-20(fp)
 1006740:	18c5883a 	add	r2,r3,r3
 1006744:	1085883a 	add	r2,r2,r2
 1006748:	1105883a 	add	r2,r2,r4
 100674c:	1080e904 	addi	r2,r2,932
 1006750:	11400015 	stw	r5,0(r2)
 1006754:	e0fffb17 	ldw	r3,-20(fp)
 1006758:	00800084 	movi	r2,2
 100675c:	18803315 	stw	r2,204(r3)
 1006760:	e0ffee17 	ldw	r3,-72(fp)
 1006764:	e0bffd17 	ldw	r2,-12(fp)
 1006768:	1887c83a 	sub	r3,r3,r2
 100676c:	e0ffff15 	stw	r3,-4(fp)
 1006770:	e0bfff17 	ldw	r2,-4(fp)
 1006774:	e037883a 	mov	sp,fp
 1006778:	dfc00117 	ldw	ra,4(sp)
 100677c:	df000017 	ldw	fp,0(sp)
 1006780:	dec00204 	addi	sp,sp,8
 1006784:	f800283a 	ret

01006788 <slsmemcpy>:
 1006788:	defff204 	addi	sp,sp,-56
 100678c:	df000d15 	stw	fp,52(sp)
 1006790:	df000d04 	addi	fp,sp,52
 1006794:	e13ffb15 	stw	r4,-20(fp)
 1006798:	e17ffc15 	stw	r5,-16(fp)
 100679c:	e1bffd15 	stw	r6,-12(fp)
 10067a0:	e1fffe15 	stw	r7,-8(fp)
 10067a4:	e0bffc17 	ldw	r2,-16(fp)
 10067a8:	e0bff615 	stw	r2,-40(fp)
 10067ac:	e0bffd17 	ldw	r2,-12(fp)
 10067b0:	e0bff515 	stw	r2,-44(fp)
 10067b4:	e03ff715 	stw	zero,-36(fp)
 10067b8:	e0bffe17 	ldw	r2,-8(fp)
 10067bc:	e0bfff15 	stw	r2,-4(fp)
 10067c0:	e0ffff17 	ldw	r3,-4(fp)
 10067c4:	1804403a 	cmpge	r2,r3,zero
 10067c8:	1000031e 	bne	r2,zero,10067d8 <slsmemcpy+0x50>
 10067cc:	e0bfff17 	ldw	r2,-4(fp)
 10067d0:	108000c4 	addi	r2,r2,3
 10067d4:	e0bfff15 	stw	r2,-4(fp)
 10067d8:	e0ffff17 	ldw	r3,-4(fp)
 10067dc:	1805d0ba 	srai	r2,r3,2
 10067e0:	e0bff815 	stw	r2,-32(fp)
 10067e4:	e0bff617 	ldw	r2,-40(fp)
 10067e8:	e0bff915 	stw	r2,-28(fp)
 10067ec:	e0bff517 	ldw	r2,-44(fp)
 10067f0:	e0bffa15 	stw	r2,-24(fp)
 10067f4:	e0bff917 	ldw	r2,-28(fp)
 10067f8:	108000cc 	andi	r2,r2,3
 10067fc:	1004c03a 	cmpne	r2,r2,zero
 1006800:	1000161e 	bne	r2,zero,100685c <slsmemcpy+0xd4>
 1006804:	e0bffa17 	ldw	r2,-24(fp)
 1006808:	108000cc 	andi	r2,r2,3
 100680c:	1004c03a 	cmpne	r2,r2,zero
 1006810:	1000121e 	bne	r2,zero,100685c <slsmemcpy+0xd4>
 1006814:	e03ff715 	stw	zero,-36(fp)
 1006818:	00000d06 	br	1006850 <slsmemcpy+0xc8>
 100681c:	e0bff517 	ldw	r2,-44(fp)
 1006820:	10c00017 	ldw	r3,0(r2)
 1006824:	e0bff617 	ldw	r2,-40(fp)
 1006828:	10c00015 	stw	r3,0(r2)
 100682c:	e0bff617 	ldw	r2,-40(fp)
 1006830:	10800104 	addi	r2,r2,4
 1006834:	e0bff615 	stw	r2,-40(fp)
 1006838:	e0bff517 	ldw	r2,-44(fp)
 100683c:	10800104 	addi	r2,r2,4
 1006840:	e0bff515 	stw	r2,-44(fp)
 1006844:	e0bff717 	ldw	r2,-36(fp)
 1006848:	10800044 	addi	r2,r2,1
 100684c:	e0bff715 	stw	r2,-36(fp)
 1006850:	e0fff717 	ldw	r3,-36(fp)
 1006854:	e0bff817 	ldw	r2,-32(fp)
 1006858:	18bff016 	blt	r3,r2,100681c <__alt_data_end+0xfffe58c4>
 100685c:	e0bff617 	ldw	r2,-40(fp)
 1006860:	e0bff415 	stw	r2,-48(fp)
 1006864:	e0bff517 	ldw	r2,-44(fp)
 1006868:	e0bff315 	stw	r2,-52(fp)
 100686c:	e0bff717 	ldw	r2,-36(fp)
 1006870:	1085883a 	add	r2,r2,r2
 1006874:	1085883a 	add	r2,r2,r2
 1006878:	e0bff715 	stw	r2,-36(fp)
 100687c:	e0fff717 	ldw	r3,-36(fp)
 1006880:	e0bffe17 	ldw	r2,-8(fp)
 1006884:	10c01116 	blt	r2,r3,10068cc <slsmemcpy+0x144>
 1006888:	00000d06 	br	10068c0 <slsmemcpy+0x138>
 100688c:	e0bff317 	ldw	r2,-52(fp)
 1006890:	10c00003 	ldbu	r3,0(r2)
 1006894:	e0bff417 	ldw	r2,-48(fp)
 1006898:	10c00005 	stb	r3,0(r2)
 100689c:	e0bff417 	ldw	r2,-48(fp)
 10068a0:	10800044 	addi	r2,r2,1
 10068a4:	e0bff415 	stw	r2,-48(fp)
 10068a8:	e0bff317 	ldw	r2,-52(fp)
 10068ac:	10800044 	addi	r2,r2,1
 10068b0:	e0bff315 	stw	r2,-52(fp)
 10068b4:	e0bff717 	ldw	r2,-36(fp)
 10068b8:	10800044 	addi	r2,r2,1
 10068bc:	e0bff715 	stw	r2,-36(fp)
 10068c0:	e0fff717 	ldw	r3,-36(fp)
 10068c4:	e0bffe17 	ldw	r2,-8(fp)
 10068c8:	18bff016 	blt	r3,r2,100688c <__alt_data_end+0xfffe5934>
 10068cc:	e037883a 	mov	sp,fp
 10068d0:	df000017 	ldw	fp,0(sp)
 10068d4:	dec00104 	addi	sp,sp,4
 10068d8:	f800283a 	ret

010068dc <usb20sr_without_dma_read>:
 10068dc:	deffea04 	addi	sp,sp,-88
 10068e0:	dfc01515 	stw	ra,84(sp)
 10068e4:	df001415 	stw	fp,80(sp)
 10068e8:	df001404 	addi	fp,sp,80
 10068ec:	e13ffb15 	stw	r4,-20(fp)
 10068f0:	e1bffd15 	stw	r6,-12(fp)
 10068f4:	e1fffe15 	stw	r7,-8(fp)
 10068f8:	e17ffc05 	stb	r5,-16(fp)
 10068fc:	e0bffb17 	ldw	r2,-20(fp)
 1006900:	10800e17 	ldw	r2,56(r2)
 1006904:	1004c03a 	cmpne	r2,r2,zero
 1006908:	103ffc1e 	bne	r2,zero,10068fc <__alt_data_end+0xfffe59a4>
 100690c:	e0bffb17 	ldw	r2,-20(fp)
 1006910:	10003315 	stw	zero,204(r2)
 1006914:	e0bffd17 	ldw	r2,-12(fp)
 1006918:	e0bfec15 	stw	r2,-80(fp)
 100691c:	e0bffe17 	ldw	r2,-8(fp)
 1006920:	e0bfed15 	stw	r2,-76(fp)
 1006924:	e03fee15 	stw	zero,-72(fp)
 1006928:	e0bffb17 	ldw	r2,-20(fp)
 100692c:	10801517 	ldw	r2,84(r2)
 1006930:	e0bfef15 	stw	r2,-68(fp)
 1006934:	e0fffc03 	ldbu	r3,-16(fp)
 1006938:	e0bffb17 	ldw	r2,-20(fp)
 100693c:	1885883a 	add	r2,r3,r2
 1006940:	10819a04 	addi	r2,r2,1640
 1006944:	10800003 	ldbu	r2,0(r2)
 1006948:	10803fcc 	andi	r2,r2,255
 100694c:	e0bff015 	stw	r2,-64(fp)
 1006950:	e0fffc03 	ldbu	r3,-16(fp)
 1006954:	e0bffb17 	ldw	r2,-20(fp)
 1006958:	1885883a 	add	r2,r3,r2
 100695c:	10819e04 	addi	r2,r2,1656
 1006960:	10800003 	ldbu	r2,0(r2)
 1006964:	10803fcc 	andi	r2,r2,255
 1006968:	e0bff115 	stw	r2,-60(fp)
 100696c:	e0bffb17 	ldw	r2,-20(fp)
 1006970:	10801617 	ldw	r2,88(r2)
 1006974:	e0bff215 	stw	r2,-56(fp)
 1006978:	e0bffc03 	ldbu	r2,-16(fp)
 100697c:	e0fffb17 	ldw	r3,-20(fp)
 1006980:	1085883a 	add	r2,r2,r2
 1006984:	1085883a 	add	r2,r2,r2
 1006988:	10c5883a 	add	r2,r2,r3
 100698c:	10817a04 	addi	r2,r2,1512
 1006990:	10800017 	ldw	r2,0(r2)
 1006994:	e0bff315 	stw	r2,-52(fp)
 1006998:	e0bffc03 	ldbu	r2,-16(fp)
 100699c:	e0fffb17 	ldw	r3,-20(fp)
 10069a0:	1085883a 	add	r2,r2,r2
 10069a4:	1085883a 	add	r2,r2,r2
 10069a8:	10c5883a 	add	r2,r2,r3
 10069ac:	10818a04 	addi	r2,r2,1576
 10069b0:	10800017 	ldw	r2,0(r2)
 10069b4:	e0bff415 	stw	r2,-48(fp)
 10069b8:	e0fff217 	ldw	r3,-56(fp)
 10069bc:	e0bff317 	ldw	r2,-52(fp)
 10069c0:	1885883a 	add	r2,r3,r2
 10069c4:	e0bff515 	stw	r2,-44(fp)
 10069c8:	e0fff217 	ldw	r3,-56(fp)
 10069cc:	e0bff417 	ldw	r2,-48(fp)
 10069d0:	1885883a 	add	r2,r3,r2
 10069d4:	e0bff615 	stw	r2,-40(fp)
 10069d8:	e0bffc03 	ldbu	r2,-16(fp)
 10069dc:	e0fffb17 	ldw	r3,-20(fp)
 10069e0:	1085883a 	add	r2,r2,r2
 10069e4:	1085883a 	add	r2,r2,r2
 10069e8:	10c5883a 	add	r2,r2,r3
 10069ec:	10814a04 	addi	r2,r2,1320
 10069f0:	10800017 	ldw	r2,0(r2)
 10069f4:	e0bff715 	stw	r2,-36(fp)
 10069f8:	e0bffc03 	ldbu	r2,-16(fp)
 10069fc:	e0fffb17 	ldw	r3,-20(fp)
 1006a00:	1085883a 	add	r2,r2,r2
 1006a04:	1085883a 	add	r2,r2,r2
 1006a08:	10c5883a 	add	r2,r2,r3
 1006a0c:	1081a204 	addi	r2,r2,1672
 1006a10:	10800017 	ldw	r2,0(r2)
 1006a14:	e0bffa15 	stw	r2,-24(fp)
 1006a18:	e0bff717 	ldw	r2,-36(fp)
 1006a1c:	1006947a 	slli	r3,r2,17
 1006a20:	e0bff317 	ldw	r2,-52(fp)
 1006a24:	1884b03a 	or	r2,r3,r2
 1006a28:	e0bff815 	stw	r2,-32(fp)
 1006a2c:	e0bff717 	ldw	r2,-36(fp)
 1006a30:	1006947a 	slli	r3,r2,17
 1006a34:	e0bff417 	ldw	r2,-48(fp)
 1006a38:	1884b03a 	or	r2,r3,r2
 1006a3c:	e0bff915 	stw	r2,-28(fp)
 1006a40:	00005306 	br	1006b90 <usb20sr_without_dma_read+0x2b4>
 1006a44:	e0bffa17 	ldw	r2,-24(fp)
 1006a48:	1004c03a 	cmpne	r2,r2,zero
 1006a4c:	1000221e 	bne	r2,zero,1006ad8 <usb20sr_without_dma_read+0x1fc>
 1006a50:	e0bff017 	ldw	r2,-64(fp)
 1006a54:	1085883a 	add	r2,r2,r2
 1006a58:	1085883a 	add	r2,r2,r2
 1006a5c:	1007883a 	mov	r3,r2
 1006a60:	e0bfef17 	ldw	r2,-68(fp)
 1006a64:	1885883a 	add	r2,r3,r2
 1006a68:	10800037 	ldwio	r2,0(r2)
 1006a6c:	1004403a 	cmpge	r2,r2,zero
 1006a70:	1000191e 	bne	r2,zero,1006ad8 <usb20sr_without_dma_read+0x1fc>
 1006a74:	e0bffb17 	ldw	r2,-20(fp)
 1006a78:	10803317 	ldw	r2,204(r2)
 1006a7c:	1004c03a 	cmpne	r2,r2,zero
 1006a80:	1000081e 	bne	r2,zero,1006aa4 <usb20sr_without_dma_read+0x1c8>
 1006a84:	e0bff017 	ldw	r2,-64(fp)
 1006a88:	1085883a 	add	r2,r2,r2
 1006a8c:	1085883a 	add	r2,r2,r2
 1006a90:	1007883a 	mov	r3,r2
 1006a94:	e0bfef17 	ldw	r2,-68(fp)
 1006a98:	1885883a 	add	r2,r3,r2
 1006a9c:	e0fff817 	ldw	r3,-32(fp)
 1006aa0:	10c00035 	stwio	r3,0(r2)
 1006aa4:	e0bffc03 	ldbu	r2,-16(fp)
 1006aa8:	e0fffb17 	ldw	r3,-20(fp)
 1006aac:	1085883a 	add	r2,r2,r2
 1006ab0:	1085883a 	add	r2,r2,r2
 1006ab4:	10c5883a 	add	r2,r2,r3
 1006ab8:	10c0e904 	addi	r3,r2,932
 1006abc:	00800044 	movi	r2,1
 1006ac0:	18800015 	stw	r2,0(r3)
 1006ac4:	e0fffb17 	ldw	r3,-20(fp)
 1006ac8:	00800084 	movi	r2,2
 1006acc:	18803315 	stw	r2,204(r3)
 1006ad0:	e03fff15 	stw	zero,-4(fp)
 1006ad4:	0000d706 	br	1006e34 <usb20sr_without_dma_read+0x558>
 1006ad8:	e0bffa17 	ldw	r2,-24(fp)
 1006adc:	1005003a 	cmpeq	r2,r2,zero
 1006ae0:	1000211e 	bne	r2,zero,1006b68 <usb20sr_without_dma_read+0x28c>
 1006ae4:	e0bff117 	ldw	r2,-60(fp)
 1006ae8:	1085883a 	add	r2,r2,r2
 1006aec:	1085883a 	add	r2,r2,r2
 1006af0:	1007883a 	mov	r3,r2
 1006af4:	e0bfef17 	ldw	r2,-68(fp)
 1006af8:	1885883a 	add	r2,r3,r2
 1006afc:	10800037 	ldwio	r2,0(r2)
 1006b00:	1004403a 	cmpge	r2,r2,zero
 1006b04:	1000181e 	bne	r2,zero,1006b68 <usb20sr_without_dma_read+0x28c>
 1006b08:	e0bffb17 	ldw	r2,-20(fp)
 1006b0c:	10803317 	ldw	r2,204(r2)
 1006b10:	1004c03a 	cmpne	r2,r2,zero
 1006b14:	1000081e 	bne	r2,zero,1006b38 <usb20sr_without_dma_read+0x25c>
 1006b18:	e0bff117 	ldw	r2,-60(fp)
 1006b1c:	1085883a 	add	r2,r2,r2
 1006b20:	1085883a 	add	r2,r2,r2
 1006b24:	1007883a 	mov	r3,r2
 1006b28:	e0bfef17 	ldw	r2,-68(fp)
 1006b2c:	1885883a 	add	r2,r3,r2
 1006b30:	e0fff917 	ldw	r3,-28(fp)
 1006b34:	10c00035 	stwio	r3,0(r2)
 1006b38:	e0bffc03 	ldbu	r2,-16(fp)
 1006b3c:	e0fffb17 	ldw	r3,-20(fp)
 1006b40:	1085883a 	add	r2,r2,r2
 1006b44:	1085883a 	add	r2,r2,r2
 1006b48:	10c5883a 	add	r2,r2,r3
 1006b4c:	1080e904 	addi	r2,r2,932
 1006b50:	10000015 	stw	zero,0(r2)
 1006b54:	e0fffb17 	ldw	r3,-20(fp)
 1006b58:	00800084 	movi	r2,2
 1006b5c:	18803315 	stw	r2,204(r3)
 1006b60:	e03fff15 	stw	zero,-4(fp)
 1006b64:	0000b306 	br	1006e34 <usb20sr_without_dma_read+0x558>
 1006b68:	e0bffb17 	ldw	r2,-20(fp)
 1006b6c:	10803317 	ldw	r2,204(r2)
 1006b70:	1005003a 	cmpeq	r2,r2,zero
 1006b74:	1000061e 	bne	r2,zero,1006b90 <usb20sr_without_dma_read+0x2b4>
 1006b78:	e0fffb17 	ldw	r3,-20(fp)
 1006b7c:	00800084 	movi	r2,2
 1006b80:	18803315 	stw	r2,204(r3)
 1006b84:	00bfffc4 	movi	r2,-1
 1006b88:	e0bfff15 	stw	r2,-4(fp)
 1006b8c:	0000a906 	br	1006e34 <usb20sr_without_dma_read+0x558>
 1006b90:	e0bfed17 	ldw	r2,-76(fp)
 1006b94:	1005003a 	cmpeq	r2,r2,zero
 1006b98:	103faa1e 	bne	r2,zero,1006a44 <__alt_data_end+0xfffe5aec>
 1006b9c:	00009206 	br	1006de8 <usb20sr_without_dma_read+0x50c>
 1006ba0:	e0bffa17 	ldw	r2,-24(fp)
 1006ba4:	1004c03a 	cmpne	r2,r2,zero
 1006ba8:	1000401e 	bne	r2,zero,1006cac <usb20sr_without_dma_read+0x3d0>
 1006bac:	e0bff017 	ldw	r2,-64(fp)
 1006bb0:	1085883a 	add	r2,r2,r2
 1006bb4:	1085883a 	add	r2,r2,r2
 1006bb8:	1007883a 	mov	r3,r2
 1006bbc:	e0bfef17 	ldw	r2,-68(fp)
 1006bc0:	1885883a 	add	r2,r3,r2
 1006bc4:	10800037 	ldwio	r2,0(r2)
 1006bc8:	1004403a 	cmpge	r2,r2,zero
 1006bcc:	1000371e 	bne	r2,zero,1006cac <usb20sr_without_dma_read+0x3d0>
 1006bd0:	e13ff717 	ldw	r4,-36(fp)
 1006bd4:	e0bff017 	ldw	r2,-64(fp)
 1006bd8:	1085883a 	add	r2,r2,r2
 1006bdc:	1085883a 	add	r2,r2,r2
 1006be0:	1007883a 	mov	r3,r2
 1006be4:	e0bfef17 	ldw	r2,-68(fp)
 1006be8:	1885883a 	add	r2,r3,r2
 1006bec:	10800037 	ldwio	r2,0(r2)
 1006bf0:	109fffec 	andhi	r2,r2,32767
 1006bf4:	1005d47a 	srai	r2,r2,17
 1006bf8:	2085c83a 	sub	r2,r4,r2
 1006bfc:	e0bfee15 	stw	r2,-72(fp)
 1006c00:	e0bff517 	ldw	r2,-44(fp)
 1006c04:	1009883a 	mov	r4,r2
 1006c08:	e0bfee17 	ldw	r2,-72(fp)
 1006c0c:	100b883a 	mov	r5,r2
 1006c10:	10081500 	call	1008150 <alt_dcache_flush>
 1006c14:	e0bfee17 	ldw	r2,-72(fp)
 1006c18:	100b883a 	mov	r5,r2
 1006c1c:	e13fec17 	ldw	r4,-80(fp)
 1006c20:	10081500 	call	1008150 <alt_dcache_flush>
 1006c24:	e13fef17 	ldw	r4,-68(fp)
 1006c28:	e17fec17 	ldw	r5,-80(fp)
 1006c2c:	e0bff517 	ldw	r2,-44(fp)
 1006c30:	10a00034 	orhi	r2,r2,32768
 1006c34:	100d883a 	mov	r6,r2
 1006c38:	e1ffee17 	ldw	r7,-72(fp)
 1006c3c:	10067880 	call	1006788 <slsmemcpy>
 1006c40:	e0bfee17 	ldw	r2,-72(fp)
 1006c44:	100b883a 	mov	r5,r2
 1006c48:	e13fec17 	ldw	r4,-80(fp)
 1006c4c:	10081500 	call	1008150 <alt_dcache_flush>
 1006c50:	e0bffb17 	ldw	r2,-20(fp)
 1006c54:	10803317 	ldw	r2,204(r2)
 1006c58:	1004c03a 	cmpne	r2,r2,zero
 1006c5c:	1000081e 	bne	r2,zero,1006c80 <usb20sr_without_dma_read+0x3a4>
 1006c60:	e0bff017 	ldw	r2,-64(fp)
 1006c64:	1085883a 	add	r2,r2,r2
 1006c68:	1085883a 	add	r2,r2,r2
 1006c6c:	1007883a 	mov	r3,r2
 1006c70:	e0bfef17 	ldw	r2,-68(fp)
 1006c74:	1885883a 	add	r2,r3,r2
 1006c78:	e0fff817 	ldw	r3,-32(fp)
 1006c7c:	10c00035 	stwio	r3,0(r2)
 1006c80:	00800044 	movi	r2,1
 1006c84:	e0bffa15 	stw	r2,-24(fp)
 1006c88:	e0ffed17 	ldw	r3,-76(fp)
 1006c8c:	e0bfee17 	ldw	r2,-72(fp)
 1006c90:	1885c83a 	sub	r2,r3,r2
 1006c94:	e0bfed15 	stw	r2,-76(fp)
 1006c98:	e0bfee17 	ldw	r2,-72(fp)
 1006c9c:	1007883a 	mov	r3,r2
 1006ca0:	e0bfec17 	ldw	r2,-80(fp)
 1006ca4:	10c5883a 	add	r2,r2,r3
 1006ca8:	e0bfec15 	stw	r2,-80(fp)
 1006cac:	e0bfed17 	ldw	r2,-76(fp)
 1006cb0:	10800050 	cmplti	r2,r2,1
 1006cb4:	1000421e 	bne	r2,zero,1006dc0 <usb20sr_without_dma_read+0x4e4>
 1006cb8:	e0bffa17 	ldw	r2,-24(fp)
 1006cbc:	1005003a 	cmpeq	r2,r2,zero
 1006cc0:	10003f1e 	bne	r2,zero,1006dc0 <usb20sr_without_dma_read+0x4e4>
 1006cc4:	e0bff117 	ldw	r2,-60(fp)
 1006cc8:	1085883a 	add	r2,r2,r2
 1006ccc:	1085883a 	add	r2,r2,r2
 1006cd0:	1007883a 	mov	r3,r2
 1006cd4:	e0bfef17 	ldw	r2,-68(fp)
 1006cd8:	1885883a 	add	r2,r3,r2
 1006cdc:	10800037 	ldwio	r2,0(r2)
 1006ce0:	1004403a 	cmpge	r2,r2,zero
 1006ce4:	1000361e 	bne	r2,zero,1006dc0 <usb20sr_without_dma_read+0x4e4>
 1006ce8:	e13ff717 	ldw	r4,-36(fp)
 1006cec:	e0bff117 	ldw	r2,-60(fp)
 1006cf0:	1085883a 	add	r2,r2,r2
 1006cf4:	1085883a 	add	r2,r2,r2
 1006cf8:	1007883a 	mov	r3,r2
 1006cfc:	e0bfef17 	ldw	r2,-68(fp)
 1006d00:	1885883a 	add	r2,r3,r2
 1006d04:	10800037 	ldwio	r2,0(r2)
 1006d08:	109fffec 	andhi	r2,r2,32767
 1006d0c:	1005d47a 	srai	r2,r2,17
 1006d10:	2085c83a 	sub	r2,r4,r2
 1006d14:	e0bfee15 	stw	r2,-72(fp)
 1006d18:	e0bff617 	ldw	r2,-40(fp)
 1006d1c:	1009883a 	mov	r4,r2
 1006d20:	e0bfee17 	ldw	r2,-72(fp)
 1006d24:	100b883a 	mov	r5,r2
 1006d28:	10081500 	call	1008150 <alt_dcache_flush>
 1006d2c:	e0bfee17 	ldw	r2,-72(fp)
 1006d30:	100b883a 	mov	r5,r2
 1006d34:	e13fec17 	ldw	r4,-80(fp)
 1006d38:	10081500 	call	1008150 <alt_dcache_flush>
 1006d3c:	e13fef17 	ldw	r4,-68(fp)
 1006d40:	e17fec17 	ldw	r5,-80(fp)
 1006d44:	e0bff617 	ldw	r2,-40(fp)
 1006d48:	10a00034 	orhi	r2,r2,32768
 1006d4c:	100d883a 	mov	r6,r2
 1006d50:	e1ffee17 	ldw	r7,-72(fp)
 1006d54:	10067880 	call	1006788 <slsmemcpy>
 1006d58:	e0bfee17 	ldw	r2,-72(fp)
 1006d5c:	100b883a 	mov	r5,r2
 1006d60:	e13fec17 	ldw	r4,-80(fp)
 1006d64:	10081500 	call	1008150 <alt_dcache_flush>
 1006d68:	e0bffb17 	ldw	r2,-20(fp)
 1006d6c:	10803317 	ldw	r2,204(r2)
 1006d70:	1004c03a 	cmpne	r2,r2,zero
 1006d74:	1000081e 	bne	r2,zero,1006d98 <usb20sr_without_dma_read+0x4bc>
 1006d78:	e0bff117 	ldw	r2,-60(fp)
 1006d7c:	1085883a 	add	r2,r2,r2
 1006d80:	1085883a 	add	r2,r2,r2
 1006d84:	1007883a 	mov	r3,r2
 1006d88:	e0bfef17 	ldw	r2,-68(fp)
 1006d8c:	1885883a 	add	r2,r3,r2
 1006d90:	e0fff917 	ldw	r3,-28(fp)
 1006d94:	10c00035 	stwio	r3,0(r2)
 1006d98:	e03ffa15 	stw	zero,-24(fp)
 1006d9c:	e0ffed17 	ldw	r3,-76(fp)
 1006da0:	e0bfee17 	ldw	r2,-72(fp)
 1006da4:	1885c83a 	sub	r2,r3,r2
 1006da8:	e0bfed15 	stw	r2,-76(fp)
 1006dac:	e0bfee17 	ldw	r2,-72(fp)
 1006db0:	1007883a 	mov	r3,r2
 1006db4:	e0bfec17 	ldw	r2,-80(fp)
 1006db8:	10c5883a 	add	r2,r2,r3
 1006dbc:	e0bfec15 	stw	r2,-80(fp)
 1006dc0:	e0bffb17 	ldw	r2,-20(fp)
 1006dc4:	10803317 	ldw	r2,204(r2)
 1006dc8:	1005003a 	cmpeq	r2,r2,zero
 1006dcc:	1000061e 	bne	r2,zero,1006de8 <usb20sr_without_dma_read+0x50c>
 1006dd0:	e0fffb17 	ldw	r3,-20(fp)
 1006dd4:	00800084 	movi	r2,2
 1006dd8:	18803315 	stw	r2,204(r3)
 1006ddc:	00bfffc4 	movi	r2,-1
 1006de0:	e0bfff15 	stw	r2,-4(fp)
 1006de4:	00001306 	br	1006e34 <usb20sr_without_dma_read+0x558>
 1006de8:	e0bfed17 	ldw	r2,-76(fp)
 1006dec:	10800048 	cmpgei	r2,r2,1
 1006df0:	103f6b1e 	bne	r2,zero,1006ba0 <__alt_data_end+0xfffe5c48>
 1006df4:	e0fffc03 	ldbu	r3,-16(fp)
 1006df8:	e0bffa17 	ldw	r2,-24(fp)
 1006dfc:	100b883a 	mov	r5,r2
 1006e00:	e13ffb17 	ldw	r4,-20(fp)
 1006e04:	18c5883a 	add	r2,r3,r3
 1006e08:	1085883a 	add	r2,r2,r2
 1006e0c:	1105883a 	add	r2,r2,r4
 1006e10:	1081a204 	addi	r2,r2,1672
 1006e14:	11400015 	stw	r5,0(r2)
 1006e18:	e0fffb17 	ldw	r3,-20(fp)
 1006e1c:	00800084 	movi	r2,2
 1006e20:	18803315 	stw	r2,204(r3)
 1006e24:	e0ffec17 	ldw	r3,-80(fp)
 1006e28:	e0bffd17 	ldw	r2,-12(fp)
 1006e2c:	1887c83a 	sub	r3,r3,r2
 1006e30:	e0ffff15 	stw	r3,-4(fp)
 1006e34:	e0bfff17 	ldw	r2,-4(fp)
 1006e38:	e037883a 	mov	sp,fp
 1006e3c:	dfc00117 	ldw	ra,4(sp)
 1006e40:	df000017 	ldw	fp,0(sp)
 1006e44:	dec00204 	addi	sp,sp,8
 1006e48:	f800283a 	ret

01006e4c <usb20sr_with_dma_read>:
 1006e4c:	deffe404 	addi	sp,sp,-112
 1006e50:	dfc01b15 	stw	ra,108(sp)
 1006e54:	df001a15 	stw	fp,104(sp)
 1006e58:	df001a04 	addi	fp,sp,104
 1006e5c:	e13ffb15 	stw	r4,-20(fp)
 1006e60:	e1bffd15 	stw	r6,-12(fp)
 1006e64:	e1fffe15 	stw	r7,-8(fp)
 1006e68:	e17ffc05 	stb	r5,-16(fp)
 1006e6c:	e0bffb17 	ldw	r2,-20(fp)
 1006e70:	10800e17 	ldw	r2,56(r2)
 1006e74:	1004c03a 	cmpne	r2,r2,zero
 1006e78:	103ffc1e 	bne	r2,zero,1006e6c <__alt_data_end+0xfffe5f14>
 1006e7c:	e0bffb17 	ldw	r2,-20(fp)
 1006e80:	10003315 	stw	zero,204(r2)
 1006e84:	e0bffd17 	ldw	r2,-12(fp)
 1006e88:	e0bfe915 	stw	r2,-92(fp)
 1006e8c:	e0bffd17 	ldw	r2,-12(fp)
 1006e90:	e0bfea15 	stw	r2,-88(fp)
 1006e94:	e0bffe17 	ldw	r2,-8(fp)
 1006e98:	e0bfeb15 	stw	r2,-84(fp)
 1006e9c:	e03fec15 	stw	zero,-80(fp)
 1006ea0:	e0bffb17 	ldw	r2,-20(fp)
 1006ea4:	10801717 	ldw	r2,92(r2)
 1006ea8:	e0bfed15 	stw	r2,-76(fp)
 1006eac:	e0bffb17 	ldw	r2,-20(fp)
 1006eb0:	10801517 	ldw	r2,84(r2)
 1006eb4:	e0bfee15 	stw	r2,-72(fp)
 1006eb8:	e0fffc03 	ldbu	r3,-16(fp)
 1006ebc:	e0bffb17 	ldw	r2,-20(fp)
 1006ec0:	1885883a 	add	r2,r3,r2
 1006ec4:	10819a04 	addi	r2,r2,1640
 1006ec8:	10800003 	ldbu	r2,0(r2)
 1006ecc:	10803fcc 	andi	r2,r2,255
 1006ed0:	e0bfef15 	stw	r2,-68(fp)
 1006ed4:	e0fffc03 	ldbu	r3,-16(fp)
 1006ed8:	e0bffb17 	ldw	r2,-20(fp)
 1006edc:	1885883a 	add	r2,r3,r2
 1006ee0:	10819e04 	addi	r2,r2,1656
 1006ee4:	10800003 	ldbu	r2,0(r2)
 1006ee8:	10803fcc 	andi	r2,r2,255
 1006eec:	e0bff015 	stw	r2,-64(fp)
 1006ef0:	e0bffb17 	ldw	r2,-20(fp)
 1006ef4:	10801617 	ldw	r2,88(r2)
 1006ef8:	e0bff115 	stw	r2,-60(fp)
 1006efc:	e0bffc03 	ldbu	r2,-16(fp)
 1006f00:	e0fffb17 	ldw	r3,-20(fp)
 1006f04:	1085883a 	add	r2,r2,r2
 1006f08:	1085883a 	add	r2,r2,r2
 1006f0c:	10c5883a 	add	r2,r2,r3
 1006f10:	10817a04 	addi	r2,r2,1512
 1006f14:	10800017 	ldw	r2,0(r2)
 1006f18:	e0bff215 	stw	r2,-56(fp)
 1006f1c:	e0bffc03 	ldbu	r2,-16(fp)
 1006f20:	e0fffb17 	ldw	r3,-20(fp)
 1006f24:	1085883a 	add	r2,r2,r2
 1006f28:	1085883a 	add	r2,r2,r2
 1006f2c:	10c5883a 	add	r2,r2,r3
 1006f30:	10818a04 	addi	r2,r2,1576
 1006f34:	10800017 	ldw	r2,0(r2)
 1006f38:	e0bff315 	stw	r2,-52(fp)
 1006f3c:	e0fff117 	ldw	r3,-60(fp)
 1006f40:	e0bff217 	ldw	r2,-56(fp)
 1006f44:	1885883a 	add	r2,r3,r2
 1006f48:	e0bff415 	stw	r2,-48(fp)
 1006f4c:	e0fff117 	ldw	r3,-60(fp)
 1006f50:	e0bff317 	ldw	r2,-52(fp)
 1006f54:	1885883a 	add	r2,r3,r2
 1006f58:	e0bff515 	stw	r2,-44(fp)
 1006f5c:	e0bffc03 	ldbu	r2,-16(fp)
 1006f60:	e0fffb17 	ldw	r3,-20(fp)
 1006f64:	1085883a 	add	r2,r2,r2
 1006f68:	1085883a 	add	r2,r2,r2
 1006f6c:	10c5883a 	add	r2,r2,r3
 1006f70:	10814a04 	addi	r2,r2,1320
 1006f74:	10800017 	ldw	r2,0(r2)
 1006f78:	e0bff615 	stw	r2,-40(fp)
 1006f7c:	e03ff715 	stw	zero,-36(fp)
 1006f80:	e03ff815 	stw	zero,-32(fp)
 1006f84:	e0bffc03 	ldbu	r2,-16(fp)
 1006f88:	e0fffb17 	ldw	r3,-20(fp)
 1006f8c:	1085883a 	add	r2,r2,r2
 1006f90:	1085883a 	add	r2,r2,r2
 1006f94:	10c5883a 	add	r2,r2,r3
 1006f98:	1081a204 	addi	r2,r2,1672
 1006f9c:	10800017 	ldw	r2,0(r2)
 1006fa0:	e0bff915 	stw	r2,-28(fp)
 1006fa4:	e0bff617 	ldw	r2,-40(fp)
 1006fa8:	1006947a 	slli	r3,r2,17
 1006fac:	e0bff217 	ldw	r2,-56(fp)
 1006fb0:	1884b03a 	or	r2,r3,r2
 1006fb4:	e0bff715 	stw	r2,-36(fp)
 1006fb8:	e0bff617 	ldw	r2,-40(fp)
 1006fbc:	1006947a 	slli	r3,r2,17
 1006fc0:	e0bff317 	ldw	r2,-52(fp)
 1006fc4:	1884b03a 	or	r2,r3,r2
 1006fc8:	e0bff815 	stw	r2,-32(fp)
 1006fcc:	e03ffa15 	stw	zero,-24(fp)
 1006fd0:	e0bfea17 	ldw	r2,-88(fp)
 1006fd4:	108000cc 	andi	r2,r2,3
 1006fd8:	1005003a 	cmpeq	r2,r2,zero
 1006fdc:	1000561e 	bne	r2,zero,1007138 <usb20sr_with_dma_read+0x2ec>
 1006fe0:	00800044 	movi	r2,1
 1006fe4:	e0bffa15 	stw	r2,-24(fp)
 1006fe8:	00005306 	br	1007138 <usb20sr_with_dma_read+0x2ec>
 1006fec:	e0bff917 	ldw	r2,-28(fp)
 1006ff0:	1004c03a 	cmpne	r2,r2,zero
 1006ff4:	1000221e 	bne	r2,zero,1007080 <usb20sr_with_dma_read+0x234>
 1006ff8:	e0bfef17 	ldw	r2,-68(fp)
 1006ffc:	1085883a 	add	r2,r2,r2
 1007000:	1085883a 	add	r2,r2,r2
 1007004:	1007883a 	mov	r3,r2
 1007008:	e0bfee17 	ldw	r2,-72(fp)
 100700c:	1885883a 	add	r2,r3,r2
 1007010:	10800037 	ldwio	r2,0(r2)
 1007014:	1004403a 	cmpge	r2,r2,zero
 1007018:	1000191e 	bne	r2,zero,1007080 <usb20sr_with_dma_read+0x234>
 100701c:	e0bffb17 	ldw	r2,-20(fp)
 1007020:	10803317 	ldw	r2,204(r2)
 1007024:	1004c03a 	cmpne	r2,r2,zero
 1007028:	1000081e 	bne	r2,zero,100704c <usb20sr_with_dma_read+0x200>
 100702c:	e0bfef17 	ldw	r2,-68(fp)
 1007030:	1085883a 	add	r2,r2,r2
 1007034:	1085883a 	add	r2,r2,r2
 1007038:	1007883a 	mov	r3,r2
 100703c:	e0bfee17 	ldw	r2,-72(fp)
 1007040:	1885883a 	add	r2,r3,r2
 1007044:	e0fff717 	ldw	r3,-36(fp)
 1007048:	10c00035 	stwio	r3,0(r2)
 100704c:	e0bffc03 	ldbu	r2,-16(fp)
 1007050:	e0fffb17 	ldw	r3,-20(fp)
 1007054:	1085883a 	add	r2,r2,r2
 1007058:	1085883a 	add	r2,r2,r2
 100705c:	10c5883a 	add	r2,r2,r3
 1007060:	10c0e904 	addi	r3,r2,932
 1007064:	00800044 	movi	r2,1
 1007068:	18800015 	stw	r2,0(r3)
 100706c:	e0fffb17 	ldw	r3,-20(fp)
 1007070:	00800084 	movi	r2,2
 1007074:	18803315 	stw	r2,204(r3)
 1007078:	e03fff15 	stw	zero,-4(fp)
 100707c:	00015306 	br	10075cc <usb20sr_with_dma_read+0x780>
 1007080:	e0bff917 	ldw	r2,-28(fp)
 1007084:	1005003a 	cmpeq	r2,r2,zero
 1007088:	1000211e 	bne	r2,zero,1007110 <usb20sr_with_dma_read+0x2c4>
 100708c:	e0bff017 	ldw	r2,-64(fp)
 1007090:	1085883a 	add	r2,r2,r2
 1007094:	1085883a 	add	r2,r2,r2
 1007098:	1007883a 	mov	r3,r2
 100709c:	e0bfee17 	ldw	r2,-72(fp)
 10070a0:	1885883a 	add	r2,r3,r2
 10070a4:	10800037 	ldwio	r2,0(r2)
 10070a8:	1004403a 	cmpge	r2,r2,zero
 10070ac:	1000181e 	bne	r2,zero,1007110 <usb20sr_with_dma_read+0x2c4>
 10070b0:	e0bffb17 	ldw	r2,-20(fp)
 10070b4:	10803317 	ldw	r2,204(r2)
 10070b8:	1004c03a 	cmpne	r2,r2,zero
 10070bc:	1000081e 	bne	r2,zero,10070e0 <usb20sr_with_dma_read+0x294>
 10070c0:	e0bff017 	ldw	r2,-64(fp)
 10070c4:	1085883a 	add	r2,r2,r2
 10070c8:	1085883a 	add	r2,r2,r2
 10070cc:	1007883a 	mov	r3,r2
 10070d0:	e0bfee17 	ldw	r2,-72(fp)
 10070d4:	1885883a 	add	r2,r3,r2
 10070d8:	e0fff817 	ldw	r3,-32(fp)
 10070dc:	10c00035 	stwio	r3,0(r2)
 10070e0:	e0bffc03 	ldbu	r2,-16(fp)
 10070e4:	e0fffb17 	ldw	r3,-20(fp)
 10070e8:	1085883a 	add	r2,r2,r2
 10070ec:	1085883a 	add	r2,r2,r2
 10070f0:	10c5883a 	add	r2,r2,r3
 10070f4:	1080e904 	addi	r2,r2,932
 10070f8:	10000015 	stw	zero,0(r2)
 10070fc:	e0fffb17 	ldw	r3,-20(fp)
 1007100:	00800084 	movi	r2,2
 1007104:	18803315 	stw	r2,204(r3)
 1007108:	e03fff15 	stw	zero,-4(fp)
 100710c:	00012f06 	br	10075cc <usb20sr_with_dma_read+0x780>
 1007110:	e0bffb17 	ldw	r2,-20(fp)
 1007114:	10803317 	ldw	r2,204(r2)
 1007118:	1005003a 	cmpeq	r2,r2,zero
 100711c:	1000061e 	bne	r2,zero,1007138 <usb20sr_with_dma_read+0x2ec>
 1007120:	e0fffb17 	ldw	r3,-20(fp)
 1007124:	00800084 	movi	r2,2
 1007128:	18803315 	stw	r2,204(r3)
 100712c:	00bfffc4 	movi	r2,-1
 1007130:	e0bfff15 	stw	r2,-4(fp)
 1007134:	00012506 	br	10075cc <usb20sr_with_dma_read+0x780>
 1007138:	e0bfeb17 	ldw	r2,-84(fp)
 100713c:	1005003a 	cmpeq	r2,r2,zero
 1007140:	103faa1e 	bne	r2,zero,1006fec <__alt_data_end+0xfffe6094>
 1007144:	e0800217 	ldw	r2,8(fp)
 1007148:	1004c03a 	cmpne	r2,r2,zero
 100714c:	10010c1e 	bne	r2,zero,1007580 <usb20sr_with_dma_read+0x734>
 1007150:	e17ffe17 	ldw	r5,-8(fp)
 1007154:	e13fe917 	ldw	r4,-92(fp)
 1007158:	10081500 	call	1008150 <alt_dcache_flush>
 100715c:	e0bffb17 	ldw	r2,-20(fp)
 1007160:	10801217 	ldw	r2,72(r2)
 1007164:	e0bfe815 	stw	r2,-96(fp)
 1007168:	e0bffc03 	ldbu	r2,-16(fp)
 100716c:	10800814 	ori	r2,r2,32
 1007170:	10c03fcc 	andi	r3,r2,255
 1007174:	e0bff917 	ldw	r2,-28(fp)
 1007178:	1004927a 	slli	r2,r2,9
 100717c:	1884b03a 	or	r2,r3,r2
 1007180:	e0bfe715 	stw	r2,-100(fp)
 1007184:	e0bfe817 	ldw	r2,-96(fp)
 1007188:	10800104 	addi	r2,r2,4
 100718c:	1007883a 	mov	r3,r2
 1007190:	e0bffe17 	ldw	r2,-8(fp)
 1007194:	18800035 	stwio	r2,0(r3)
 1007198:	e0bfe817 	ldw	r2,-96(fp)
 100719c:	10800204 	addi	r2,r2,8
 10071a0:	e0fff417 	ldw	r3,-48(fp)
 10071a4:	10c00035 	stwio	r3,0(r2)
 10071a8:	e0bfe817 	ldw	r2,-96(fp)
 10071ac:	10800304 	addi	r2,r2,12
 10071b0:	e0ffe917 	ldw	r3,-92(fp)
 10071b4:	10c00035 	stwio	r3,0(r2)
 10071b8:	e0bfe817 	ldw	r2,-96(fp)
 10071bc:	10800504 	addi	r2,r2,20
 10071c0:	e0ffee17 	ldw	r3,-72(fp)
 10071c4:	10c00035 	stwio	r3,0(r2)
 10071c8:	e0bfe817 	ldw	r2,-96(fp)
 10071cc:	1007883a 	mov	r3,r2
 10071d0:	e0bfe717 	ldw	r2,-100(fp)
 10071d4:	18800035 	stwio	r2,0(r3)
 10071d8:	e0bfe817 	ldw	r2,-96(fp)
 10071dc:	10800404 	addi	r2,r2,16
 10071e0:	10800037 	ldwio	r2,0(r2)
 10071e4:	1080004c 	andi	r2,r2,1
 10071e8:	10803fcc 	andi	r2,r2,255
 10071ec:	1004c03a 	cmpne	r2,r2,zero
 10071f0:	103ff91e 	bne	r2,zero,10071d8 <__alt_data_end+0xfffe6280>
 10071f4:	e0bff417 	ldw	r2,-48(fp)
 10071f8:	1009883a 	mov	r4,r2
 10071fc:	e0bfec17 	ldw	r2,-80(fp)
 1007200:	100b883a 	mov	r5,r2
 1007204:	10081500 	call	1008150 <alt_dcache_flush>
 1007208:	e0bfe817 	ldw	r2,-96(fp)
 100720c:	10800404 	addi	r2,r2,16
 1007210:	10800037 	ldwio	r2,0(r2)
 1007214:	1080008c 	andi	r2,r2,2
 1007218:	1005d07a 	srai	r2,r2,1
 100721c:	e0bfe615 	stw	r2,-104(fp)
 1007220:	e0bfe617 	ldw	r2,-104(fp)
 1007224:	0084303a 	nor	r2,zero,r2
 1007228:	1080004c 	andi	r2,r2,1
 100722c:	e0bff915 	stw	r2,-28(fp)
 1007230:	e0bffe17 	ldw	r2,-8(fp)
 1007234:	1007883a 	mov	r3,r2
 1007238:	e0bfe917 	ldw	r2,-92(fp)
 100723c:	10c5883a 	add	r2,r2,r3
 1007240:	e0bfe915 	stw	r2,-92(fp)
 1007244:	0000d106 	br	100758c <usb20sr_with_dma_read+0x740>
 1007248:	e0bff917 	ldw	r2,-28(fp)
 100724c:	1004c03a 	cmpne	r2,r2,zero
 1007250:	10005e1e 	bne	r2,zero,10073cc <usb20sr_with_dma_read+0x580>
 1007254:	e0bfef17 	ldw	r2,-68(fp)
 1007258:	1085883a 	add	r2,r2,r2
 100725c:	1085883a 	add	r2,r2,r2
 1007260:	1007883a 	mov	r3,r2
 1007264:	e0bfee17 	ldw	r2,-72(fp)
 1007268:	1885883a 	add	r2,r3,r2
 100726c:	10800037 	ldwio	r2,0(r2)
 1007270:	1004403a 	cmpge	r2,r2,zero
 1007274:	1000551e 	bne	r2,zero,10073cc <usb20sr_with_dma_read+0x580>
 1007278:	e13ff617 	ldw	r4,-40(fp)
 100727c:	e0bfef17 	ldw	r2,-68(fp)
 1007280:	1085883a 	add	r2,r2,r2
 1007284:	1085883a 	add	r2,r2,r2
 1007288:	1007883a 	mov	r3,r2
 100728c:	e0bfee17 	ldw	r2,-72(fp)
 1007290:	1885883a 	add	r2,r3,r2
 1007294:	10800037 	ldwio	r2,0(r2)
 1007298:	109fffec 	andhi	r2,r2,32767
 100729c:	1005d47a 	srai	r2,r2,17
 10072a0:	2085c83a 	sub	r2,r4,r2
 10072a4:	e0bfec15 	stw	r2,-80(fp)
 10072a8:	e0bfec17 	ldw	r2,-80(fp)
 10072ac:	100b883a 	mov	r5,r2
 10072b0:	e13fe917 	ldw	r4,-92(fp)
 10072b4:	10081500 	call	1008150 <alt_dcache_flush>
 10072b8:	e0bfed17 	ldw	r2,-76(fp)
 10072bc:	10800037 	ldwio	r2,0(r2)
 10072c0:	1080008c 	andi	r2,r2,2
 10072c4:	1004c03a 	cmpne	r2,r2,zero
 10072c8:	103ffb1e 	bne	r2,zero,10072b8 <__alt_data_end+0xfffe6360>
 10072cc:	e0bfed17 	ldw	r2,-76(fp)
 10072d0:	10800604 	addi	r2,r2,24
 10072d4:	10000035 	stwio	zero,0(r2)
 10072d8:	e0bfed17 	ldw	r2,-76(fp)
 10072dc:	10800104 	addi	r2,r2,4
 10072e0:	e0fff417 	ldw	r3,-48(fp)
 10072e4:	10c00035 	stwio	r3,0(r2)
 10072e8:	e0bfed17 	ldw	r2,-76(fp)
 10072ec:	10800204 	addi	r2,r2,8
 10072f0:	e0ffe917 	ldw	r3,-92(fp)
 10072f4:	10c00035 	stwio	r3,0(r2)
 10072f8:	e0bfed17 	ldw	r2,-76(fp)
 10072fc:	10800304 	addi	r2,r2,12
 1007300:	e0ffec17 	ldw	r3,-80(fp)
 1007304:	10c00035 	stwio	r3,0(r2)
 1007308:	e0bfec17 	ldw	r2,-80(fp)
 100730c:	108000cc 	andi	r2,r2,3
 1007310:	1004c03a 	cmpne	r2,r2,zero
 1007314:	1000031e 	bne	r2,zero,1007324 <usb20sr_with_dma_read+0x4d8>
 1007318:	e0bffa17 	ldw	r2,-24(fp)
 100731c:	1005003a 	cmpeq	r2,r2,zero
 1007320:	1000061e 	bne	r2,zero,100733c <usb20sr_with_dma_read+0x4f0>
 1007324:	e0bfed17 	ldw	r2,-76(fp)
 1007328:	10800604 	addi	r2,r2,24
 100732c:	1007883a 	mov	r3,r2
 1007330:	00802244 	movi	r2,137
 1007334:	18800035 	stwio	r2,0(r3)
 1007338:	00000506 	br	1007350 <usb20sr_with_dma_read+0x504>
 100733c:	e0bfed17 	ldw	r2,-76(fp)
 1007340:	10800604 	addi	r2,r2,24
 1007344:	1007883a 	mov	r3,r2
 1007348:	00802304 	movi	r2,140
 100734c:	18800035 	stwio	r2,0(r3)
 1007350:	e0bfed17 	ldw	r2,-76(fp)
 1007354:	10800037 	ldwio	r2,0(r2)
 1007358:	1080008c 	andi	r2,r2,2
 100735c:	1004c03a 	cmpne	r2,r2,zero
 1007360:	103ffb1e 	bne	r2,zero,1007350 <__alt_data_end+0xfffe63f8>
 1007364:	e0bfed17 	ldw	r2,-76(fp)
 1007368:	10800604 	addi	r2,r2,24
 100736c:	10000035 	stwio	zero,0(r2)
 1007370:	e0bffb17 	ldw	r2,-20(fp)
 1007374:	10803317 	ldw	r2,204(r2)
 1007378:	1004c03a 	cmpne	r2,r2,zero
 100737c:	1000081e 	bne	r2,zero,10073a0 <usb20sr_with_dma_read+0x554>
 1007380:	e0bfef17 	ldw	r2,-68(fp)
 1007384:	1085883a 	add	r2,r2,r2
 1007388:	1085883a 	add	r2,r2,r2
 100738c:	1007883a 	mov	r3,r2
 1007390:	e0bfee17 	ldw	r2,-72(fp)
 1007394:	1885883a 	add	r2,r3,r2
 1007398:	e0fff717 	ldw	r3,-36(fp)
 100739c:	10c00035 	stwio	r3,0(r2)
 10073a0:	00800044 	movi	r2,1
 10073a4:	e0bff915 	stw	r2,-28(fp)
 10073a8:	e0ffeb17 	ldw	r3,-84(fp)
 10073ac:	e0bfec17 	ldw	r2,-80(fp)
 10073b0:	1885c83a 	sub	r2,r3,r2
 10073b4:	e0bfeb15 	stw	r2,-84(fp)
 10073b8:	e0bfec17 	ldw	r2,-80(fp)
 10073bc:	1007883a 	mov	r3,r2
 10073c0:	e0bfe917 	ldw	r2,-92(fp)
 10073c4:	10c5883a 	add	r2,r2,r3
 10073c8:	e0bfe915 	stw	r2,-92(fp)
 10073cc:	e0bfeb17 	ldw	r2,-84(fp)
 10073d0:	10800050 	cmplti	r2,r2,1
 10073d4:	1000601e 	bne	r2,zero,1007558 <usb20sr_with_dma_read+0x70c>
 10073d8:	e0bff917 	ldw	r2,-28(fp)
 10073dc:	1005003a 	cmpeq	r2,r2,zero
 10073e0:	10005d1e 	bne	r2,zero,1007558 <usb20sr_with_dma_read+0x70c>
 10073e4:	e0bff017 	ldw	r2,-64(fp)
 10073e8:	1085883a 	add	r2,r2,r2
 10073ec:	1085883a 	add	r2,r2,r2
 10073f0:	1007883a 	mov	r3,r2
 10073f4:	e0bfee17 	ldw	r2,-72(fp)
 10073f8:	1885883a 	add	r2,r3,r2
 10073fc:	10800037 	ldwio	r2,0(r2)
 1007400:	1004403a 	cmpge	r2,r2,zero
 1007404:	1000541e 	bne	r2,zero,1007558 <usb20sr_with_dma_read+0x70c>
 1007408:	e13ff617 	ldw	r4,-40(fp)
 100740c:	e0bff017 	ldw	r2,-64(fp)
 1007410:	1085883a 	add	r2,r2,r2
 1007414:	1085883a 	add	r2,r2,r2
 1007418:	1007883a 	mov	r3,r2
 100741c:	e0bfee17 	ldw	r2,-72(fp)
 1007420:	1885883a 	add	r2,r3,r2
 1007424:	10800037 	ldwio	r2,0(r2)
 1007428:	109fffec 	andhi	r2,r2,32767
 100742c:	1005d47a 	srai	r2,r2,17
 1007430:	2085c83a 	sub	r2,r4,r2
 1007434:	e0bfec15 	stw	r2,-80(fp)
 1007438:	e0bfec17 	ldw	r2,-80(fp)
 100743c:	100b883a 	mov	r5,r2
 1007440:	e13fe917 	ldw	r4,-92(fp)
 1007444:	10081500 	call	1008150 <alt_dcache_flush>
 1007448:	e0bfed17 	ldw	r2,-76(fp)
 100744c:	10800037 	ldwio	r2,0(r2)
 1007450:	1080008c 	andi	r2,r2,2
 1007454:	1004c03a 	cmpne	r2,r2,zero
 1007458:	103ffb1e 	bne	r2,zero,1007448 <__alt_data_end+0xfffe64f0>
 100745c:	e0bfed17 	ldw	r2,-76(fp)
 1007460:	10800604 	addi	r2,r2,24
 1007464:	10000035 	stwio	zero,0(r2)
 1007468:	e0bfed17 	ldw	r2,-76(fp)
 100746c:	10800104 	addi	r2,r2,4
 1007470:	e0fff517 	ldw	r3,-44(fp)
 1007474:	10c00035 	stwio	r3,0(r2)
 1007478:	e0bfed17 	ldw	r2,-76(fp)
 100747c:	10800204 	addi	r2,r2,8
 1007480:	e0ffe917 	ldw	r3,-92(fp)
 1007484:	10c00035 	stwio	r3,0(r2)
 1007488:	e0bfed17 	ldw	r2,-76(fp)
 100748c:	10800304 	addi	r2,r2,12
 1007490:	e0ffec17 	ldw	r3,-80(fp)
 1007494:	10c00035 	stwio	r3,0(r2)
 1007498:	e0bfec17 	ldw	r2,-80(fp)
 100749c:	108000cc 	andi	r2,r2,3
 10074a0:	1004c03a 	cmpne	r2,r2,zero
 10074a4:	1000031e 	bne	r2,zero,10074b4 <usb20sr_with_dma_read+0x668>
 10074a8:	e0bffa17 	ldw	r2,-24(fp)
 10074ac:	1005003a 	cmpeq	r2,r2,zero
 10074b0:	1000061e 	bne	r2,zero,10074cc <usb20sr_with_dma_read+0x680>
 10074b4:	e0bfed17 	ldw	r2,-76(fp)
 10074b8:	10800604 	addi	r2,r2,24
 10074bc:	1007883a 	mov	r3,r2
 10074c0:	00802244 	movi	r2,137
 10074c4:	18800035 	stwio	r2,0(r3)
 10074c8:	00000506 	br	10074e0 <usb20sr_with_dma_read+0x694>
 10074cc:	e0bfed17 	ldw	r2,-76(fp)
 10074d0:	10800604 	addi	r2,r2,24
 10074d4:	1007883a 	mov	r3,r2
 10074d8:	00802304 	movi	r2,140
 10074dc:	18800035 	stwio	r2,0(r3)
 10074e0:	e0bfed17 	ldw	r2,-76(fp)
 10074e4:	10800037 	ldwio	r2,0(r2)
 10074e8:	1080008c 	andi	r2,r2,2
 10074ec:	1004c03a 	cmpne	r2,r2,zero
 10074f0:	103ffb1e 	bne	r2,zero,10074e0 <__alt_data_end+0xfffe6588>
 10074f4:	e0bfed17 	ldw	r2,-76(fp)
 10074f8:	10800604 	addi	r2,r2,24
 10074fc:	10000035 	stwio	zero,0(r2)
 1007500:	e0bffb17 	ldw	r2,-20(fp)
 1007504:	10803317 	ldw	r2,204(r2)
 1007508:	1004c03a 	cmpne	r2,r2,zero
 100750c:	1000081e 	bne	r2,zero,1007530 <usb20sr_with_dma_read+0x6e4>
 1007510:	e0bff017 	ldw	r2,-64(fp)
 1007514:	1085883a 	add	r2,r2,r2
 1007518:	1085883a 	add	r2,r2,r2
 100751c:	1007883a 	mov	r3,r2
 1007520:	e0bfee17 	ldw	r2,-72(fp)
 1007524:	1885883a 	add	r2,r3,r2
 1007528:	e0fff817 	ldw	r3,-32(fp)
 100752c:	10c00035 	stwio	r3,0(r2)
 1007530:	e0ffeb17 	ldw	r3,-84(fp)
 1007534:	e0bfec17 	ldw	r2,-80(fp)
 1007538:	1885c83a 	sub	r2,r3,r2
 100753c:	e0bfeb15 	stw	r2,-84(fp)
 1007540:	e03ff915 	stw	zero,-28(fp)
 1007544:	e0bfec17 	ldw	r2,-80(fp)
 1007548:	1007883a 	mov	r3,r2
 100754c:	e0bfe917 	ldw	r2,-92(fp)
 1007550:	10c5883a 	add	r2,r2,r3
 1007554:	e0bfe915 	stw	r2,-92(fp)
 1007558:	e0bffb17 	ldw	r2,-20(fp)
 100755c:	10803317 	ldw	r2,204(r2)
 1007560:	1005003a 	cmpeq	r2,r2,zero
 1007564:	1000061e 	bne	r2,zero,1007580 <usb20sr_with_dma_read+0x734>
 1007568:	e0fffb17 	ldw	r3,-20(fp)
 100756c:	00800084 	movi	r2,2
 1007570:	18803315 	stw	r2,204(r3)
 1007574:	00bfffc4 	movi	r2,-1
 1007578:	e0bfff15 	stw	r2,-4(fp)
 100757c:	00001306 	br	10075cc <usb20sr_with_dma_read+0x780>
 1007580:	e0bfeb17 	ldw	r2,-84(fp)
 1007584:	10800048 	cmpgei	r2,r2,1
 1007588:	103f2f1e 	bne	r2,zero,1007248 <__alt_data_end+0xfffe62f0>
 100758c:	e0fffc03 	ldbu	r3,-16(fp)
 1007590:	e0bff917 	ldw	r2,-28(fp)
 1007594:	100b883a 	mov	r5,r2
 1007598:	e13ffb17 	ldw	r4,-20(fp)
 100759c:	18c5883a 	add	r2,r3,r3
 10075a0:	1085883a 	add	r2,r2,r2
 10075a4:	1105883a 	add	r2,r2,r4
 10075a8:	1081a204 	addi	r2,r2,1672
 10075ac:	11400015 	stw	r5,0(r2)
 10075b0:	e0fffb17 	ldw	r3,-20(fp)
 10075b4:	00800084 	movi	r2,2
 10075b8:	18803315 	stw	r2,204(r3)
 10075bc:	e0ffe917 	ldw	r3,-92(fp)
 10075c0:	e0bffd17 	ldw	r2,-12(fp)
 10075c4:	1887c83a 	sub	r3,r3,r2
 10075c8:	e0ffff15 	stw	r3,-4(fp)
 10075cc:	e0bfff17 	ldw	r2,-4(fp)
 10075d0:	e037883a 	mov	sp,fp
 10075d4:	dfc00117 	ldw	ra,4(sp)
 10075d8:	df000017 	ldw	fp,0(sp)
 10075dc:	dec00204 	addi	sp,sp,8
 10075e0:	f800283a 	ret

010075e4 <usb20sr_check_bo_ready>:
 10075e4:	defffb04 	addi	sp,sp,-20
 10075e8:	df000415 	stw	fp,16(sp)
 10075ec:	df000404 	addi	fp,sp,16
 10075f0:	e13ffe15 	stw	r4,-8(fp)
 10075f4:	e17fff05 	stb	r5,-4(fp)
 10075f8:	e0bffe17 	ldw	r2,-8(fp)
 10075fc:	10801517 	ldw	r2,84(r2)
 1007600:	1009883a 	mov	r4,r2
 1007604:	e0ffff07 	ldb	r3,-4(fp)
 1007608:	e0bffe17 	ldw	r2,-8(fp)
 100760c:	1885883a 	add	r2,r3,r2
 1007610:	10819a04 	addi	r2,r2,1640
 1007614:	10800003 	ldbu	r2,0(r2)
 1007618:	10803fcc 	andi	r2,r2,255
 100761c:	1085883a 	add	r2,r2,r2
 1007620:	1085883a 	add	r2,r2,r2
 1007624:	2085883a 	add	r2,r4,r2
 1007628:	10800037 	ldwio	r2,0(r2)
 100762c:	e0bffd15 	stw	r2,-12(fp)
 1007630:	e0bffe17 	ldw	r2,-8(fp)
 1007634:	10801517 	ldw	r2,84(r2)
 1007638:	1009883a 	mov	r4,r2
 100763c:	e0ffff07 	ldb	r3,-4(fp)
 1007640:	e0bffe17 	ldw	r2,-8(fp)
 1007644:	1885883a 	add	r2,r3,r2
 1007648:	10819e04 	addi	r2,r2,1656
 100764c:	10800003 	ldbu	r2,0(r2)
 1007650:	10803fcc 	andi	r2,r2,255
 1007654:	1085883a 	add	r2,r2,r2
 1007658:	1085883a 	add	r2,r2,r2
 100765c:	2085883a 	add	r2,r4,r2
 1007660:	10800037 	ldwio	r2,0(r2)
 1007664:	e0bffc15 	stw	r2,-16(fp)
 1007668:	e0fffe17 	ldw	r3,-8(fp)
 100766c:	00bfffc4 	movi	r2,-1
 1007670:	1881b215 	stw	r2,1736(r3)
 1007674:	e0bffe17 	ldw	r2,-8(fp)
 1007678:	10800e17 	ldw	r2,56(r2)
 100767c:	1004c03a 	cmpne	r2,r2,zero
 1007680:	10002f1e 	bne	r2,zero,1007740 <usb20sr_check_bo_ready+0x15c>
 1007684:	e0bffc17 	ldw	r2,-16(fp)
 1007688:	10bfffe0 	cmpeqi	r2,r2,-1
 100768c:	10002c1e 	bne	r2,zero,1007740 <usb20sr_check_bo_ready+0x15c>
 1007690:	e0bffd17 	ldw	r2,-12(fp)
 1007694:	1004803a 	cmplt	r2,r2,zero
 1007698:	1000031e 	bne	r2,zero,10076a8 <usb20sr_check_bo_ready+0xc4>
 100769c:	e0bffc17 	ldw	r2,-16(fp)
 10076a0:	1004403a 	cmpge	r2,r2,zero
 10076a4:	1000261e 	bne	r2,zero,1007740 <usb20sr_check_bo_ready+0x15c>
 10076a8:	e0bfff07 	ldb	r2,-4(fp)
 10076ac:	e0fffe17 	ldw	r3,-8(fp)
 10076b0:	1085883a 	add	r2,r2,r2
 10076b4:	1085883a 	add	r2,r2,r2
 10076b8:	10c5883a 	add	r2,r2,r3
 10076bc:	1081a204 	addi	r2,r2,1672
 10076c0:	10800017 	ldw	r2,0(r2)
 10076c4:	1004c03a 	cmpne	r2,r2,zero
 10076c8:	10000f1e 	bne	r2,zero,1007708 <usb20sr_check_bo_ready+0x124>
 10076cc:	e0bfff07 	ldb	r2,-4(fp)
 10076d0:	e0fffe17 	ldw	r3,-8(fp)
 10076d4:	1085883a 	add	r2,r2,r2
 10076d8:	1085883a 	add	r2,r2,r2
 10076dc:	10c5883a 	add	r2,r2,r3
 10076e0:	10814a04 	addi	r2,r2,1320
 10076e4:	10c00017 	ldw	r3,0(r2)
 10076e8:	e0bffd17 	ldw	r2,-12(fp)
 10076ec:	109fffec 	andhi	r2,r2,32767
 10076f0:	1005d47a 	srai	r2,r2,17
 10076f4:	1885c83a 	sub	r2,r3,r2
 10076f8:	1007883a 	mov	r3,r2
 10076fc:	e0bffe17 	ldw	r2,-8(fp)
 1007700:	10c1b215 	stw	r3,1736(r2)
 1007704:	00000e06 	br	1007740 <usb20sr_check_bo_ready+0x15c>
 1007708:	e0bfff07 	ldb	r2,-4(fp)
 100770c:	e0fffe17 	ldw	r3,-8(fp)
 1007710:	1085883a 	add	r2,r2,r2
 1007714:	1085883a 	add	r2,r2,r2
 1007718:	10c5883a 	add	r2,r2,r3
 100771c:	10814a04 	addi	r2,r2,1320
 1007720:	10c00017 	ldw	r3,0(r2)
 1007724:	e0bffc17 	ldw	r2,-16(fp)
 1007728:	109fffec 	andhi	r2,r2,32767
 100772c:	1005d47a 	srai	r2,r2,17
 1007730:	1885c83a 	sub	r2,r3,r2
 1007734:	1007883a 	mov	r3,r2
 1007738:	e0bffe17 	ldw	r2,-8(fp)
 100773c:	10c1b215 	stw	r3,1736(r2)
 1007740:	e0bffe17 	ldw	r2,-8(fp)
 1007744:	1081b217 	ldw	r2,1736(r2)
 1007748:	e037883a 	mov	sp,fp
 100774c:	df000017 	ldw	fp,0(sp)
 1007750:	dec00104 	addi	sp,sp,4
 1007754:	f800283a 	ret

01007758 <usb20sr_check_bi_ready>:
 1007758:	defffd04 	addi	sp,sp,-12
 100775c:	df000215 	stw	fp,8(sp)
 1007760:	df000204 	addi	fp,sp,8
 1007764:	e13ffe15 	stw	r4,-8(fp)
 1007768:	e17fff05 	stb	r5,-4(fp)
 100776c:	e0fffe17 	ldw	r3,-8(fp)
 1007770:	00bfffc4 	movi	r2,-1
 1007774:	1880f915 	stw	r2,996(r3)
 1007778:	e0bffe17 	ldw	r2,-8(fp)
 100777c:	10801517 	ldw	r2,84(r2)
 1007780:	1009883a 	mov	r4,r2
 1007784:	e0ffff07 	ldb	r3,-4(fp)
 1007788:	e0bffe17 	ldw	r2,-8(fp)
 100778c:	1885883a 	add	r2,r3,r2
 1007790:	1080e104 	addi	r2,r2,900
 1007794:	10800003 	ldbu	r2,0(r2)
 1007798:	10803fcc 	andi	r2,r2,255
 100779c:	1085883a 	add	r2,r2,r2
 10077a0:	1085883a 	add	r2,r2,r2
 10077a4:	2085883a 	add	r2,r4,r2
 10077a8:	10800037 	ldwio	r2,0(r2)
 10077ac:	1004803a 	cmplt	r2,r2,zero
 10077b0:	10000f1e 	bne	r2,zero,10077f0 <usb20sr_check_bi_ready+0x98>
 10077b4:	e0bffe17 	ldw	r2,-8(fp)
 10077b8:	10801517 	ldw	r2,84(r2)
 10077bc:	1009883a 	mov	r4,r2
 10077c0:	e0ffff07 	ldb	r3,-4(fp)
 10077c4:	e0bffe17 	ldw	r2,-8(fp)
 10077c8:	1885883a 	add	r2,r3,r2
 10077cc:	1080e504 	addi	r2,r2,916
 10077d0:	10800003 	ldbu	r2,0(r2)
 10077d4:	10803fcc 	andi	r2,r2,255
 10077d8:	1085883a 	add	r2,r2,r2
 10077dc:	1085883a 	add	r2,r2,r2
 10077e0:	2085883a 	add	r2,r4,r2
 10077e4:	10800037 	ldwio	r2,0(r2)
 10077e8:	1004403a 	cmpge	r2,r2,zero
 10077ec:	1000031e 	bne	r2,zero,10077fc <usb20sr_check_bi_ready+0xa4>
 10077f0:	e0fffe17 	ldw	r3,-8(fp)
 10077f4:	00800044 	movi	r2,1
 10077f8:	1880f915 	stw	r2,996(r3)
 10077fc:	e0bffe17 	ldw	r2,-8(fp)
 1007800:	1080f917 	ldw	r2,996(r2)
 1007804:	e037883a 	mov	sp,fp
 1007808:	df000017 	ldw	fp,0(sp)
 100780c:	dec00104 	addi	sp,sp,4
 1007810:	f800283a 	ret

01007814 <udivmodsi4>:
 1007814:	2900182e 	bgeu	r5,r4,1007878 <udivmodsi4+0x64>
 1007818:	28001716 	blt	r5,zero,1007878 <udivmodsi4+0x64>
 100781c:	00800804 	movi	r2,32
 1007820:	00c00044 	movi	r3,1
 1007824:	00000206 	br	1007830 <udivmodsi4+0x1c>
 1007828:	10001126 	beq	r2,zero,1007870 <udivmodsi4+0x5c>
 100782c:	28000516 	blt	r5,zero,1007844 <udivmodsi4+0x30>
 1007830:	294b883a 	add	r5,r5,r5
 1007834:	10bfffc4 	addi	r2,r2,-1
 1007838:	18c7883a 	add	r3,r3,r3
 100783c:	293ffa36 	bltu	r5,r4,1007828 <__alt_data_end+0xfffe68d0>
 1007840:	18000b26 	beq	r3,zero,1007870 <udivmodsi4+0x5c>
 1007844:	0005883a 	mov	r2,zero
 1007848:	21400236 	bltu	r4,r5,1007854 <udivmodsi4+0x40>
 100784c:	2149c83a 	sub	r4,r4,r5
 1007850:	10c4b03a 	or	r2,r2,r3
 1007854:	1806d07a 	srli	r3,r3,1
 1007858:	280ad07a 	srli	r5,r5,1
 100785c:	183ffa1e 	bne	r3,zero,1007848 <__alt_data_end+0xfffe68f0>
 1007860:	3000011e 	bne	r6,zero,1007868 <udivmodsi4+0x54>
 1007864:	f800283a 	ret
 1007868:	2005883a 	mov	r2,r4
 100786c:	f800283a 	ret
 1007870:	0005883a 	mov	r2,zero
 1007874:	003ffa06 	br	1007860 <__alt_data_end+0xfffe6908>
 1007878:	00c00044 	movi	r3,1
 100787c:	003ff106 	br	1007844 <__alt_data_end+0xfffe68ec>

01007880 <__divsi3>:
 1007880:	defffe04 	addi	sp,sp,-8
 1007884:	dfc00115 	stw	ra,4(sp)
 1007888:	dc000015 	stw	r16,0(sp)
 100788c:	20000b16 	blt	r4,zero,10078bc <__divsi3+0x3c>
 1007890:	0021883a 	mov	r16,zero
 1007894:	28000c16 	blt	r5,zero,10078c8 <__divsi3+0x48>
 1007898:	000d883a 	mov	r6,zero
 100789c:	10078140 	call	1007814 <udivmodsi4>
 10078a0:	0407c83a 	sub	r3,zero,r16
 10078a4:	1884f03a 	xor	r2,r3,r2
 10078a8:	1405883a 	add	r2,r2,r16
 10078ac:	dfc00117 	ldw	ra,4(sp)
 10078b0:	dc000017 	ldw	r16,0(sp)
 10078b4:	dec00204 	addi	sp,sp,8
 10078b8:	f800283a 	ret
 10078bc:	0109c83a 	sub	r4,zero,r4
 10078c0:	04000044 	movi	r16,1
 10078c4:	283ff40e 	bge	r5,zero,1007898 <__alt_data_end+0xfffe6940>
 10078c8:	014bc83a 	sub	r5,zero,r5
 10078cc:	8400005c 	xori	r16,r16,1
 10078d0:	003ff106 	br	1007898 <__alt_data_end+0xfffe6940>

010078d4 <__modsi3>:
 10078d4:	defffd04 	addi	sp,sp,-12
 10078d8:	dfc00215 	stw	ra,8(sp)
 10078dc:	dc400115 	stw	r17,4(sp)
 10078e0:	dc000015 	stw	r16,0(sp)
 10078e4:	20000c16 	blt	r4,zero,1007918 <__modsi3+0x44>
 10078e8:	0023883a 	mov	r17,zero
 10078ec:	0021883a 	mov	r16,zero
 10078f0:	28000d16 	blt	r5,zero,1007928 <__modsi3+0x54>
 10078f4:	01800044 	movi	r6,1
 10078f8:	10078140 	call	1007814 <udivmodsi4>
 10078fc:	1404f03a 	xor	r2,r2,r16
 1007900:	8885883a 	add	r2,r17,r2
 1007904:	dfc00217 	ldw	ra,8(sp)
 1007908:	dc400117 	ldw	r17,4(sp)
 100790c:	dc000017 	ldw	r16,0(sp)
 1007910:	dec00304 	addi	sp,sp,12
 1007914:	f800283a 	ret
 1007918:	0109c83a 	sub	r4,zero,r4
 100791c:	04400044 	movi	r17,1
 1007920:	043fffc4 	movi	r16,-1
 1007924:	283ff30e 	bge	r5,zero,10078f4 <__alt_data_end+0xfffe699c>
 1007928:	014bc83a 	sub	r5,zero,r5
 100792c:	003ff106 	br	10078f4 <__alt_data_end+0xfffe699c>

01007930 <__udivsi3>:
 1007930:	000d883a 	mov	r6,zero
 1007934:	10078141 	jmpi	1007814 <udivmodsi4>

01007938 <__umodsi3>:
 1007938:	01800044 	movi	r6,1
 100793c:	10078141 	jmpi	1007814 <udivmodsi4>

01007940 <_printf_r>:
 1007940:	defffd04 	addi	sp,sp,-12
 1007944:	dfc00015 	stw	ra,0(sp)
 1007948:	d9800115 	stw	r6,4(sp)
 100794c:	d9c00215 	stw	r7,8(sp)
 1007950:	20c00217 	ldw	r3,8(r4)
 1007954:	280d883a 	mov	r6,r5
 1007958:	01404074 	movhi	r5,257
 100795c:	29601304 	addi	r5,r5,-32692
 1007960:	19400115 	stw	r5,4(r3)
 1007964:	21400217 	ldw	r5,8(r4)
 1007968:	d9c00104 	addi	r7,sp,4
 100796c:	1007ae40 	call	1007ae4 <___vfprintf_internal_r>
 1007970:	dfc00017 	ldw	ra,0(sp)
 1007974:	dec00304 	addi	sp,sp,12
 1007978:	f800283a 	ret

0100797c <printf>:
 100797c:	defffc04 	addi	sp,sp,-16
 1007980:	dfc00015 	stw	ra,0(sp)
 1007984:	d9400115 	stw	r5,4(sp)
 1007988:	d9800215 	stw	r6,8(sp)
 100798c:	d9c00315 	stw	r7,12(sp)
 1007990:	00804074 	movhi	r2,257
 1007994:	10ad8404 	addi	r2,r2,-18928
 1007998:	10800017 	ldw	r2,0(r2)
 100799c:	200b883a 	mov	r5,r4
 10079a0:	01004074 	movhi	r4,257
 10079a4:	10c00217 	ldw	r3,8(r2)
 10079a8:	21201304 	addi	r4,r4,-32692
 10079ac:	d9800104 	addi	r6,sp,4
 10079b0:	19000115 	stw	r4,4(r3)
 10079b4:	11000217 	ldw	r4,8(r2)
 10079b8:	10080280 	call	1008028 <__vfprintf_internal>
 10079bc:	dfc00017 	ldw	ra,0(sp)
 10079c0:	dec00404 	addi	sp,sp,16
 10079c4:	f800283a 	ret

010079c8 <_puts_r>:
 10079c8:	defffd04 	addi	sp,sp,-12
 10079cc:	dc000015 	stw	r16,0(sp)
 10079d0:	2021883a 	mov	r16,r4
 10079d4:	2809883a 	mov	r4,r5
 10079d8:	dfc00215 	stw	ra,8(sp)
 10079dc:	dc400115 	stw	r17,4(sp)
 10079e0:	2823883a 	mov	r17,r5
 10079e4:	1007a5c0 	call	1007a5c <strlen>
 10079e8:	81400217 	ldw	r5,8(r16)
 10079ec:	00c04074 	movhi	r3,257
 10079f0:	18e01304 	addi	r3,r3,-32692
 10079f4:	28c00115 	stw	r3,4(r5)
 10079f8:	8009883a 	mov	r4,r16
 10079fc:	880d883a 	mov	r6,r17
 1007a00:	100f883a 	mov	r7,r2
 1007a04:	100804c0 	call	100804c <__sfvwrite_small_dev>
 1007a08:	00ffffc4 	movi	r3,-1
 1007a0c:	10c00926 	beq	r2,r3,1007a34 <_puts_r+0x6c>
 1007a10:	81400217 	ldw	r5,8(r16)
 1007a14:	01804074 	movhi	r6,257
 1007a18:	8009883a 	mov	r4,r16
 1007a1c:	28800117 	ldw	r2,4(r5)
 1007a20:	31ab8e04 	addi	r6,r6,-20936
 1007a24:	01c00044 	movi	r7,1
 1007a28:	103ee83a 	callr	r2
 1007a2c:	10bfffe0 	cmpeqi	r2,r2,-1
 1007a30:	0085c83a 	sub	r2,zero,r2
 1007a34:	dfc00217 	ldw	ra,8(sp)
 1007a38:	dc400117 	ldw	r17,4(sp)
 1007a3c:	dc000017 	ldw	r16,0(sp)
 1007a40:	dec00304 	addi	sp,sp,12
 1007a44:	f800283a 	ret

01007a48 <puts>:
 1007a48:	00804074 	movhi	r2,257
 1007a4c:	10ad8404 	addi	r2,r2,-18928
 1007a50:	200b883a 	mov	r5,r4
 1007a54:	11000017 	ldw	r4,0(r2)
 1007a58:	10079c81 	jmpi	10079c8 <_puts_r>

01007a5c <strlen>:
 1007a5c:	2005883a 	mov	r2,r4
 1007a60:	10c00007 	ldb	r3,0(r2)
 1007a64:	18000226 	beq	r3,zero,1007a70 <strlen+0x14>
 1007a68:	10800044 	addi	r2,r2,1
 1007a6c:	003ffc06 	br	1007a60 <__alt_data_end+0xfffe6b08>
 1007a70:	1105c83a 	sub	r2,r2,r4
 1007a74:	f800283a 	ret

01007a78 <print_repeat>:
 1007a78:	defffb04 	addi	sp,sp,-20
 1007a7c:	dc800315 	stw	r18,12(sp)
 1007a80:	dc400215 	stw	r17,8(sp)
 1007a84:	dc000115 	stw	r16,4(sp)
 1007a88:	dfc00415 	stw	ra,16(sp)
 1007a8c:	2025883a 	mov	r18,r4
 1007a90:	2823883a 	mov	r17,r5
 1007a94:	d9800005 	stb	r6,0(sp)
 1007a98:	3821883a 	mov	r16,r7
 1007a9c:	04000a0e 	bge	zero,r16,1007ac8 <print_repeat+0x50>
 1007aa0:	88800117 	ldw	r2,4(r17)
 1007aa4:	9009883a 	mov	r4,r18
 1007aa8:	880b883a 	mov	r5,r17
 1007aac:	d80d883a 	mov	r6,sp
 1007ab0:	01c00044 	movi	r7,1
 1007ab4:	103ee83a 	callr	r2
 1007ab8:	843fffc4 	addi	r16,r16,-1
 1007abc:	103ff726 	beq	r2,zero,1007a9c <__alt_data_end+0xfffe6b44>
 1007ac0:	00bfffc4 	movi	r2,-1
 1007ac4:	00000106 	br	1007acc <print_repeat+0x54>
 1007ac8:	0005883a 	mov	r2,zero
 1007acc:	dfc00417 	ldw	ra,16(sp)
 1007ad0:	dc800317 	ldw	r18,12(sp)
 1007ad4:	dc400217 	ldw	r17,8(sp)
 1007ad8:	dc000117 	ldw	r16,4(sp)
 1007adc:	dec00504 	addi	sp,sp,20
 1007ae0:	f800283a 	ret

01007ae4 <___vfprintf_internal_r>:
 1007ae4:	deffe404 	addi	sp,sp,-112
 1007ae8:	d8c00804 	addi	r3,sp,32
 1007aec:	df001a15 	stw	fp,104(sp)
 1007af0:	ddc01915 	stw	r23,100(sp)
 1007af4:	dd801815 	stw	r22,96(sp)
 1007af8:	dd401715 	stw	r21,92(sp)
 1007afc:	dd001615 	stw	r20,88(sp)
 1007b00:	dcc01515 	stw	r19,84(sp)
 1007b04:	dc801415 	stw	r18,80(sp)
 1007b08:	dc401315 	stw	r17,76(sp)
 1007b0c:	dc001215 	stw	r16,72(sp)
 1007b10:	dfc01b15 	stw	ra,108(sp)
 1007b14:	2027883a 	mov	r19,r4
 1007b18:	2839883a 	mov	fp,r5
 1007b1c:	382f883a 	mov	r23,r7
 1007b20:	d9800f15 	stw	r6,60(sp)
 1007b24:	0021883a 	mov	r16,zero
 1007b28:	d8000e15 	stw	zero,56(sp)
 1007b2c:	002d883a 	mov	r22,zero
 1007b30:	0029883a 	mov	r20,zero
 1007b34:	0025883a 	mov	r18,zero
 1007b38:	0023883a 	mov	r17,zero
 1007b3c:	d8000c15 	stw	zero,48(sp)
 1007b40:	d8000b15 	stw	zero,44(sp)
 1007b44:	002b883a 	mov	r21,zero
 1007b48:	d8c00915 	stw	r3,36(sp)
 1007b4c:	d8c00f17 	ldw	r3,60(sp)
 1007b50:	19000003 	ldbu	r4,0(r3)
 1007b54:	20803fcc 	andi	r2,r4,255
 1007b58:	1080201c 	xori	r2,r2,128
 1007b5c:	10bfe004 	addi	r2,r2,-128
 1007b60:	10012426 	beq	r2,zero,1007ff4 <___vfprintf_internal_r+0x510>
 1007b64:	00c00044 	movi	r3,1
 1007b68:	a8c01426 	beq	r21,r3,1007bbc <___vfprintf_internal_r+0xd8>
 1007b6c:	1d400216 	blt	r3,r21,1007b78 <___vfprintf_internal_r+0x94>
 1007b70:	a8000626 	beq	r21,zero,1007b8c <___vfprintf_internal_r+0xa8>
 1007b74:	00011b06 	br	1007fe4 <___vfprintf_internal_r+0x500>
 1007b78:	01400084 	movi	r5,2
 1007b7c:	a9401d26 	beq	r21,r5,1007bf4 <___vfprintf_internal_r+0x110>
 1007b80:	014000c4 	movi	r5,3
 1007b84:	a9402926 	beq	r21,r5,1007c2c <___vfprintf_internal_r+0x148>
 1007b88:	00011606 	br	1007fe4 <___vfprintf_internal_r+0x500>
 1007b8c:	01400944 	movi	r5,37
 1007b90:	11410326 	beq	r2,r5,1007fa0 <___vfprintf_internal_r+0x4bc>
 1007b94:	e0800117 	ldw	r2,4(fp)
 1007b98:	d9000005 	stb	r4,0(sp)
 1007b9c:	e00b883a 	mov	r5,fp
 1007ba0:	9809883a 	mov	r4,r19
 1007ba4:	d80d883a 	mov	r6,sp
 1007ba8:	01c00044 	movi	r7,1
 1007bac:	103ee83a 	callr	r2
 1007bb0:	1000de1e 	bne	r2,zero,1007f2c <___vfprintf_internal_r+0x448>
 1007bb4:	84000044 	addi	r16,r16,1
 1007bb8:	00010a06 	br	1007fe4 <___vfprintf_internal_r+0x500>
 1007bbc:	01400c04 	movi	r5,48
 1007bc0:	11410026 	beq	r2,r5,1007fc4 <___vfprintf_internal_r+0x4e0>
 1007bc4:	01400944 	movi	r5,37
 1007bc8:	11400a1e 	bne	r2,r5,1007bf4 <___vfprintf_internal_r+0x110>
 1007bcc:	d8800005 	stb	r2,0(sp)
 1007bd0:	e0800117 	ldw	r2,4(fp)
 1007bd4:	9809883a 	mov	r4,r19
 1007bd8:	e00b883a 	mov	r5,fp
 1007bdc:	d80d883a 	mov	r6,sp
 1007be0:	a80f883a 	mov	r7,r21
 1007be4:	103ee83a 	callr	r2
 1007be8:	1000d01e 	bne	r2,zero,1007f2c <___vfprintf_internal_r+0x448>
 1007bec:	84000044 	addi	r16,r16,1
 1007bf0:	0000fb06 	br	1007fe0 <___vfprintf_internal_r+0x4fc>
 1007bf4:	217ff404 	addi	r5,r4,-48
 1007bf8:	29403fcc 	andi	r5,r5,255
 1007bfc:	00c00244 	movi	r3,9
 1007c00:	19400736 	bltu	r3,r5,1007c20 <___vfprintf_internal_r+0x13c>
 1007c04:	00bfffc4 	movi	r2,-1
 1007c08:	88800226 	beq	r17,r2,1007c14 <___vfprintf_internal_r+0x130>
 1007c0c:	8c4002a4 	muli	r17,r17,10
 1007c10:	00000106 	br	1007c18 <___vfprintf_internal_r+0x134>
 1007c14:	0023883a 	mov	r17,zero
 1007c18:	8963883a 	add	r17,r17,r5
 1007c1c:	0000ea06 	br	1007fc8 <___vfprintf_internal_r+0x4e4>
 1007c20:	01400b84 	movi	r5,46
 1007c24:	1140ec26 	beq	r2,r5,1007fd8 <___vfprintf_internal_r+0x4f4>
 1007c28:	05400084 	movi	r21,2
 1007c2c:	213ff404 	addi	r4,r4,-48
 1007c30:	21003fcc 	andi	r4,r4,255
 1007c34:	00c00244 	movi	r3,9
 1007c38:	19000736 	bltu	r3,r4,1007c58 <___vfprintf_internal_r+0x174>
 1007c3c:	00bfffc4 	movi	r2,-1
 1007c40:	90800226 	beq	r18,r2,1007c4c <___vfprintf_internal_r+0x168>
 1007c44:	948002a4 	muli	r18,r18,10
 1007c48:	00000106 	br	1007c50 <___vfprintf_internal_r+0x16c>
 1007c4c:	0025883a 	mov	r18,zero
 1007c50:	9125883a 	add	r18,r18,r4
 1007c54:	0000e306 	br	1007fe4 <___vfprintf_internal_r+0x500>
 1007c58:	00c01b04 	movi	r3,108
 1007c5c:	10c0dc26 	beq	r2,r3,1007fd0 <___vfprintf_internal_r+0x4ec>
 1007c60:	013fffc4 	movi	r4,-1
 1007c64:	91000226 	beq	r18,r4,1007c70 <___vfprintf_internal_r+0x18c>
 1007c68:	d8000b15 	stw	zero,44(sp)
 1007c6c:	00000106 	br	1007c74 <___vfprintf_internal_r+0x190>
 1007c70:	04800044 	movi	r18,1
 1007c74:	01001a44 	movi	r4,105
 1007c78:	11001626 	beq	r2,r4,1007cd4 <___vfprintf_internal_r+0x1f0>
 1007c7c:	20800916 	blt	r4,r2,1007ca4 <___vfprintf_internal_r+0x1c0>
 1007c80:	010018c4 	movi	r4,99
 1007c84:	11009226 	beq	r2,r4,1007ed0 <___vfprintf_internal_r+0x3ec>
 1007c88:	01001904 	movi	r4,100
 1007c8c:	11001126 	beq	r2,r4,1007cd4 <___vfprintf_internal_r+0x1f0>
 1007c90:	01001604 	movi	r4,88
 1007c94:	1100d21e 	bne	r2,r4,1007fe0 <___vfprintf_internal_r+0x4fc>
 1007c98:	00c00044 	movi	r3,1
 1007c9c:	d8c00e15 	stw	r3,56(sp)
 1007ca0:	00001406 	br	1007cf4 <___vfprintf_internal_r+0x210>
 1007ca4:	01001cc4 	movi	r4,115
 1007ca8:	1100a226 	beq	r2,r4,1007f34 <___vfprintf_internal_r+0x450>
 1007cac:	20800416 	blt	r4,r2,1007cc0 <___vfprintf_internal_r+0x1dc>
 1007cb0:	01001bc4 	movi	r4,111
 1007cb4:	1100ca1e 	bne	r2,r4,1007fe0 <___vfprintf_internal_r+0x4fc>
 1007cb8:	05000204 	movi	r20,8
 1007cbc:	00000e06 	br	1007cf8 <___vfprintf_internal_r+0x214>
 1007cc0:	01001d44 	movi	r4,117
 1007cc4:	11000c26 	beq	r2,r4,1007cf8 <___vfprintf_internal_r+0x214>
 1007cc8:	01001e04 	movi	r4,120
 1007ccc:	11000926 	beq	r2,r4,1007cf4 <___vfprintf_internal_r+0x210>
 1007cd0:	0000c306 	br	1007fe0 <___vfprintf_internal_r+0x4fc>
 1007cd4:	b8800104 	addi	r2,r23,4
 1007cd8:	b0000726 	beq	r22,zero,1007cf8 <___vfprintf_internal_r+0x214>
 1007cdc:	d8800d15 	stw	r2,52(sp)
 1007ce0:	bdc00017 	ldw	r23,0(r23)
 1007ce4:	b800080e 	bge	r23,zero,1007d08 <___vfprintf_internal_r+0x224>
 1007ce8:	05efc83a 	sub	r23,zero,r23
 1007cec:	02400044 	movi	r9,1
 1007cf0:	00000606 	br	1007d0c <___vfprintf_internal_r+0x228>
 1007cf4:	05000404 	movi	r20,16
 1007cf8:	b8c00104 	addi	r3,r23,4
 1007cfc:	d8c00d15 	stw	r3,52(sp)
 1007d00:	bdc00017 	ldw	r23,0(r23)
 1007d04:	002d883a 	mov	r22,zero
 1007d08:	0013883a 	mov	r9,zero
 1007d0c:	002b883a 	mov	r21,zero
 1007d10:	dd4d883a 	add	r6,sp,r21
 1007d14:	b8001626 	beq	r23,zero,1007d70 <___vfprintf_internal_r+0x28c>
 1007d18:	b809883a 	mov	r4,r23
 1007d1c:	a00b883a 	mov	r5,r20
 1007d20:	d9801015 	stw	r6,64(sp)
 1007d24:	da401115 	stw	r9,68(sp)
 1007d28:	10079300 	call	1007930 <__udivsi3>
 1007d2c:	a089383a 	mul	r4,r20,r2
 1007d30:	00c00244 	movi	r3,9
 1007d34:	d9801017 	ldw	r6,64(sp)
 1007d38:	b92fc83a 	sub	r23,r23,r4
 1007d3c:	da401117 	ldw	r9,68(sp)
 1007d40:	1dc00216 	blt	r3,r23,1007d4c <___vfprintf_internal_r+0x268>
 1007d44:	bdc00c04 	addi	r23,r23,48
 1007d48:	00000506 	br	1007d60 <___vfprintf_internal_r+0x27c>
 1007d4c:	d8c00e17 	ldw	r3,56(sp)
 1007d50:	18000226 	beq	r3,zero,1007d5c <___vfprintf_internal_r+0x278>
 1007d54:	bdc00dc4 	addi	r23,r23,55
 1007d58:	00000106 	br	1007d60 <___vfprintf_internal_r+0x27c>
 1007d5c:	bdc015c4 	addi	r23,r23,87
 1007d60:	35c00005 	stb	r23,0(r6)
 1007d64:	ad400044 	addi	r21,r21,1
 1007d68:	102f883a 	mov	r23,r2
 1007d6c:	003fe806 	br	1007d10 <__alt_data_end+0xfffe6db8>
 1007d70:	36c7c83a 	sub	r3,r6,sp
 1007d74:	d8c00a15 	stw	r3,40(sp)
 1007d78:	90c5c83a 	sub	r2,r18,r3
 1007d7c:	302f883a 	mov	r23,r6
 1007d80:	00800e0e 	bge	zero,r2,1007dbc <___vfprintf_internal_r+0x2d8>
 1007d84:	302b883a 	mov	r21,r6
 1007d88:	3085883a 	add	r2,r6,r2
 1007d8c:	01400c04 	movi	r5,48
 1007d90:	d8c00917 	ldw	r3,36(sp)
 1007d94:	a809883a 	mov	r4,r21
 1007d98:	a8c0052e 	bgeu	r21,r3,1007db0 <___vfprintf_internal_r+0x2cc>
 1007d9c:	ad400044 	addi	r21,r21,1
 1007da0:	21400005 	stb	r5,0(r4)
 1007da4:	a82f883a 	mov	r23,r21
 1007da8:	a8bff91e 	bne	r21,r2,1007d90 <__alt_data_end+0xfffe6e38>
 1007dac:	00000106 	br	1007db4 <___vfprintf_internal_r+0x2d0>
 1007db0:	a82f883a 	mov	r23,r21
 1007db4:	aeebc83a 	sub	r21,r21,sp
 1007db8:	dd400a15 	stw	r21,40(sp)
 1007dbc:	d8c00a17 	ldw	r3,40(sp)
 1007dc0:	1a51883a 	add	r8,r3,r9
 1007dc4:	d8c00b17 	ldw	r3,44(sp)
 1007dc8:	8a2bc83a 	sub	r21,r17,r8
 1007dcc:	18001726 	beq	r3,zero,1007e2c <___vfprintf_internal_r+0x348>
 1007dd0:	48000a26 	beq	r9,zero,1007dfc <___vfprintf_internal_r+0x318>
 1007dd4:	00800b44 	movi	r2,45
 1007dd8:	d8800805 	stb	r2,32(sp)
 1007ddc:	e0800117 	ldw	r2,4(fp)
 1007de0:	9809883a 	mov	r4,r19
 1007de4:	e00b883a 	mov	r5,fp
 1007de8:	d9800804 	addi	r6,sp,32
 1007dec:	01c00044 	movi	r7,1
 1007df0:	103ee83a 	callr	r2
 1007df4:	10004d1e 	bne	r2,zero,1007f2c <___vfprintf_internal_r+0x448>
 1007df8:	84000044 	addi	r16,r16,1
 1007dfc:	0540070e 	bge	zero,r21,1007e1c <___vfprintf_internal_r+0x338>
 1007e00:	9809883a 	mov	r4,r19
 1007e04:	e00b883a 	mov	r5,fp
 1007e08:	01800c04 	movi	r6,48
 1007e0c:	a80f883a 	mov	r7,r21
 1007e10:	1007a780 	call	1007a78 <print_repeat>
 1007e14:	1000451e 	bne	r2,zero,1007f2c <___vfprintf_internal_r+0x448>
 1007e18:	8561883a 	add	r16,r16,r21
 1007e1c:	d8c00a17 	ldw	r3,40(sp)
 1007e20:	b811883a 	mov	r8,r23
 1007e24:	1debc83a 	sub	r21,r3,r23
 1007e28:	00002206 	br	1007eb4 <___vfprintf_internal_r+0x3d0>
 1007e2c:	0540090e 	bge	zero,r21,1007e54 <___vfprintf_internal_r+0x370>
 1007e30:	9809883a 	mov	r4,r19
 1007e34:	e00b883a 	mov	r5,fp
 1007e38:	01800804 	movi	r6,32
 1007e3c:	a80f883a 	mov	r7,r21
 1007e40:	da401115 	stw	r9,68(sp)
 1007e44:	1007a780 	call	1007a78 <print_repeat>
 1007e48:	da401117 	ldw	r9,68(sp)
 1007e4c:	1000371e 	bne	r2,zero,1007f2c <___vfprintf_internal_r+0x448>
 1007e50:	8561883a 	add	r16,r16,r21
 1007e54:	483ff126 	beq	r9,zero,1007e1c <__alt_data_end+0xfffe6ec4>
 1007e58:	00800b44 	movi	r2,45
 1007e5c:	d8800805 	stb	r2,32(sp)
 1007e60:	e0800117 	ldw	r2,4(fp)
 1007e64:	9809883a 	mov	r4,r19
 1007e68:	e00b883a 	mov	r5,fp
 1007e6c:	d9800804 	addi	r6,sp,32
 1007e70:	01c00044 	movi	r7,1
 1007e74:	103ee83a 	callr	r2
 1007e78:	10002c1e 	bne	r2,zero,1007f2c <___vfprintf_internal_r+0x448>
 1007e7c:	84000044 	addi	r16,r16,1
 1007e80:	003fe606 	br	1007e1c <__alt_data_end+0xfffe6ec4>
 1007e84:	423fffc4 	addi	r8,r8,-1
 1007e88:	40800003 	ldbu	r2,0(r8)
 1007e8c:	9809883a 	mov	r4,r19
 1007e90:	e00b883a 	mov	r5,fp
 1007e94:	d8800805 	stb	r2,32(sp)
 1007e98:	e0800117 	ldw	r2,4(fp)
 1007e9c:	d9800804 	addi	r6,sp,32
 1007ea0:	da001015 	stw	r8,64(sp)
 1007ea4:	01c00044 	movi	r7,1
 1007ea8:	103ee83a 	callr	r2
 1007eac:	da001017 	ldw	r8,64(sp)
 1007eb0:	10001e1e 	bne	r2,zero,1007f2c <___vfprintf_internal_r+0x448>
 1007eb4:	8205c83a 	sub	r2,r16,r8
 1007eb8:	4549883a 	add	r4,r8,r21
 1007ebc:	b885883a 	add	r2,r23,r2
 1007ec0:	013ff016 	blt	zero,r4,1007e84 <__alt_data_end+0xfffe6f2c>
 1007ec4:	1021883a 	mov	r16,r2
 1007ec8:	ddc00d17 	ldw	r23,52(sp)
 1007ecc:	00004406 	br	1007fe0 <___vfprintf_internal_r+0x4fc>
 1007ed0:	00800044 	movi	r2,1
 1007ed4:	1440080e 	bge	r2,r17,1007ef8 <___vfprintf_internal_r+0x414>
 1007ed8:	8d7fffc4 	addi	r21,r17,-1
 1007edc:	9809883a 	mov	r4,r19
 1007ee0:	e00b883a 	mov	r5,fp
 1007ee4:	01800804 	movi	r6,32
 1007ee8:	a80f883a 	mov	r7,r21
 1007eec:	1007a780 	call	1007a78 <print_repeat>
 1007ef0:	10000e1e 	bne	r2,zero,1007f2c <___vfprintf_internal_r+0x448>
 1007ef4:	8561883a 	add	r16,r16,r21
 1007ef8:	b8800017 	ldw	r2,0(r23)
 1007efc:	9809883a 	mov	r4,r19
 1007f00:	e00b883a 	mov	r5,fp
 1007f04:	d8800005 	stb	r2,0(sp)
 1007f08:	e0800117 	ldw	r2,4(fp)
 1007f0c:	d80d883a 	mov	r6,sp
 1007f10:	01c00044 	movi	r7,1
 1007f14:	bd400104 	addi	r21,r23,4
 1007f18:	103ee83a 	callr	r2
 1007f1c:	1000031e 	bne	r2,zero,1007f2c <___vfprintf_internal_r+0x448>
 1007f20:	84000044 	addi	r16,r16,1
 1007f24:	a82f883a 	mov	r23,r21
 1007f28:	00002d06 	br	1007fe0 <___vfprintf_internal_r+0x4fc>
 1007f2c:	00bfffc4 	movi	r2,-1
 1007f30:	00003106 	br	1007ff8 <___vfprintf_internal_r+0x514>
 1007f34:	bd400017 	ldw	r21,0(r23)
 1007f38:	b8c00104 	addi	r3,r23,4
 1007f3c:	d8c00a15 	stw	r3,40(sp)
 1007f40:	a809883a 	mov	r4,r21
 1007f44:	1007a5c0 	call	1007a5c <strlen>
 1007f48:	8893c83a 	sub	r9,r17,r2
 1007f4c:	102f883a 	mov	r23,r2
 1007f50:	0240090e 	bge	zero,r9,1007f78 <___vfprintf_internal_r+0x494>
 1007f54:	480f883a 	mov	r7,r9
 1007f58:	9809883a 	mov	r4,r19
 1007f5c:	e00b883a 	mov	r5,fp
 1007f60:	01800804 	movi	r6,32
 1007f64:	da401115 	stw	r9,68(sp)
 1007f68:	1007a780 	call	1007a78 <print_repeat>
 1007f6c:	da401117 	ldw	r9,68(sp)
 1007f70:	103fee1e 	bne	r2,zero,1007f2c <__alt_data_end+0xfffe6fd4>
 1007f74:	8261883a 	add	r16,r16,r9
 1007f78:	e0800117 	ldw	r2,4(fp)
 1007f7c:	9809883a 	mov	r4,r19
 1007f80:	e00b883a 	mov	r5,fp
 1007f84:	a80d883a 	mov	r6,r21
 1007f88:	b80f883a 	mov	r7,r23
 1007f8c:	103ee83a 	callr	r2
 1007f90:	103fe61e 	bne	r2,zero,1007f2c <__alt_data_end+0xfffe6fd4>
 1007f94:	85e1883a 	add	r16,r16,r23
 1007f98:	ddc00a17 	ldw	r23,40(sp)
 1007f9c:	00001006 	br	1007fe0 <___vfprintf_internal_r+0x4fc>
 1007fa0:	05800044 	movi	r22,1
 1007fa4:	04bfffc4 	movi	r18,-1
 1007fa8:	d8000e15 	stw	zero,56(sp)
 1007fac:	05000284 	movi	r20,10
 1007fb0:	9023883a 	mov	r17,r18
 1007fb4:	d8000c15 	stw	zero,48(sp)
 1007fb8:	d8000b15 	stw	zero,44(sp)
 1007fbc:	b02b883a 	mov	r21,r22
 1007fc0:	00000806 	br	1007fe4 <___vfprintf_internal_r+0x500>
 1007fc4:	dd400b15 	stw	r21,44(sp)
 1007fc8:	05400084 	movi	r21,2
 1007fcc:	00000506 	br	1007fe4 <___vfprintf_internal_r+0x500>
 1007fd0:	00c00044 	movi	r3,1
 1007fd4:	d8c00c15 	stw	r3,48(sp)
 1007fd8:	054000c4 	movi	r21,3
 1007fdc:	00000106 	br	1007fe4 <___vfprintf_internal_r+0x500>
 1007fe0:	002b883a 	mov	r21,zero
 1007fe4:	d8c00f17 	ldw	r3,60(sp)
 1007fe8:	18c00044 	addi	r3,r3,1
 1007fec:	d8c00f15 	stw	r3,60(sp)
 1007ff0:	003ed606 	br	1007b4c <__alt_data_end+0xfffe6bf4>
 1007ff4:	8005883a 	mov	r2,r16
 1007ff8:	dfc01b17 	ldw	ra,108(sp)
 1007ffc:	df001a17 	ldw	fp,104(sp)
 1008000:	ddc01917 	ldw	r23,100(sp)
 1008004:	dd801817 	ldw	r22,96(sp)
 1008008:	dd401717 	ldw	r21,92(sp)
 100800c:	dd001617 	ldw	r20,88(sp)
 1008010:	dcc01517 	ldw	r19,84(sp)
 1008014:	dc801417 	ldw	r18,80(sp)
 1008018:	dc401317 	ldw	r17,76(sp)
 100801c:	dc001217 	ldw	r16,72(sp)
 1008020:	dec01c04 	addi	sp,sp,112
 1008024:	f800283a 	ret

01008028 <__vfprintf_internal>:
 1008028:	2007883a 	mov	r3,r4
 100802c:	01004074 	movhi	r4,257
 1008030:	212d8404 	addi	r4,r4,-18928
 1008034:	21000017 	ldw	r4,0(r4)
 1008038:	2805883a 	mov	r2,r5
 100803c:	300f883a 	mov	r7,r6
 1008040:	180b883a 	mov	r5,r3
 1008044:	100d883a 	mov	r6,r2
 1008048:	1007ae41 	jmpi	1007ae4 <___vfprintf_internal_r>

0100804c <__sfvwrite_small_dev>:
 100804c:	2880000b 	ldhu	r2,0(r5)
 1008050:	defffa04 	addi	sp,sp,-24
 1008054:	dc000015 	stw	r16,0(sp)
 1008058:	dfc00515 	stw	ra,20(sp)
 100805c:	dd000415 	stw	r20,16(sp)
 1008060:	dcc00315 	stw	r19,12(sp)
 1008064:	dc800215 	stw	r18,8(sp)
 1008068:	dc400115 	stw	r17,4(sp)
 100806c:	1080020c 	andi	r2,r2,8
 1008070:	2821883a 	mov	r16,r5
 1008074:	10001726 	beq	r2,zero,10080d4 <__sfvwrite_small_dev+0x88>
 1008078:	2880008f 	ldh	r2,2(r5)
 100807c:	10001216 	blt	r2,zero,10080c8 <__sfvwrite_small_dev+0x7c>
 1008080:	2027883a 	mov	r19,r4
 1008084:	3025883a 	mov	r18,r6
 1008088:	3823883a 	mov	r17,r7
 100808c:	05010004 	movi	r20,1024
 1008090:	04400b0e 	bge	zero,r17,10080c0 <__sfvwrite_small_dev+0x74>
 1008094:	8140008f 	ldh	r5,2(r16)
 1008098:	880f883a 	mov	r7,r17
 100809c:	a440010e 	bge	r20,r17,10080a4 <__sfvwrite_small_dev+0x58>
 10080a0:	01c10004 	movi	r7,1024
 10080a4:	9809883a 	mov	r4,r19
 10080a8:	900d883a 	mov	r6,r18
 10080ac:	10080f80 	call	10080f8 <_write_r>
 10080b0:	0080050e 	bge	zero,r2,10080c8 <__sfvwrite_small_dev+0x7c>
 10080b4:	88a3c83a 	sub	r17,r17,r2
 10080b8:	90a5883a 	add	r18,r18,r2
 10080bc:	003ff406 	br	1008090 <__alt_data_end+0xfffe7138>
 10080c0:	0005883a 	mov	r2,zero
 10080c4:	00000406 	br	10080d8 <__sfvwrite_small_dev+0x8c>
 10080c8:	8080000b 	ldhu	r2,0(r16)
 10080cc:	10801014 	ori	r2,r2,64
 10080d0:	8080000d 	sth	r2,0(r16)
 10080d4:	00bfffc4 	movi	r2,-1
 10080d8:	dfc00517 	ldw	ra,20(sp)
 10080dc:	dd000417 	ldw	r20,16(sp)
 10080e0:	dcc00317 	ldw	r19,12(sp)
 10080e4:	dc800217 	ldw	r18,8(sp)
 10080e8:	dc400117 	ldw	r17,4(sp)
 10080ec:	dc000017 	ldw	r16,0(sp)
 10080f0:	dec00604 	addi	sp,sp,24
 10080f4:	f800283a 	ret

010080f8 <_write_r>:
 10080f8:	defffd04 	addi	sp,sp,-12
 10080fc:	dc000015 	stw	r16,0(sp)
 1008100:	04004074 	movhi	r16,257
 1008104:	dc400115 	stw	r17,4(sp)
 1008108:	842f8704 	addi	r16,r16,-16868
 100810c:	2023883a 	mov	r17,r4
 1008110:	2809883a 	mov	r4,r5
 1008114:	300b883a 	mov	r5,r6
 1008118:	380d883a 	mov	r6,r7
 100811c:	dfc00215 	stw	ra,8(sp)
 1008120:	80000015 	stw	zero,0(r16)
 1008124:	10085500 	call	1008550 <write>
 1008128:	00ffffc4 	movi	r3,-1
 100812c:	10c0031e 	bne	r2,r3,100813c <_write_r+0x44>
 1008130:	80c00017 	ldw	r3,0(r16)
 1008134:	18000126 	beq	r3,zero,100813c <_write_r+0x44>
 1008138:	88c00015 	stw	r3,0(r17)
 100813c:	dfc00217 	ldw	ra,8(sp)
 1008140:	dc400117 	ldw	r17,4(sp)
 1008144:	dc000017 	ldw	r16,0(sp)
 1008148:	dec00304 	addi	sp,sp,12
 100814c:	f800283a 	ret

01008150 <alt_dcache_flush>:
 *
 * Any dirty lines in the data cache are written back to memory.
 */

void alt_dcache_flush (void* start, alt_u32 len)
{
 1008150:	defffb04 	addi	sp,sp,-20
 1008154:	df000415 	stw	fp,16(sp)
 1008158:	df000404 	addi	fp,sp,16
 100815c:	e13ffe15 	stw	r4,-8(fp)
 1008160:	e17fff15 	stw	r5,-4(fp)
  {
    len = NIOS2_DCACHE_SIZE;
  }
  #endif

  end = ((char*) start) + len; 
 1008164:	e0fffe17 	ldw	r3,-8(fp)
 1008168:	e0bfff17 	ldw	r2,-4(fp)
 100816c:	1885883a 	add	r2,r3,r2
 1008170:	e0bffd15 	stw	r2,-12(fp)

  for (i = start; i < end; i+= NIOS2_DCACHE_LINE_SIZE)
 1008174:	e0bffe17 	ldw	r2,-8(fp)
 1008178:	e0bffc15 	stw	r2,-16(fp)
 100817c:	00000506 	br	1008194 <alt_dcache_flush+0x44>
  { 
    ALT_FLUSH_DATA(i); 
 1008180:	e0bffc17 	ldw	r2,-16(fp)
 1008184:	1000001b 	flushda	0(r2)
  }
  #endif

  end = ((char*) start) + len; 

  for (i = start; i < end; i+= NIOS2_DCACHE_LINE_SIZE)
 1008188:	e0bffc17 	ldw	r2,-16(fp)
 100818c:	10800804 	addi	r2,r2,32
 1008190:	e0bffc15 	stw	r2,-16(fp)
 1008194:	e0fffc17 	ldw	r3,-16(fp)
 1008198:	e0bffd17 	ldw	r2,-12(fp)
 100819c:	18bff836 	bltu	r3,r2,1008180 <__alt_data_end+0xfffe7228>
   * For an unaligned flush request, we've got one more line left.
   * Note that this is dependent on NIOS2_DCACHE_LINE_SIZE to be a 
   * multiple of 2 (which it always is).
   */

  if (((alt_u32) start) & (NIOS2_DCACHE_LINE_SIZE - 1))
 10081a0:	e0bffe17 	ldw	r2,-8(fp)
 10081a4:	108007cc 	andi	r2,r2,31
 10081a8:	10000226 	beq	r2,zero,10081b4 <alt_dcache_flush+0x64>
  {
    ALT_FLUSH_DATA(i);
 10081ac:	e0bffc17 	ldw	r2,-16(fp)
 10081b0:	1000001b 	flushda	0(r2)
  }

#endif /* NIOS2_DCACHE_SIZE > 0 */
}
 10081b4:	e037883a 	mov	sp,fp
 10081b8:	df000017 	ldw	fp,0(sp)
 10081bc:	dec00104 	addi	sp,sp,4
 10081c0:	f800283a 	ret

010081c4 <alt_irq_register>:
 */
 
int alt_irq_register (alt_u32 id, 
                      void* context, 
                      alt_isr_func handler)
{
 10081c4:	defff004 	addi	sp,sp,-64
 10081c8:	df000f15 	stw	fp,60(sp)
 10081cc:	df000f04 	addi	fp,sp,60
 10081d0:	e13ffd15 	stw	r4,-12(fp)
 10081d4:	e17ffe15 	stw	r5,-8(fp)
 10081d8:	e1bfff15 	stw	r6,-4(fp)
  int rc = -EINVAL;  
 10081dc:	00bffa84 	movi	r2,-22
 10081e0:	e0bff115 	stw	r2,-60(fp)
  alt_irq_context status;

  if (id < ALT_NIRQ)
 10081e4:	e0bffd17 	ldw	r2,-12(fp)
 10081e8:	10800828 	cmpgeui	r2,r2,32
 10081ec:	10005c1e 	bne	r2,zero,1008360 <alt_irq_register+0x19c>
static ALT_INLINE alt_irq_context ALT_ALWAYS_INLINE 
       alt_irq_disable_all (void)
{
  alt_irq_context context;

  NIOS2_READ_STATUS (context);
 10081f0:	0005303a 	rdctl	r2,status
 10081f4:	e0bff315 	stw	r2,-52(fp)

  NIOS2_WRITE_STATUS (context & ~NIOS2_STATUS_PIE_MSK);
 10081f8:	e0fff317 	ldw	r3,-52(fp)
 10081fc:	00bfff84 	movi	r2,-2
 1008200:	1884703a 	and	r2,r3,r2
 1008204:	1001703a 	wrctl	status,r2
  
  return context;
 1008208:	e0bff317 	ldw	r2,-52(fp)
     * interrupts are disabled while the handler tables are updated to ensure
     * that an interrupt doesn't occur while the tables are in an inconsistant
     * state.
     */

    status = alt_irq_disable_all ();
 100820c:	e0bff215 	stw	r2,-56(fp)

    alt_irq[id].handler = handler;
 1008210:	00804074 	movhi	r2,257
 1008214:	10b14e04 	addi	r2,r2,-15048
 1008218:	e0fffd17 	ldw	r3,-12(fp)
 100821c:	180690fa 	slli	r3,r3,3
 1008220:	10c5883a 	add	r2,r2,r3
 1008224:	e0ffff17 	ldw	r3,-4(fp)
 1008228:	10c00015 	stw	r3,0(r2)
    alt_irq[id].context = context;
 100822c:	00804074 	movhi	r2,257
 1008230:	10b14e04 	addi	r2,r2,-15048
 1008234:	e0fffd17 	ldw	r3,-12(fp)
 1008238:	180690fa 	slli	r3,r3,3
 100823c:	10c5883a 	add	r2,r2,r3
 1008240:	10800104 	addi	r2,r2,4
 1008244:	e0fffe17 	ldw	r3,-8(fp)
 1008248:	10c00015 	stw	r3,0(r2)

    rc = (handler) ? alt_irq_enable (id): alt_irq_disable (id);
 100824c:	e0bfff17 	ldw	r2,-4(fp)
 1008250:	10001f26 	beq	r2,zero,10082d0 <alt_irq_register+0x10c>
 1008254:	e0bffd17 	ldw	r2,-12(fp)
 1008258:	e0bff415 	stw	r2,-48(fp)
static ALT_INLINE alt_irq_context ALT_ALWAYS_INLINE 
       alt_irq_disable_all (void)
{
  alt_irq_context context;

  NIOS2_READ_STATUS (context);
 100825c:	0005303a 	rdctl	r2,status
 1008260:	e0bff515 	stw	r2,-44(fp)

  NIOS2_WRITE_STATUS (context & ~NIOS2_STATUS_PIE_MSK);
 1008264:	e0fff517 	ldw	r3,-44(fp)
 1008268:	00bfff84 	movi	r2,-2
 100826c:	1884703a 	and	r2,r3,r2
 1008270:	1001703a 	wrctl	status,r2
  
  return context;
 1008274:	e0bff517 	ldw	r2,-44(fp)
static ALT_INLINE int ALT_ALWAYS_INLINE alt_irq_enable (alt_u32 id)
{
  alt_irq_context  status;
  extern volatile alt_u32 alt_irq_active;

  status = alt_irq_disable_all ();
 1008278:	e0bff615 	stw	r2,-40(fp)

  alt_irq_active |= (1 << id);
 100827c:	e0bff417 	ldw	r2,-48(fp)
 1008280:	00c00044 	movi	r3,1
 1008284:	1884983a 	sll	r2,r3,r2
 1008288:	1007883a 	mov	r3,r2
 100828c:	00804074 	movhi	r2,257
 1008290:	10af8804 	addi	r2,r2,-16864
 1008294:	10800017 	ldw	r2,0(r2)
 1008298:	1886b03a 	or	r3,r3,r2
 100829c:	00804074 	movhi	r2,257
 10082a0:	10af8804 	addi	r2,r2,-16864
 10082a4:	10c00015 	stw	r3,0(r2)
  NIOS2_WRITE_IENABLE (alt_irq_active);
 10082a8:	00804074 	movhi	r2,257
 10082ac:	10af8804 	addi	r2,r2,-16864
 10082b0:	10800017 	ldw	r2,0(r2)
 10082b4:	100170fa 	wrctl	ienable,r2
 10082b8:	e0bff617 	ldw	r2,-40(fp)
 10082bc:	e0bff715 	stw	r2,-36(fp)
  status &= ~NIOS2_STATUS_PIE_MSK;
  status |= (context & NIOS2_STATUS_PIE_MSK);
  
  NIOS2_WRITE_STATUS (status);
#else
  NIOS2_WRITE_STATUS (context);
 10082c0:	e0bff717 	ldw	r2,-36(fp)
 10082c4:	1001703a 	wrctl	status,r2

  alt_irq_enable_all(status);

  return 0;
 10082c8:	0005883a 	mov	r2,zero
 10082cc:	00001f06 	br	100834c <alt_irq_register+0x188>
 10082d0:	e0bffd17 	ldw	r2,-12(fp)
 10082d4:	e0bff815 	stw	r2,-32(fp)
static ALT_INLINE alt_irq_context ALT_ALWAYS_INLINE 
       alt_irq_disable_all (void)
{
  alt_irq_context context;

  NIOS2_READ_STATUS (context);
 10082d8:	0005303a 	rdctl	r2,status
 10082dc:	e0bff915 	stw	r2,-28(fp)

  NIOS2_WRITE_STATUS (context & ~NIOS2_STATUS_PIE_MSK);
 10082e0:	e0fff917 	ldw	r3,-28(fp)
 10082e4:	00bfff84 	movi	r2,-2
 10082e8:	1884703a 	and	r2,r3,r2
 10082ec:	1001703a 	wrctl	status,r2
  
  return context;
 10082f0:	e0bff917 	ldw	r2,-28(fp)
static ALT_INLINE int ALT_ALWAYS_INLINE alt_irq_disable (alt_u32 id)
{
  alt_irq_context  status;
  extern volatile alt_u32 alt_irq_active;

  status = alt_irq_disable_all ();
 10082f4:	e0bffa15 	stw	r2,-24(fp)

  alt_irq_active &= ~(1 << id);
 10082f8:	e0bff817 	ldw	r2,-32(fp)
 10082fc:	00c00044 	movi	r3,1
 1008300:	1884983a 	sll	r2,r3,r2
 1008304:	0084303a 	nor	r2,zero,r2
 1008308:	1007883a 	mov	r3,r2
 100830c:	00804074 	movhi	r2,257
 1008310:	10af8804 	addi	r2,r2,-16864
 1008314:	10800017 	ldw	r2,0(r2)
 1008318:	1886703a 	and	r3,r3,r2
 100831c:	00804074 	movhi	r2,257
 1008320:	10af8804 	addi	r2,r2,-16864
 1008324:	10c00015 	stw	r3,0(r2)
  NIOS2_WRITE_IENABLE (alt_irq_active);
 1008328:	00804074 	movhi	r2,257
 100832c:	10af8804 	addi	r2,r2,-16864
 1008330:	10800017 	ldw	r2,0(r2)
 1008334:	100170fa 	wrctl	ienable,r2
 1008338:	e0bffa17 	ldw	r2,-24(fp)
 100833c:	e0bffb15 	stw	r2,-20(fp)
  status &= ~NIOS2_STATUS_PIE_MSK;
  status |= (context & NIOS2_STATUS_PIE_MSK);
  
  NIOS2_WRITE_STATUS (status);
#else
  NIOS2_WRITE_STATUS (context);
 1008340:	e0bffb17 	ldw	r2,-20(fp)
 1008344:	1001703a 	wrctl	status,r2

  alt_irq_enable_all(status);

  return 0;
 1008348:	0005883a 	mov	r2,zero
 100834c:	e0bff115 	stw	r2,-60(fp)
 1008350:	e0bff217 	ldw	r2,-56(fp)
 1008354:	e0bffc15 	stw	r2,-16(fp)
 1008358:	e0bffc17 	ldw	r2,-16(fp)
 100835c:	1001703a 	wrctl	status,r2

    alt_irq_enable_all(status);
  }
  return rc; 
 1008360:	e0bff117 	ldw	r2,-60(fp)
}
 1008364:	e037883a 	mov	sp,fp
 1008368:	df000017 	ldw	fp,0(sp)
 100836c:	dec00104 	addi	sp,sp,4
 1008370:	f800283a 	ret

01008374 <alt_load_section>:
 */

static void ALT_INLINE alt_load_section (alt_u32* from, 
                                         alt_u32* to, 
                                         alt_u32* end)
{
 1008374:	defffc04 	addi	sp,sp,-16
 1008378:	df000315 	stw	fp,12(sp)
 100837c:	df000304 	addi	fp,sp,12
 1008380:	e13ffd15 	stw	r4,-12(fp)
 1008384:	e17ffe15 	stw	r5,-8(fp)
 1008388:	e1bfff15 	stw	r6,-4(fp)
  if (to != from)
 100838c:	e0fffe17 	ldw	r3,-8(fp)
 1008390:	e0bffd17 	ldw	r2,-12(fp)
 1008394:	18800c26 	beq	r3,r2,10083c8 <alt_load_section+0x54>
  {
    while( to != end )
 1008398:	00000806 	br	10083bc <alt_load_section+0x48>
    {
      *to++ = *from++;
 100839c:	e0bffe17 	ldw	r2,-8(fp)
 10083a0:	10c00104 	addi	r3,r2,4
 10083a4:	e0fffe15 	stw	r3,-8(fp)
 10083a8:	e0fffd17 	ldw	r3,-12(fp)
 10083ac:	19000104 	addi	r4,r3,4
 10083b0:	e13ffd15 	stw	r4,-12(fp)
 10083b4:	18c00017 	ldw	r3,0(r3)
 10083b8:	10c00015 	stw	r3,0(r2)
                                         alt_u32* to, 
                                         alt_u32* end)
{
  if (to != from)
  {
    while( to != end )
 10083bc:	e0fffe17 	ldw	r3,-8(fp)
 10083c0:	e0bfff17 	ldw	r2,-4(fp)
 10083c4:	18bff51e 	bne	r3,r2,100839c <__alt_data_end+0xfffe7444>
    {
      *to++ = *from++;
    }
  }
}
 10083c8:	e037883a 	mov	sp,fp
 10083cc:	df000017 	ldw	fp,0(sp)
 10083d0:	dec00104 	addi	sp,sp,4
 10083d4:	f800283a 	ret

010083d8 <alt_load>:
 * there is no bootloader, so this application is responsible for loading to
 * RAM any sections that are required.
 */  

void alt_load (void)
{
 10083d8:	defffe04 	addi	sp,sp,-8
 10083dc:	dfc00115 	stw	ra,4(sp)
 10083e0:	df000015 	stw	fp,0(sp)
 10083e4:	d839883a 	mov	fp,sp
  /* 
   * Copy the .rwdata section. 
   */

  alt_load_section (&__flash_rwdata_start, 
 10083e8:	01004074 	movhi	r4,257
 10083ec:	212d9204 	addi	r4,r4,-18872
 10083f0:	01404074 	movhi	r5,257
 10083f4:	296b9f04 	addi	r5,r5,-20868
 10083f8:	01804074 	movhi	r6,257
 10083fc:	31ad9204 	addi	r6,r6,-18872
 1008400:	10083740 	call	1008374 <alt_load_section>

  /*
   * Copy the exception handler.
   */

  alt_load_section (&__flash_exceptions_start, 
 1008404:	01004034 	movhi	r4,256
 1008408:	21000804 	addi	r4,r4,32
 100840c:	01404034 	movhi	r5,256
 1008410:	29400804 	addi	r5,r5,32
 1008414:	01804034 	movhi	r6,256
 1008418:	31806f04 	addi	r6,r6,444
 100841c:	10083740 	call	1008374 <alt_load_section>

  /*
   * Copy the .rodata section.
   */

  alt_load_section (&__flash_rodata_start, 
 1008420:	01004074 	movhi	r4,257
 1008424:	212ac304 	addi	r4,r4,-21748
 1008428:	01404074 	movhi	r5,257
 100842c:	296ac304 	addi	r5,r5,-21748
 1008430:	01804074 	movhi	r6,257
 1008434:	31ab9f04 	addi	r6,r6,-20868
 1008438:	10083740 	call	1008374 <alt_load_section>
  
  /*
   * Now ensure that the caches are in synch.
   */
  
  alt_dcache_flush_all();
 100843c:	10098840 	call	1009884 <alt_dcache_flush_all>
  alt_icache_flush_all();
 1008440:	1009c780 	call	1009c78 <alt_icache_flush_all>
}
 1008444:	e037883a 	mov	sp,fp
 1008448:	dfc00117 	ldw	ra,4(sp)
 100844c:	df000017 	ldw	fp,0(sp)
 1008450:	dec00204 	addi	sp,sp,8
 1008454:	f800283a 	ret

01008458 <alt_main>:
 * devices/filesystems/components in the system; and call the entry point for
 * the users application, i.e. main().
 */

void alt_main (void)
{
 1008458:	defffd04 	addi	sp,sp,-12
 100845c:	dfc00215 	stw	ra,8(sp)
 1008460:	df000115 	stw	fp,4(sp)
 1008464:	df000104 	addi	fp,sp,4
#endif

  /* ALT LOG - please see HAL/sys/alt_log_printf.h for details */
  ALT_LOG_PRINT_BOOT("[alt_main.c] Entering alt_main, calling alt_irq_init.\r\n");
  /* Initialize the interrupt controller. */
  alt_irq_init (NULL);
 1008468:	0009883a 	mov	r4,zero
 100846c:	10086800 	call	1008680 <alt_irq_init>

  /* Initialize the operating system */
  ALT_LOG_PRINT_BOOT("[alt_main.c] Done alt_irq_init, calling alt_os_init.\r\n");
  ALT_OS_INIT();
 1008470:	0001883a 	nop
  ALT_LOG_PRINT_BOOT("[alt_main.c] Done OS Init, calling alt_sem_create.\r\n");
  ALT_SEM_CREATE (&alt_fd_list_lock, 1);

  /* Initialize the device drivers/software components. */
  ALT_LOG_PRINT_BOOT("[alt_main.c] Calling alt_sys_init.\r\n");
  alt_sys_init();
 1008474:	10086b40 	call	10086b4 <alt_sys_init>
   * devices be present (not equal to /dev/null) and if direct drivers
   * aren't being used.
   */

    ALT_LOG_PRINT_BOOT("[alt_main.c] Redirecting IO.\r\n");
    alt_io_redirect(ALT_STDOUT, ALT_STDIN, ALT_STDERR);
 1008478:	01004074 	movhi	r4,257
 100847c:	212b8f04 	addi	r4,r4,-20932
 1008480:	01404074 	movhi	r5,257
 1008484:	296b8f04 	addi	r5,r5,-20932
 1008488:	01804074 	movhi	r6,257
 100848c:	31ab8f04 	addi	r6,r6,-20932
 1008490:	100a0380 	call	100a038 <alt_io_redirect>
  /* 
   * Call the C++ constructors 
   */

  ALT_LOG_PRINT_BOOT("[alt_main.c] Calling C++ constructors.\r\n");
  _do_ctors ();
 1008494:	1009b300 	call	1009b30 <_do_ctors>
   * redefined as _exit()). This is in the interest of reducing code footprint,
   * in that the atexit() overhead is removed when it's not needed.
   */

  ALT_LOG_PRINT_BOOT("[alt_main.c] Calling atexit.\r\n");
  atexit (_do_dtors);
 1008498:	01004074 	movhi	r4,257
 100849c:	2126e304 	addi	r4,r4,-25716
 10084a0:	100a7940 	call	100a794 <atexit>
  ALT_LOG_PRINT_BOOT("[alt_main.c] Calling main.\r\n");

#ifdef ALT_NO_EXIT
  main (alt_argc, alt_argv, alt_envp);
#else
  result = main (alt_argc, alt_argv, alt_envp);
 10084a4:	d1220817 	ldw	r4,-30688(gp)
 10084a8:	d0e20917 	ldw	r3,-30684(gp)
 10084ac:	d0a20a17 	ldw	r2,-30680(gp)
 10084b0:	180b883a 	mov	r5,r3
 10084b4:	100d883a 	mov	r6,r2
 10084b8:	10003f80 	call	10003f8 <main>
 10084bc:	e0bfff15 	stw	r2,-4(fp)
  close(STDOUT_FILENO);
 10084c0:	01000044 	movi	r4,1
 10084c4:	10097b40 	call	10097b4 <close>
  exit (result);
 10084c8:	e13fff17 	ldw	r4,-4(fp)
 10084cc:	100a7a80 	call	100a7a8 <exit>

010084d0 <usleep>:
#if defined (__GNUC__) && __GNUC__ >= 4
int ALT_USLEEP (useconds_t us)
#else
unsigned int ALT_USLEEP (unsigned int us)
#endif
{
 10084d0:	defffd04 	addi	sp,sp,-12
 10084d4:	dfc00215 	stw	ra,8(sp)
 10084d8:	df000115 	stw	fp,4(sp)
 10084dc:	df000104 	addi	fp,sp,4
 10084e0:	e13fff15 	stw	r4,-4(fp)
  return alt_busy_sleep(us);
 10084e4:	e13fff17 	ldw	r4,-4(fp)
 10084e8:	100960c0 	call	100960c <alt_busy_sleep>
}
 10084ec:	e037883a 	mov	sp,fp
 10084f0:	dfc00117 	ldw	ra,4(sp)
 10084f4:	df000017 	ldw	fp,0(sp)
 10084f8:	dec00204 	addi	sp,sp,8
 10084fc:	f800283a 	ret

01008500 <alt_get_errno>:
#undef errno

extern int errno;

static ALT_INLINE int* alt_get_errno(void)
{
 1008500:	defffe04 	addi	sp,sp,-8
 1008504:	dfc00115 	stw	ra,4(sp)
 1008508:	df000015 	stw	fp,0(sp)
 100850c:	d839883a 	mov	fp,sp
  return ((alt_errno) ? alt_errno() : &errno);
 1008510:	00804074 	movhi	r2,257
 1008514:	10ad8f04 	addi	r2,r2,-18884
 1008518:	10800017 	ldw	r2,0(r2)
 100851c:	10000526 	beq	r2,zero,1008534 <alt_get_errno+0x34>
 1008520:	00804074 	movhi	r2,257
 1008524:	10ad8f04 	addi	r2,r2,-18884
 1008528:	10800017 	ldw	r2,0(r2)
 100852c:	103ee83a 	callr	r2
 1008530:	00000206 	br	100853c <alt_get_errno+0x3c>
 1008534:	00804074 	movhi	r2,257
 1008538:	10af8704 	addi	r2,r2,-16868
}
 100853c:	e037883a 	mov	sp,fp
 1008540:	dfc00117 	ldw	ra,4(sp)
 1008544:	df000017 	ldw	fp,0(sp)
 1008548:	dec00204 	addi	sp,sp,8
 100854c:	f800283a 	ret

01008550 <write>:
}

#else /* !ALT_USE_DIRECT_DRIVERS */

int ALT_WRITE (int file, const void *ptr, size_t len)
{
 1008550:	defff904 	addi	sp,sp,-28
 1008554:	dfc00615 	stw	ra,24(sp)
 1008558:	df000515 	stw	fp,20(sp)
 100855c:	df000504 	addi	fp,sp,20
 1008560:	e13ffd15 	stw	r4,-12(fp)
 1008564:	e17ffe15 	stw	r5,-8(fp)
 1008568:	e1bfff15 	stw	r6,-4(fp)
   * A common error case is that when the file descriptor was created, the call
   * to open() failed resulting in a negative file descriptor. This is trapped
   * below so that we don't try and process an invalid file descriptor.
   */

  fd = (file < 0) ? NULL : &alt_fd_list[file];
 100856c:	e0bffd17 	ldw	r2,-12(fp)
 1008570:	10000616 	blt	r2,zero,100858c <write+0x3c>
 1008574:	e0bffd17 	ldw	r2,-12(fp)
 1008578:	10c00324 	muli	r3,r2,12
 100857c:	00804074 	movhi	r2,257
 1008580:	10ad2104 	addi	r2,r2,-19324
 1008584:	1885883a 	add	r2,r3,r2
 1008588:	00000106 	br	1008590 <write+0x40>
 100858c:	0005883a 	mov	r2,zero
 1008590:	e0bffb15 	stw	r2,-20(fp)
  
  if (fd)
 1008594:	e0bffb17 	ldw	r2,-20(fp)
 1008598:	10002126 	beq	r2,zero,1008620 <write+0xd0>
     * If the file has not been opened with write access, or if the driver does
     * not provide an implementation of write(), generate an error. Otherwise
     * call the drivers write() function to process the request.
     */

    if (((fd->fd_flags & O_ACCMODE) != O_RDONLY) && fd->dev->write)
 100859c:	e0bffb17 	ldw	r2,-20(fp)
 10085a0:	10800217 	ldw	r2,8(r2)
 10085a4:	108000cc 	andi	r2,r2,3
 10085a8:	10001826 	beq	r2,zero,100860c <write+0xbc>
 10085ac:	e0bffb17 	ldw	r2,-20(fp)
 10085b0:	10800017 	ldw	r2,0(r2)
 10085b4:	10800617 	ldw	r2,24(r2)
 10085b8:	10001426 	beq	r2,zero,100860c <write+0xbc>
    {
      
      /* ALT_LOG - see altera_hal/HAL/inc/sys/alt_log_printf.h */
      ALT_LOG_WRITE_FUNCTION(ptr,len);

      if ((rval = fd->dev->write(fd, ptr, len)) < 0)
 10085bc:	e0bffb17 	ldw	r2,-20(fp)
 10085c0:	10800017 	ldw	r2,0(r2)
 10085c4:	10800617 	ldw	r2,24(r2)
 10085c8:	e0ffff17 	ldw	r3,-4(fp)
 10085cc:	e13ffb17 	ldw	r4,-20(fp)
 10085d0:	e17ffe17 	ldw	r5,-8(fp)
 10085d4:	180d883a 	mov	r6,r3
 10085d8:	103ee83a 	callr	r2
 10085dc:	e0bffc15 	stw	r2,-16(fp)
 10085e0:	e0bffc17 	ldw	r2,-16(fp)
 10085e4:	1000070e 	bge	r2,zero,1008604 <write+0xb4>
      {
        ALT_ERRNO = -rval;
 10085e8:	10085000 	call	1008500 <alt_get_errno>
 10085ec:	1007883a 	mov	r3,r2
 10085f0:	e0bffc17 	ldw	r2,-16(fp)
 10085f4:	0085c83a 	sub	r2,zero,r2
 10085f8:	18800015 	stw	r2,0(r3)
        return -1;
 10085fc:	00bfffc4 	movi	r2,-1
 1008600:	00000c06 	br	1008634 <write+0xe4>
      }
      return rval;
 1008604:	e0bffc17 	ldw	r2,-16(fp)
 1008608:	00000a06 	br	1008634 <write+0xe4>
    }
    else
    {
      ALT_ERRNO = EACCES;
 100860c:	10085000 	call	1008500 <alt_get_errno>
 1008610:	1007883a 	mov	r3,r2
 1008614:	00800344 	movi	r2,13
 1008618:	18800015 	stw	r2,0(r3)
 100861c:	00000406 	br	1008630 <write+0xe0>
    }
  }
  else  
  {
    ALT_ERRNO = EBADFD;
 1008620:	10085000 	call	1008500 <alt_get_errno>
 1008624:	1007883a 	mov	r3,r2
 1008628:	00801444 	movi	r2,81
 100862c:	18800015 	stw	r2,0(r3)
  }
  return -1;
 1008630:	00bfffc4 	movi	r2,-1
}
 1008634:	e037883a 	mov	sp,fp
 1008638:	dfc00117 	ldw	ra,4(sp)
 100863c:	df000017 	ldw	fp,0(sp)
 1008640:	dec00204 	addi	sp,sp,8
 1008644:	f800283a 	ret

01008648 <alt_dev_reg>:
 */

extern int alt_fs_reg  (alt_dev* dev); 

static ALT_INLINE int alt_dev_reg (alt_dev* dev)
{
 1008648:	defffd04 	addi	sp,sp,-12
 100864c:	dfc00215 	stw	ra,8(sp)
 1008650:	df000115 	stw	fp,4(sp)
 1008654:	df000104 	addi	fp,sp,4
 1008658:	e13fff15 	stw	r4,-4(fp)
  extern alt_llist alt_dev_list;

  return alt_dev_llist_insert ((alt_dev_llist*) dev, &alt_dev_list);
 100865c:	e13fff17 	ldw	r4,-4(fp)
 1008660:	01404074 	movhi	r5,257
 1008664:	296d8804 	addi	r5,r5,-18912
 1008668:	10099440 	call	1009944 <alt_dev_llist_insert>
}
 100866c:	e037883a 	mov	sp,fp
 1008670:	dfc00117 	ldw	ra,4(sp)
 1008674:	df000017 	ldw	fp,0(sp)
 1008678:	dec00204 	addi	sp,sp,8
 100867c:	f800283a 	ret

01008680 <alt_irq_init>:
 * The "base" parameter is ignored and only
 * present for backwards-compatibility.
 */

void alt_irq_init ( const void* base )
{
 1008680:	defffd04 	addi	sp,sp,-12
 1008684:	dfc00215 	stw	ra,8(sp)
 1008688:	df000115 	stw	fp,4(sp)
 100868c:	df000104 	addi	fp,sp,4
 1008690:	e13fff15 	stw	r4,-4(fp)
    ALTERA_NIOS2_QSYS_IRQ_INIT ( NIOS2_QSYS_0, nios2_qsys_0);
 1008694:	100a5200 	call	100a520 <altera_nios2_qsys_irq_init>
 * alt_irq_cpu_enable_interrupts() enables the CPU to start taking interrupts.
 */
static ALT_INLINE void ALT_ALWAYS_INLINE 
       alt_irq_cpu_enable_interrupts (void)
{
    NIOS2_WRITE_STATUS(NIOS2_STATUS_PIE_MSK
 1008698:	00800044 	movi	r2,1
 100869c:	1001703a 	wrctl	status,r2
    alt_irq_cpu_enable_interrupts();
}
 10086a0:	e037883a 	mov	sp,fp
 10086a4:	dfc00117 	ldw	ra,4(sp)
 10086a8:	df000017 	ldw	fp,0(sp)
 10086ac:	dec00204 	addi	sp,sp,8
 10086b0:	f800283a 	ret

010086b4 <alt_sys_init>:
 * Initialize the non-interrupt controller devices.
 * Called after alt_irq_init().
 */

void alt_sys_init( void )
{
 10086b4:	defffd04 	addi	sp,sp,-12
 10086b8:	dfc00215 	stw	ra,8(sp)
 10086bc:	df000115 	stw	fp,4(sp)
 10086c0:	df000104 	addi	fp,sp,4
    ALTERA_AVALON_TIMER_INIT ( TIMER_0, timer_0);
 10086c4:	01008034 	movhi	r4,512
 10086c8:	000b883a 	mov	r5,zero
 10086cc:	01800044 	movi	r6,1
 10086d0:	01c0fa04 	movi	r7,1000
 10086d4:	10095840 	call	1009584 <alt_avalon_timer_sc_init>
    ALTERA_AVALON_DMA_INIT ( DMA_0, dma_0);
 10086d8:	008000c4 	movi	r2,3
 10086dc:	d8800015 	stw	r2,0(sp)
 10086e0:	01004074 	movhi	r4,257
 10086e4:	212cfe04 	addi	r4,r4,-19464
 10086e8:	01404074 	movhi	r5,257
 10086ec:	296d0504 	addi	r5,r5,-19436
 10086f0:	01804134 	movhi	r6,260
 10086f4:	31840004 	addi	r6,r6,4096
 10086f8:	000f883a 	mov	r7,zero
 10086fc:	10092280 	call	1009228 <alt_avalon_dma_init>
    ALTERA_AVALON_JTAG_UART_INIT ( JTAG_UART_0, jtag_uart_0);
 1008700:	01004074 	movhi	r4,257
 1008704:	212d0c04 	addi	r4,r4,-19408
 1008708:	10086480 	call	1008648 <alt_dev_reg>
}
 100870c:	e037883a 	mov	sp,fp
 1008710:	dfc00117 	ldw	ra,4(sp)
 1008714:	df000017 	ldw	fp,0(sp)
 1008718:	dec00204 	addi	sp,sp,8
 100871c:	f800283a 	ret

01008720 <alt_dma_txchan_reg>:
/*
 * Register a DMA transmit channel with the system.
 */

static ALT_INLINE int alt_dma_txchan_reg (alt_dma_txchan_dev* dev)
{
 1008720:	defffd04 	addi	sp,sp,-12
 1008724:	dfc00215 	stw	ra,8(sp)
 1008728:	df000115 	stw	fp,4(sp)
 100872c:	df000104 	addi	fp,sp,4
 1008730:	e13fff15 	stw	r4,-4(fp)
  extern alt_llist alt_dma_txchan_list;

  return alt_dev_llist_insert((alt_dev_llist*) dev, &alt_dma_txchan_list);
 1008734:	e13fff17 	ldw	r4,-4(fp)
 1008738:	01404074 	movhi	r5,257
 100873c:	296d8d04 	addi	r5,r5,-18892
 1008740:	10099440 	call	1009944 <alt_dev_llist_insert>
}
 1008744:	e037883a 	mov	sp,fp
 1008748:	dfc00117 	ldw	ra,4(sp)
 100874c:	df000017 	ldw	fp,0(sp)
 1008750:	dec00204 	addi	sp,sp,8
 1008754:	f800283a 	ret

01008758 <alt_dma_rxchan_reg>:
/*
 * Register a DMA receive channel with the system.
 */

static ALT_INLINE int alt_dma_rxchan_reg (alt_dma_rxchan_dev* dev)
{
 1008758:	defffd04 	addi	sp,sp,-12
 100875c:	dfc00215 	stw	ra,8(sp)
 1008760:	df000115 	stw	fp,4(sp)
 1008764:	df000104 	addi	fp,sp,4
 1008768:	e13fff15 	stw	r4,-4(fp)
  extern alt_llist alt_dma_rxchan_list;

  return alt_dev_llist_insert((alt_dev_llist*) dev, &alt_dma_rxchan_list);
 100876c:	e13fff17 	ldw	r4,-4(fp)
 1008770:	01404074 	movhi	r5,257
 1008774:	296d8b04 	addi	r5,r5,-18900
 1008778:	10099440 	call	1009944 <alt_dev_llist_insert>
}
 100877c:	e037883a 	mov	sp,fp
 1008780:	dfc00117 	ldw	ra,4(sp)
 1008784:	df000017 	ldw	fp,0(sp)
 1008788:	dec00204 	addi	sp,sp,8
 100878c:	f800283a 	ret

01008790 <alt_avalon_dma_launch_bidir>:
 * both the receive and transmit channels are using incrementing addresses,
 * i.e. both channels are accesing memory rather than devices.
 */

void alt_avalon_dma_launch_bidir (alt_avalon_dma_priv* priv)
{
 1008790:	defffc04 	addi	sp,sp,-16
 1008794:	df000315 	stw	fp,12(sp)
 1008798:	df000304 	addi	fp,sp,12
 100879c:	e13fff15 	stw	r4,-4(fp)
  alt_avalon_dma_txslot* tx_slot;
  alt_avalon_dma_rxslot* rx_slot;

  if ((priv->tx_start != priv->tx_end) && (priv->rx_start != priv->rx_end))
 10087a0:	e0bfff17 	ldw	r2,-4(fp)
 10087a4:	10c00117 	ldw	r3,4(r2)
 10087a8:	e0bfff17 	ldw	r2,-4(fp)
 10087ac:	10800217 	ldw	r2,8(r2)
 10087b0:	18802e26 	beq	r3,r2,100886c <alt_avalon_dma_launch_bidir+0xdc>
 10087b4:	e0bfff17 	ldw	r2,-4(fp)
 10087b8:	10c00317 	ldw	r3,12(r2)
 10087bc:	e0bfff17 	ldw	r2,-4(fp)
 10087c0:	10800417 	ldw	r2,16(r2)
 10087c4:	18802926 	beq	r3,r2,100886c <alt_avalon_dma_launch_bidir+0xdc>
  {
    priv->active = 1;
 10087c8:	e0bfff17 	ldw	r2,-4(fp)
 10087cc:	00c00044 	movi	r3,1
 10087d0:	10c00815 	stw	r3,32(r2)

    tx_slot = &priv->tx_buf[priv->tx_start];
 10087d4:	e0bfff17 	ldw	r2,-4(fp)
 10087d8:	10800117 	ldw	r2,4(r2)
 10087dc:	1004913a 	slli	r2,r2,4
 10087e0:	10800904 	addi	r2,r2,36
 10087e4:	e0ffff17 	ldw	r3,-4(fp)
 10087e8:	1885883a 	add	r2,r3,r2
 10087ec:	e0bffd15 	stw	r2,-12(fp)
    rx_slot = &priv->rx_buf[priv->rx_start];
 10087f0:	e0bfff17 	ldw	r2,-4(fp)
 10087f4:	10800317 	ldw	r2,12(r2)
 10087f8:	1004913a 	slli	r2,r2,4
 10087fc:	10801904 	addi	r2,r2,100
 1008800:	e0ffff17 	ldw	r3,-4(fp)
 1008804:	1885883a 	add	r2,r3,r2
 1008808:	e0bffe15 	stw	r2,-8(fp)

    IOWR_ALTERA_AVALON_DMA_RADDRESS (priv->base, (alt_u32) tx_slot->from);
 100880c:	e0bfff17 	ldw	r2,-4(fp)
 1008810:	10800017 	ldw	r2,0(r2)
 1008814:	10800104 	addi	r2,r2,4
 1008818:	e0fffd17 	ldw	r3,-12(fp)
 100881c:	18c00017 	ldw	r3,0(r3)
 1008820:	10c00035 	stwio	r3,0(r2)
    IOWR_ALTERA_AVALON_DMA_WADDRESS (priv->base, (alt_u32) rx_slot->data);
 1008824:	e0bfff17 	ldw	r2,-4(fp)
 1008828:	10800017 	ldw	r2,0(r2)
 100882c:	10800204 	addi	r2,r2,8
 1008830:	e0fffe17 	ldw	r3,-8(fp)
 1008834:	18c00017 	ldw	r3,0(r3)
 1008838:	10c00035 	stwio	r3,0(r2)

    IOWR_ALTERA_AVALON_DMA_LENGTH (priv->base,
 100883c:	e0bfff17 	ldw	r2,-4(fp)
 1008840:	10800017 	ldw	r2,0(r2)
 1008844:	11000304 	addi	r4,r2,12
 1008848:	e0bffd17 	ldw	r2,-12(fp)
 100884c:	11400117 	ldw	r5,4(r2)
 1008850:	e0bffe17 	ldw	r2,-8(fp)
 1008854:	10c00117 	ldw	r3,4(r2)
 1008858:	2805883a 	mov	r2,r5
 100885c:	1880012e 	bgeu	r3,r2,1008864 <alt_avalon_dma_launch_bidir+0xd4>
 1008860:	1805883a 	mov	r2,r3
 1008864:	20800035 	stwio	r2,0(r4)
 1008868:	00000206 	br	1008874 <alt_avalon_dma_launch_bidir+0xe4>
       (tx_slot->len > rx_slot->len) ? rx_slot->len : tx_slot->len);
  }
  else
  {
    priv->active = 0;
 100886c:	e0bfff17 	ldw	r2,-4(fp)
 1008870:	10000815 	stw	zero,32(r2)
  }
}
 1008874:	e037883a 	mov	sp,fp
 1008878:	df000017 	ldw	fp,0(sp)
 100887c:	dec00104 	addi	sp,sp,4
 1008880:	f800283a 	ret

01008884 <alt_avalon_dma_launch_txonly>:
 * i.e. the receive channel is accessing a single memory location (which is
 * probably a device register).
 */

static void alt_avalon_dma_launch_txonly (alt_avalon_dma_priv* priv)
{
 1008884:	defffd04 	addi	sp,sp,-12
 1008888:	df000215 	stw	fp,8(sp)
 100888c:	df000204 	addi	fp,sp,8
 1008890:	e13fff15 	stw	r4,-4(fp)
  alt_avalon_dma_txslot* tx_slot;

  if (priv->tx_start != priv->tx_end)
 1008894:	e0bfff17 	ldw	r2,-4(fp)
 1008898:	10c00117 	ldw	r3,4(r2)
 100889c:	e0bfff17 	ldw	r2,-4(fp)
 10088a0:	10800217 	ldw	r2,8(r2)
 10088a4:	18801726 	beq	r3,r2,1008904 <alt_avalon_dma_launch_txonly+0x80>
  {
    priv->active = 1;
 10088a8:	e0bfff17 	ldw	r2,-4(fp)
 10088ac:	00c00044 	movi	r3,1
 10088b0:	10c00815 	stw	r3,32(r2)
    tx_slot      = &priv->tx_buf[priv->tx_start];
 10088b4:	e0bfff17 	ldw	r2,-4(fp)
 10088b8:	10800117 	ldw	r2,4(r2)
 10088bc:	1004913a 	slli	r2,r2,4
 10088c0:	10800904 	addi	r2,r2,36
 10088c4:	e0ffff17 	ldw	r3,-4(fp)
 10088c8:	1885883a 	add	r2,r3,r2
 10088cc:	e0bffe15 	stw	r2,-8(fp)

    IOWR_ALTERA_AVALON_DMA_RADDRESS (priv->base, (alt_u32) tx_slot->from);
 10088d0:	e0bfff17 	ldw	r2,-4(fp)
 10088d4:	10800017 	ldw	r2,0(r2)
 10088d8:	10800104 	addi	r2,r2,4
 10088dc:	e0fffe17 	ldw	r3,-8(fp)
 10088e0:	18c00017 	ldw	r3,0(r3)
 10088e4:	10c00035 	stwio	r3,0(r2)
    IOWR_ALTERA_AVALON_DMA_LENGTH (priv->base, tx_slot->len);
 10088e8:	e0bfff17 	ldw	r2,-4(fp)
 10088ec:	10800017 	ldw	r2,0(r2)
 10088f0:	10800304 	addi	r2,r2,12
 10088f4:	e0fffe17 	ldw	r3,-8(fp)
 10088f8:	18c00117 	ldw	r3,4(r3)
 10088fc:	10c00035 	stwio	r3,0(r2)
 1008900:	00000206 	br	100890c <alt_avalon_dma_launch_txonly+0x88>
  }
  else
  {
    priv->active = 0;
 1008904:	e0bfff17 	ldw	r2,-4(fp)
 1008908:	10000815 	stw	zero,32(r2)
  }
}
 100890c:	e037883a 	mov	sp,fp
 1008910:	df000017 	ldw	fp,0(sp)
 1008914:	dec00104 	addi	sp,sp,4
 1008918:	f800283a 	ret

0100891c <alt_avalon_dma_launch_rxonly>:
 * i.e. the transmit channel is accessing a single memory location (which is
 * probably a device register).
 */

static void alt_avalon_dma_launch_rxonly (alt_avalon_dma_priv* priv)
{
 100891c:	defffd04 	addi	sp,sp,-12
 1008920:	df000215 	stw	fp,8(sp)
 1008924:	df000204 	addi	fp,sp,8
 1008928:	e13fff15 	stw	r4,-4(fp)
  alt_avalon_dma_rxslot* rx_slot;

  if (priv->rx_start != priv->rx_end)
 100892c:	e0bfff17 	ldw	r2,-4(fp)
 1008930:	10c00317 	ldw	r3,12(r2)
 1008934:	e0bfff17 	ldw	r2,-4(fp)
 1008938:	10800417 	ldw	r2,16(r2)
 100893c:	18801726 	beq	r3,r2,100899c <alt_avalon_dma_launch_rxonly+0x80>
  {
    priv->active = 1;
 1008940:	e0bfff17 	ldw	r2,-4(fp)
 1008944:	00c00044 	movi	r3,1
 1008948:	10c00815 	stw	r3,32(r2)
    rx_slot      = &priv->rx_buf[priv->rx_start];
 100894c:	e0bfff17 	ldw	r2,-4(fp)
 1008950:	10800317 	ldw	r2,12(r2)
 1008954:	1004913a 	slli	r2,r2,4
 1008958:	10801904 	addi	r2,r2,100
 100895c:	e0ffff17 	ldw	r3,-4(fp)
 1008960:	1885883a 	add	r2,r3,r2
 1008964:	e0bffe15 	stw	r2,-8(fp)

    IOWR_ALTERA_AVALON_DMA_WADDRESS (priv->base, (alt_u32) rx_slot->data);
 1008968:	e0bfff17 	ldw	r2,-4(fp)
 100896c:	10800017 	ldw	r2,0(r2)
 1008970:	10800204 	addi	r2,r2,8
 1008974:	e0fffe17 	ldw	r3,-8(fp)
 1008978:	18c00017 	ldw	r3,0(r3)
 100897c:	10c00035 	stwio	r3,0(r2)
    IOWR_ALTERA_AVALON_DMA_LENGTH (priv->base, rx_slot->len);
 1008980:	e0bfff17 	ldw	r2,-4(fp)
 1008984:	10800017 	ldw	r2,0(r2)
 1008988:	10800304 	addi	r2,r2,12
 100898c:	e0fffe17 	ldw	r3,-8(fp)
 1008990:	18c00117 	ldw	r3,4(r3)
 1008994:	10c00035 	stwio	r3,0(r2)
 1008998:	00000206 	br	10089a4 <alt_avalon_dma_launch_rxonly+0x88>
  }
  else
  {
    priv->active = 0;
 100899c:	e0bfff17 	ldw	r2,-4(fp)
 10089a0:	10000815 	stw	zero,32(r2)
  }
}
 10089a4:	e037883a 	mov	sp,fp
 10089a8:	df000017 	ldw	fp,0(sp)
 10089ac:	dec00104 	addi	sp,sp,4
 10089b0:	f800283a 	ret

010089b4 <alt_avalon_dma_ioctl>:
 * device instance. See alt_dma_dev.h for the meaning of the supported
 * ioctl requests.
 */

static int alt_avalon_dma_ioctl (alt_avalon_dma_priv* priv, int req, void* arg)
{
 10089b4:	defffa04 	addi	sp,sp,-24
 10089b8:	df000515 	stw	fp,20(sp)
 10089bc:	df000504 	addi	fp,sp,20
 10089c0:	e13ffd15 	stw	r4,-12(fp)
 10089c4:	e17ffe15 	stw	r5,-8(fp)
 10089c8:	e1bfff15 	stw	r6,-4(fp)
  int     status = 0;
 10089cc:	e03ffb15 	stw	zero,-20(fp)
   * since it cannot catch concurrent calls to alt_alavalon_dma_prepare()
   * or alt_avalon_dma_send(), but it should at least catch the most
   * common class of problems.
   */

  if ((priv->tx_start != priv->tx_end) ||
 10089d0:	e0bffd17 	ldw	r2,-12(fp)
 10089d4:	10c00117 	ldw	r3,4(r2)
 10089d8:	e0bffd17 	ldw	r2,-12(fp)
 10089dc:	10800217 	ldw	r2,8(r2)
 10089e0:	18800a1e 	bne	r3,r2,1008a0c <alt_avalon_dma_ioctl+0x58>
      (priv->rx_start != priv->rx_end) ||
 10089e4:	e0bffd17 	ldw	r2,-12(fp)
 10089e8:	10c00317 	ldw	r3,12(r2)
 10089ec:	e0bffd17 	ldw	r2,-12(fp)
 10089f0:	10800417 	ldw	r2,16(r2)
   * since it cannot catch concurrent calls to alt_alavalon_dma_prepare()
   * or alt_avalon_dma_send(), but it should at least catch the most
   * common class of problems.
   */

  if ((priv->tx_start != priv->tx_end) ||
 10089f4:	1880051e 	bne	r3,r2,1008a0c <alt_avalon_dma_ioctl+0x58>
      (priv->rx_start != priv->rx_end) ||
      IORD_ALTERA_AVALON_DMA_LENGTH (priv->base))
 10089f8:	e0bffd17 	ldw	r2,-12(fp)
 10089fc:	10800017 	ldw	r2,0(r2)
 1008a00:	10800304 	addi	r2,r2,12
 1008a04:	10800037 	ldwio	r2,0(r2)
   * or alt_avalon_dma_send(), but it should at least catch the most
   * common class of problems.
   */

  if ((priv->tx_start != priv->tx_end) ||
      (priv->rx_start != priv->rx_end) ||
 1008a08:	10000226 	beq	r2,zero,1008a14 <alt_avalon_dma_ioctl+0x60>
      IORD_ALTERA_AVALON_DMA_LENGTH (priv->base))
  {
    return -EIO;
 1008a0c:	00bffec4 	movi	r2,-5
 1008a10:	0000b506 	br	1008ce8 <alt_avalon_dma_ioctl+0x334>
  }

  /* Now process the ioctl. */

  switch (req)
 1008a14:	e0bffe17 	ldw	r2,-8(fp)
 1008a18:	108002a8 	cmpgeui	r2,r2,10
 1008a1c:	1000781e 	bne	r2,zero,1008c00 <alt_avalon_dma_ioctl+0x24c>
 1008a20:	e0bffe17 	ldw	r2,-8(fp)
 1008a24:	100690ba 	slli	r3,r2,2
 1008a28:	00804074 	movhi	r2,257
 1008a2c:	10a28f04 	addi	r2,r2,-30148
 1008a30:	1885883a 	add	r2,r3,r2
 1008a34:	10800017 	ldw	r2,0(r2)
 1008a38:	1000683a 	jmp	r2
 1008a3c:	01008c00 	call	1008c0 <__reset-0xeff740>
 1008a40:	01008a64 	muli	r4,zero,553
 1008a44:	01008abc 	xorhi	r4,zero,554
 1008a48:	01008ae8 	cmpgeui	r4,zero,555
 1008a4c:	01008b40 	call	1008b4 <__reset-0xeff74c>
 1008a50:	01008b6c 	andhi	r4,zero,557
 1008a54:	01008b88 	cmpgei	r4,zero,558
 1008a58:	01008ba8 	cmpgeui	r4,zero,558
 1008a5c:	01008bc8 	cmpgei	r4,zero,559
 1008a60:	01008be8 	cmpgeui	r4,zero,559
  {
  case ALT_DMA_TX_STREAM_ON:
    if (!(priv->flags & ALT_AVALON_DMA_RX_STREAM))
 1008a64:	e0bffd17 	ldw	r2,-12(fp)
 1008a68:	10800517 	ldw	r2,20(r2)
 1008a6c:	1080100c 	andi	r2,r2,64
 1008a70:	10000f1e 	bne	r2,zero,1008ab0 <alt_avalon_dma_ioctl+0xfc>
    {
      IOWR_ALTERA_AVALON_DMA_RADDRESS (priv->base, (alt_u32) arg);
 1008a74:	e0bffd17 	ldw	r2,-12(fp)
 1008a78:	10800017 	ldw	r2,0(r2)
 1008a7c:	10800104 	addi	r2,r2,4
 1008a80:	e0ffff17 	ldw	r3,-4(fp)
 1008a84:	10c00035 	stwio	r3,0(r2)
      priv->flags |= ALT_AVALON_DMA_TX_STREAM;
 1008a88:	e0bffd17 	ldw	r2,-12(fp)
 1008a8c:	10800517 	ldw	r2,20(r2)
 1008a90:	10c00814 	ori	r3,r2,32
 1008a94:	e0bffd17 	ldw	r2,-12(fp)
 1008a98:	10c00515 	stw	r3,20(r2)
      priv->launch = alt_avalon_dma_launch_rxonly;
 1008a9c:	e0fffd17 	ldw	r3,-12(fp)
 1008aa0:	00804074 	movhi	r2,257
 1008aa4:	10a24704 	addi	r2,r2,-30436
 1008aa8:	18800715 	stw	r2,28(r3)
    }
    else
    {
      status = -EIO;
    }
    break;
 1008aac:	00005606 	br	1008c08 <alt_avalon_dma_ioctl+0x254>
      priv->flags |= ALT_AVALON_DMA_TX_STREAM;
      priv->launch = alt_avalon_dma_launch_rxonly;
    }
    else
    {
      status = -EIO;
 1008ab0:	00bffec4 	movi	r2,-5
 1008ab4:	e0bffb15 	stw	r2,-20(fp)
    }
    break;
 1008ab8:	00005306 	br	1008c08 <alt_avalon_dma_ioctl+0x254>
  case ALT_DMA_TX_STREAM_OFF:
    priv->flags &= ~ALT_AVALON_DMA_TX_STREAM;
 1008abc:	e0bffd17 	ldw	r2,-12(fp)
 1008ac0:	10c00517 	ldw	r3,20(r2)
 1008ac4:	00bff7c4 	movi	r2,-33
 1008ac8:	1886703a 	and	r3,r3,r2
 1008acc:	e0bffd17 	ldw	r2,-12(fp)
 1008ad0:	10c00515 	stw	r3,20(r2)
    priv->launch = alt_avalon_dma_launch_bidir;
 1008ad4:	e0fffd17 	ldw	r3,-12(fp)
 1008ad8:	00804074 	movhi	r2,257
 1008adc:	10a1e404 	addi	r2,r2,-30832
 1008ae0:	18800715 	stw	r2,28(r3)
    break;
 1008ae4:	00004806 	br	1008c08 <alt_avalon_dma_ioctl+0x254>
  case ALT_DMA_RX_STREAM_ON:
    if (!(priv->flags & ALT_AVALON_DMA_TX_STREAM))
 1008ae8:	e0bffd17 	ldw	r2,-12(fp)
 1008aec:	10800517 	ldw	r2,20(r2)
 1008af0:	1080080c 	andi	r2,r2,32
 1008af4:	10000f1e 	bne	r2,zero,1008b34 <alt_avalon_dma_ioctl+0x180>
    {
      IOWR_ALTERA_AVALON_DMA_WADDRESS (priv->base, (alt_u32) arg);
 1008af8:	e0bffd17 	ldw	r2,-12(fp)
 1008afc:	10800017 	ldw	r2,0(r2)
 1008b00:	10800204 	addi	r2,r2,8
 1008b04:	e0ffff17 	ldw	r3,-4(fp)
 1008b08:	10c00035 	stwio	r3,0(r2)
      priv->flags |= ALT_AVALON_DMA_RX_STREAM;
 1008b0c:	e0bffd17 	ldw	r2,-12(fp)
 1008b10:	10800517 	ldw	r2,20(r2)
 1008b14:	10c01014 	ori	r3,r2,64
 1008b18:	e0bffd17 	ldw	r2,-12(fp)
 1008b1c:	10c00515 	stw	r3,20(r2)
      priv->launch = alt_avalon_dma_launch_txonly;
 1008b20:	e0fffd17 	ldw	r3,-12(fp)
 1008b24:	00804074 	movhi	r2,257
 1008b28:	10a22104 	addi	r2,r2,-30588
 1008b2c:	18800715 	stw	r2,28(r3)
    }
    else
    {
      status = -EIO;
    }
    break;
 1008b30:	00003506 	br	1008c08 <alt_avalon_dma_ioctl+0x254>
      priv->flags |= ALT_AVALON_DMA_RX_STREAM;
      priv->launch = alt_avalon_dma_launch_txonly;
    }
    else
    {
      status = -EIO;
 1008b34:	00bffec4 	movi	r2,-5
 1008b38:	e0bffb15 	stw	r2,-20(fp)
    }
    break;
 1008b3c:	00003206 	br	1008c08 <alt_avalon_dma_ioctl+0x254>
  case ALT_DMA_RX_STREAM_OFF:
    priv->flags &= ~ALT_AVALON_DMA_RX_STREAM;
 1008b40:	e0bffd17 	ldw	r2,-12(fp)
 1008b44:	10c00517 	ldw	r3,20(r2)
 1008b48:	00bfefc4 	movi	r2,-65
 1008b4c:	1886703a 	and	r3,r3,r2
 1008b50:	e0bffd17 	ldw	r2,-12(fp)
 1008b54:	10c00515 	stw	r3,20(r2)
    priv->launch = alt_avalon_dma_launch_bidir;
 1008b58:	e0fffd17 	ldw	r3,-12(fp)
 1008b5c:	00804074 	movhi	r2,257
 1008b60:	10a1e404 	addi	r2,r2,-30832
 1008b64:	18800715 	stw	r2,28(r3)
    break;
 1008b68:	00002706 	br	1008c08 <alt_avalon_dma_ioctl+0x254>
  case ALT_DMA_SET_MODE_8:
    priv->flags = (priv->flags & ~ALT_AVALON_DMA_MODE_MSK) |
 1008b6c:	e0bffd17 	ldw	r2,-12(fp)
 1008b70:	10c00517 	ldw	r3,20(r2)
 1008b74:	00bffc04 	movi	r2,-16
 1008b78:	1886703a 	and	r3,r3,r2
 1008b7c:	e0bffd17 	ldw	r2,-12(fp)
 1008b80:	10c00515 	stw	r3,20(r2)
      ALT_AVALON_DMA_MODE_8;
    break;
 1008b84:	00002006 	br	1008c08 <alt_avalon_dma_ioctl+0x254>
  case ALT_DMA_SET_MODE_16:
    priv->flags = (priv->flags & ~ALT_AVALON_DMA_MODE_MSK) |
 1008b88:	e0bffd17 	ldw	r2,-12(fp)
 1008b8c:	10c00517 	ldw	r3,20(r2)
 1008b90:	00bffc04 	movi	r2,-16
 1008b94:	1884703a 	and	r2,r3,r2
 1008b98:	10c00054 	ori	r3,r2,1
 1008b9c:	e0bffd17 	ldw	r2,-12(fp)
 1008ba0:	10c00515 	stw	r3,20(r2)
      ALT_AVALON_DMA_MODE_16;
    break;
 1008ba4:	00001806 	br	1008c08 <alt_avalon_dma_ioctl+0x254>
  case ALT_DMA_SET_MODE_32:
    priv->flags = (priv->flags & ~ALT_AVALON_DMA_MODE_MSK) |
 1008ba8:	e0bffd17 	ldw	r2,-12(fp)
 1008bac:	10c00517 	ldw	r3,20(r2)
 1008bb0:	00bffc04 	movi	r2,-16
 1008bb4:	1884703a 	and	r2,r3,r2
 1008bb8:	10c000d4 	ori	r3,r2,3
 1008bbc:	e0bffd17 	ldw	r2,-12(fp)
 1008bc0:	10c00515 	stw	r3,20(r2)
      ALT_AVALON_DMA_MODE_32;
    break;
 1008bc4:	00001006 	br	1008c08 <alt_avalon_dma_ioctl+0x254>
  case ALT_DMA_SET_MODE_64:
    priv->flags = (priv->flags & ~ALT_AVALON_DMA_MODE_MSK) |
 1008bc8:	e0bffd17 	ldw	r2,-12(fp)
 1008bcc:	10c00517 	ldw	r3,20(r2)
 1008bd0:	00bffc04 	movi	r2,-16
 1008bd4:	1884703a 	and	r2,r3,r2
 1008bd8:	10c001d4 	ori	r3,r2,7
 1008bdc:	e0bffd17 	ldw	r2,-12(fp)
 1008be0:	10c00515 	stw	r3,20(r2)
      ALT_AVALON_DMA_MODE_64;
    break;
 1008be4:	00000806 	br	1008c08 <alt_avalon_dma_ioctl+0x254>
  case ALT_DMA_SET_MODE_128:
    priv->flags = (priv->flags & ~ALT_AVALON_DMA_MODE_MSK) |
 1008be8:	e0bffd17 	ldw	r2,-12(fp)
 1008bec:	10800517 	ldw	r2,20(r2)
 1008bf0:	10c003d4 	ori	r3,r2,15
 1008bf4:	e0bffd17 	ldw	r2,-12(fp)
 1008bf8:	10c00515 	stw	r3,20(r2)
      ALT_AVALON_DMA_MODE_128;
    break;
 1008bfc:	00000206 	br	1008c08 <alt_avalon_dma_ioctl+0x254>
  default:
    status = -ENOTTY;
 1008c00:	00bff9c4 	movi	r2,-25
 1008c04:	e0bffb15 	stw	r2,-20(fp)
  }

  if (!status)
 1008c08:	e0bffb17 	ldw	r2,-20(fp)
 1008c0c:	1000351e 	bne	r2,zero,1008ce4 <alt_avalon_dma_ioctl+0x330>
  {
     switch (priv->flags & ALT_AVALON_DMA_MODE_MSK)
 1008c10:	e0bffd17 	ldw	r2,-12(fp)
 1008c14:	10800517 	ldw	r2,20(r2)
 1008c18:	108003cc 	andi	r2,r2,15
 1008c1c:	10c00060 	cmpeqi	r3,r2,1
 1008c20:	1800091e 	bne	r3,zero,1008c48 <alt_avalon_dma_ioctl+0x294>
 1008c24:	0080052e 	bgeu	zero,r2,1008c3c <alt_avalon_dma_ioctl+0x288>
 1008c28:	10c000e0 	cmpeqi	r3,r2,3
 1008c2c:	1800091e 	bne	r3,zero,1008c54 <alt_avalon_dma_ioctl+0x2a0>
 1008c30:	108001e0 	cmpeqi	r2,r2,7
 1008c34:	10000a1e 	bne	r2,zero,1008c60 <alt_avalon_dma_ioctl+0x2ac>
 1008c38:	00000c06 	br	1008c6c <alt_avalon_dma_ioctl+0x2b8>
     {
     case ALT_AVALON_DMA_MODE_8:
       mode = ALTERA_AVALON_DMA_CONTROL_BYTE_MSK;
 1008c3c:	00800044 	movi	r2,1
 1008c40:	e0bffc15 	stw	r2,-16(fp)
       break;
 1008c44:	00000b06 	br	1008c74 <alt_avalon_dma_ioctl+0x2c0>
     case ALT_AVALON_DMA_MODE_16:
       mode = ALTERA_AVALON_DMA_CONTROL_HW_MSK;
 1008c48:	00800084 	movi	r2,2
 1008c4c:	e0bffc15 	stw	r2,-16(fp)
       break;
 1008c50:	00000806 	br	1008c74 <alt_avalon_dma_ioctl+0x2c0>
     case ALT_AVALON_DMA_MODE_32:
       mode = ALTERA_AVALON_DMA_CONTROL_WORD_MSK;
 1008c54:	00800104 	movi	r2,4
 1008c58:	e0bffc15 	stw	r2,-16(fp)
       break;
 1008c5c:	00000506 	br	1008c74 <alt_avalon_dma_ioctl+0x2c0>
     case ALT_AVALON_DMA_MODE_64:
       mode = ALTERA_AVALON_DMA_CONTROL_DWORD_MSK;
 1008c60:	00810004 	movi	r2,1024
 1008c64:	e0bffc15 	stw	r2,-16(fp)
       break;
 1008c68:	00000206 	br	1008c74 <alt_avalon_dma_ioctl+0x2c0>
     default:
       mode = ALTERA_AVALON_DMA_CONTROL_QWORD_MSK;
 1008c6c:	00820004 	movi	r2,2048
 1008c70:	e0bffc15 	stw	r2,-16(fp)
     }

    if (priv->flags & ALT_AVALON_DMA_TX_STREAM)
 1008c74:	e0bffd17 	ldw	r2,-12(fp)
 1008c78:	10800517 	ldw	r2,20(r2)
 1008c7c:	1080080c 	andi	r2,r2,32
 1008c80:	10000726 	beq	r2,zero,1008ca0 <alt_avalon_dma_ioctl+0x2ec>
    {
      IOWR_ALTERA_AVALON_DMA_CONTROL (priv->base,
 1008c84:	e0bffd17 	ldw	r2,-12(fp)
 1008c88:	10800017 	ldw	r2,0(r2)
 1008c8c:	10800604 	addi	r2,r2,24
 1008c90:	e0fffc17 	ldw	r3,-16(fp)
 1008c94:	18c07e14 	ori	r3,r3,504
 1008c98:	10c00035 	stwio	r3,0(r2)
 1008c9c:	00001106 	br	1008ce4 <alt_avalon_dma_ioctl+0x330>
        ALTERA_AVALON_DMA_CONTROL_REEN_MSK |
        ALTERA_AVALON_DMA_CONTROL_WEEN_MSK |
        ALTERA_AVALON_DMA_CONTROL_LEEN_MSK |
        ALTERA_AVALON_DMA_CONTROL_RCON_MSK);
    }
    else if (priv->flags & ALT_AVALON_DMA_RX_STREAM)
 1008ca0:	e0bffd17 	ldw	r2,-12(fp)
 1008ca4:	10800517 	ldw	r2,20(r2)
 1008ca8:	1080100c 	andi	r2,r2,64
 1008cac:	10000726 	beq	r2,zero,1008ccc <alt_avalon_dma_ioctl+0x318>
    {
      IOWR_ALTERA_AVALON_DMA_CONTROL (priv->base,
 1008cb0:	e0bffd17 	ldw	r2,-12(fp)
 1008cb4:	10800017 	ldw	r2,0(r2)
 1008cb8:	10800604 	addi	r2,r2,24
 1008cbc:	e0fffc17 	ldw	r3,-16(fp)
 1008cc0:	18c0be14 	ori	r3,r3,760
 1008cc4:	10c00035 	stwio	r3,0(r2)
 1008cc8:	00000606 	br	1008ce4 <alt_avalon_dma_ioctl+0x330>
        ALTERA_AVALON_DMA_CONTROL_LEEN_MSK |
        ALTERA_AVALON_DMA_CONTROL_WCON_MSK);
    }
    else
    {
      IOWR_ALTERA_AVALON_DMA_CONTROL (priv->base,
 1008ccc:	e0bffd17 	ldw	r2,-12(fp)
 1008cd0:	10800017 	ldw	r2,0(r2)
 1008cd4:	10800604 	addi	r2,r2,24
 1008cd8:	e0fffc17 	ldw	r3,-16(fp)
 1008cdc:	18c03e14 	ori	r3,r3,248
 1008ce0:	10c00035 	stwio	r3,0(r2)
        ALTERA_AVALON_DMA_CONTROL_WEEN_MSK      |
        ALTERA_AVALON_DMA_CONTROL_LEEN_MSK);
    }
  }

  return status;
 1008ce4:	e0bffb17 	ldw	r2,-20(fp)
}
 1008ce8:	e037883a 	mov	sp,fp
 1008cec:	df000017 	ldw	fp,0(sp)
 1008cf0:	dec00104 	addi	sp,sp,4
 1008cf4:	f800283a 	ret

01008cf8 <alt_avalon_dma_tx_ioctl>:
 */

int alt_avalon_dma_tx_ioctl (alt_dma_txchan dma,
           int req,
           void* arg)
{
 1008cf8:	defffb04 	addi	sp,sp,-20
 1008cfc:	dfc00415 	stw	ra,16(sp)
 1008d00:	df000315 	stw	fp,12(sp)
 1008d04:	df000304 	addi	fp,sp,12
 1008d08:	e13ffd15 	stw	r4,-12(fp)
 1008d0c:	e17ffe15 	stw	r5,-8(fp)
 1008d10:	e1bfff15 	stw	r6,-4(fp)
  return alt_avalon_dma_ioctl (((alt_avalon_dma_txchan*) dma)->priv,
 1008d14:	e0bffd17 	ldw	r2,-12(fp)
 1008d18:	10800617 	ldw	r2,24(r2)
 1008d1c:	1009883a 	mov	r4,r2
 1008d20:	e17ffe17 	ldw	r5,-8(fp)
 1008d24:	e1bfff17 	ldw	r6,-4(fp)
 1008d28:	10089b40 	call	10089b4 <alt_avalon_dma_ioctl>
             req,
             arg);
}
 1008d2c:	e037883a 	mov	sp,fp
 1008d30:	dfc00117 	ldw	ra,4(sp)
 1008d34:	df000017 	ldw	fp,0(sp)
 1008d38:	dec00204 	addi	sp,sp,8
 1008d3c:	f800283a 	ret

01008d40 <alt_avalon_dma_rx_ioctl>:
 */

int alt_avalon_dma_rx_ioctl (alt_dma_rxchan dma,
           int req,
           void* arg)
{
 1008d40:	defffb04 	addi	sp,sp,-20
 1008d44:	dfc00415 	stw	ra,16(sp)
 1008d48:	df000315 	stw	fp,12(sp)
 1008d4c:	df000304 	addi	fp,sp,12
 1008d50:	e13ffd15 	stw	r4,-12(fp)
 1008d54:	e17ffe15 	stw	r5,-8(fp)
 1008d58:	e1bfff15 	stw	r6,-4(fp)
  return alt_avalon_dma_ioctl (((alt_avalon_dma_rxchan*) dma)->priv,
 1008d5c:	e0bffd17 	ldw	r2,-12(fp)
 1008d60:	10800617 	ldw	r2,24(r2)
 1008d64:	1009883a 	mov	r4,r2
 1008d68:	e17ffe17 	ldw	r5,-8(fp)
 1008d6c:	e1bfff17 	ldw	r6,-4(fp)
 1008d70:	10089b40 	call	10089b4 <alt_avalon_dma_ioctl>
             req,
             arg);
}
 1008d74:	e037883a 	mov	sp,fp
 1008d78:	dfc00117 	ldw	ra,4(sp)
 1008d7c:	df000017 	ldw	fp,0(sp)
 1008d80:	dec00204 	addi	sp,sp,8
 1008d84:	f800283a 	ret

01008d88 <alt_avalon_dma_prepare>:
int alt_avalon_dma_prepare (alt_dma_rxchan   dma,
                            void*            data,
                            alt_u32          len,
                            alt_rxchan_done* done,
                            void*            handle)
{
 1008d88:	defff404 	addi	sp,sp,-48
 1008d8c:	dfc00b15 	stw	ra,44(sp)
 1008d90:	df000a15 	stw	fp,40(sp)
 1008d94:	df000a04 	addi	fp,sp,40
 1008d98:	e13ffc15 	stw	r4,-16(fp)
 1008d9c:	e17ffd15 	stw	r5,-12(fp)
 1008da0:	e1bffe15 	stw	r6,-8(fp)
 1008da4:	e1ffff15 	stw	r7,-4(fp)
  alt_u32                end;
  alt_u32                next;
  alt_u32                align_mask;
  alt_avalon_dma_priv*   priv;

  priv = ((alt_avalon_dma_rxchan*) dma)->priv;
 1008da8:	e0bffc17 	ldw	r2,-16(fp)
 1008dac:	10800617 	ldw	r2,24(r2)
 1008db0:	e0bff615 	stw	r2,-40(fp)
  /*
   * Ensure that the data is correctly aligned, and that it's not too
   * big for the device.
   */

  align_mask = priv->flags & ALT_AVALON_DMA_MODE_MSK;
 1008db4:	e0bff617 	ldw	r2,-40(fp)
 1008db8:	10800517 	ldw	r2,20(r2)
 1008dbc:	108003cc 	andi	r2,r2,15
 1008dc0:	e0bff715 	stw	r2,-36(fp)

  if ((((alt_u32) data) & align_mask) || (len & align_mask) ||
 1008dc4:	e0fffd17 	ldw	r3,-12(fp)
 1008dc8:	e0bff717 	ldw	r2,-36(fp)
 1008dcc:	1884703a 	and	r2,r3,r2
 1008dd0:	1000081e 	bne	r2,zero,1008df4 <alt_avalon_dma_prepare+0x6c>
 1008dd4:	e0fffe17 	ldw	r3,-8(fp)
 1008dd8:	e0bff717 	ldw	r2,-36(fp)
 1008ddc:	1884703a 	and	r2,r3,r2
 1008de0:	1000041e 	bne	r2,zero,1008df4 <alt_avalon_dma_prepare+0x6c>
     (len > priv->max_length))
 1008de4:	e0bff617 	ldw	r2,-40(fp)
 1008de8:	10c00617 	ldw	r3,24(r2)
   * big for the device.
   */

  align_mask = priv->flags & ALT_AVALON_DMA_MODE_MSK;

  if ((((alt_u32) data) & align_mask) || (len & align_mask) ||
 1008dec:	e0bffe17 	ldw	r2,-8(fp)
 1008df0:	1880022e 	bgeu	r3,r2,1008dfc <alt_avalon_dma_prepare+0x74>
     (len > priv->max_length))
  {
    return -EINVAL;
 1008df4:	00bffa84 	movi	r2,-22
 1008df8:	00002c06 	br	1008eac <alt_avalon_dma_prepare+0x124>
  }

  start = priv->rx_start;
 1008dfc:	e0bff617 	ldw	r2,-40(fp)
 1008e00:	10800317 	ldw	r2,12(r2)
 1008e04:	e0bff815 	stw	r2,-32(fp)
  end   = priv->rx_end;
 1008e08:	e0bff617 	ldw	r2,-40(fp)
 1008e0c:	10800417 	ldw	r2,16(r2)
 1008e10:	e0bff915 	stw	r2,-28(fp)
  slot  = &priv->rx_buf[end];
 1008e14:	e0bff917 	ldw	r2,-28(fp)
 1008e18:	1004913a 	slli	r2,r2,4
 1008e1c:	10801904 	addi	r2,r2,100
 1008e20:	e0fff617 	ldw	r3,-40(fp)
 1008e24:	1885883a 	add	r2,r3,r2
 1008e28:	e0bffa15 	stw	r2,-24(fp)

  next  = (end + 1) & ALT_AVALON_DMA_NSLOTS_MSK;
 1008e2c:	e0bff917 	ldw	r2,-28(fp)
 1008e30:	10800044 	addi	r2,r2,1
 1008e34:	108000cc 	andi	r2,r2,3
 1008e38:	e0bffb15 	stw	r2,-20(fp)

  if (next == start)
 1008e3c:	e0fffb17 	ldw	r3,-20(fp)
 1008e40:	e0bff817 	ldw	r2,-32(fp)
 1008e44:	1880021e 	bne	r3,r2,1008e50 <alt_avalon_dma_prepare+0xc8>
  {
    return -ENOSPC;
 1008e48:	00bff904 	movi	r2,-28
 1008e4c:	00001706 	br	1008eac <alt_avalon_dma_prepare+0x124>
  }

  slot->data   = data;
 1008e50:	e0bffa17 	ldw	r2,-24(fp)
 1008e54:	e0fffd17 	ldw	r3,-12(fp)
 1008e58:	10c00015 	stw	r3,0(r2)
  slot->len    = len;
 1008e5c:	e0bffa17 	ldw	r2,-24(fp)
 1008e60:	e0fffe17 	ldw	r3,-8(fp)
 1008e64:	10c00115 	stw	r3,4(r2)
  slot->done   = done;
 1008e68:	e0bffa17 	ldw	r2,-24(fp)
 1008e6c:	e0ffff17 	ldw	r3,-4(fp)
 1008e70:	10c00215 	stw	r3,8(r2)
  slot->handle = handle;
 1008e74:	e0bffa17 	ldw	r2,-24(fp)
 1008e78:	e0c00217 	ldw	r3,8(fp)
 1008e7c:	10c00315 	stw	r3,12(r2)

  priv->rx_end = next;
 1008e80:	e0bff617 	ldw	r2,-40(fp)
 1008e84:	e0fffb17 	ldw	r3,-20(fp)
 1008e88:	10c00415 	stw	r3,16(r2)

  if (!priv->active)
 1008e8c:	e0bff617 	ldw	r2,-40(fp)
 1008e90:	10800817 	ldw	r2,32(r2)
 1008e94:	1000041e 	bne	r2,zero,1008ea8 <alt_avalon_dma_prepare+0x120>
  {
    priv->launch (priv);
 1008e98:	e0bff617 	ldw	r2,-40(fp)
 1008e9c:	10800717 	ldw	r2,28(r2)
 1008ea0:	e13ff617 	ldw	r4,-40(fp)
 1008ea4:	103ee83a 	callr	r2
  }

  return 0;
 1008ea8:	0005883a 	mov	r2,zero
}
 1008eac:	e037883a 	mov	sp,fp
 1008eb0:	dfc00117 	ldw	ra,4(sp)
 1008eb4:	df000017 	ldw	fp,0(sp)
 1008eb8:	dec00204 	addi	sp,sp,8
 1008ebc:	f800283a 	ret

01008ec0 <alt_avalon_dma_space>:
 *
 * A negative value indicates that the value could not be determined.
 */

int alt_avalon_dma_space (alt_dma_txchan dma)
{
 1008ec0:	defffb04 	addi	sp,sp,-20
 1008ec4:	df000415 	stw	fp,16(sp)
 1008ec8:	df000404 	addi	fp,sp,16
 1008ecc:	e13fff15 	stw	r4,-4(fp)
  alt_avalon_dma_priv* priv;

  alt_u32 start;
  alt_u32 end;

  priv = ((alt_avalon_dma_txchan*) dma)->priv;
 1008ed0:	e0bfff17 	ldw	r2,-4(fp)
 1008ed4:	10800617 	ldw	r2,24(r2)
 1008ed8:	e0bffc15 	stw	r2,-16(fp)

  start = priv->tx_start;
 1008edc:	e0bffc17 	ldw	r2,-16(fp)
 1008ee0:	10800117 	ldw	r2,4(r2)
 1008ee4:	e0bffd15 	stw	r2,-12(fp)
  end   = priv->tx_end;
 1008ee8:	e0bffc17 	ldw	r2,-16(fp)
 1008eec:	10800217 	ldw	r2,8(r2)
 1008ef0:	e0bffe15 	stw	r2,-8(fp)

  return (start > end) ? start - end - 1 :
 1008ef4:	e0bffd17 	ldw	r2,-12(fp)
 1008ef8:	e0fffe17 	ldw	r3,-8(fp)
 1008efc:	1880052e 	bgeu	r3,r2,1008f14 <alt_avalon_dma_space+0x54>
 1008f00:	e0fffd17 	ldw	r3,-12(fp)
 1008f04:	e0bffe17 	ldw	r2,-8(fp)
 1008f08:	1885c83a 	sub	r2,r3,r2
 1008f0c:	10bfffc4 	addi	r2,r2,-1
 1008f10:	00000406 	br	1008f24 <alt_avalon_dma_space+0x64>
    ALT_AVALON_DMA_NSLOTS + start - end - 1;
 1008f14:	e0fffd17 	ldw	r3,-12(fp)
 1008f18:	e0bffe17 	ldw	r2,-8(fp)
 1008f1c:	1885c83a 	sub	r2,r3,r2
 1008f20:	108000c4 	addi	r2,r2,3
}
 1008f24:	e037883a 	mov	sp,fp
 1008f28:	df000017 	ldw	fp,0(sp)
 1008f2c:	dec00104 	addi	sp,sp,4
 1008f30:	f800283a 	ret

01008f34 <alt_avalon_dma_send>:
int alt_avalon_dma_send (alt_dma_txchan   dma,
                         const void*      from,
                         alt_u32          len,
                         alt_txchan_done* done,
                         void*            handle)
{
 1008f34:	defff404 	addi	sp,sp,-48
 1008f38:	dfc00b15 	stw	ra,44(sp)
 1008f3c:	df000a15 	stw	fp,40(sp)
 1008f40:	df000a04 	addi	fp,sp,40
 1008f44:	e13ffc15 	stw	r4,-16(fp)
 1008f48:	e17ffd15 	stw	r5,-12(fp)
 1008f4c:	e1bffe15 	stw	r6,-8(fp)
 1008f50:	e1ffff15 	stw	r7,-4(fp)
  alt_u32                end;
  alt_u32                align_mask;
  alt_u32                next;
  alt_avalon_dma_priv*   priv;

  priv = ((alt_avalon_dma_txchan*) dma)->priv;
 1008f54:	e0bffc17 	ldw	r2,-16(fp)
 1008f58:	10800617 	ldw	r2,24(r2)
 1008f5c:	e0bff615 	stw	r2,-40(fp)
  /*
   * Ensure that the data is correctly aligned, and not too large
   * for the device
   */

  align_mask = priv->flags & ALT_AVALON_DMA_MODE_MSK;
 1008f60:	e0bff617 	ldw	r2,-40(fp)
 1008f64:	10800517 	ldw	r2,20(r2)
 1008f68:	108003cc 	andi	r2,r2,15
 1008f6c:	e0bff715 	stw	r2,-36(fp)

  if ((((alt_u32) from) & align_mask) ||
 1008f70:	e0fffd17 	ldw	r3,-12(fp)
 1008f74:	e0bff717 	ldw	r2,-36(fp)
 1008f78:	1884703a 	and	r2,r3,r2
 1008f7c:	1000081e 	bne	r2,zero,1008fa0 <alt_avalon_dma_send+0x6c>
        (len & align_mask)            ||
 1008f80:	e0fffe17 	ldw	r3,-8(fp)
 1008f84:	e0bff717 	ldw	r2,-36(fp)
 1008f88:	1884703a 	and	r2,r3,r2
   * for the device
   */

  align_mask = priv->flags & ALT_AVALON_DMA_MODE_MSK;

  if ((((alt_u32) from) & align_mask) ||
 1008f8c:	1000041e 	bne	r2,zero,1008fa0 <alt_avalon_dma_send+0x6c>
        (len & align_mask)            ||
        (len > priv->max_length))
 1008f90:	e0bff617 	ldw	r2,-40(fp)
 1008f94:	10c00617 	ldw	r3,24(r2)
   */

  align_mask = priv->flags & ALT_AVALON_DMA_MODE_MSK;

  if ((((alt_u32) from) & align_mask) ||
        (len & align_mask)            ||
 1008f98:	e0bffe17 	ldw	r2,-8(fp)
 1008f9c:	1880022e 	bgeu	r3,r2,1008fa8 <alt_avalon_dma_send+0x74>
        (len > priv->max_length))
  {
    return -EINVAL;
 1008fa0:	00bffa84 	movi	r2,-22
 1008fa4:	00002c06 	br	1009058 <alt_avalon_dma_send+0x124>
  }

  start = priv->tx_start;
 1008fa8:	e0bff617 	ldw	r2,-40(fp)
 1008fac:	10800117 	ldw	r2,4(r2)
 1008fb0:	e0bff815 	stw	r2,-32(fp)
  end   = priv->tx_end;
 1008fb4:	e0bff617 	ldw	r2,-40(fp)
 1008fb8:	10800217 	ldw	r2,8(r2)
 1008fbc:	e0bff915 	stw	r2,-28(fp)
  slot  = &priv->tx_buf[end];
 1008fc0:	e0bff917 	ldw	r2,-28(fp)
 1008fc4:	1004913a 	slli	r2,r2,4
 1008fc8:	10800904 	addi	r2,r2,36
 1008fcc:	e0fff617 	ldw	r3,-40(fp)
 1008fd0:	1885883a 	add	r2,r3,r2
 1008fd4:	e0bffa15 	stw	r2,-24(fp)
  next  = (end + 1) & ALT_AVALON_DMA_NSLOTS_MSK;
 1008fd8:	e0bff917 	ldw	r2,-28(fp)
 1008fdc:	10800044 	addi	r2,r2,1
 1008fe0:	108000cc 	andi	r2,r2,3
 1008fe4:	e0bffb15 	stw	r2,-20(fp)

  if (next == start)
 1008fe8:	e0fffb17 	ldw	r3,-20(fp)
 1008fec:	e0bff817 	ldw	r2,-32(fp)
 1008ff0:	1880021e 	bne	r3,r2,1008ffc <alt_avalon_dma_send+0xc8>
  {
    return -ENOSPC;
 1008ff4:	00bff904 	movi	r2,-28
 1008ff8:	00001706 	br	1009058 <alt_avalon_dma_send+0x124>
  }

  /* Fill in the descriptor */

  slot->from   = from;
 1008ffc:	e0bffa17 	ldw	r2,-24(fp)
 1009000:	e0fffd17 	ldw	r3,-12(fp)
 1009004:	10c00015 	stw	r3,0(r2)
  slot->len    = len;
 1009008:	e0bffa17 	ldw	r2,-24(fp)
 100900c:	e0fffe17 	ldw	r3,-8(fp)
 1009010:	10c00115 	stw	r3,4(r2)
  slot->done   = done;
 1009014:	e0bffa17 	ldw	r2,-24(fp)
 1009018:	e0ffff17 	ldw	r3,-4(fp)
 100901c:	10c00215 	stw	r3,8(r2)
  slot->handle = handle;
 1009020:	e0bffa17 	ldw	r2,-24(fp)
 1009024:	e0c00217 	ldw	r3,8(fp)
 1009028:	10c00315 	stw	r3,12(r2)

  priv->tx_end = next;
 100902c:	e0bff617 	ldw	r2,-40(fp)
 1009030:	e0fffb17 	ldw	r3,-20(fp)
 1009034:	10c00215 	stw	r3,8(r2)

  if (!priv->active)
 1009038:	e0bff617 	ldw	r2,-40(fp)
 100903c:	10800817 	ldw	r2,32(r2)
 1009040:	1000041e 	bne	r2,zero,1009054 <alt_avalon_dma_send+0x120>
  {
    priv->launch (priv);
 1009044:	e0bff617 	ldw	r2,-40(fp)
 1009048:	10800717 	ldw	r2,28(r2)
 100904c:	e13ff617 	ldw	r4,-40(fp)
 1009050:	103ee83a 	callr	r2
  }

  return 0;
 1009054:	0005883a 	mov	r2,zero
}
 1009058:	e037883a 	mov	sp,fp
 100905c:	dfc00117 	ldw	ra,4(sp)
 1009060:	df000017 	ldw	fp,0(sp)
 1009064:	dec00204 	addi	sp,sp,8
 1009068:	f800283a 	ret

0100906c <alt_avalon_dma_irq>:
#ifdef ALT_ENHANCED_INTERRUPT_API_PRESENT
static void alt_avalon_dma_irq (void* context)
#else
static void alt_avalon_dma_irq (void* context, alt_u32 id)
#endif
{
 100906c:	defff104 	addi	sp,sp,-60
 1009070:	dfc00e15 	stw	ra,56(sp)
 1009074:	df000d15 	stw	fp,52(sp)
 1009078:	df000d04 	addi	fp,sp,52
 100907c:	e13fff15 	stw	r4,-4(fp)
  alt_avalon_dma_priv* priv = (alt_avalon_dma_priv*) context;
 1009080:	e0bfff17 	ldw	r2,-4(fp)
 1009084:	e0bff315 	stw	r2,-52(fp)
  alt_u32                rx_start;
  int                    stream_tx;
  int                    stream_rx;
  alt_irq_context        cpu_sr;

  stream_tx = priv->flags & ALT_AVALON_DMA_TX_STREAM;
 1009088:	e0bff317 	ldw	r2,-52(fp)
 100908c:	10800517 	ldw	r2,20(r2)
 1009090:	1080080c 	andi	r2,r2,32
 1009094:	e0bff415 	stw	r2,-48(fp)
  stream_rx = priv->flags & ALT_AVALON_DMA_RX_STREAM;
 1009098:	e0bff317 	ldw	r2,-52(fp)
 100909c:	10800517 	ldw	r2,20(r2)
 10090a0:	1080100c 	andi	r2,r2,64
 10090a4:	e0bff515 	stw	r2,-44(fp)

  tx_start = priv->tx_start;
 10090a8:	e0bff317 	ldw	r2,-52(fp)
 10090ac:	10800117 	ldw	r2,4(r2)
 10090b0:	e0bff615 	stw	r2,-40(fp)
  rx_start = priv->rx_start;
 10090b4:	e0bff317 	ldw	r2,-52(fp)
 10090b8:	10800317 	ldw	r2,12(r2)
 10090bc:	e0bff715 	stw	r2,-36(fp)

  tx_slot = &priv->tx_buf[tx_start];
 10090c0:	e0bff617 	ldw	r2,-40(fp)
 10090c4:	1004913a 	slli	r2,r2,4
 10090c8:	10800904 	addi	r2,r2,36
 10090cc:	e0fff317 	ldw	r3,-52(fp)
 10090d0:	1885883a 	add	r2,r3,r2
 10090d4:	e0bff815 	stw	r2,-32(fp)
  rx_slot = &priv->rx_buf[rx_start];
 10090d8:	e0bff717 	ldw	r2,-36(fp)
 10090dc:	1004913a 	slli	r2,r2,4
 10090e0:	10801904 	addi	r2,r2,100
 10090e4:	e0fff317 	ldw	r3,-52(fp)
 10090e8:	1885883a 	add	r2,r3,r2
 10090ec:	e0bff915 	stw	r2,-28(fp)

  /* Increment the descriptors */

  if (!stream_tx)
 10090f0:	e0bff417 	ldw	r2,-48(fp)
 10090f4:	1000051e 	bne	r2,zero,100910c <alt_avalon_dma_irq+0xa0>
  {
    priv->tx_start = (tx_start + 1) & ALT_AVALON_DMA_NSLOTS_MSK;
 10090f8:	e0bff617 	ldw	r2,-40(fp)
 10090fc:	10800044 	addi	r2,r2,1
 1009100:	10c000cc 	andi	r3,r2,3
 1009104:	e0bff317 	ldw	r2,-52(fp)
 1009108:	10c00115 	stw	r3,4(r2)
  }
  if (!stream_rx)
 100910c:	e0bff517 	ldw	r2,-44(fp)
 1009110:	1000051e 	bne	r2,zero,1009128 <alt_avalon_dma_irq+0xbc>
  {
    priv->rx_start = (rx_start + 1) & ALT_AVALON_DMA_NSLOTS_MSK;
 1009114:	e0bff717 	ldw	r2,-36(fp)
 1009118:	10800044 	addi	r2,r2,1
 100911c:	10c000cc 	andi	r3,r2,3
 1009120:	e0bff317 	ldw	r2,-52(fp)
 1009124:	10c00315 	stw	r3,12(r2)
  }

  /* clear the interrupt */

  IOWR_ALTERA_AVALON_DMA_STATUS (priv->base, 0);
 1009128:	e0bff317 	ldw	r2,-52(fp)
 100912c:	10800017 	ldw	r2,0(r2)
 1009130:	0007883a 	mov	r3,zero
 1009134:	10c00035 	stwio	r3,0(r2)
  
  /* Dummy read to ensure IRQ is cleared prior to ISR completion*/
  IORD_ALTERA_AVALON_DMA_STATUS (priv->base);
 1009138:	e0bff317 	ldw	r2,-52(fp)
 100913c:	10800017 	ldw	r2,0(r2)
 1009140:	10800037 	ldwio	r2,0(r2)

  /* launch the next transaction */

  priv->launch (priv);
 1009144:	e0bff317 	ldw	r2,-52(fp)
 1009148:	10800717 	ldw	r2,28(r2)
 100914c:	e13ff317 	ldw	r4,-52(fp)
 1009150:	103ee83a 	callr	r2
   * Other interrupts are explicitly disabled if callbacks
   * are registered because there is no guarantee that they are 
   * preemption-safe. This allows the DMA driver to support 
   * interrupt preemption.
   */
  if (!stream_tx && tx_slot->done)
 1009154:	e0bff417 	ldw	r2,-48(fp)
 1009158:	1000151e 	bne	r2,zero,10091b0 <alt_avalon_dma_irq+0x144>
 100915c:	e0bff817 	ldw	r2,-32(fp)
 1009160:	10800217 	ldw	r2,8(r2)
 1009164:	10001226 	beq	r2,zero,10091b0 <alt_avalon_dma_irq+0x144>
static ALT_INLINE alt_irq_context ALT_ALWAYS_INLINE 
       alt_irq_disable_all (void)
{
  alt_irq_context context;

  NIOS2_READ_STATUS (context);
 1009168:	0005303a 	rdctl	r2,status
 100916c:	e0bffb15 	stw	r2,-20(fp)

  NIOS2_WRITE_STATUS (context & ~NIOS2_STATUS_PIE_MSK);
 1009170:	e0fffb17 	ldw	r3,-20(fp)
 1009174:	00bfff84 	movi	r2,-2
 1009178:	1884703a 	and	r2,r3,r2
 100917c:	1001703a 	wrctl	status,r2
  
  return context;
 1009180:	e0bffb17 	ldw	r2,-20(fp)
  {
    cpu_sr = alt_irq_disable_all();
 1009184:	e0bffa15 	stw	r2,-24(fp)
    tx_slot->done (tx_slot->handle);
 1009188:	e0bff817 	ldw	r2,-32(fp)
 100918c:	10800217 	ldw	r2,8(r2)
 1009190:	e0fff817 	ldw	r3,-32(fp)
 1009194:	18c00317 	ldw	r3,12(r3)
 1009198:	1809883a 	mov	r4,r3
 100919c:	103ee83a 	callr	r2
 10091a0:	e0bffa17 	ldw	r2,-24(fp)
 10091a4:	e0bffc15 	stw	r2,-16(fp)
  status &= ~NIOS2_STATUS_PIE_MSK;
  status |= (context & NIOS2_STATUS_PIE_MSK);
  
  NIOS2_WRITE_STATUS (status);
#else
  NIOS2_WRITE_STATUS (context);
 10091a8:	e0bffc17 	ldw	r2,-16(fp)
 10091ac:	1001703a 	wrctl	status,r2
    alt_irq_enable_all(cpu_sr);
    
  }
  if (!stream_rx && rx_slot->done)
 10091b0:	e0bff517 	ldw	r2,-44(fp)
 10091b4:	1000171e 	bne	r2,zero,1009214 <alt_avalon_dma_irq+0x1a8>
 10091b8:	e0bff917 	ldw	r2,-28(fp)
 10091bc:	10800217 	ldw	r2,8(r2)
 10091c0:	10001426 	beq	r2,zero,1009214 <alt_avalon_dma_irq+0x1a8>
static ALT_INLINE alt_irq_context ALT_ALWAYS_INLINE 
       alt_irq_disable_all (void)
{
  alt_irq_context context;

  NIOS2_READ_STATUS (context);
 10091c4:	0005303a 	rdctl	r2,status
 10091c8:	e0bffd15 	stw	r2,-12(fp)

  NIOS2_WRITE_STATUS (context & ~NIOS2_STATUS_PIE_MSK);
 10091cc:	e0fffd17 	ldw	r3,-12(fp)
 10091d0:	00bfff84 	movi	r2,-2
 10091d4:	1884703a 	and	r2,r3,r2
 10091d8:	1001703a 	wrctl	status,r2
  
  return context;
 10091dc:	e0bffd17 	ldw	r2,-12(fp)
  {
    cpu_sr = alt_irq_disable_all();
 10091e0:	e0bffa15 	stw	r2,-24(fp)
    rx_slot->done (rx_slot->handle, rx_slot->data);
 10091e4:	e0bff917 	ldw	r2,-28(fp)
 10091e8:	10800217 	ldw	r2,8(r2)
 10091ec:	e0fff917 	ldw	r3,-28(fp)
 10091f0:	19000317 	ldw	r4,12(r3)
 10091f4:	e0fff917 	ldw	r3,-28(fp)
 10091f8:	18c00017 	ldw	r3,0(r3)
 10091fc:	180b883a 	mov	r5,r3
 1009200:	103ee83a 	callr	r2
 1009204:	e0bffa17 	ldw	r2,-24(fp)
 1009208:	e0bffe15 	stw	r2,-8(fp)
  status &= ~NIOS2_STATUS_PIE_MSK;
  status |= (context & NIOS2_STATUS_PIE_MSK);
  
  NIOS2_WRITE_STATUS (status);
#else
  NIOS2_WRITE_STATUS (context);
 100920c:	e0bffe17 	ldw	r2,-8(fp)
 1009210:	1001703a 	wrctl	status,r2
    alt_irq_enable_all(cpu_sr);
  }
}
 1009214:	e037883a 	mov	sp,fp
 1009218:	dfc00117 	ldw	ra,4(sp)
 100921c:	df000017 	ldw	fp,0(sp)
 1009220:	dec00204 	addi	sp,sp,8
 1009224:	f800283a 	ret

01009228 <alt_avalon_dma_init>:
void alt_avalon_dma_init (alt_avalon_dma_txchan* tx,
                          alt_avalon_dma_rxchan* rx,
                          void*                  base,
                          alt_u32                ic_id,
                          alt_u32                irq)
{
 1009228:	defff904 	addi	sp,sp,-28
 100922c:	dfc00615 	stw	ra,24(sp)
 1009230:	df000515 	stw	fp,20(sp)
 1009234:	df000504 	addi	fp,sp,20
 1009238:	e13ffc15 	stw	r4,-16(fp)
 100923c:	e17ffd15 	stw	r5,-12(fp)
 1009240:	e1bffe15 	stw	r6,-8(fp)
 1009244:	e1ffff15 	stw	r7,-4(fp)

  /* Halt any current transactions (reset the device) */
  IOWR_ALTERA_AVALON_DMA_CONTROL (base, ALTERA_AVALON_DMA_CONTROL_SOFTWARERESET_MSK);
 1009248:	e0bffe17 	ldw	r2,-8(fp)
 100924c:	10800604 	addi	r2,r2,24
 1009250:	00c40004 	movi	r3,4096
 1009254:	10c00035 	stwio	r3,0(r2)
  IOWR_ALTERA_AVALON_DMA_CONTROL (base, ALTERA_AVALON_DMA_CONTROL_SOFTWARERESET_MSK);
 1009258:	e0bffe17 	ldw	r2,-8(fp)
 100925c:	10800604 	addi	r2,r2,24
 1009260:	00c40004 	movi	r3,4096
 1009264:	10c00035 	stwio	r3,0(r2)

  /* Set the default mode of the device (32 bit block reads and writes from/to memory). */
  IOWR_ALTERA_AVALON_DMA_CONTROL (base,
 1009268:	e0bffe17 	ldw	r2,-8(fp)
 100926c:	10800604 	addi	r2,r2,24
 1009270:	00c03f04 	movi	r3,252
 1009274:	10c00035 	stwio	r3,0(r2)
                          ALTERA_AVALON_DMA_CONTROL_REEN_MSK      |
                          ALTERA_AVALON_DMA_CONTROL_WEEN_MSK      |
                          ALTERA_AVALON_DMA_CONTROL_LEEN_MSK);

  /* Clear any pending interrupts and the DONE flag */
  IOWR_ALTERA_AVALON_DMA_STATUS (base, 0);
 1009278:	0007883a 	mov	r3,zero
 100927c:	e0bffe17 	ldw	r2,-8(fp)
 1009280:	10c00035 	stwio	r3,0(r2)
  /*
   * Register the interrupt handler, and make the device available to the
   * system.
   */
#ifdef ALT_ENHANCED_INTERRUPT_API_PRESENT
  if (alt_ic_isr_register(ic_id, irq, alt_avalon_dma_irq, tx->priv, 0x0) >= 0)
 1009284:	e0bffc17 	ldw	r2,-16(fp)
 1009288:	10800617 	ldw	r2,24(r2)
 100928c:	d8000015 	stw	zero,0(sp)
 1009290:	e13fff17 	ldw	r4,-4(fp)
 1009294:	e1400217 	ldw	r5,8(fp)
 1009298:	01804074 	movhi	r6,257
 100929c:	31a41b04 	addi	r6,r6,-28564
 10092a0:	100f883a 	mov	r7,r2
 10092a4:	1009ca80 	call	1009ca8 <alt_ic_isr_register>
 10092a8:	10000616 	blt	r2,zero,10092c4 <alt_avalon_dma_init+0x9c>
#else
  if (alt_irq_register (irq, tx->priv, alt_avalon_dma_irq) >= 0)
#endif  
  {
    alt_dma_txchan_reg (&tx->dev);
 10092ac:	e0bffc17 	ldw	r2,-16(fp)
 10092b0:	1009883a 	mov	r4,r2
 10092b4:	10087200 	call	1008720 <alt_dma_txchan_reg>
    alt_dma_rxchan_reg (&rx->dev);
 10092b8:	e0bffd17 	ldw	r2,-12(fp)
 10092bc:	1009883a 	mov	r4,r2
 10092c0:	10087580 	call	1008758 <alt_dma_rxchan_reg>
  }
}
 10092c4:	e037883a 	mov	sp,fp
 10092c8:	dfc00117 	ldw	ra,4(sp)
 10092cc:	df000017 	ldw	fp,0(sp)
 10092d0:	dec00204 	addi	sp,sp,8
 10092d4:	f800283a 	ret

010092d8 <altera_avalon_jtag_uart_read_fd>:
 *
 */

int 
altera_avalon_jtag_uart_read_fd(alt_fd* fd, char* buffer, int space)
{
 10092d8:	defffa04 	addi	sp,sp,-24
 10092dc:	dfc00515 	stw	ra,20(sp)
 10092e0:	df000415 	stw	fp,16(sp)
 10092e4:	df000404 	addi	fp,sp,16
 10092e8:	e13ffd15 	stw	r4,-12(fp)
 10092ec:	e17ffe15 	stw	r5,-8(fp)
 10092f0:	e1bfff15 	stw	r6,-4(fp)
    altera_avalon_jtag_uart_dev* dev = (altera_avalon_jtag_uart_dev*) fd->dev; 
 10092f4:	e0bffd17 	ldw	r2,-12(fp)
 10092f8:	10800017 	ldw	r2,0(r2)
 10092fc:	e0bffc15 	stw	r2,-16(fp)

    return altera_avalon_jtag_uart_read(&dev->state, buffer, space,
 1009300:	e0bffc17 	ldw	r2,-16(fp)
 1009304:	10c00a04 	addi	r3,r2,40
 1009308:	e0bffd17 	ldw	r2,-12(fp)
 100930c:	10800217 	ldw	r2,8(r2)
 1009310:	1809883a 	mov	r4,r3
 1009314:	e17ffe17 	ldw	r5,-8(fp)
 1009318:	e1bfff17 	ldw	r6,-4(fp)
 100931c:	100f883a 	mov	r7,r2
 1009320:	10093980 	call	1009398 <altera_avalon_jtag_uart_read>
      fd->fd_flags);
}
 1009324:	e037883a 	mov	sp,fp
 1009328:	dfc00117 	ldw	ra,4(sp)
 100932c:	df000017 	ldw	fp,0(sp)
 1009330:	dec00204 	addi	sp,sp,8
 1009334:	f800283a 	ret

01009338 <altera_avalon_jtag_uart_write_fd>:

int 
altera_avalon_jtag_uart_write_fd(alt_fd* fd, const char* buffer, int space)
{
 1009338:	defffa04 	addi	sp,sp,-24
 100933c:	dfc00515 	stw	ra,20(sp)
 1009340:	df000415 	stw	fp,16(sp)
 1009344:	df000404 	addi	fp,sp,16
 1009348:	e13ffd15 	stw	r4,-12(fp)
 100934c:	e17ffe15 	stw	r5,-8(fp)
 1009350:	e1bfff15 	stw	r6,-4(fp)
    altera_avalon_jtag_uart_dev* dev = (altera_avalon_jtag_uart_dev*) fd->dev; 
 1009354:	e0bffd17 	ldw	r2,-12(fp)
 1009358:	10800017 	ldw	r2,0(r2)
 100935c:	e0bffc15 	stw	r2,-16(fp)

    return altera_avalon_jtag_uart_write(&dev->state, buffer, space,
 1009360:	e0bffc17 	ldw	r2,-16(fp)
 1009364:	10c00a04 	addi	r3,r2,40
 1009368:	e0bffd17 	ldw	r2,-12(fp)
 100936c:	10800217 	ldw	r2,8(r2)
 1009370:	1809883a 	mov	r4,r3
 1009374:	e17ffe17 	ldw	r5,-8(fp)
 1009378:	e1bfff17 	ldw	r6,-4(fp)
 100937c:	100f883a 	mov	r7,r2
 1009380:	100947c0 	call	100947c <altera_avalon_jtag_uart_write>
      fd->fd_flags);
}
 1009384:	e037883a 	mov	sp,fp
 1009388:	dfc00117 	ldw	ra,4(sp)
 100938c:	df000017 	ldw	fp,0(sp)
 1009390:	dec00204 	addi	sp,sp,8
 1009394:	f800283a 	ret

01009398 <altera_avalon_jtag_uart_read>:
 */

int 
altera_avalon_jtag_uart_read(altera_avalon_jtag_uart_state* sp, 
  char* buffer, int space, int flags)
{
 1009398:	defff704 	addi	sp,sp,-36
 100939c:	df000815 	stw	fp,32(sp)
 10093a0:	df000804 	addi	fp,sp,32
 10093a4:	e13ffc15 	stw	r4,-16(fp)
 10093a8:	e17ffd15 	stw	r5,-12(fp)
 10093ac:	e1bffe15 	stw	r6,-8(fp)
 10093b0:	e1ffff15 	stw	r7,-4(fp)
  unsigned int base = sp->base;
 10093b4:	e0bffc17 	ldw	r2,-16(fp)
 10093b8:	10800017 	ldw	r2,0(r2)
 10093bc:	e0bff915 	stw	r2,-28(fp)

  char * ptr = buffer;
 10093c0:	e0bffd17 	ldw	r2,-12(fp)
 10093c4:	e0bff815 	stw	r2,-32(fp)
  char * end = buffer + space;
 10093c8:	e0bffe17 	ldw	r2,-8(fp)
 10093cc:	e0fffd17 	ldw	r3,-12(fp)
 10093d0:	1885883a 	add	r2,r3,r2
 10093d4:	e0bffa15 	stw	r2,-24(fp)

  while (ptr < end)
 10093d8:	00001406 	br	100942c <altera_avalon_jtag_uart_read+0x94>
  {
    unsigned int data = IORD_ALTERA_AVALON_JTAG_UART_DATA(base);
 10093dc:	e0bff917 	ldw	r2,-28(fp)
 10093e0:	10800037 	ldwio	r2,0(r2)
 10093e4:	e0bffb15 	stw	r2,-20(fp)

    if (data & ALTERA_AVALON_JTAG_UART_DATA_RVALID_MSK)
 10093e8:	e0bffb17 	ldw	r2,-20(fp)
 10093ec:	10a0000c 	andi	r2,r2,32768
 10093f0:	10000626 	beq	r2,zero,100940c <altera_avalon_jtag_uart_read+0x74>
      *ptr++ = (data & ALTERA_AVALON_JTAG_UART_DATA_DATA_MSK) >> ALTERA_AVALON_JTAG_UART_DATA_DATA_OFST;
 10093f4:	e0bff817 	ldw	r2,-32(fp)
 10093f8:	10c00044 	addi	r3,r2,1
 10093fc:	e0fff815 	stw	r3,-32(fp)
 1009400:	e0fffb17 	ldw	r3,-20(fp)
 1009404:	10c00005 	stb	r3,0(r2)
 1009408:	00000806 	br	100942c <altera_avalon_jtag_uart_read+0x94>
    else if (ptr != buffer)
 100940c:	e0fff817 	ldw	r3,-32(fp)
 1009410:	e0bffd17 	ldw	r2,-12(fp)
 1009414:	18800126 	beq	r3,r2,100941c <altera_avalon_jtag_uart_read+0x84>
      break;
 1009418:	00000706 	br	1009438 <altera_avalon_jtag_uart_read+0xa0>
    else if(flags & O_NONBLOCK)
 100941c:	e0bfff17 	ldw	r2,-4(fp)
 1009420:	1090000c 	andi	r2,r2,16384
 1009424:	10000126 	beq	r2,zero,100942c <altera_avalon_jtag_uart_read+0x94>
      break;   
 1009428:	00000306 	br	1009438 <altera_avalon_jtag_uart_read+0xa0>
  unsigned int base = sp->base;

  char * ptr = buffer;
  char * end = buffer + space;

  while (ptr < end)
 100942c:	e0fff817 	ldw	r3,-32(fp)
 1009430:	e0bffa17 	ldw	r2,-24(fp)
 1009434:	18bfe936 	bltu	r3,r2,10093dc <__alt_data_end+0xfffe8484>
    else if(flags & O_NONBLOCK)
      break;   
    
  }

  if (ptr != buffer)
 1009438:	e0fff817 	ldw	r3,-32(fp)
 100943c:	e0bffd17 	ldw	r2,-12(fp)
 1009440:	18800426 	beq	r3,r2,1009454 <altera_avalon_jtag_uart_read+0xbc>
    return ptr - buffer;
 1009444:	e0fff817 	ldw	r3,-32(fp)
 1009448:	e0bffd17 	ldw	r2,-12(fp)
 100944c:	1885c83a 	sub	r2,r3,r2
 1009450:	00000606 	br	100946c <altera_avalon_jtag_uart_read+0xd4>
  else if (flags & O_NONBLOCK)
 1009454:	e0bfff17 	ldw	r2,-4(fp)
 1009458:	1090000c 	andi	r2,r2,16384
 100945c:	10000226 	beq	r2,zero,1009468 <altera_avalon_jtag_uart_read+0xd0>
    return -EWOULDBLOCK;
 1009460:	00bffd44 	movi	r2,-11
 1009464:	00000106 	br	100946c <altera_avalon_jtag_uart_read+0xd4>
  else
    return -EIO;
 1009468:	00bffec4 	movi	r2,-5
}
 100946c:	e037883a 	mov	sp,fp
 1009470:	df000017 	ldw	fp,0(sp)
 1009474:	dec00104 	addi	sp,sp,4
 1009478:	f800283a 	ret

0100947c <altera_avalon_jtag_uart_write>:
 * one FIFOs worth of data.  But you said you didn't want to use interrupts :-)
 */

int altera_avalon_jtag_uart_write(altera_avalon_jtag_uart_state* sp, 
  const char * ptr, int count, int flags)
{
 100947c:	defff904 	addi	sp,sp,-28
 1009480:	df000615 	stw	fp,24(sp)
 1009484:	df000604 	addi	fp,sp,24
 1009488:	e13ffc15 	stw	r4,-16(fp)
 100948c:	e17ffd15 	stw	r5,-12(fp)
 1009490:	e1bffe15 	stw	r6,-8(fp)
 1009494:	e1ffff15 	stw	r7,-4(fp)
  unsigned int base = sp->base;
 1009498:	e0bffc17 	ldw	r2,-16(fp)
 100949c:	10800017 	ldw	r2,0(r2)
 10094a0:	e0bffa15 	stw	r2,-24(fp)

  const char * end = ptr + count;
 10094a4:	e0bffe17 	ldw	r2,-8(fp)
 10094a8:	e0fffd17 	ldw	r3,-12(fp)
 10094ac:	1885883a 	add	r2,r3,r2
 10094b0:	e0bffb15 	stw	r2,-20(fp)

  while (ptr < end)
 10094b4:	00000e06 	br	10094f0 <altera_avalon_jtag_uart_write+0x74>
    if ((IORD_ALTERA_AVALON_JTAG_UART_CONTROL(base) & ALTERA_AVALON_JTAG_UART_CONTROL_WSPACE_MSK) != 0)
 10094b8:	e0bffa17 	ldw	r2,-24(fp)
 10094bc:	10800104 	addi	r2,r2,4
 10094c0:	10800037 	ldwio	r2,0(r2)
 10094c4:	10bfffec 	andhi	r2,r2,65535
 10094c8:	10000926 	beq	r2,zero,10094f0 <altera_avalon_jtag_uart_write+0x74>
      IOWR_ALTERA_AVALON_JTAG_UART_DATA(base, *ptr++);
 10094cc:	e0fffa17 	ldw	r3,-24(fp)
 10094d0:	e0bffd17 	ldw	r2,-12(fp)
 10094d4:	11000044 	addi	r4,r2,1
 10094d8:	e13ffd15 	stw	r4,-12(fp)
 10094dc:	10800003 	ldbu	r2,0(r2)
 10094e0:	10803fcc 	andi	r2,r2,255
 10094e4:	1080201c 	xori	r2,r2,128
 10094e8:	10bfe004 	addi	r2,r2,-128
 10094ec:	18800035 	stwio	r2,0(r3)
{
  unsigned int base = sp->base;

  const char * end = ptr + count;

  while (ptr < end)
 10094f0:	e0fffd17 	ldw	r3,-12(fp)
 10094f4:	e0bffb17 	ldw	r2,-20(fp)
 10094f8:	18bfef36 	bltu	r3,r2,10094b8 <__alt_data_end+0xfffe8560>
    if ((IORD_ALTERA_AVALON_JTAG_UART_CONTROL(base) & ALTERA_AVALON_JTAG_UART_CONTROL_WSPACE_MSK) != 0)
      IOWR_ALTERA_AVALON_JTAG_UART_DATA(base, *ptr++);

  return count;
 10094fc:	e0bffe17 	ldw	r2,-8(fp)
}
 1009500:	e037883a 	mov	sp,fp
 1009504:	df000017 	ldw	fp,0(sp)
 1009508:	dec00104 	addi	sp,sp,4
 100950c:	f800283a 	ret

01009510 <alt_avalon_timer_sc_irq>:
#ifdef ALT_ENHANCED_INTERRUPT_API_PRESENT
static void alt_avalon_timer_sc_irq (void* base)
#else
static void alt_avalon_timer_sc_irq (void* base, alt_u32 id)
#endif
{
 1009510:	defffa04 	addi	sp,sp,-24
 1009514:	dfc00515 	stw	ra,20(sp)
 1009518:	df000415 	stw	fp,16(sp)
 100951c:	df000404 	addi	fp,sp,16
 1009520:	e13fff15 	stw	r4,-4(fp)
  alt_irq_context cpu_sr;
  
  /* clear the interrupt */
  IOWR_ALTERA_AVALON_TIMER_STATUS (base, 0);
 1009524:	0007883a 	mov	r3,zero
 1009528:	e0bfff17 	ldw	r2,-4(fp)
 100952c:	10c00035 	stwio	r3,0(r2)
  /* 
   * Dummy read to ensure IRQ is negated before the ISR returns.
   * The control register is read because reading the status
   * register has side-effects per the register map documentation.
   */
  IORD_ALTERA_AVALON_TIMER_CONTROL (base);
 1009530:	e0bfff17 	ldw	r2,-4(fp)
 1009534:	10800104 	addi	r2,r2,4
 1009538:	10800037 	ldwio	r2,0(r2)
static ALT_INLINE alt_irq_context ALT_ALWAYS_INLINE 
       alt_irq_disable_all (void)
{
  alt_irq_context context;

  NIOS2_READ_STATUS (context);
 100953c:	0005303a 	rdctl	r2,status
 1009540:	e0bffd15 	stw	r2,-12(fp)

  NIOS2_WRITE_STATUS (context & ~NIOS2_STATUS_PIE_MSK);
 1009544:	e0fffd17 	ldw	r3,-12(fp)
 1009548:	00bfff84 	movi	r2,-2
 100954c:	1884703a 	and	r2,r3,r2
 1009550:	1001703a 	wrctl	status,r2
  
  return context;
 1009554:	e0bffd17 	ldw	r2,-12(fp)

  /* 
   * Notify the system of a clock tick. disable interrupts 
   * during this time to safely support ISR preemption
   */
  cpu_sr = alt_irq_disable_all();
 1009558:	e0bffc15 	stw	r2,-16(fp)
  alt_tick ();
 100955c:	100a41c0 	call	100a41c <alt_tick>
 1009560:	e0bffc17 	ldw	r2,-16(fp)
 1009564:	e0bffe15 	stw	r2,-8(fp)
  status &= ~NIOS2_STATUS_PIE_MSK;
  status |= (context & NIOS2_STATUS_PIE_MSK);
  
  NIOS2_WRITE_STATUS (status);
#else
  NIOS2_WRITE_STATUS (context);
 1009568:	e0bffe17 	ldw	r2,-8(fp)
 100956c:	1001703a 	wrctl	status,r2
  alt_irq_enable_all(cpu_sr);
}
 1009570:	e037883a 	mov	sp,fp
 1009574:	dfc00117 	ldw	ra,4(sp)
 1009578:	df000017 	ldw	fp,0(sp)
 100957c:	dec00204 	addi	sp,sp,8
 1009580:	f800283a 	ret

01009584 <alt_avalon_timer_sc_init>:
 * auto-generated alt_sys_init() function.
 */

void alt_avalon_timer_sc_init (void* base, alt_u32 irq_controller_id, 
                                alt_u32 irq, alt_u32 freq)
{
 1009584:	defff804 	addi	sp,sp,-32
 1009588:	dfc00715 	stw	ra,28(sp)
 100958c:	df000615 	stw	fp,24(sp)
 1009590:	df000604 	addi	fp,sp,24
 1009594:	e13ffc15 	stw	r4,-16(fp)
 1009598:	e17ffd15 	stw	r5,-12(fp)
 100959c:	e1bffe15 	stw	r6,-8(fp)
 10095a0:	e1ffff15 	stw	r7,-4(fp)
 10095a4:	e0bfff17 	ldw	r2,-4(fp)
 10095a8:	e0bffb15 	stw	r2,-20(fp)
 * in order to initialise the value of the clock frequency.
 */

static ALT_INLINE int ALT_ALWAYS_INLINE alt_sysclk_init (alt_u32 nticks)
{
  if (! _alt_tick_rate)
 10095ac:	00804074 	movhi	r2,257
 10095b0:	10af8c04 	addi	r2,r2,-16848
 10095b4:	10800017 	ldw	r2,0(r2)
 10095b8:	1000041e 	bne	r2,zero,10095cc <alt_avalon_timer_sc_init+0x48>
  {
    _alt_tick_rate = nticks;
 10095bc:	00804074 	movhi	r2,257
 10095c0:	10af8c04 	addi	r2,r2,-16848
 10095c4:	e0fffb17 	ldw	r3,-20(fp)
 10095c8:	10c00015 	stw	r3,0(r2)
  
  alt_sysclk_init (freq);
  
  /* set to free running mode */
  
  IOWR_ALTERA_AVALON_TIMER_CONTROL (base, 
 10095cc:	e0bffc17 	ldw	r2,-16(fp)
 10095d0:	10800104 	addi	r2,r2,4
 10095d4:	00c001c4 	movi	r3,7
 10095d8:	10c00035 	stwio	r3,0(r2)
            ALTERA_AVALON_TIMER_CONTROL_CONT_MSK |
            ALTERA_AVALON_TIMER_CONTROL_START_MSK);

  /* register the interrupt handler, and enable the interrupt */
#ifdef ALT_ENHANCED_INTERRUPT_API_PRESENT
  alt_ic_isr_register(irq_controller_id, irq, alt_avalon_timer_sc_irq, 
 10095dc:	d8000015 	stw	zero,0(sp)
 10095e0:	e13ffd17 	ldw	r4,-12(fp)
 10095e4:	e17ffe17 	ldw	r5,-8(fp)
 10095e8:	01804074 	movhi	r6,257
 10095ec:	31a54404 	addi	r6,r6,-27376
 10095f0:	e1fffc17 	ldw	r7,-16(fp)
 10095f4:	1009ca80 	call	1009ca8 <alt_ic_isr_register>
                      base, NULL);
#else
  alt_irq_register (irq, base, alt_avalon_timer_sc_irq);
#endif  
}
 10095f8:	e037883a 	mov	sp,fp
 10095fc:	dfc00117 	ldw	ra,4(sp)
 1009600:	df000017 	ldw	fp,0(sp)
 1009604:	dec00204 	addi	sp,sp,8
 1009608:	f800283a 	ret

0100960c <alt_busy_sleep>:
#include "alt_types.h"

#include "priv/alt_busy_sleep.h"

unsigned int alt_busy_sleep (unsigned int us)
{
 100960c:	defffa04 	addi	sp,sp,-24
 1009610:	dfc00515 	stw	ra,20(sp)
 1009614:	df000415 	stw	fp,16(sp)
 1009618:	df000404 	addi	fp,sp,16
 100961c:	e13fff15 	stw	r4,-4(fp)
  {
    cycles_per_loop = 9;
  }
  else  
  {
    cycles_per_loop = 3;
 1009620:	008000c4 	movi	r2,3
 1009624:	e0bffd15 	stw	r2,-12(fp)
  }
  

  big_loops = us / (INT_MAX/
  (ALT_CPU_FREQ/(cycles_per_loop * 1000000)));
 1009628:	e0fffd17 	ldw	r3,-12(fp)
 100962c:	008003f4 	movhi	r2,15
 1009630:	10909004 	addi	r2,r2,16960
 1009634:	1885383a 	mul	r2,r3,r2
 1009638:	01017db4 	movhi	r4,1526
 100963c:	21384004 	addi	r4,r4,-7936
 1009640:	100b883a 	mov	r5,r2
 1009644:	10079300 	call	1007930 <__udivsi3>
  {
    cycles_per_loop = 3;
  }
  

  big_loops = us / (INT_MAX/
 1009648:	01200034 	movhi	r4,32768
 100964c:	213fffc4 	addi	r4,r4,-1
 1009650:	100b883a 	mov	r5,r2
 1009654:	10079300 	call	1007930 <__udivsi3>
 1009658:	e13fff17 	ldw	r4,-4(fp)
 100965c:	100b883a 	mov	r5,r2
 1009660:	10079300 	call	1007930 <__udivsi3>
 1009664:	e0bffe15 	stw	r2,-8(fp)
  (ALT_CPU_FREQ/(cycles_per_loop * 1000000)));

  if (big_loops)
 1009668:	e0bffe17 	ldw	r2,-8(fp)
 100966c:	10002a26 	beq	r2,zero,1009718 <alt_busy_sleep+0x10c>
  {
    for(i=0;i<big_loops;i++)
 1009670:	e03ffc15 	stw	zero,-16(fp)
 1009674:	00001706 	br	10096d4 <alt_busy_sleep+0xc8>
      /*
      * Do NOT Try to single step the asm statement below 
      * (single step will never return)
      * Step out of this function or set a breakpoint after the asm statements
      */
      __asm__ volatile (
 1009678:	00a00034 	movhi	r2,32768
 100967c:	10bfffc4 	addi	r2,r2,-1
 1009680:	10bfffc4 	addi	r2,r2,-1
 1009684:	103ffe1e 	bne	r2,zero,1009680 <__alt_data_end+0xfffe8728>
        "\n\t.pushsection .debug_alt_sim_info"
        "\n\t.int 4, 0, 0b, 1b"
        "\n\t.popsection"
        :: "r" (INT_MAX));
      us -= (INT_MAX/(ALT_CPU_FREQ/
      (cycles_per_loop * 1000000)));
 1009688:	e0fffd17 	ldw	r3,-12(fp)
 100968c:	008003f4 	movhi	r2,15
 1009690:	10909004 	addi	r2,r2,16960
 1009694:	1885383a 	mul	r2,r3,r2
        "\n1:"
        "\n\t.pushsection .debug_alt_sim_info"
        "\n\t.int 4, 0, 0b, 1b"
        "\n\t.popsection"
        :: "r" (INT_MAX));
      us -= (INT_MAX/(ALT_CPU_FREQ/
 1009698:	01017db4 	movhi	r4,1526
 100969c:	21384004 	addi	r4,r4,-7936
 10096a0:	100b883a 	mov	r5,r2
 10096a4:	10079300 	call	1007930 <__udivsi3>
 10096a8:	01200034 	movhi	r4,32768
 10096ac:	213fffc4 	addi	r4,r4,-1
 10096b0:	100b883a 	mov	r5,r2
 10096b4:	10079300 	call	1007930 <__udivsi3>
 10096b8:	1007883a 	mov	r3,r2
 10096bc:	e0bfff17 	ldw	r2,-4(fp)
 10096c0:	10c5c83a 	sub	r2,r2,r3
 10096c4:	e0bfff15 	stw	r2,-4(fp)
  big_loops = us / (INT_MAX/
  (ALT_CPU_FREQ/(cycles_per_loop * 1000000)));

  if (big_loops)
  {
    for(i=0;i<big_loops;i++)
 10096c8:	e0bffc17 	ldw	r2,-16(fp)
 10096cc:	10800044 	addi	r2,r2,1
 10096d0:	e0bffc15 	stw	r2,-16(fp)
 10096d4:	e0fffc17 	ldw	r3,-16(fp)
 10096d8:	e0bffe17 	ldw	r2,-8(fp)
 10096dc:	18bfe616 	blt	r3,r2,1009678 <__alt_data_end+0xfffe8720>
      "\n\tbne %0,zero,0b"
      "\n1:"
      "\n\t.pushsection .debug_alt_sim_info"
      "\n\t.int 4, 0, 0b, 1b"
      "\n\t.popsection"
      :: "r" (us*(ALT_CPU_FREQ/(cycles_per_loop * 1000000))));
 10096e0:	e0fffd17 	ldw	r3,-12(fp)
 10096e4:	008003f4 	movhi	r2,15
 10096e8:	10909004 	addi	r2,r2,16960
 10096ec:	1885383a 	mul	r2,r3,r2
 10096f0:	01017db4 	movhi	r4,1526
 10096f4:	21384004 	addi	r4,r4,-7936
 10096f8:	100b883a 	mov	r5,r2
 10096fc:	10079300 	call	1007930 <__udivsi3>
 1009700:	1007883a 	mov	r3,r2
 1009704:	e0bfff17 	ldw	r2,-4(fp)
 1009708:	1885383a 	mul	r2,r3,r2
    /*
    * Do NOT Try to single step the asm statement below 
    * (single step will never return)
    * Step out of this function or set a breakpoint after the asm statements
    */
    __asm__ volatile (
 100970c:	10bfffc4 	addi	r2,r2,-1
 1009710:	103ffe1e 	bne	r2,zero,100970c <__alt_data_end+0xfffe87b4>
 1009714:	00000d06 	br	100974c <alt_busy_sleep+0x140>
      "\n\tbgt %0,zero,0b"
      "\n1:"
      "\n\t.pushsection .debug_alt_sim_info"
      "\n\t.int 4, 0, 0b, 1b"
      "\n\t.popsection"
      :: "r" (us*(ALT_CPU_FREQ/(cycles_per_loop * 1000000))));
 1009718:	e0fffd17 	ldw	r3,-12(fp)
 100971c:	008003f4 	movhi	r2,15
 1009720:	10909004 	addi	r2,r2,16960
 1009724:	1885383a 	mul	r2,r3,r2
 1009728:	01017db4 	movhi	r4,1526
 100972c:	21384004 	addi	r4,r4,-7936
 1009730:	100b883a 	mov	r5,r2
 1009734:	10079300 	call	1007930 <__udivsi3>
 1009738:	1007883a 	mov	r3,r2
 100973c:	e0bfff17 	ldw	r2,-4(fp)
 1009740:	1885383a 	mul	r2,r3,r2
    /*
    * Do NOT Try to single step the asm statement below 
    * (single step will never return)
    * Step out of this function or set a breakpoint after the asm statements
    */
    __asm__ volatile (
 1009744:	10bfffc4 	addi	r2,r2,-1
 1009748:	00bffe16 	blt	zero,r2,1009744 <__alt_data_end+0xfffe87ec>
      "\n\t.int 4, 0, 0b, 1b"
      "\n\t.popsection"
      :: "r" (us*(ALT_CPU_FREQ/(cycles_per_loop * 1000000))));
  }
#endif /* #ifndef ALT_SIM_OPTIMIZE */
  return 0;
 100974c:	0005883a 	mov	r2,zero
}
 1009750:	e037883a 	mov	sp,fp
 1009754:	dfc00117 	ldw	ra,4(sp)
 1009758:	df000017 	ldw	fp,0(sp)
 100975c:	dec00204 	addi	sp,sp,8
 1009760:	f800283a 	ret

01009764 <alt_get_errno>:
#undef errno

extern int errno;

static ALT_INLINE int* alt_get_errno(void)
{
 1009764:	defffe04 	addi	sp,sp,-8
 1009768:	dfc00115 	stw	ra,4(sp)
 100976c:	df000015 	stw	fp,0(sp)
 1009770:	d839883a 	mov	fp,sp
  return ((alt_errno) ? alt_errno() : &errno);
 1009774:	00804074 	movhi	r2,257
 1009778:	10ad8f04 	addi	r2,r2,-18884
 100977c:	10800017 	ldw	r2,0(r2)
 1009780:	10000526 	beq	r2,zero,1009798 <alt_get_errno+0x34>
 1009784:	00804074 	movhi	r2,257
 1009788:	10ad8f04 	addi	r2,r2,-18884
 100978c:	10800017 	ldw	r2,0(r2)
 1009790:	103ee83a 	callr	r2
 1009794:	00000206 	br	10097a0 <alt_get_errno+0x3c>
 1009798:	00804074 	movhi	r2,257
 100979c:	10af8704 	addi	r2,r2,-16868
}
 10097a0:	e037883a 	mov	sp,fp
 10097a4:	dfc00117 	ldw	ra,4(sp)
 10097a8:	df000017 	ldw	fp,0(sp)
 10097ac:	dec00204 	addi	sp,sp,8
 10097b0:	f800283a 	ret

010097b4 <close>:
 *
 * ALT_CLOSE is mapped onto the close() system call in alt_syscall.h
 */
 
int ALT_CLOSE (int fildes)
{
 10097b4:	defffb04 	addi	sp,sp,-20
 10097b8:	dfc00415 	stw	ra,16(sp)
 10097bc:	df000315 	stw	fp,12(sp)
 10097c0:	df000304 	addi	fp,sp,12
 10097c4:	e13fff15 	stw	r4,-4(fp)
   * A common error case is that when the file descriptor was created, the call
   * to open() failed resulting in a negative file descriptor. This is trapped
   * below so that we don't try and process an invalid file descriptor.
   */

  fd = (fildes < 0) ? NULL : &alt_fd_list[fildes];
 10097c8:	e0bfff17 	ldw	r2,-4(fp)
 10097cc:	10000616 	blt	r2,zero,10097e8 <close+0x34>
 10097d0:	e0bfff17 	ldw	r2,-4(fp)
 10097d4:	10c00324 	muli	r3,r2,12
 10097d8:	00804074 	movhi	r2,257
 10097dc:	10ad2104 	addi	r2,r2,-19324
 10097e0:	1885883a 	add	r2,r3,r2
 10097e4:	00000106 	br	10097ec <close+0x38>
 10097e8:	0005883a 	mov	r2,zero
 10097ec:	e0bffd15 	stw	r2,-12(fp)

  if (fd)
 10097f0:	e0bffd17 	ldw	r2,-12(fp)
 10097f4:	10001926 	beq	r2,zero,100985c <close+0xa8>
    /*
     * If the associated file system/device has a close function, call it so 
     * that any necessary cleanup code can run.
     */

    rval = (fd->dev->close) ? fd->dev->close(fd) : 0;
 10097f8:	e0bffd17 	ldw	r2,-12(fp)
 10097fc:	10800017 	ldw	r2,0(r2)
 1009800:	10800417 	ldw	r2,16(r2)
 1009804:	10000626 	beq	r2,zero,1009820 <close+0x6c>
 1009808:	e0bffd17 	ldw	r2,-12(fp)
 100980c:	10800017 	ldw	r2,0(r2)
 1009810:	10800417 	ldw	r2,16(r2)
 1009814:	e13ffd17 	ldw	r4,-12(fp)
 1009818:	103ee83a 	callr	r2
 100981c:	00000106 	br	1009824 <close+0x70>
 1009820:	0005883a 	mov	r2,zero
 1009824:	e0bffe15 	stw	r2,-8(fp)

    /* Free the file descriptor structure and return. */

    alt_release_fd (fildes);
 1009828:	e13fff17 	ldw	r4,-4(fp)
 100982c:	100a3240 	call	100a324 <alt_release_fd>
    if (rval < 0)
 1009830:	e0bffe17 	ldw	r2,-8(fp)
 1009834:	1000070e 	bge	r2,zero,1009854 <close+0xa0>
    {
      ALT_ERRNO = -rval;
 1009838:	10097640 	call	1009764 <alt_get_errno>
 100983c:	1007883a 	mov	r3,r2
 1009840:	e0bffe17 	ldw	r2,-8(fp)
 1009844:	0085c83a 	sub	r2,zero,r2
 1009848:	18800015 	stw	r2,0(r3)
      return -1;
 100984c:	00bfffc4 	movi	r2,-1
 1009850:	00000706 	br	1009870 <close+0xbc>
    }
    return 0;
 1009854:	0005883a 	mov	r2,zero
 1009858:	00000506 	br	1009870 <close+0xbc>
  }
  else
  {
    ALT_ERRNO = EBADFD;
 100985c:	10097640 	call	1009764 <alt_get_errno>
 1009860:	1007883a 	mov	r3,r2
 1009864:	00801444 	movi	r2,81
 1009868:	18800015 	stw	r2,0(r3)
    return -1;
 100986c:	00bfffc4 	movi	r2,-1
  }
}
 1009870:	e037883a 	mov	sp,fp
 1009874:	dfc00117 	ldw	ra,4(sp)
 1009878:	df000017 	ldw	fp,0(sp)
 100987c:	dec00204 	addi	sp,sp,8
 1009880:	f800283a 	ret

01009884 <alt_dcache_flush_all>:
/*
 * alt_dcache_flush_all() is called to flush the entire data cache.
 */

void alt_dcache_flush_all (void)
{
 1009884:	defffe04 	addi	sp,sp,-8
 1009888:	df000115 	stw	fp,4(sp)
 100988c:	df000104 	addi	fp,sp,4
#if NIOS2_DCACHE_SIZE > 0
  char* i;
  
  for (i = (char*) 0; i < (char*) NIOS2_DCACHE_SIZE; i+= NIOS2_DCACHE_LINE_SIZE)
 1009890:	e03fff15 	stw	zero,-4(fp)
 1009894:	00000506 	br	10098ac <alt_dcache_flush_all+0x28>
  { 
    __asm__ volatile ("flushd (%0)" :: "r" (i));
 1009898:	e0bfff17 	ldw	r2,-4(fp)
 100989c:	1000003b 	flushd	0(r2)
void alt_dcache_flush_all (void)
{
#if NIOS2_DCACHE_SIZE > 0
  char* i;
  
  for (i = (char*) 0; i < (char*) NIOS2_DCACHE_SIZE; i+= NIOS2_DCACHE_LINE_SIZE)
 10098a0:	e0bfff17 	ldw	r2,-4(fp)
 10098a4:	10800804 	addi	r2,r2,32
 10098a8:	e0bfff15 	stw	r2,-4(fp)
 10098ac:	e0bfff17 	ldw	r2,-4(fp)
 10098b0:	10820030 	cmpltui	r2,r2,2048
 10098b4:	103ff81e 	bne	r2,zero,1009898 <__alt_data_end+0xfffe8940>
  { 
    __asm__ volatile ("flushd (%0)" :: "r" (i));
  }
#endif /* NIOS2_DCACHE_SIZE > 0 */
}
 10098b8:	e037883a 	mov	sp,fp
 10098bc:	df000017 	ldw	fp,0(sp)
 10098c0:	dec00104 	addi	sp,sp,4
 10098c4:	f800283a 	ret

010098c8 <alt_dev_null_write>:
 * by the alt_dev_null device. It simple discards all data passed to it, and
 * indicates that the data has been successfully transmitted.
 */

static int alt_dev_null_write (alt_fd* fd, const char* ptr, int len)
{
 10098c8:	defffc04 	addi	sp,sp,-16
 10098cc:	df000315 	stw	fp,12(sp)
 10098d0:	df000304 	addi	fp,sp,12
 10098d4:	e13ffd15 	stw	r4,-12(fp)
 10098d8:	e17ffe15 	stw	r5,-8(fp)
 10098dc:	e1bfff15 	stw	r6,-4(fp)
  return len;
 10098e0:	e0bfff17 	ldw	r2,-4(fp)
}
 10098e4:	e037883a 	mov	sp,fp
 10098e8:	df000017 	ldw	fp,0(sp)
 10098ec:	dec00104 	addi	sp,sp,4
 10098f0:	f800283a 	ret

010098f4 <alt_get_errno>:
#undef errno

extern int errno;

static ALT_INLINE int* alt_get_errno(void)
{
 10098f4:	defffe04 	addi	sp,sp,-8
 10098f8:	dfc00115 	stw	ra,4(sp)
 10098fc:	df000015 	stw	fp,0(sp)
 1009900:	d839883a 	mov	fp,sp
  return ((alt_errno) ? alt_errno() : &errno);
 1009904:	00804074 	movhi	r2,257
 1009908:	10ad8f04 	addi	r2,r2,-18884
 100990c:	10800017 	ldw	r2,0(r2)
 1009910:	10000526 	beq	r2,zero,1009928 <alt_get_errno+0x34>
 1009914:	00804074 	movhi	r2,257
 1009918:	10ad8f04 	addi	r2,r2,-18884
 100991c:	10800017 	ldw	r2,0(r2)
 1009920:	103ee83a 	callr	r2
 1009924:	00000206 	br	1009930 <alt_get_errno+0x3c>
 1009928:	00804074 	movhi	r2,257
 100992c:	10af8704 	addi	r2,r2,-16868
}
 1009930:	e037883a 	mov	sp,fp
 1009934:	dfc00117 	ldw	ra,4(sp)
 1009938:	df000017 	ldw	fp,0(sp)
 100993c:	dec00204 	addi	sp,sp,8
 1009940:	f800283a 	ret

01009944 <alt_dev_llist_insert>:
/*
 *
 */

int alt_dev_llist_insert (alt_dev_llist* dev, alt_llist* list)
{
 1009944:	defffa04 	addi	sp,sp,-24
 1009948:	dfc00515 	stw	ra,20(sp)
 100994c:	df000415 	stw	fp,16(sp)
 1009950:	df000404 	addi	fp,sp,16
 1009954:	e13ffe15 	stw	r4,-8(fp)
 1009958:	e17fff15 	stw	r5,-4(fp)
  /*
   * check that the device exists, and that it has a valid name.
   */

  if (!dev || !dev->name)
 100995c:	e0bffe17 	ldw	r2,-8(fp)
 1009960:	10000326 	beq	r2,zero,1009970 <alt_dev_llist_insert+0x2c>
 1009964:	e0bffe17 	ldw	r2,-8(fp)
 1009968:	10800217 	ldw	r2,8(r2)
 100996c:	1000061e 	bne	r2,zero,1009988 <alt_dev_llist_insert+0x44>
  {
    ALT_ERRNO = EINVAL;
 1009970:	10098f40 	call	10098f4 <alt_get_errno>
 1009974:	1007883a 	mov	r3,r2
 1009978:	00800584 	movi	r2,22
 100997c:	18800015 	stw	r2,0(r3)
    return -EINVAL;
 1009980:	00bffa84 	movi	r2,-22
 1009984:	00001306 	br	10099d4 <alt_dev_llist_insert+0x90>
  
  /*
   * register the device.
   */
  
  alt_llist_insert(list, &dev->llist);
 1009988:	e0bffe17 	ldw	r2,-8(fp)
 100998c:	e0ffff17 	ldw	r3,-4(fp)
 1009990:	e0fffc15 	stw	r3,-16(fp)
 1009994:	e0bffd15 	stw	r2,-12(fp)
 */

static ALT_INLINE void ALT_ALWAYS_INLINE alt_llist_insert(alt_llist* list, 
                alt_llist* entry)
{
  entry->previous = list;
 1009998:	e0bffd17 	ldw	r2,-12(fp)
 100999c:	e0fffc17 	ldw	r3,-16(fp)
 10099a0:	10c00115 	stw	r3,4(r2)
  entry->next     = list->next;
 10099a4:	e0bffc17 	ldw	r2,-16(fp)
 10099a8:	10c00017 	ldw	r3,0(r2)
 10099ac:	e0bffd17 	ldw	r2,-12(fp)
 10099b0:	10c00015 	stw	r3,0(r2)

  list->next->previous = entry;
 10099b4:	e0bffc17 	ldw	r2,-16(fp)
 10099b8:	10800017 	ldw	r2,0(r2)
 10099bc:	e0fffd17 	ldw	r3,-12(fp)
 10099c0:	10c00115 	stw	r3,4(r2)
  list->next           = entry;
 10099c4:	e0bffc17 	ldw	r2,-16(fp)
 10099c8:	e0fffd17 	ldw	r3,-12(fp)
 10099cc:	10c00015 	stw	r3,0(r2)

  return 0;  
 10099d0:	0005883a 	mov	r2,zero
}
 10099d4:	e037883a 	mov	sp,fp
 10099d8:	dfc00117 	ldw	ra,4(sp)
 10099dc:	df000017 	ldw	fp,0(sp)
 10099e0:	dec00204 	addi	sp,sp,8
 10099e4:	f800283a 	ret

010099e8 <alt_get_errno>:
#undef errno

extern int errno;

static ALT_INLINE int* alt_get_errno(void)
{
 10099e8:	defffe04 	addi	sp,sp,-8
 10099ec:	dfc00115 	stw	ra,4(sp)
 10099f0:	df000015 	stw	fp,0(sp)
 10099f4:	d839883a 	mov	fp,sp
  return ((alt_errno) ? alt_errno() : &errno);
 10099f8:	00804074 	movhi	r2,257
 10099fc:	10ad8f04 	addi	r2,r2,-18884
 1009a00:	10800017 	ldw	r2,0(r2)
 1009a04:	10000526 	beq	r2,zero,1009a1c <alt_get_errno+0x34>
 1009a08:	00804074 	movhi	r2,257
 1009a0c:	10ad8f04 	addi	r2,r2,-18884
 1009a10:	10800017 	ldw	r2,0(r2)
 1009a14:	103ee83a 	callr	r2
 1009a18:	00000206 	br	1009a24 <alt_get_errno+0x3c>
 1009a1c:	00804074 	movhi	r2,257
 1009a20:	10af8704 	addi	r2,r2,-16868
}
 1009a24:	e037883a 	mov	sp,fp
 1009a28:	dfc00117 	ldw	ra,4(sp)
 1009a2c:	df000017 	ldw	fp,0(sp)
 1009a30:	dec00204 	addi	sp,sp,8
 1009a34:	f800283a 	ret

01009a38 <alt_dma_rxchan_open>:
 *
 * The return value will be NULL on failure, and non-NULL otherwise. 
 */

alt_dma_rxchan alt_dma_rxchan_open (const char* name)
{
 1009a38:	defffc04 	addi	sp,sp,-16
 1009a3c:	dfc00315 	stw	ra,12(sp)
 1009a40:	df000215 	stw	fp,8(sp)
 1009a44:	df000204 	addi	fp,sp,8
 1009a48:	e13fff15 	stw	r4,-4(fp)
  alt_dma_rxchan dev;

  dev = (alt_dma_rxchan) alt_find_dev (name, &alt_dma_rxchan_list);
 1009a4c:	e13fff17 	ldw	r4,-4(fp)
 1009a50:	d1600a04 	addi	r5,gp,-32728
 1009a54:	1009be80 	call	1009be8 <alt_find_dev>
 1009a58:	e0bffe15 	stw	r2,-8(fp)

  if (!dev)
 1009a5c:	e0bffe17 	ldw	r2,-8(fp)
 1009a60:	1000041e 	bne	r2,zero,1009a74 <alt_dma_rxchan_open+0x3c>
  {
    ALT_ERRNO = ENODEV;
 1009a64:	10099e80 	call	10099e8 <alt_get_errno>
 1009a68:	1007883a 	mov	r3,r2
 1009a6c:	008004c4 	movi	r2,19
 1009a70:	18800015 	stw	r2,0(r3)
  }

  return dev;
 1009a74:	e0bffe17 	ldw	r2,-8(fp)
}
 1009a78:	e037883a 	mov	sp,fp
 1009a7c:	dfc00117 	ldw	ra,4(sp)
 1009a80:	df000017 	ldw	fp,0(sp)
 1009a84:	dec00204 	addi	sp,sp,8
 1009a88:	f800283a 	ret

01009a8c <alt_get_errno>:
#undef errno

extern int errno;

static ALT_INLINE int* alt_get_errno(void)
{
 1009a8c:	defffe04 	addi	sp,sp,-8
 1009a90:	dfc00115 	stw	ra,4(sp)
 1009a94:	df000015 	stw	fp,0(sp)
 1009a98:	d839883a 	mov	fp,sp
  return ((alt_errno) ? alt_errno() : &errno);
 1009a9c:	00804074 	movhi	r2,257
 1009aa0:	10ad8f04 	addi	r2,r2,-18884
 1009aa4:	10800017 	ldw	r2,0(r2)
 1009aa8:	10000526 	beq	r2,zero,1009ac0 <alt_get_errno+0x34>
 1009aac:	00804074 	movhi	r2,257
 1009ab0:	10ad8f04 	addi	r2,r2,-18884
 1009ab4:	10800017 	ldw	r2,0(r2)
 1009ab8:	103ee83a 	callr	r2
 1009abc:	00000206 	br	1009ac8 <alt_get_errno+0x3c>
 1009ac0:	00804074 	movhi	r2,257
 1009ac4:	10af8704 	addi	r2,r2,-16868
}
 1009ac8:	e037883a 	mov	sp,fp
 1009acc:	dfc00117 	ldw	ra,4(sp)
 1009ad0:	df000017 	ldw	fp,0(sp)
 1009ad4:	dec00204 	addi	sp,sp,8
 1009ad8:	f800283a 	ret

01009adc <alt_dma_txchan_open>:
 *
 * The return value will be NULL on failure, and non-NULL otherwise. 
 */

alt_dma_txchan alt_dma_txchan_open (const char* name)
{
 1009adc:	defffc04 	addi	sp,sp,-16
 1009ae0:	dfc00315 	stw	ra,12(sp)
 1009ae4:	df000215 	stw	fp,8(sp)
 1009ae8:	df000204 	addi	fp,sp,8
 1009aec:	e13fff15 	stw	r4,-4(fp)
  alt_dma_txchan dev;

  dev = (alt_dma_txchan) alt_find_dev (name, &alt_dma_txchan_list);
 1009af0:	e13fff17 	ldw	r4,-4(fp)
 1009af4:	d1600c04 	addi	r5,gp,-32720
 1009af8:	1009be80 	call	1009be8 <alt_find_dev>
 1009afc:	e0bffe15 	stw	r2,-8(fp)

  if (!dev)
 1009b00:	e0bffe17 	ldw	r2,-8(fp)
 1009b04:	1000041e 	bne	r2,zero,1009b18 <alt_dma_txchan_open+0x3c>
  {
    ALT_ERRNO = ENODEV;
 1009b08:	1009a8c0 	call	1009a8c <alt_get_errno>
 1009b0c:	1007883a 	mov	r3,r2
 1009b10:	008004c4 	movi	r2,19
 1009b14:	18800015 	stw	r2,0(r3)
  }

  return dev;
 1009b18:	e0bffe17 	ldw	r2,-8(fp)
}
 1009b1c:	e037883a 	mov	sp,fp
 1009b20:	dfc00117 	ldw	ra,4(sp)
 1009b24:	df000017 	ldw	fp,0(sp)
 1009b28:	dec00204 	addi	sp,sp,8
 1009b2c:	f800283a 	ret

01009b30 <_do_ctors>:
/*
 * Run the C++ static constructors.
 */

void _do_ctors(void)
{
 1009b30:	defffd04 	addi	sp,sp,-12
 1009b34:	dfc00215 	stw	ra,8(sp)
 1009b38:	df000115 	stw	fp,4(sp)
 1009b3c:	df000104 	addi	fp,sp,4
  constructor* ctor;

  for (ctor = &__CTOR_END__[-1]; ctor >= __CTOR_LIST__; ctor--)
 1009b40:	00804074 	movhi	r2,257
 1009b44:	10aac204 	addi	r2,r2,-21752
 1009b48:	e0bfff15 	stw	r2,-4(fp)
 1009b4c:	00000606 	br	1009b68 <_do_ctors+0x38>
        (*ctor) (); 
 1009b50:	e0bfff17 	ldw	r2,-4(fp)
 1009b54:	10800017 	ldw	r2,0(r2)
 1009b58:	103ee83a 	callr	r2

void _do_ctors(void)
{
  constructor* ctor;

  for (ctor = &__CTOR_END__[-1]; ctor >= __CTOR_LIST__; ctor--)
 1009b5c:	e0bfff17 	ldw	r2,-4(fp)
 1009b60:	10bfff04 	addi	r2,r2,-4
 1009b64:	e0bfff15 	stw	r2,-4(fp)
 1009b68:	e0ffff17 	ldw	r3,-4(fp)
 1009b6c:	00804074 	movhi	r2,257
 1009b70:	10aac304 	addi	r2,r2,-21748
 1009b74:	18bff62e 	bgeu	r3,r2,1009b50 <__alt_data_end+0xfffe8bf8>
        (*ctor) (); 
}
 1009b78:	e037883a 	mov	sp,fp
 1009b7c:	dfc00117 	ldw	ra,4(sp)
 1009b80:	df000017 	ldw	fp,0(sp)
 1009b84:	dec00204 	addi	sp,sp,8
 1009b88:	f800283a 	ret

01009b8c <_do_dtors>:
/*
 * Run the C++ static destructors.
 */

void _do_dtors(void)
{
 1009b8c:	defffd04 	addi	sp,sp,-12
 1009b90:	dfc00215 	stw	ra,8(sp)
 1009b94:	df000115 	stw	fp,4(sp)
 1009b98:	df000104 	addi	fp,sp,4
  destructor* dtor;

  for (dtor = &__DTOR_END__[-1]; dtor >= __DTOR_LIST__; dtor--)
 1009b9c:	00804074 	movhi	r2,257
 1009ba0:	10aac204 	addi	r2,r2,-21752
 1009ba4:	e0bfff15 	stw	r2,-4(fp)
 1009ba8:	00000606 	br	1009bc4 <_do_dtors+0x38>
        (*dtor) (); 
 1009bac:	e0bfff17 	ldw	r2,-4(fp)
 1009bb0:	10800017 	ldw	r2,0(r2)
 1009bb4:	103ee83a 	callr	r2

void _do_dtors(void)
{
  destructor* dtor;

  for (dtor = &__DTOR_END__[-1]; dtor >= __DTOR_LIST__; dtor--)
 1009bb8:	e0bfff17 	ldw	r2,-4(fp)
 1009bbc:	10bfff04 	addi	r2,r2,-4
 1009bc0:	e0bfff15 	stw	r2,-4(fp)
 1009bc4:	e0ffff17 	ldw	r3,-4(fp)
 1009bc8:	00804074 	movhi	r2,257
 1009bcc:	10aac304 	addi	r2,r2,-21748
 1009bd0:	18bff62e 	bgeu	r3,r2,1009bac <__alt_data_end+0xfffe8c54>
        (*dtor) (); 
}
 1009bd4:	e037883a 	mov	sp,fp
 1009bd8:	dfc00117 	ldw	ra,4(sp)
 1009bdc:	df000017 	ldw	fp,0(sp)
 1009be0:	dec00204 	addi	sp,sp,8
 1009be4:	f800283a 	ret

01009be8 <alt_find_dev>:
 * "name" must be an exact match for the devices registered name for a match to
 * be found.
 */
 
alt_dev* alt_find_dev(const char* name, alt_llist* llist)
{
 1009be8:	defffa04 	addi	sp,sp,-24
 1009bec:	dfc00515 	stw	ra,20(sp)
 1009bf0:	df000415 	stw	fp,16(sp)
 1009bf4:	df000404 	addi	fp,sp,16
 1009bf8:	e13ffe15 	stw	r4,-8(fp)
 1009bfc:	e17fff15 	stw	r5,-4(fp)
  alt_dev* next = (alt_dev*) llist->next;
 1009c00:	e0bfff17 	ldw	r2,-4(fp)
 1009c04:	10800017 	ldw	r2,0(r2)
 1009c08:	e0bffc15 	stw	r2,-16(fp)
  alt_32 len;

  len  = strlen(name) + 1;
 1009c0c:	e13ffe17 	ldw	r4,-8(fp)
 1009c10:	1007a5c0 	call	1007a5c <strlen>
 1009c14:	10800044 	addi	r2,r2,1
 1009c18:	e0bffd15 	stw	r2,-12(fp)
  /*
   * Check each list entry in turn, until a match is found, or we reach the
   * end of the list (i.e. next winds up pointing back to the list head).
   */ 

  while (next != (alt_dev*) llist)
 1009c1c:	00000d06 	br	1009c54 <alt_find_dev+0x6c>
    /* 
     * memcmp() is used here rather than strcmp() in order to reduce the size
     * of the executable.
     */

    if (!memcmp (next->name, name, len))
 1009c20:	e0bffc17 	ldw	r2,-16(fp)
 1009c24:	10c00217 	ldw	r3,8(r2)
 1009c28:	e0bffd17 	ldw	r2,-12(fp)
 1009c2c:	1809883a 	mov	r4,r3
 1009c30:	e17ffe17 	ldw	r5,-8(fp)
 1009c34:	100d883a 	mov	r6,r2
 1009c38:	100a7c80 	call	100a7c8 <memcmp>
 1009c3c:	1000021e 	bne	r2,zero,1009c48 <alt_find_dev+0x60>
    {
      /* match found */

      return next;
 1009c40:	e0bffc17 	ldw	r2,-16(fp)
 1009c44:	00000706 	br	1009c64 <alt_find_dev+0x7c>
    }
    next = (alt_dev*) next->llist.next;
 1009c48:	e0bffc17 	ldw	r2,-16(fp)
 1009c4c:	10800017 	ldw	r2,0(r2)
 1009c50:	e0bffc15 	stw	r2,-16(fp)
  /*
   * Check each list entry in turn, until a match is found, or we reach the
   * end of the list (i.e. next winds up pointing back to the list head).
   */ 

  while (next != (alt_dev*) llist)
 1009c54:	e0fffc17 	ldw	r3,-16(fp)
 1009c58:	e0bfff17 	ldw	r2,-4(fp)
 1009c5c:	18bff01e 	bne	r3,r2,1009c20 <__alt_data_end+0xfffe8cc8>
    next = (alt_dev*) next->llist.next;
  }
  
  /* No match found */
  
  return NULL;
 1009c60:	0005883a 	mov	r2,zero
}
 1009c64:	e037883a 	mov	sp,fp
 1009c68:	dfc00117 	ldw	ra,4(sp)
 1009c6c:	df000017 	ldw	fp,0(sp)
 1009c70:	dec00204 	addi	sp,sp,8
 1009c74:	f800283a 	ret

01009c78 <alt_icache_flush_all>:
/*
 * alt_icache_flush_all() is called to flush the entire instruction cache.
 */

void alt_icache_flush_all (void)
{
 1009c78:	defffe04 	addi	sp,sp,-8
 1009c7c:	dfc00115 	stw	ra,4(sp)
 1009c80:	df000015 	stw	fp,0(sp)
 1009c84:	d839883a 	mov	fp,sp
#if NIOS2_ICACHE_SIZE > 0
  alt_icache_flush (0, NIOS2_ICACHE_SIZE);
 1009c88:	0009883a 	mov	r4,zero
 1009c8c:	01440004 	movi	r5,4096
 1009c90:	100a7080 	call	100a708 <alt_icache_flush>
#endif
}
 1009c94:	e037883a 	mov	sp,fp
 1009c98:	dfc00117 	ldw	ra,4(sp)
 1009c9c:	df000017 	ldw	fp,0(sp)
 1009ca0:	dec00204 	addi	sp,sp,8
 1009ca4:	f800283a 	ret

01009ca8 <alt_ic_isr_register>:
  * @param irq              IRQ number
  * @return                 0 if successful, else error (-1)
  */
int alt_ic_isr_register(alt_u32 ic_id, alt_u32 irq, alt_isr_func isr, 
  void *isr_context, void *flags)
{
 1009ca8:	defff904 	addi	sp,sp,-28
 1009cac:	dfc00615 	stw	ra,24(sp)
 1009cb0:	df000515 	stw	fp,20(sp)
 1009cb4:	df000504 	addi	fp,sp,20
 1009cb8:	e13ffc15 	stw	r4,-16(fp)
 1009cbc:	e17ffd15 	stw	r5,-12(fp)
 1009cc0:	e1bffe15 	stw	r6,-8(fp)
 1009cc4:	e1ffff15 	stw	r7,-4(fp)
    return alt_iic_isr_register(ic_id, irq, isr, isr_context, flags);
 1009cc8:	e0800217 	ldw	r2,8(fp)
 1009ccc:	d8800015 	stw	r2,0(sp)
 1009cd0:	e13ffc17 	ldw	r4,-16(fp)
 1009cd4:	e17ffd17 	ldw	r5,-12(fp)
 1009cd8:	e1bffe17 	ldw	r6,-8(fp)
 1009cdc:	e1ffff17 	ldw	r7,-4(fp)
 1009ce0:	1009e880 	call	1009e88 <alt_iic_isr_register>
}  
 1009ce4:	e037883a 	mov	sp,fp
 1009ce8:	dfc00117 	ldw	ra,4(sp)
 1009cec:	df000017 	ldw	fp,0(sp)
 1009cf0:	dec00204 	addi	sp,sp,8
 1009cf4:	f800283a 	ret

01009cf8 <alt_ic_irq_enable>:
  * @param ic_id            Ignored.
  * @param irq              IRQ number
  * @return                 0 if successful, else error (-1)
  */
int alt_ic_irq_enable (alt_u32 ic_id, alt_u32 irq)
{
 1009cf8:	defff904 	addi	sp,sp,-28
 1009cfc:	df000615 	stw	fp,24(sp)
 1009d00:	df000604 	addi	fp,sp,24
 1009d04:	e13ffe15 	stw	r4,-8(fp)
 1009d08:	e17fff15 	stw	r5,-4(fp)
 1009d0c:	e0bfff17 	ldw	r2,-4(fp)
 1009d10:	e0bffa15 	stw	r2,-24(fp)
static ALT_INLINE alt_irq_context ALT_ALWAYS_INLINE 
       alt_irq_disable_all (void)
{
  alt_irq_context context;

  NIOS2_READ_STATUS (context);
 1009d14:	0005303a 	rdctl	r2,status
 1009d18:	e0bffb15 	stw	r2,-20(fp)

  NIOS2_WRITE_STATUS (context & ~NIOS2_STATUS_PIE_MSK);
 1009d1c:	e0fffb17 	ldw	r3,-20(fp)
 1009d20:	00bfff84 	movi	r2,-2
 1009d24:	1884703a 	and	r2,r3,r2
 1009d28:	1001703a 	wrctl	status,r2
  
  return context;
 1009d2c:	e0bffb17 	ldw	r2,-20(fp)
static ALT_INLINE int ALT_ALWAYS_INLINE alt_irq_enable (alt_u32 id)
{
  alt_irq_context  status;
  extern volatile alt_u32 alt_irq_active;

  status = alt_irq_disable_all ();
 1009d30:	e0bffc15 	stw	r2,-16(fp)

  alt_irq_active |= (1 << id);
 1009d34:	e0bffa17 	ldw	r2,-24(fp)
 1009d38:	00c00044 	movi	r3,1
 1009d3c:	1884983a 	sll	r2,r3,r2
 1009d40:	1007883a 	mov	r3,r2
 1009d44:	00804074 	movhi	r2,257
 1009d48:	10af8804 	addi	r2,r2,-16864
 1009d4c:	10800017 	ldw	r2,0(r2)
 1009d50:	1886b03a 	or	r3,r3,r2
 1009d54:	00804074 	movhi	r2,257
 1009d58:	10af8804 	addi	r2,r2,-16864
 1009d5c:	10c00015 	stw	r3,0(r2)
  NIOS2_WRITE_IENABLE (alt_irq_active);
 1009d60:	00804074 	movhi	r2,257
 1009d64:	10af8804 	addi	r2,r2,-16864
 1009d68:	10800017 	ldw	r2,0(r2)
 1009d6c:	100170fa 	wrctl	ienable,r2
 1009d70:	e0bffc17 	ldw	r2,-16(fp)
 1009d74:	e0bffd15 	stw	r2,-12(fp)
  status &= ~NIOS2_STATUS_PIE_MSK;
  status |= (context & NIOS2_STATUS_PIE_MSK);
  
  NIOS2_WRITE_STATUS (status);
#else
  NIOS2_WRITE_STATUS (context);
 1009d78:	e0bffd17 	ldw	r2,-12(fp)
 1009d7c:	1001703a 	wrctl	status,r2

  alt_irq_enable_all(status);

  return 0;
 1009d80:	0005883a 	mov	r2,zero
    return alt_irq_enable(irq);
 1009d84:	0001883a 	nop
}
 1009d88:	e037883a 	mov	sp,fp
 1009d8c:	df000017 	ldw	fp,0(sp)
 1009d90:	dec00104 	addi	sp,sp,4
 1009d94:	f800283a 	ret

01009d98 <alt_ic_irq_disable>:
  * @param ic_id            Ignored.
  * @param irq              IRQ number
  * @return                 0 if successful, else error (-1)
  */
int alt_ic_irq_disable(alt_u32 ic_id, alt_u32 irq)
{
 1009d98:	defff904 	addi	sp,sp,-28
 1009d9c:	df000615 	stw	fp,24(sp)
 1009da0:	df000604 	addi	fp,sp,24
 1009da4:	e13ffe15 	stw	r4,-8(fp)
 1009da8:	e17fff15 	stw	r5,-4(fp)
 1009dac:	e0bfff17 	ldw	r2,-4(fp)
 1009db0:	e0bffa15 	stw	r2,-24(fp)
static ALT_INLINE alt_irq_context ALT_ALWAYS_INLINE 
       alt_irq_disable_all (void)
{
  alt_irq_context context;

  NIOS2_READ_STATUS (context);
 1009db4:	0005303a 	rdctl	r2,status
 1009db8:	e0bffb15 	stw	r2,-20(fp)

  NIOS2_WRITE_STATUS (context & ~NIOS2_STATUS_PIE_MSK);
 1009dbc:	e0fffb17 	ldw	r3,-20(fp)
 1009dc0:	00bfff84 	movi	r2,-2
 1009dc4:	1884703a 	and	r2,r3,r2
 1009dc8:	1001703a 	wrctl	status,r2
  
  return context;
 1009dcc:	e0bffb17 	ldw	r2,-20(fp)
static ALT_INLINE int ALT_ALWAYS_INLINE alt_irq_disable (alt_u32 id)
{
  alt_irq_context  status;
  extern volatile alt_u32 alt_irq_active;

  status = alt_irq_disable_all ();
 1009dd0:	e0bffc15 	stw	r2,-16(fp)

  alt_irq_active &= ~(1 << id);
 1009dd4:	e0bffa17 	ldw	r2,-24(fp)
 1009dd8:	00c00044 	movi	r3,1
 1009ddc:	1884983a 	sll	r2,r3,r2
 1009de0:	0084303a 	nor	r2,zero,r2
 1009de4:	1007883a 	mov	r3,r2
 1009de8:	00804074 	movhi	r2,257
 1009dec:	10af8804 	addi	r2,r2,-16864
 1009df0:	10800017 	ldw	r2,0(r2)
 1009df4:	1886703a 	and	r3,r3,r2
 1009df8:	00804074 	movhi	r2,257
 1009dfc:	10af8804 	addi	r2,r2,-16864
 1009e00:	10c00015 	stw	r3,0(r2)
  NIOS2_WRITE_IENABLE (alt_irq_active);
 1009e04:	00804074 	movhi	r2,257
 1009e08:	10af8804 	addi	r2,r2,-16864
 1009e0c:	10800017 	ldw	r2,0(r2)
 1009e10:	100170fa 	wrctl	ienable,r2
 1009e14:	e0bffc17 	ldw	r2,-16(fp)
 1009e18:	e0bffd15 	stw	r2,-12(fp)
  status &= ~NIOS2_STATUS_PIE_MSK;
  status |= (context & NIOS2_STATUS_PIE_MSK);
  
  NIOS2_WRITE_STATUS (status);
#else
  NIOS2_WRITE_STATUS (context);
 1009e1c:	e0bffd17 	ldw	r2,-12(fp)
 1009e20:	1001703a 	wrctl	status,r2

  alt_irq_enable_all(status);

  return 0;
 1009e24:	0005883a 	mov	r2,zero
    return alt_irq_disable(irq);
 1009e28:	0001883a 	nop
}
 1009e2c:	e037883a 	mov	sp,fp
 1009e30:	df000017 	ldw	fp,0(sp)
 1009e34:	dec00104 	addi	sp,sp,4
 1009e38:	f800283a 	ret

01009e3c <alt_ic_irq_enabled>:
  * @param irq              IRQ number
  * @return                 Zero if corresponding interrupt is disabled and
  *                         non-zero otherwise.
  */
alt_u32 alt_ic_irq_enabled(alt_u32 ic_id, alt_u32 irq)
{
 1009e3c:	defffc04 	addi	sp,sp,-16
 1009e40:	df000315 	stw	fp,12(sp)
 1009e44:	df000304 	addi	fp,sp,12
 1009e48:	e13ffe15 	stw	r4,-8(fp)
 1009e4c:	e17fff15 	stw	r5,-4(fp)
    alt_u32 irq_enabled;

    NIOS2_READ_IENABLE(irq_enabled);
 1009e50:	000530fa 	rdctl	r2,ienable
 1009e54:	e0bffd15 	stw	r2,-12(fp)

    return (irq_enabled & (1 << irq)) ? 1: 0;
 1009e58:	e0bfff17 	ldw	r2,-4(fp)
 1009e5c:	00c00044 	movi	r3,1
 1009e60:	1884983a 	sll	r2,r3,r2
 1009e64:	1007883a 	mov	r3,r2
 1009e68:	e0bffd17 	ldw	r2,-12(fp)
 1009e6c:	1884703a 	and	r2,r3,r2
 1009e70:	1004c03a 	cmpne	r2,r2,zero
 1009e74:	10803fcc 	andi	r2,r2,255
}
 1009e78:	e037883a 	mov	sp,fp
 1009e7c:	df000017 	ldw	fp,0(sp)
 1009e80:	dec00104 	addi	sp,sp,4
 1009e84:	f800283a 	ret

01009e88 <alt_iic_isr_register>:
  * @param flags            
  * @return                 0 if successful, else error (-1)
  */
int alt_iic_isr_register(alt_u32 ic_id, alt_u32 irq, alt_isr_func isr, 
  void *isr_context, void *flags)
{
 1009e88:	defff504 	addi	sp,sp,-44
 1009e8c:	dfc00a15 	stw	ra,40(sp)
 1009e90:	df000915 	stw	fp,36(sp)
 1009e94:	df000904 	addi	fp,sp,36
 1009e98:	e13ffc15 	stw	r4,-16(fp)
 1009e9c:	e17ffd15 	stw	r5,-12(fp)
 1009ea0:	e1bffe15 	stw	r6,-8(fp)
 1009ea4:	e1ffff15 	stw	r7,-4(fp)
  int rc = -EINVAL;  
 1009ea8:	00bffa84 	movi	r2,-22
 1009eac:	e0bff715 	stw	r2,-36(fp)
  int id = irq;             /* IRQ interpreted as the interrupt ID. */
 1009eb0:	e0bffd17 	ldw	r2,-12(fp)
 1009eb4:	e0bff815 	stw	r2,-32(fp)
  alt_irq_context status;

  if (id < ALT_NIRQ)
 1009eb8:	e0bff817 	ldw	r2,-32(fp)
 1009ebc:	10800808 	cmpgei	r2,r2,32
 1009ec0:	1000271e 	bne	r2,zero,1009f60 <alt_iic_isr_register+0xd8>
static ALT_INLINE alt_irq_context ALT_ALWAYS_INLINE 
       alt_irq_disable_all (void)
{
  alt_irq_context context;

  NIOS2_READ_STATUS (context);
 1009ec4:	0005303a 	rdctl	r2,status
 1009ec8:	e0bffa15 	stw	r2,-24(fp)

  NIOS2_WRITE_STATUS (context & ~NIOS2_STATUS_PIE_MSK);
 1009ecc:	e0fffa17 	ldw	r3,-24(fp)
 1009ed0:	00bfff84 	movi	r2,-2
 1009ed4:	1884703a 	and	r2,r3,r2
 1009ed8:	1001703a 	wrctl	status,r2
  
  return context;
 1009edc:	e0bffa17 	ldw	r2,-24(fp)
     * interrupts are disabled while the handler tables are updated to ensure
     * that an interrupt doesn't occur while the tables are in an inconsistant
     * state.
     */

    status = alt_irq_disable_all();
 1009ee0:	e0bff915 	stw	r2,-28(fp)

    alt_irq[id].handler = isr;
 1009ee4:	00804074 	movhi	r2,257
 1009ee8:	10b14e04 	addi	r2,r2,-15048
 1009eec:	e0fff817 	ldw	r3,-32(fp)
 1009ef0:	180690fa 	slli	r3,r3,3
 1009ef4:	10c5883a 	add	r2,r2,r3
 1009ef8:	e0fffe17 	ldw	r3,-8(fp)
 1009efc:	10c00015 	stw	r3,0(r2)
    alt_irq[id].context = isr_context;
 1009f00:	00804074 	movhi	r2,257
 1009f04:	10b14e04 	addi	r2,r2,-15048
 1009f08:	e0fff817 	ldw	r3,-32(fp)
 1009f0c:	180690fa 	slli	r3,r3,3
 1009f10:	10c5883a 	add	r2,r2,r3
 1009f14:	10800104 	addi	r2,r2,4
 1009f18:	e0ffff17 	ldw	r3,-4(fp)
 1009f1c:	10c00015 	stw	r3,0(r2)

    rc = (isr) ? alt_ic_irq_enable(ic_id, id) : alt_ic_irq_disable(ic_id, id);
 1009f20:	e0bffe17 	ldw	r2,-8(fp)
 1009f24:	10000526 	beq	r2,zero,1009f3c <alt_iic_isr_register+0xb4>
 1009f28:	e0bff817 	ldw	r2,-32(fp)
 1009f2c:	e13ffc17 	ldw	r4,-16(fp)
 1009f30:	100b883a 	mov	r5,r2
 1009f34:	1009cf80 	call	1009cf8 <alt_ic_irq_enable>
 1009f38:	00000406 	br	1009f4c <alt_iic_isr_register+0xc4>
 1009f3c:	e0bff817 	ldw	r2,-32(fp)
 1009f40:	e13ffc17 	ldw	r4,-16(fp)
 1009f44:	100b883a 	mov	r5,r2
 1009f48:	1009d980 	call	1009d98 <alt_ic_irq_disable>
 1009f4c:	e0bff715 	stw	r2,-36(fp)
 1009f50:	e0bff917 	ldw	r2,-28(fp)
 1009f54:	e0bffb15 	stw	r2,-20(fp)
  status &= ~NIOS2_STATUS_PIE_MSK;
  status |= (context & NIOS2_STATUS_PIE_MSK);
  
  NIOS2_WRITE_STATUS (status);
#else
  NIOS2_WRITE_STATUS (context);
 1009f58:	e0bffb17 	ldw	r2,-20(fp)
 1009f5c:	1001703a 	wrctl	status,r2

    alt_irq_enable_all(status);
  }

  return rc; 
 1009f60:	e0bff717 	ldw	r2,-36(fp)
}
 1009f64:	e037883a 	mov	sp,fp
 1009f68:	dfc00117 	ldw	ra,4(sp)
 1009f6c:	df000017 	ldw	fp,0(sp)
 1009f70:	dec00204 	addi	sp,sp,8
 1009f74:	f800283a 	ret

01009f78 <alt_open_fd>:
 * If the device can not be succesfully opened, then the input file descriptor
 * remains unchanged.
 */

static void alt_open_fd(alt_fd* fd, const char* name, int flags, int mode)
{
 1009f78:	defff904 	addi	sp,sp,-28
 1009f7c:	dfc00615 	stw	ra,24(sp)
 1009f80:	df000515 	stw	fp,20(sp)
 1009f84:	df000504 	addi	fp,sp,20
 1009f88:	e13ffc15 	stw	r4,-16(fp)
 1009f8c:	e17ffd15 	stw	r5,-12(fp)
 1009f90:	e1bffe15 	stw	r6,-8(fp)
 1009f94:	e1ffff15 	stw	r7,-4(fp)
  int old;

  old = open (name, flags, mode);
 1009f98:	e13ffd17 	ldw	r4,-12(fp)
 1009f9c:	e17ffe17 	ldw	r5,-8(fp)
 1009fa0:	e1bfff17 	ldw	r6,-4(fp)
 1009fa4:	100a1cc0 	call	100a1cc <open>
 1009fa8:	e0bffb15 	stw	r2,-20(fp)

  if (old >= 0)
 1009fac:	e0bffb17 	ldw	r2,-20(fp)
 1009fb0:	10001c16 	blt	r2,zero,100a024 <alt_open_fd+0xac>
  {
    fd->dev      = alt_fd_list[old].dev;
 1009fb4:	00804074 	movhi	r2,257
 1009fb8:	10ad2104 	addi	r2,r2,-19324
 1009fbc:	e0fffb17 	ldw	r3,-20(fp)
 1009fc0:	18c00324 	muli	r3,r3,12
 1009fc4:	10c5883a 	add	r2,r2,r3
 1009fc8:	10c00017 	ldw	r3,0(r2)
 1009fcc:	e0bffc17 	ldw	r2,-16(fp)
 1009fd0:	10c00015 	stw	r3,0(r2)
    fd->priv     = alt_fd_list[old].priv;
 1009fd4:	00804074 	movhi	r2,257
 1009fd8:	10ad2104 	addi	r2,r2,-19324
 1009fdc:	e0fffb17 	ldw	r3,-20(fp)
 1009fe0:	18c00324 	muli	r3,r3,12
 1009fe4:	10c5883a 	add	r2,r2,r3
 1009fe8:	10800104 	addi	r2,r2,4
 1009fec:	10c00017 	ldw	r3,0(r2)
 1009ff0:	e0bffc17 	ldw	r2,-16(fp)
 1009ff4:	10c00115 	stw	r3,4(r2)
    fd->fd_flags = alt_fd_list[old].fd_flags;
 1009ff8:	00804074 	movhi	r2,257
 1009ffc:	10ad2104 	addi	r2,r2,-19324
 100a000:	e0fffb17 	ldw	r3,-20(fp)
 100a004:	18c00324 	muli	r3,r3,12
 100a008:	10c5883a 	add	r2,r2,r3
 100a00c:	10800204 	addi	r2,r2,8
 100a010:	10c00017 	ldw	r3,0(r2)
 100a014:	e0bffc17 	ldw	r2,-16(fp)
 100a018:	10c00215 	stw	r3,8(r2)

    alt_release_fd (old);
 100a01c:	e13ffb17 	ldw	r4,-20(fp)
 100a020:	100a3240 	call	100a324 <alt_release_fd>
  }
} 
 100a024:	e037883a 	mov	sp,fp
 100a028:	dfc00117 	ldw	ra,4(sp)
 100a02c:	df000017 	ldw	fp,0(sp)
 100a030:	dec00204 	addi	sp,sp,8
 100a034:	f800283a 	ret

0100a038 <alt_io_redirect>:
 */
 
void alt_io_redirect(const char* stdout_dev, 
                     const char* stdin_dev, 
                     const char* stderr_dev)
{
 100a038:	defffb04 	addi	sp,sp,-20
 100a03c:	dfc00415 	stw	ra,16(sp)
 100a040:	df000315 	stw	fp,12(sp)
 100a044:	df000304 	addi	fp,sp,12
 100a048:	e13ffd15 	stw	r4,-12(fp)
 100a04c:	e17ffe15 	stw	r5,-8(fp)
 100a050:	e1bfff15 	stw	r6,-4(fp)
  /* Redirect the channels */

  alt_open_fd (&alt_fd_list[STDOUT_FILENO], stdout_dev, O_WRONLY, 0777);
 100a054:	01004074 	movhi	r4,257
 100a058:	212d2404 	addi	r4,r4,-19312
 100a05c:	e17ffd17 	ldw	r5,-12(fp)
 100a060:	01800044 	movi	r6,1
 100a064:	01c07fc4 	movi	r7,511
 100a068:	1009f780 	call	1009f78 <alt_open_fd>
  alt_open_fd (&alt_fd_list[STDIN_FILENO], stdin_dev, O_RDONLY, 0777);
 100a06c:	01004074 	movhi	r4,257
 100a070:	212d2104 	addi	r4,r4,-19324
 100a074:	e17ffe17 	ldw	r5,-8(fp)
 100a078:	000d883a 	mov	r6,zero
 100a07c:	01c07fc4 	movi	r7,511
 100a080:	1009f780 	call	1009f78 <alt_open_fd>
  alt_open_fd (&alt_fd_list[STDERR_FILENO], stderr_dev, O_WRONLY, 0777);
 100a084:	01004074 	movhi	r4,257
 100a088:	212d2704 	addi	r4,r4,-19300
 100a08c:	e17fff17 	ldw	r5,-4(fp)
 100a090:	01800044 	movi	r6,1
 100a094:	01c07fc4 	movi	r7,511
 100a098:	1009f780 	call	1009f78 <alt_open_fd>
}  
 100a09c:	e037883a 	mov	sp,fp
 100a0a0:	dfc00117 	ldw	ra,4(sp)
 100a0a4:	df000017 	ldw	fp,0(sp)
 100a0a8:	dec00204 	addi	sp,sp,8
 100a0ac:	f800283a 	ret

0100a0b0 <alt_get_errno>:
#undef errno

extern int errno;

static ALT_INLINE int* alt_get_errno(void)
{
 100a0b0:	defffe04 	addi	sp,sp,-8
 100a0b4:	dfc00115 	stw	ra,4(sp)
 100a0b8:	df000015 	stw	fp,0(sp)
 100a0bc:	d839883a 	mov	fp,sp
  return ((alt_errno) ? alt_errno() : &errno);
 100a0c0:	00804074 	movhi	r2,257
 100a0c4:	10ad8f04 	addi	r2,r2,-18884
 100a0c8:	10800017 	ldw	r2,0(r2)
 100a0cc:	10000526 	beq	r2,zero,100a0e4 <alt_get_errno+0x34>
 100a0d0:	00804074 	movhi	r2,257
 100a0d4:	10ad8f04 	addi	r2,r2,-18884
 100a0d8:	10800017 	ldw	r2,0(r2)
 100a0dc:	103ee83a 	callr	r2
 100a0e0:	00000206 	br	100a0ec <alt_get_errno+0x3c>
 100a0e4:	00804074 	movhi	r2,257
 100a0e8:	10af8704 	addi	r2,r2,-16868
}
 100a0ec:	e037883a 	mov	sp,fp
 100a0f0:	dfc00117 	ldw	ra,4(sp)
 100a0f4:	df000017 	ldw	fp,0(sp)
 100a0f8:	dec00204 	addi	sp,sp,8
 100a0fc:	f800283a 	ret

0100a100 <alt_file_locked>:
 * performed for devices. Filesystems are required to handle the ioctl() call
 * themselves, and report the error from the filesystems open() function. 
 */ 

static int alt_file_locked (alt_fd* fd)
{
 100a100:	defffd04 	addi	sp,sp,-12
 100a104:	df000215 	stw	fp,8(sp)
 100a108:	df000204 	addi	fp,sp,8
 100a10c:	e13fff15 	stw	r4,-4(fp)

  /*
   * Mark the file descriptor as belonging to a device.
   */

  fd->fd_flags |= ALT_FD_DEV;
 100a110:	e0bfff17 	ldw	r2,-4(fp)
 100a114:	10800217 	ldw	r2,8(r2)
 100a118:	10d00034 	orhi	r3,r2,16384
 100a11c:	e0bfff17 	ldw	r2,-4(fp)
 100a120:	10c00215 	stw	r3,8(r2)
  /*
   * Loop through all current file descriptors searching for one that's locked
   * for exclusive access. If a match is found, generate an error.
   */

  for (i = 0; i <= alt_max_fd; i++)
 100a124:	e03ffe15 	stw	zero,-8(fp)
 100a128:	00001d06 	br	100a1a0 <alt_file_locked+0xa0>
  {
    if ((alt_fd_list[i].dev == fd->dev) &&
 100a12c:	00804074 	movhi	r2,257
 100a130:	10ad2104 	addi	r2,r2,-19324
 100a134:	e0fffe17 	ldw	r3,-8(fp)
 100a138:	18c00324 	muli	r3,r3,12
 100a13c:	10c5883a 	add	r2,r2,r3
 100a140:	10c00017 	ldw	r3,0(r2)
 100a144:	e0bfff17 	ldw	r2,-4(fp)
 100a148:	10800017 	ldw	r2,0(r2)
 100a14c:	1880111e 	bne	r3,r2,100a194 <alt_file_locked+0x94>
        (alt_fd_list[i].fd_flags & ALT_FD_EXCL) &&
 100a150:	00804074 	movhi	r2,257
 100a154:	10ad2104 	addi	r2,r2,-19324
 100a158:	e0fffe17 	ldw	r3,-8(fp)
 100a15c:	18c00324 	muli	r3,r3,12
 100a160:	10c5883a 	add	r2,r2,r3
 100a164:	10800204 	addi	r2,r2,8
 100a168:	10800017 	ldw	r2,0(r2)
   * for exclusive access. If a match is found, generate an error.
   */

  for (i = 0; i <= alt_max_fd; i++)
  {
    if ((alt_fd_list[i].dev == fd->dev) &&
 100a16c:	1000090e 	bge	r2,zero,100a194 <alt_file_locked+0x94>
        (alt_fd_list[i].fd_flags & ALT_FD_EXCL) &&
        (&alt_fd_list[i] != fd))
 100a170:	e0bffe17 	ldw	r2,-8(fp)
 100a174:	10c00324 	muli	r3,r2,12
 100a178:	00804074 	movhi	r2,257
 100a17c:	10ad2104 	addi	r2,r2,-19324
 100a180:	1887883a 	add	r3,r3,r2
   */

  for (i = 0; i <= alt_max_fd; i++)
  {
    if ((alt_fd_list[i].dev == fd->dev) &&
        (alt_fd_list[i].fd_flags & ALT_FD_EXCL) &&
 100a184:	e0bfff17 	ldw	r2,-4(fp)
 100a188:	18800226 	beq	r3,r2,100a194 <alt_file_locked+0x94>
        (&alt_fd_list[i] != fd))
    {
      return -EACCES;
 100a18c:	00bffcc4 	movi	r2,-13
 100a190:	00000a06 	br	100a1bc <alt_file_locked+0xbc>
  /*
   * Loop through all current file descriptors searching for one that's locked
   * for exclusive access. If a match is found, generate an error.
   */

  for (i = 0; i <= alt_max_fd; i++)
 100a194:	e0bffe17 	ldw	r2,-8(fp)
 100a198:	10800044 	addi	r2,r2,1
 100a19c:	e0bffe15 	stw	r2,-8(fp)
 100a1a0:	00804074 	movhi	r2,257
 100a1a4:	10ad8a04 	addi	r2,r2,-18904
 100a1a8:	10800017 	ldw	r2,0(r2)
 100a1ac:	1007883a 	mov	r3,r2
 100a1b0:	e0bffe17 	ldw	r2,-8(fp)
 100a1b4:	18bfdd2e 	bgeu	r3,r2,100a12c <__alt_data_end+0xfffe91d4>
    }
  }
  
  /* The device is not locked */
 
  return 0;
 100a1b8:	0005883a 	mov	r2,zero
}
 100a1bc:	e037883a 	mov	sp,fp
 100a1c0:	df000017 	ldw	fp,0(sp)
 100a1c4:	dec00104 	addi	sp,sp,4
 100a1c8:	f800283a 	ret

0100a1cc <open>:
 *
 * ALT_OPEN is mapped onto the open() system call in alt_syscall.h
 */
 
int ALT_OPEN (const char* file, int flags, int mode)
{ 
 100a1cc:	defff604 	addi	sp,sp,-40
 100a1d0:	dfc00915 	stw	ra,36(sp)
 100a1d4:	df000815 	stw	fp,32(sp)
 100a1d8:	df000804 	addi	fp,sp,32
 100a1dc:	e13ffd15 	stw	r4,-12(fp)
 100a1e0:	e17ffe15 	stw	r5,-8(fp)
 100a1e4:	e1bfff15 	stw	r6,-4(fp)
  alt_dev* dev;
  alt_fd*  fd;
  int index  = -1;
 100a1e8:	00bfffc4 	movi	r2,-1
 100a1ec:	e0bff915 	stw	r2,-28(fp)
  int status = -ENODEV;
 100a1f0:	00bffb44 	movi	r2,-19
 100a1f4:	e0bffa15 	stw	r2,-24(fp)
  int isafs = 0;
 100a1f8:	e03ffb15 	stw	zero,-20(fp)
  /* 
   * Check the device list, to see if a device with a matching name is 
   * registered.
   */
  
  if (!(dev = alt_find_dev (file, &alt_dev_list)))
 100a1fc:	e13ffd17 	ldw	r4,-12(fp)
 100a200:	01404074 	movhi	r5,257
 100a204:	296d8804 	addi	r5,r5,-18912
 100a208:	1009be80 	call	1009be8 <alt_find_dev>
 100a20c:	e0bff815 	stw	r2,-32(fp)
 100a210:	e0bff817 	ldw	r2,-32(fp)
 100a214:	1000051e 	bne	r2,zero,100a22c <open+0x60>
  {
    /* No matching device, so try the filesystem list */

    dev   = alt_find_file (file);
 100a218:	e13ffd17 	ldw	r4,-12(fp)
 100a21c:	100a5400 	call	100a540 <alt_find_file>
 100a220:	e0bff815 	stw	r2,-32(fp)
    isafs = 1;
 100a224:	00800044 	movi	r2,1
 100a228:	e0bffb15 	stw	r2,-20(fp)

  /* 
   * If a matching device or filesystem is found, allocate a file descriptor. 
   */

  if (dev)
 100a22c:	e0bff817 	ldw	r2,-32(fp)
 100a230:	10002926 	beq	r2,zero,100a2d8 <open+0x10c>
  {
    if ((index = alt_get_fd (dev)) < 0)
 100a234:	e13ff817 	ldw	r4,-32(fp)
 100a238:	100a6540 	call	100a654 <alt_get_fd>
 100a23c:	e0bff915 	stw	r2,-28(fp)
 100a240:	e0bff917 	ldw	r2,-28(fp)
 100a244:	1000030e 	bge	r2,zero,100a254 <open+0x88>
    {
      status = index;
 100a248:	e0bff917 	ldw	r2,-28(fp)
 100a24c:	e0bffa15 	stw	r2,-24(fp)
 100a250:	00002306 	br	100a2e0 <open+0x114>
    }
    else
    {
      fd = &alt_fd_list[index];
 100a254:	e0bff917 	ldw	r2,-28(fp)
 100a258:	10c00324 	muli	r3,r2,12
 100a25c:	00804074 	movhi	r2,257
 100a260:	10ad2104 	addi	r2,r2,-19324
 100a264:	1885883a 	add	r2,r3,r2
 100a268:	e0bffc15 	stw	r2,-16(fp)
      fd->fd_flags = (flags & ~ALT_FD_FLAGS_MASK);
 100a26c:	e0fffe17 	ldw	r3,-8(fp)
 100a270:	00900034 	movhi	r2,16384
 100a274:	10bfffc4 	addi	r2,r2,-1
 100a278:	1886703a 	and	r3,r3,r2
 100a27c:	e0bffc17 	ldw	r2,-16(fp)
 100a280:	10c00215 	stw	r3,8(r2)
      
      /* If this is a device, ensure it isn't already locked */

      if (isafs || ((status = alt_file_locked (fd)) >= 0))
 100a284:	e0bffb17 	ldw	r2,-20(fp)
 100a288:	1000051e 	bne	r2,zero,100a2a0 <open+0xd4>
 100a28c:	e13ffc17 	ldw	r4,-16(fp)
 100a290:	100a1000 	call	100a100 <alt_file_locked>
 100a294:	e0bffa15 	stw	r2,-24(fp)
 100a298:	e0bffa17 	ldw	r2,-24(fp)
 100a29c:	10001016 	blt	r2,zero,100a2e0 <open+0x114>
        /* 
         * If the device or filesystem provides an open() callback function,
         * call it now to perform any device/filesystem specific operations.
         */
    
        status = (dev->open) ? dev->open(fd, file, flags, mode): 0;
 100a2a0:	e0bff817 	ldw	r2,-32(fp)
 100a2a4:	10800317 	ldw	r2,12(r2)
 100a2a8:	10000826 	beq	r2,zero,100a2cc <open+0x100>
 100a2ac:	e0bff817 	ldw	r2,-32(fp)
 100a2b0:	10800317 	ldw	r2,12(r2)
 100a2b4:	e13ffc17 	ldw	r4,-16(fp)
 100a2b8:	e17ffd17 	ldw	r5,-12(fp)
 100a2bc:	e1bffe17 	ldw	r6,-8(fp)
 100a2c0:	e1ffff17 	ldw	r7,-4(fp)
 100a2c4:	103ee83a 	callr	r2
 100a2c8:	00000106 	br	100a2d0 <open+0x104>
 100a2cc:	0005883a 	mov	r2,zero
 100a2d0:	e0bffa15 	stw	r2,-24(fp)
 100a2d4:	00000206 	br	100a2e0 <open+0x114>
      }
    }
  }
  else
  {
    status = -ENODEV;
 100a2d8:	00bffb44 	movi	r2,-19
 100a2dc:	e0bffa15 	stw	r2,-24(fp)
  }

  /* Allocation failed, so clean up and return an error */ 

  if (status < 0)
 100a2e0:	e0bffa17 	ldw	r2,-24(fp)
 100a2e4:	1000090e 	bge	r2,zero,100a30c <open+0x140>
  {
    alt_release_fd (index);  
 100a2e8:	e13ff917 	ldw	r4,-28(fp)
 100a2ec:	100a3240 	call	100a324 <alt_release_fd>
    ALT_ERRNO = -status;
 100a2f0:	100a0b00 	call	100a0b0 <alt_get_errno>
 100a2f4:	1007883a 	mov	r3,r2
 100a2f8:	e0bffa17 	ldw	r2,-24(fp)
 100a2fc:	0085c83a 	sub	r2,zero,r2
 100a300:	18800015 	stw	r2,0(r3)
    return -1;
 100a304:	00bfffc4 	movi	r2,-1
 100a308:	00000106 	br	100a310 <open+0x144>
  }
  
  /* return the reference upon success */

  return index;
 100a30c:	e0bff917 	ldw	r2,-28(fp)
}
 100a310:	e037883a 	mov	sp,fp
 100a314:	dfc00117 	ldw	ra,4(sp)
 100a318:	df000017 	ldw	fp,0(sp)
 100a31c:	dec00204 	addi	sp,sp,8
 100a320:	f800283a 	ret

0100a324 <alt_release_fd>:
 * File descriptors correcponding to standard in, standard out and standard 
 * error cannont be released backed to the pool. They are always reserved.
 */

void alt_release_fd (int fd)
{
 100a324:	defffe04 	addi	sp,sp,-8
 100a328:	df000115 	stw	fp,4(sp)
 100a32c:	df000104 	addi	fp,sp,4
 100a330:	e13fff15 	stw	r4,-4(fp)
  if (fd > 2)
 100a334:	e0bfff17 	ldw	r2,-4(fp)
 100a338:	108000d0 	cmplti	r2,r2,3
 100a33c:	10000d1e 	bne	r2,zero,100a374 <alt_release_fd+0x50>
  {
    alt_fd_list[fd].fd_flags = 0;
 100a340:	00804074 	movhi	r2,257
 100a344:	10ad2104 	addi	r2,r2,-19324
 100a348:	e0ffff17 	ldw	r3,-4(fp)
 100a34c:	18c00324 	muli	r3,r3,12
 100a350:	10c5883a 	add	r2,r2,r3
 100a354:	10800204 	addi	r2,r2,8
 100a358:	10000015 	stw	zero,0(r2)
    alt_fd_list[fd].dev      = 0;
 100a35c:	00804074 	movhi	r2,257
 100a360:	10ad2104 	addi	r2,r2,-19324
 100a364:	e0ffff17 	ldw	r3,-4(fp)
 100a368:	18c00324 	muli	r3,r3,12
 100a36c:	10c5883a 	add	r2,r2,r3
 100a370:	10000015 	stw	zero,0(r2)
  }
}
 100a374:	e037883a 	mov	sp,fp
 100a378:	df000017 	ldw	fp,0(sp)
 100a37c:	dec00104 	addi	sp,sp,4
 100a380:	f800283a 	ret

0100a384 <alt_alarm_stop>:
 * alarms. Alternatively an alarm can unregister itself by returning zero when 
 * the alarm executes.
 */

void alt_alarm_stop (alt_alarm* alarm)
{
 100a384:	defffa04 	addi	sp,sp,-24
 100a388:	df000515 	stw	fp,20(sp)
 100a38c:	df000504 	addi	fp,sp,20
 100a390:	e13fff15 	stw	r4,-4(fp)
static ALT_INLINE alt_irq_context ALT_ALWAYS_INLINE 
       alt_irq_disable_all (void)
{
  alt_irq_context context;

  NIOS2_READ_STATUS (context);
 100a394:	0005303a 	rdctl	r2,status
 100a398:	e0bffc15 	stw	r2,-16(fp)

  NIOS2_WRITE_STATUS (context & ~NIOS2_STATUS_PIE_MSK);
 100a39c:	e0fffc17 	ldw	r3,-16(fp)
 100a3a0:	00bfff84 	movi	r2,-2
 100a3a4:	1884703a 	and	r2,r3,r2
 100a3a8:	1001703a 	wrctl	status,r2
  
  return context;
 100a3ac:	e0bffc17 	ldw	r2,-16(fp)
  alt_irq_context irq_context;

  irq_context = alt_irq_disable_all();
 100a3b0:	e0bffb15 	stw	r2,-20(fp)
  alt_llist_remove (&alarm->llist);
 100a3b4:	e0bfff17 	ldw	r2,-4(fp)
 100a3b8:	e0bffd15 	stw	r2,-12(fp)
 * input argument is the element to remove.
 */
     
static ALT_INLINE void ALT_ALWAYS_INLINE alt_llist_remove(alt_llist* entry)
{
  entry->next->previous = entry->previous;
 100a3bc:	e0bffd17 	ldw	r2,-12(fp)
 100a3c0:	10800017 	ldw	r2,0(r2)
 100a3c4:	e0fffd17 	ldw	r3,-12(fp)
 100a3c8:	18c00117 	ldw	r3,4(r3)
 100a3cc:	10c00115 	stw	r3,4(r2)
  entry->previous->next = entry->next;
 100a3d0:	e0bffd17 	ldw	r2,-12(fp)
 100a3d4:	10800117 	ldw	r2,4(r2)
 100a3d8:	e0fffd17 	ldw	r3,-12(fp)
 100a3dc:	18c00017 	ldw	r3,0(r3)
 100a3e0:	10c00015 	stw	r3,0(r2)
  /* 
   * Set the entry to point to itself, so that any further calls to
   * alt_llist_remove() are harmless.
   */

  entry->previous = entry;
 100a3e4:	e0bffd17 	ldw	r2,-12(fp)
 100a3e8:	e0fffd17 	ldw	r3,-12(fp)
 100a3ec:	10c00115 	stw	r3,4(r2)
  entry->next     = entry;
 100a3f0:	e0bffd17 	ldw	r2,-12(fp)
 100a3f4:	e0fffd17 	ldw	r3,-12(fp)
 100a3f8:	10c00015 	stw	r3,0(r2)
 100a3fc:	e0bffb17 	ldw	r2,-20(fp)
 100a400:	e0bffe15 	stw	r2,-8(fp)
  status &= ~NIOS2_STATUS_PIE_MSK;
  status |= (context & NIOS2_STATUS_PIE_MSK);
  
  NIOS2_WRITE_STATUS (status);
#else
  NIOS2_WRITE_STATUS (context);
 100a404:	e0bffe17 	ldw	r2,-8(fp)
 100a408:	1001703a 	wrctl	status,r2
  alt_irq_enable_all (irq_context);
}
 100a40c:	e037883a 	mov	sp,fp
 100a410:	df000017 	ldw	fp,0(sp)
 100a414:	dec00104 	addi	sp,sp,4
 100a418:	f800283a 	ret

0100a41c <alt_tick>:
 * 
 * alt_tick() is expected to run at interrupt level.
 */

void alt_tick (void)
{
 100a41c:	defffb04 	addi	sp,sp,-20
 100a420:	dfc00415 	stw	ra,16(sp)
 100a424:	df000315 	stw	fp,12(sp)
 100a428:	df000304 	addi	fp,sp,12
  alt_alarm* next;
  alt_alarm* alarm = (alt_alarm*) alt_alarm_list.next;
 100a42c:	d0a00f17 	ldw	r2,-32708(gp)
 100a430:	e0bffd15 	stw	r2,-12(fp)

  alt_u32    next_callback;

  /* update the tick counter */

  _alt_nticks++;
 100a434:	d0a20c17 	ldw	r2,-30672(gp)
 100a438:	10800044 	addi	r2,r2,1
 100a43c:	d0a20c15 	stw	r2,-30672(gp)

  /* process the registered callbacks */

  while (alarm != (alt_alarm*) &alt_alarm_list)
 100a440:	00002e06 	br	100a4fc <alt_tick+0xe0>
  {
    next = (alt_alarm*) alarm->llist.next;
 100a444:	e0bffd17 	ldw	r2,-12(fp)
 100a448:	10800017 	ldw	r2,0(r2)
 100a44c:	e0bffe15 	stw	r2,-8(fp)
    /* 
     * Upon the tick-counter rolling over it is safe to clear the 
     * roll-over flag; once the flag is cleared this (or subsequnt)
     * tick events are enabled to generate an alarm event. 
     */
    if ((alarm->rollover) && (_alt_nticks == 0))
 100a450:	e0bffd17 	ldw	r2,-12(fp)
 100a454:	10800403 	ldbu	r2,16(r2)
 100a458:	10803fcc 	andi	r2,r2,255
 100a45c:	10000426 	beq	r2,zero,100a470 <alt_tick+0x54>
 100a460:	d0a20c17 	ldw	r2,-30672(gp)
 100a464:	1000021e 	bne	r2,zero,100a470 <alt_tick+0x54>
    {
      alarm->rollover = 0;
 100a468:	e0bffd17 	ldw	r2,-12(fp)
 100a46c:	10000405 	stb	zero,16(r2)
    }
    
    /* if the alarm period has expired, make the callback */    
    if ((alarm->time <= _alt_nticks) && (alarm->rollover == 0))
 100a470:	e0bffd17 	ldw	r2,-12(fp)
 100a474:	10800217 	ldw	r2,8(r2)
 100a478:	d0e20c17 	ldw	r3,-30672(gp)
 100a47c:	18801d36 	bltu	r3,r2,100a4f4 <alt_tick+0xd8>
 100a480:	e0bffd17 	ldw	r2,-12(fp)
 100a484:	10800403 	ldbu	r2,16(r2)
 100a488:	10803fcc 	andi	r2,r2,255
 100a48c:	1000191e 	bne	r2,zero,100a4f4 <alt_tick+0xd8>
    {
      next_callback = alarm->callback (alarm->context);
 100a490:	e0bffd17 	ldw	r2,-12(fp)
 100a494:	10800317 	ldw	r2,12(r2)
 100a498:	e0fffd17 	ldw	r3,-12(fp)
 100a49c:	18c00517 	ldw	r3,20(r3)
 100a4a0:	1809883a 	mov	r4,r3
 100a4a4:	103ee83a 	callr	r2
 100a4a8:	e0bfff15 	stw	r2,-4(fp)

      /* deactivate the alarm if the return value is zero */

      if (next_callback == 0)
 100a4ac:	e0bfff17 	ldw	r2,-4(fp)
 100a4b0:	1000031e 	bne	r2,zero,100a4c0 <alt_tick+0xa4>
      {
        alt_alarm_stop (alarm);
 100a4b4:	e13ffd17 	ldw	r4,-12(fp)
 100a4b8:	100a3840 	call	100a384 <alt_alarm_stop>
 100a4bc:	00000d06 	br	100a4f4 <alt_tick+0xd8>
      }
      else
      {
        alarm->time += next_callback;
 100a4c0:	e0bffd17 	ldw	r2,-12(fp)
 100a4c4:	10c00217 	ldw	r3,8(r2)
 100a4c8:	e0bfff17 	ldw	r2,-4(fp)
 100a4cc:	1887883a 	add	r3,r3,r2
 100a4d0:	e0bffd17 	ldw	r2,-12(fp)
 100a4d4:	10c00215 	stw	r3,8(r2)
        /* 
         * If the desired alarm time causes a roll-over, set the rollover
         * flag. This will prevent the subsequent tick event from causing
         * an alarm too early.
         */
        if(alarm->time < _alt_nticks)
 100a4d8:	e0bffd17 	ldw	r2,-12(fp)
 100a4dc:	10c00217 	ldw	r3,8(r2)
 100a4e0:	d0a20c17 	ldw	r2,-30672(gp)
 100a4e4:	1880032e 	bgeu	r3,r2,100a4f4 <alt_tick+0xd8>
        {
          alarm->rollover = 1;
 100a4e8:	e0bffd17 	ldw	r2,-12(fp)
 100a4ec:	00c00044 	movi	r3,1
 100a4f0:	10c00405 	stb	r3,16(r2)
        }
      }
    }
    alarm = next;
 100a4f4:	e0bffe17 	ldw	r2,-8(fp)
 100a4f8:	e0bffd15 	stw	r2,-12(fp)

  _alt_nticks++;

  /* process the registered callbacks */

  while (alarm != (alt_alarm*) &alt_alarm_list)
 100a4fc:	e0fffd17 	ldw	r3,-12(fp)
 100a500:	d0a00f04 	addi	r2,gp,-32708
 100a504:	18bfcf1e 	bne	r3,r2,100a444 <__alt_data_end+0xfffe94ec>

  /* 
   * Update the operating system specific timer facilities.
   */

  ALT_OS_TIME_TICK();
 100a508:	0001883a 	nop
}
 100a50c:	e037883a 	mov	sp,fp
 100a510:	dfc00117 	ldw	ra,4(sp)
 100a514:	df000017 	ldw	fp,0(sp)
 100a518:	dec00204 	addi	sp,sp,8
 100a51c:	f800283a 	ret

0100a520 <altera_nios2_qsys_irq_init>:
/*
 * To initialize the internal interrupt controller, just clear the IENABLE
 * register so that all possible IRQs are disabled.
 */
void altera_nios2_qsys_irq_init(void) 
{
 100a520:	deffff04 	addi	sp,sp,-4
 100a524:	df000015 	stw	fp,0(sp)
 100a528:	d839883a 	mov	fp,sp
    NIOS2_WRITE_IENABLE(0);
 100a52c:	000170fa 	wrctl	ienable,zero
}
 100a530:	e037883a 	mov	sp,fp
 100a534:	df000017 	ldw	fp,0(sp)
 100a538:	dec00104 	addi	sp,sp,4
 100a53c:	f800283a 	ret

0100a540 <alt_find_file>:
 * either '/' or '\0' is the prefix of the filename. For example the filename:
 * "/myfilesystem/junk.txt" would match: "/myfilesystem", but not: "/myfile". 
 */
 
alt_dev* alt_find_file (const char* name)
{
 100a540:	defffb04 	addi	sp,sp,-20
 100a544:	dfc00415 	stw	ra,16(sp)
 100a548:	df000315 	stw	fp,12(sp)
 100a54c:	df000304 	addi	fp,sp,12
 100a550:	e13fff15 	stw	r4,-4(fp)
  alt_dev* next = (alt_dev*) alt_fs_list.next;   
 100a554:	00804074 	movhi	r2,257
 100a558:	10ad8604 	addi	r2,r2,-18920
 100a55c:	10800017 	ldw	r2,0(r2)
 100a560:	e0bffd15 	stw	r2,-12(fp)
  /*
   * Check each list entry in turn, until a match is found, or we reach the
   * end of the list (i.e. next winds up pointing back to the list head).
   */ 
 
  while (next != (alt_dev*) &alt_fs_list)
 100a564:	00003106 	br	100a62c <alt_find_file+0xec>
  {
    len = strlen(next->name);
 100a568:	e0bffd17 	ldw	r2,-12(fp)
 100a56c:	10800217 	ldw	r2,8(r2)
 100a570:	1009883a 	mov	r4,r2
 100a574:	1007a5c0 	call	1007a5c <strlen>
 100a578:	e0bffe15 	stw	r2,-8(fp)
    
    if (next->name[len-1] == '/')
 100a57c:	e0bffd17 	ldw	r2,-12(fp)
 100a580:	10c00217 	ldw	r3,8(r2)
 100a584:	e0bffe17 	ldw	r2,-8(fp)
 100a588:	10bfffc4 	addi	r2,r2,-1
 100a58c:	1885883a 	add	r2,r3,r2
 100a590:	10800003 	ldbu	r2,0(r2)
 100a594:	10803fcc 	andi	r2,r2,255
 100a598:	1080201c 	xori	r2,r2,128
 100a59c:	10bfe004 	addi	r2,r2,-128
 100a5a0:	10800bd8 	cmpnei	r2,r2,47
 100a5a4:	1000031e 	bne	r2,zero,100a5b4 <alt_find_file+0x74>
    {
      len -= 1;
 100a5a8:	e0bffe17 	ldw	r2,-8(fp)
 100a5ac:	10bfffc4 	addi	r2,r2,-1
 100a5b0:	e0bffe15 	stw	r2,-8(fp)
    }

    if (((name[len] == '/') || (name[len] == '\0')) && 
 100a5b4:	e0bffe17 	ldw	r2,-8(fp)
 100a5b8:	e0ffff17 	ldw	r3,-4(fp)
 100a5bc:	1885883a 	add	r2,r3,r2
 100a5c0:	10800003 	ldbu	r2,0(r2)
 100a5c4:	10803fcc 	andi	r2,r2,255
 100a5c8:	1080201c 	xori	r2,r2,128
 100a5cc:	10bfe004 	addi	r2,r2,-128
 100a5d0:	10800be0 	cmpeqi	r2,r2,47
 100a5d4:	1000081e 	bne	r2,zero,100a5f8 <alt_find_file+0xb8>
 100a5d8:	e0bffe17 	ldw	r2,-8(fp)
 100a5dc:	e0ffff17 	ldw	r3,-4(fp)
 100a5e0:	1885883a 	add	r2,r3,r2
 100a5e4:	10800003 	ldbu	r2,0(r2)
 100a5e8:	10803fcc 	andi	r2,r2,255
 100a5ec:	1080201c 	xori	r2,r2,128
 100a5f0:	10bfe004 	addi	r2,r2,-128
 100a5f4:	10000a1e 	bne	r2,zero,100a620 <alt_find_file+0xe0>
        !memcmp (next->name, name, len))
 100a5f8:	e0bffd17 	ldw	r2,-12(fp)
 100a5fc:	10c00217 	ldw	r3,8(r2)
 100a600:	e0bffe17 	ldw	r2,-8(fp)
 100a604:	1809883a 	mov	r4,r3
 100a608:	e17fff17 	ldw	r5,-4(fp)
 100a60c:	100d883a 	mov	r6,r2
 100a610:	100a7c80 	call	100a7c8 <memcmp>
    if (next->name[len-1] == '/')
    {
      len -= 1;
    }

    if (((name[len] == '/') || (name[len] == '\0')) && 
 100a614:	1000021e 	bne	r2,zero,100a620 <alt_find_file+0xe0>
        !memcmp (next->name, name, len))
    {
      /* match found */

      return next;
 100a618:	e0bffd17 	ldw	r2,-12(fp)
 100a61c:	00000806 	br	100a640 <alt_find_file+0x100>
    }
    next = (alt_dev*) next->llist.next;
 100a620:	e0bffd17 	ldw	r2,-12(fp)
 100a624:	10800017 	ldw	r2,0(r2)
 100a628:	e0bffd15 	stw	r2,-12(fp)
  /*
   * Check each list entry in turn, until a match is found, or we reach the
   * end of the list (i.e. next winds up pointing back to the list head).
   */ 
 
  while (next != (alt_dev*) &alt_fs_list)
 100a62c:	e0fffd17 	ldw	r3,-12(fp)
 100a630:	00804074 	movhi	r2,257
 100a634:	10ad8604 	addi	r2,r2,-18920
 100a638:	18bfcb1e 	bne	r3,r2,100a568 <__alt_data_end+0xfffe9610>
    next = (alt_dev*) next->llist.next;
  }
  
  /* No match found */
  
  return NULL;     
 100a63c:	0005883a 	mov	r2,zero
}
 100a640:	e037883a 	mov	sp,fp
 100a644:	dfc00117 	ldw	ra,4(sp)
 100a648:	df000017 	ldw	fp,0(sp)
 100a64c:	dec00204 	addi	sp,sp,8
 100a650:	f800283a 	ret

0100a654 <alt_get_fd>:
 * the offset of the file descriptor within the file descriptor array). A
 * negative value indicates failure.
 */

int alt_get_fd (alt_dev* dev)
{
 100a654:	defffc04 	addi	sp,sp,-16
 100a658:	df000315 	stw	fp,12(sp)
 100a65c:	df000304 	addi	fp,sp,12
 100a660:	e13fff15 	stw	r4,-4(fp)
  alt_32 i;
  int rc = -EMFILE;
 100a664:	00bffa04 	movi	r2,-24
 100a668:	e0bffe15 	stw	r2,-8(fp)
   * indicates the highest file descriptor ever allocated. This is used to
   * improve efficency when searching the file descriptor list, and 
   * therefore reduce contention on the alt_fd_list_lock semaphore. 
   */

  for (i = 0; i < ALT_MAX_FD; i++)
 100a66c:	e03ffd15 	stw	zero,-12(fp)
 100a670:	00001d06 	br	100a6e8 <alt_get_fd+0x94>
  {
    if (!alt_fd_list[i].dev)
 100a674:	00804074 	movhi	r2,257
 100a678:	10ad2104 	addi	r2,r2,-19324
 100a67c:	e0fffd17 	ldw	r3,-12(fp)
 100a680:	18c00324 	muli	r3,r3,12
 100a684:	10c5883a 	add	r2,r2,r3
 100a688:	10800017 	ldw	r2,0(r2)
 100a68c:	1000131e 	bne	r2,zero,100a6dc <alt_get_fd+0x88>
    {
      alt_fd_list[i].dev = dev;
 100a690:	00804074 	movhi	r2,257
 100a694:	10ad2104 	addi	r2,r2,-19324
 100a698:	e0fffd17 	ldw	r3,-12(fp)
 100a69c:	18c00324 	muli	r3,r3,12
 100a6a0:	10c5883a 	add	r2,r2,r3
 100a6a4:	e0ffff17 	ldw	r3,-4(fp)
 100a6a8:	10c00015 	stw	r3,0(r2)
      if (i > alt_max_fd)
 100a6ac:	00804074 	movhi	r2,257
 100a6b0:	10ad8a04 	addi	r2,r2,-18904
 100a6b4:	10c00017 	ldw	r3,0(r2)
 100a6b8:	e0bffd17 	ldw	r2,-12(fp)
 100a6bc:	1880040e 	bge	r3,r2,100a6d0 <alt_get_fd+0x7c>
      {
        alt_max_fd = i;
 100a6c0:	00804074 	movhi	r2,257
 100a6c4:	10ad8a04 	addi	r2,r2,-18904
 100a6c8:	e0fffd17 	ldw	r3,-12(fp)
 100a6cc:	10c00015 	stw	r3,0(r2)
      }
      rc = i;
 100a6d0:	e0bffd17 	ldw	r2,-12(fp)
 100a6d4:	e0bffe15 	stw	r2,-8(fp)
      goto alt_get_fd_exit;
 100a6d8:	00000606 	br	100a6f4 <alt_get_fd+0xa0>
   * indicates the highest file descriptor ever allocated. This is used to
   * improve efficency when searching the file descriptor list, and 
   * therefore reduce contention on the alt_fd_list_lock semaphore. 
   */

  for (i = 0; i < ALT_MAX_FD; i++)
 100a6dc:	e0bffd17 	ldw	r2,-12(fp)
 100a6e0:	10800044 	addi	r2,r2,1
 100a6e4:	e0bffd15 	stw	r2,-12(fp)
 100a6e8:	e0bffd17 	ldw	r2,-12(fp)
 100a6ec:	10800810 	cmplti	r2,r2,32
 100a6f0:	103fe01e 	bne	r2,zero,100a674 <__alt_data_end+0xfffe971c>
   * file descriptor pool.
   */

  ALT_SEM_POST(alt_fd_list_lock);

  return rc;
 100a6f4:	e0bffe17 	ldw	r2,-8(fp)
}
 100a6f8:	e037883a 	mov	sp,fp
 100a6fc:	df000017 	ldw	fp,0(sp)
 100a700:	dec00104 	addi	sp,sp,4
 100a704:	f800283a 	ret

0100a708 <alt_icache_flush>:
 * alt_icache_flush() is called to flush the instruction cache for a memory
 * region of length "len" bytes, starting at address "start".
 */

void alt_icache_flush (void* start, alt_u32 len)
{
 100a708:	defffb04 	addi	sp,sp,-20
 100a70c:	df000415 	stw	fp,16(sp)
 100a710:	df000404 	addi	fp,sp,16
 100a714:	e13ffe15 	stw	r4,-8(fp)
 100a718:	e17fff15 	stw	r5,-4(fp)

  /*
   * This is the most we would ever need to flush.
   */
 
  if (len > NIOS2_ICACHE_SIZE)
 100a71c:	e0bfff17 	ldw	r2,-4(fp)
 100a720:	10840070 	cmpltui	r2,r2,4097
 100a724:	1000021e 	bne	r2,zero,100a730 <alt_icache_flush+0x28>
  {
    len = NIOS2_ICACHE_SIZE;
 100a728:	00840004 	movi	r2,4096
 100a72c:	e0bfff15 	stw	r2,-4(fp)
  }

  end = ((char*) start) + len;
 100a730:	e0fffe17 	ldw	r3,-8(fp)
 100a734:	e0bfff17 	ldw	r2,-4(fp)
 100a738:	1885883a 	add	r2,r3,r2
 100a73c:	e0bffd15 	stw	r2,-12(fp)

  for (i = start; i < end; i+= NIOS2_ICACHE_LINE_SIZE)
 100a740:	e0bffe17 	ldw	r2,-8(fp)
 100a744:	e0bffc15 	stw	r2,-16(fp)
 100a748:	00000506 	br	100a760 <alt_icache_flush+0x58>
  { 
    __asm__ volatile ("flushi %0" :: "r" (i)); 
 100a74c:	e0bffc17 	ldw	r2,-16(fp)
 100a750:	1000603a 	flushi	r2
    len = NIOS2_ICACHE_SIZE;
  }

  end = ((char*) start) + len;

  for (i = start; i < end; i+= NIOS2_ICACHE_LINE_SIZE)
 100a754:	e0bffc17 	ldw	r2,-16(fp)
 100a758:	10800804 	addi	r2,r2,32
 100a75c:	e0bffc15 	stw	r2,-16(fp)
 100a760:	e0fffc17 	ldw	r3,-16(fp)
 100a764:	e0bffd17 	ldw	r2,-12(fp)
 100a768:	18bff836 	bltu	r3,r2,100a74c <__alt_data_end+0xfffe97f4>
   * For an unaligned flush request, we've got one more line left.
   * Note that this is dependent on NIOS2_ICACHE_LINE_SIZE to be a 
   * multiple of 2 (which it always is).
   */

  if (((alt_u32) start) & (NIOS2_ICACHE_LINE_SIZE - 1))
 100a76c:	e0bffe17 	ldw	r2,-8(fp)
 100a770:	108007cc 	andi	r2,r2,31
 100a774:	10000226 	beq	r2,zero,100a780 <alt_icache_flush+0x78>
  {
    __asm__ volatile ("flushi %0" :: "r" (i));
 100a778:	e0bffc17 	ldw	r2,-16(fp)
 100a77c:	1000603a 	flushi	r2
  /* 
   * Having flushed the cache, flush any stale instructions in the 
   * pipeline 
   */

  __asm__ volatile ("flushp");
 100a780:	0000203a 	flushp

#endif /* NIOS2_ICACHE_SIZE > 0 */
}
 100a784:	e037883a 	mov	sp,fp
 100a788:	df000017 	ldw	fp,0(sp)
 100a78c:	dec00104 	addi	sp,sp,4
 100a790:	f800283a 	ret

0100a794 <atexit>:
 100a794:	200b883a 	mov	r5,r4
 100a798:	000d883a 	mov	r6,zero
 100a79c:	0009883a 	mov	r4,zero
 100a7a0:	000f883a 	mov	r7,zero
 100a7a4:	100a7f81 	jmpi	100a7f8 <__register_exitproc>

0100a7a8 <exit>:
 100a7a8:	defffe04 	addi	sp,sp,-8
 100a7ac:	000b883a 	mov	r5,zero
 100a7b0:	dc000015 	stw	r16,0(sp)
 100a7b4:	dfc00115 	stw	ra,4(sp)
 100a7b8:	2021883a 	mov	r16,r4
 100a7bc:	100a93c0 	call	100a93c <__call_exitprocs>
 100a7c0:	8009883a 	mov	r4,r16
 100a7c4:	100aad80 	call	100aad8 <_exit>

0100a7c8 <memcmp>:
 100a7c8:	218d883a 	add	r6,r4,r6
 100a7cc:	21800826 	beq	r4,r6,100a7f0 <memcmp+0x28>
 100a7d0:	20800003 	ldbu	r2,0(r4)
 100a7d4:	28c00003 	ldbu	r3,0(r5)
 100a7d8:	10c00226 	beq	r2,r3,100a7e4 <memcmp+0x1c>
 100a7dc:	10c5c83a 	sub	r2,r2,r3
 100a7e0:	f800283a 	ret
 100a7e4:	21000044 	addi	r4,r4,1
 100a7e8:	29400044 	addi	r5,r5,1
 100a7ec:	003ff706 	br	100a7cc <__alt_data_end+0xfffe9874>
 100a7f0:	0005883a 	mov	r2,zero
 100a7f4:	f800283a 	ret

0100a7f8 <__register_exitproc>:
 100a7f8:	00804074 	movhi	r2,257
 100a7fc:	defff904 	addi	sp,sp,-28
 100a800:	10ad8304 	addi	r2,r2,-18932
 100a804:	dd400515 	stw	r21,20(sp)
 100a808:	15400017 	ldw	r21,0(r2)
 100a80c:	dc000015 	stw	r16,0(sp)
 100a810:	dd000415 	stw	r20,16(sp)
 100a814:	ac000c17 	ldw	r16,48(r21)
 100a818:	dcc00315 	stw	r19,12(sp)
 100a81c:	dc800215 	stw	r18,8(sp)
 100a820:	dc400115 	stw	r17,4(sp)
 100a824:	dfc00615 	stw	ra,24(sp)
 100a828:	2025883a 	mov	r18,r4
 100a82c:	2823883a 	mov	r17,r5
 100a830:	3029883a 	mov	r20,r6
 100a834:	3827883a 	mov	r19,r7
 100a838:	8000021e 	bne	r16,zero,100a844 <__register_exitproc+0x4c>
 100a83c:	ac000d04 	addi	r16,r21,52
 100a840:	ac000c15 	stw	r16,48(r21)
 100a844:	80800117 	ldw	r2,4(r16)
 100a848:	00c007c4 	movi	r3,31
 100a84c:	18800d0e 	bge	r3,r2,100a884 <__register_exitproc+0x8c>
 100a850:	00800034 	movhi	r2,0
 100a854:	10800004 	addi	r2,r2,0
 100a858:	1000021e 	bne	r2,zero,100a864 <__register_exitproc+0x6c>
 100a85c:	00bfffc4 	movi	r2,-1
 100a860:	00002d06 	br	100a918 <__register_exitproc+0x120>
 100a864:	01002304 	movi	r4,140
 100a868:	00000000 	call	0 <__reset-0x1000000>
 100a86c:	1021883a 	mov	r16,r2
 100a870:	103ffa26 	beq	r2,zero,100a85c <__alt_data_end+0xfffe9904>
 100a874:	10000115 	stw	zero,4(r2)
 100a878:	a8800c17 	ldw	r2,48(r21)
 100a87c:	80800015 	stw	r2,0(r16)
 100a880:	ac000c15 	stw	r16,48(r21)
 100a884:	90001b26 	beq	r18,zero,100a8f4 <__register_exitproc+0xfc>
 100a888:	80802217 	ldw	r2,136(r16)
 100a88c:	1000091e 	bne	r2,zero,100a8b4 <__register_exitproc+0xbc>
 100a890:	00800034 	movhi	r2,0
 100a894:	10800004 	addi	r2,r2,0
 100a898:	103ff026 	beq	r2,zero,100a85c <__alt_data_end+0xfffe9904>
 100a89c:	01004204 	movi	r4,264
 100a8a0:	00000000 	call	0 <__reset-0x1000000>
 100a8a4:	103fed26 	beq	r2,zero,100a85c <__alt_data_end+0xfffe9904>
 100a8a8:	10004015 	stw	zero,256(r2)
 100a8ac:	10004115 	stw	zero,260(r2)
 100a8b0:	80802215 	stw	r2,136(r16)
 100a8b4:	81400117 	ldw	r5,4(r16)
 100a8b8:	01000044 	movi	r4,1
 100a8bc:	2947883a 	add	r3,r5,r5
 100a8c0:	18c7883a 	add	r3,r3,r3
 100a8c4:	10c7883a 	add	r3,r2,r3
 100a8c8:	1d000015 	stw	r20,0(r3)
 100a8cc:	214a983a 	sll	r5,r4,r5
 100a8d0:	11004017 	ldw	r4,256(r2)
 100a8d4:	2148b03a 	or	r4,r4,r5
 100a8d8:	11004015 	stw	r4,256(r2)
 100a8dc:	1cc02015 	stw	r19,128(r3)
 100a8e0:	00c00084 	movi	r3,2
 100a8e4:	90c0031e 	bne	r18,r3,100a8f4 <__register_exitproc+0xfc>
 100a8e8:	10c04117 	ldw	r3,260(r2)
 100a8ec:	194ab03a 	or	r5,r3,r5
 100a8f0:	11404115 	stw	r5,260(r2)
 100a8f4:	80800117 	ldw	r2,4(r16)
 100a8f8:	10c00044 	addi	r3,r2,1
 100a8fc:	10800084 	addi	r2,r2,2
 100a900:	1085883a 	add	r2,r2,r2
 100a904:	1085883a 	add	r2,r2,r2
 100a908:	80c00115 	stw	r3,4(r16)
 100a90c:	80a1883a 	add	r16,r16,r2
 100a910:	84400015 	stw	r17,0(r16)
 100a914:	0005883a 	mov	r2,zero
 100a918:	dfc00617 	ldw	ra,24(sp)
 100a91c:	dd400517 	ldw	r21,20(sp)
 100a920:	dd000417 	ldw	r20,16(sp)
 100a924:	dcc00317 	ldw	r19,12(sp)
 100a928:	dc800217 	ldw	r18,8(sp)
 100a92c:	dc400117 	ldw	r17,4(sp)
 100a930:	dc000017 	ldw	r16,0(sp)
 100a934:	dec00704 	addi	sp,sp,28
 100a938:	f800283a 	ret

0100a93c <__call_exitprocs>:
 100a93c:	00804074 	movhi	r2,257
 100a940:	10ad8304 	addi	r2,r2,-18932
 100a944:	10800017 	ldw	r2,0(r2)
 100a948:	defff304 	addi	sp,sp,-52
 100a94c:	ddc00a15 	stw	r23,40(sp)
 100a950:	d8800015 	stw	r2,0(sp)
 100a954:	05c00034 	movhi	r23,0
 100a958:	10800c04 	addi	r2,r2,48
 100a95c:	dc800515 	stw	r18,20(sp)
 100a960:	dfc00c15 	stw	ra,48(sp)
 100a964:	df000b15 	stw	fp,44(sp)
 100a968:	dd800915 	stw	r22,36(sp)
 100a96c:	dd400815 	stw	r21,32(sp)
 100a970:	dd000715 	stw	r20,28(sp)
 100a974:	dcc00615 	stw	r19,24(sp)
 100a978:	dc400415 	stw	r17,16(sp)
 100a97c:	dc000315 	stw	r16,12(sp)
 100a980:	d9000115 	stw	r4,4(sp)
 100a984:	2825883a 	mov	r18,r5
 100a988:	d8800215 	stw	r2,8(sp)
 100a98c:	bdc00004 	addi	r23,r23,0
 100a990:	d8800017 	ldw	r2,0(sp)
 100a994:	dc400217 	ldw	r17,8(sp)
 100a998:	14c00c17 	ldw	r19,48(r2)
 100a99c:	98004226 	beq	r19,zero,100aaa8 <__call_exitprocs+0x16c>
 100a9a0:	9c000117 	ldw	r16,4(r19)
 100a9a4:	00900034 	movhi	r2,16384
 100a9a8:	10bfffc4 	addi	r2,r2,-1
 100a9ac:	9d002217 	ldw	r20,136(r19)
 100a9b0:	857fffc4 	addi	r21,r16,-1
 100a9b4:	80a1883a 	add	r16,r16,r2
 100a9b8:	8421883a 	add	r16,r16,r16
 100a9bc:	8421883a 	add	r16,r16,r16
 100a9c0:	a42d883a 	add	r22,r20,r16
 100a9c4:	84000204 	addi	r16,r16,8
 100a9c8:	9c21883a 	add	r16,r19,r16
 100a9cc:	a8002616 	blt	r21,zero,100aa68 <__call_exitprocs+0x12c>
 100a9d0:	90000326 	beq	r18,zero,100a9e0 <__call_exitprocs+0xa4>
 100a9d4:	a0002026 	beq	r20,zero,100aa58 <__call_exitprocs+0x11c>
 100a9d8:	b1002017 	ldw	r4,128(r22)
 100a9dc:	24801e1e 	bne	r4,r18,100aa58 <__call_exitprocs+0x11c>
 100a9e0:	99000117 	ldw	r4,4(r19)
 100a9e4:	82000017 	ldw	r8,0(r16)
 100a9e8:	213fffc4 	addi	r4,r4,-1
 100a9ec:	a900021e 	bne	r21,r4,100a9f8 <__call_exitprocs+0xbc>
 100a9f0:	9d400115 	stw	r21,4(r19)
 100a9f4:	00000106 	br	100a9fc <__call_exitprocs+0xc0>
 100a9f8:	80000015 	stw	zero,0(r16)
 100a9fc:	40001626 	beq	r8,zero,100aa58 <__call_exitprocs+0x11c>
 100aa00:	9f000117 	ldw	fp,4(r19)
 100aa04:	a0000526 	beq	r20,zero,100aa1c <__call_exitprocs+0xe0>
 100aa08:	00800044 	movi	r2,1
 100aa0c:	1552983a 	sll	r9,r2,r21
 100aa10:	a1404017 	ldw	r5,256(r20)
 100aa14:	494a703a 	and	r5,r9,r5
 100aa18:	2800021e 	bne	r5,zero,100aa24 <__call_exitprocs+0xe8>
 100aa1c:	403ee83a 	callr	r8
 100aa20:	00000906 	br	100aa48 <__call_exitprocs+0x10c>
 100aa24:	a1004117 	ldw	r4,260(r20)
 100aa28:	4908703a 	and	r4,r9,r4
 100aa2c:	2000041e 	bne	r4,zero,100aa40 <__call_exitprocs+0x104>
 100aa30:	d9000117 	ldw	r4,4(sp)
 100aa34:	b1400017 	ldw	r5,0(r22)
 100aa38:	403ee83a 	callr	r8
 100aa3c:	00000206 	br	100aa48 <__call_exitprocs+0x10c>
 100aa40:	b1000017 	ldw	r4,0(r22)
 100aa44:	403ee83a 	callr	r8
 100aa48:	99000117 	ldw	r4,4(r19)
 100aa4c:	e13fd01e 	bne	fp,r4,100a990 <__alt_data_end+0xfffe9a38>
 100aa50:	89000017 	ldw	r4,0(r17)
 100aa54:	24ffce1e 	bne	r4,r19,100a990 <__alt_data_end+0xfffe9a38>
 100aa58:	ad7fffc4 	addi	r21,r21,-1
 100aa5c:	b5bfff04 	addi	r22,r22,-4
 100aa60:	843fff04 	addi	r16,r16,-4
 100aa64:	003fd906 	br	100a9cc <__alt_data_end+0xfffe9a74>
 100aa68:	b8000f26 	beq	r23,zero,100aaa8 <__call_exitprocs+0x16c>
 100aa6c:	99000117 	ldw	r4,4(r19)
 100aa70:	20000a1e 	bne	r4,zero,100aa9c <__call_exitprocs+0x160>
 100aa74:	99000017 	ldw	r4,0(r19)
 100aa78:	20000826 	beq	r4,zero,100aa9c <__call_exitprocs+0x160>
 100aa7c:	89000015 	stw	r4,0(r17)
 100aa80:	a0000226 	beq	r20,zero,100aa8c <__call_exitprocs+0x150>
 100aa84:	a009883a 	mov	r4,r20
 100aa88:	00000000 	call	0 <__reset-0x1000000>
 100aa8c:	9809883a 	mov	r4,r19
 100aa90:	00000000 	call	0 <__reset-0x1000000>
 100aa94:	8cc00017 	ldw	r19,0(r17)
 100aa98:	003fc006 	br	100a99c <__alt_data_end+0xfffe9a44>
 100aa9c:	9823883a 	mov	r17,r19
 100aaa0:	9cc00017 	ldw	r19,0(r19)
 100aaa4:	003fbd06 	br	100a99c <__alt_data_end+0xfffe9a44>
 100aaa8:	dfc00c17 	ldw	ra,48(sp)
 100aaac:	df000b17 	ldw	fp,44(sp)
 100aab0:	ddc00a17 	ldw	r23,40(sp)
 100aab4:	dd800917 	ldw	r22,36(sp)
 100aab8:	dd400817 	ldw	r21,32(sp)
 100aabc:	dd000717 	ldw	r20,28(sp)
 100aac0:	dcc00617 	ldw	r19,24(sp)
 100aac4:	dc800517 	ldw	r18,20(sp)
 100aac8:	dc400417 	ldw	r17,16(sp)
 100aacc:	dc000317 	ldw	r16,12(sp)
 100aad0:	dec00d04 	addi	sp,sp,52
 100aad4:	f800283a 	ret

0100aad8 <_exit>:
 *
 * ALT_EXIT is mapped onto the _exit() system call in alt_syscall.h
 */

void ALT_EXIT (int exit_code)
{
 100aad8:	defffd04 	addi	sp,sp,-12
 100aadc:	df000215 	stw	fp,8(sp)
 100aae0:	df000204 	addi	fp,sp,8
 100aae4:	e13fff15 	stw	r4,-4(fp)
  ALT_LOG_PRINT_BOOT("[alt_exit.c] Entering _exit() function.\r\n");
  ALT_LOG_PRINT_BOOT("[alt_exit.c] Exit code from main was %d.\r\n",exit_code);
  /* Stop all other threads */

  ALT_LOG_PRINT_BOOT("[alt_exit.c] Calling ALT_OS_STOP().\r\n");
  ALT_OS_STOP();
 100aae8:	0001883a 	nop
 100aaec:	e0bfff17 	ldw	r2,-4(fp)
 100aaf0:	e0bffe15 	stw	r2,-8(fp)
/*
 * Routine called on exit.
 */
static ALT_INLINE ALT_ALWAYS_INLINE void alt_sim_halt(int exit_code)
{
  register int r2 asm ("r2") = exit_code;
 100aaf4:	e0bffe17 	ldw	r2,-8(fp)
  __asm__ volatile ("\n0:\n\taddi %0,%0, -1\n\tbgt %0,zero,0b" : : "r" (ALT_CPU_FREQ/100) ); /* Delay for >30ms */

  __asm__ volatile ("break 2" : : "r"(r2), "r"(r3) ALT_GMON_DATA );

#else /* !DEBUG_STUB */
  if (r2) {
 100aaf8:	10000226 	beq	r2,zero,100ab04 <_exit+0x2c>
    ALT_SIM_FAIL();
 100aafc:	002af070 	cmpltui	zero,zero,43969
 100ab00:	00000106 	br	100ab08 <_exit+0x30>
  } else {
    ALT_SIM_PASS();
 100ab04:	002af0b0 	cmpltui	zero,zero,43970
  ALT_SIM_HALT(exit_code);

  /* spin forever, since there's no where to go back to */

  ALT_LOG_PRINT_BOOT("[alt_exit.c] Spinning forever.\r\n");
  while (1);
 100ab08:	003fff06 	br	100ab08 <__alt_data_end+0xfffe9bb0>
