Archive member included to satisfy reference by file (symbol)

d:/altera/15.0.0.130/nios2eds/bin/gnu/h-x86_64-mingw32/bin/../lib/gcc/nios2-elf/4.9.1\libgcc.a(mulsf3.o)
                              obj/default/main.o (__mulsf3)
d:/altera/15.0.0.130/nios2eds/bin/gnu/h-x86_64-mingw32/bin/../lib/gcc/nios2-elf/4.9.1\libgcc.a(floatunsisf.o)
                              obj/default/main.o (__floatunsisf)
d:/altera/15.0.0.130/nios2eds/bin/gnu/h-x86_64-mingw32/bin/../lib/gcc/nios2-elf/4.9.1\libgcc.a(extendsfdf2.o)
                              obj/default/main.o (__extendsfdf2)
d:/altera/15.0.0.130/nios2eds/bin/gnu/h-x86_64-mingw32/bin/../lib/gcc/nios2-elf/4.9.1\libgcc.a(_clzsi2.o)
                              d:/altera/15.0.0.130/nios2eds/bin/gnu/h-x86_64-mingw32/bin/../lib/gcc/nios2-elf/4.9.1\libgcc.a(mulsf3.o) (__clzsi2)
d:/altera/15.0.0.130/nios2eds/bin/gnu/h-x86_64-mingw32/bin/../lib/gcc/nios2-elf/4.9.1\libgcc.a(_clz.o)
                              d:/altera/15.0.0.130/nios2eds/bin/gnu/h-x86_64-mingw32/bin/../lib/gcc/nios2-elf/4.9.1\libgcc.a(_clzsi2.o) (__clz_tab)
d:/altera/15.0.0.130/nios2eds/bin/gnu/h-x86_64-mingw32/bin/../lib/gcc/nios2-elf/4.9.1/../../../../../H-x86_64-mingw32/nios2-elf/lib\libc.a(lib_a-printf.o)
                              obj/default/main.o (printf)
d:/altera/15.0.0.130/nios2eds/bin/gnu/h-x86_64-mingw32/bin/../lib/gcc/nios2-elf/4.9.1/../../../../../H-x86_64-mingw32/nios2-elf/lib\libc.a(lib_a-puts.o)
                              obj/default/main.o (puts)
d:/altera/15.0.0.130/nios2eds/bin/gnu/h-x86_64-mingw32/bin/../lib/gcc/nios2-elf/4.9.1/../../../../../H-x86_64-mingw32/nios2-elf/lib\libc.a(lib_a-strlen.o)
                              d:/altera/15.0.0.130/nios2eds/bin/gnu/h-x86_64-mingw32/bin/../lib/gcc/nios2-elf/4.9.1/../../../../../H-x86_64-mingw32/nios2-elf/lib\libc.a(lib_a-puts.o) (strlen)
d:/altera/15.0.0.130/nios2eds/bin/gnu/h-x86_64-mingw32/bin/../lib/gcc/nios2-elf/4.9.1/../../../../../H-x86_64-mingw32/nios2-elf/lib\libc.a(lib_a-vfprintf.o)
                              d:/altera/15.0.0.130/nios2eds/bin/gnu/h-x86_64-mingw32/bin/../lib/gcc/nios2-elf/4.9.1/../../../../../H-x86_64-mingw32/nios2-elf/lib\libc.a(lib_a-printf.o) (___vfprintf_internal_r)
d:/altera/15.0.0.130/nios2eds/bin/gnu/h-x86_64-mingw32/bin/../lib/gcc/nios2-elf/4.9.1/../../../../../H-x86_64-mingw32/nios2-elf/lib\libc.a(lib_a-wsetup.o)
                              d:/altera/15.0.0.130/nios2eds/bin/gnu/h-x86_64-mingw32/bin/../lib/gcc/nios2-elf/4.9.1/../../../../../H-x86_64-mingw32/nios2-elf/lib\libc.a(lib_a-vfprintf.o) (__swsetup_r)
d:/altera/15.0.0.130/nios2eds/bin/gnu/h-x86_64-mingw32/bin/../lib/gcc/nios2-elf/4.9.1/../../../../../H-x86_64-mingw32/nios2-elf/lib\libc.a(lib_a-dtoa.o)
                              d:/altera/15.0.0.130/nios2eds/bin/gnu/h-x86_64-mingw32/bin/../lib/gcc/nios2-elf/4.9.1/../../../../../H-x86_64-mingw32/nios2-elf/lib\libc.a(lib_a-vfprintf.o) (_dtoa_r)
d:/altera/15.0.0.130/nios2eds/bin/gnu/h-x86_64-mingw32/bin/../lib/gcc/nios2-elf/4.9.1/../../../../../H-x86_64-mingw32/nios2-elf/lib\libc.a(lib_a-fflush.o)
                              d:/altera/15.0.0.130/nios2eds/bin/gnu/h-x86_64-mingw32/bin/../lib/gcc/nios2-elf/4.9.1/../../../../../H-x86_64-mingw32/nios2-elf/lib\libc.a(lib_a-vfprintf.o) (_fflush_r)
d:/altera/15.0.0.130/nios2eds/bin/gnu/h-x86_64-mingw32/bin/../lib/gcc/nios2-elf/4.9.1/../../../../../H-x86_64-mingw32/nios2-elf/lib\libc.a(lib_a-findfp.o)
                              d:/altera/15.0.0.130/nios2eds/bin/gnu/h-x86_64-mingw32/bin/../lib/gcc/nios2-elf/4.9.1/../../../../../H-x86_64-mingw32/nios2-elf/lib\libc.a(lib_a-vfprintf.o) (__sinit)
d:/altera/15.0.0.130/nios2eds/bin/gnu/h-x86_64-mingw32/bin/../lib/gcc/nios2-elf/4.9.1/../../../../../H-x86_64-mingw32/nios2-elf/lib\libc.a(lib_a-freer.o)
                              d:/altera/15.0.0.130/nios2eds/bin/gnu/h-x86_64-mingw32/bin/../lib/gcc/nios2-elf/4.9.1/../../../../../H-x86_64-mingw32/nios2-elf/lib\libc.a(lib_a-wsetup.o) (_free_r)
d:/altera/15.0.0.130/nios2eds/bin/gnu/h-x86_64-mingw32/bin/../lib/gcc/nios2-elf/4.9.1/../../../../../H-x86_64-mingw32/nios2-elf/lib\libc.a(lib_a-fvwrite.o)
                              d:/altera/15.0.0.130/nios2eds/bin/gnu/h-x86_64-mingw32/bin/../lib/gcc/nios2-elf/4.9.1/../../../../../H-x86_64-mingw32/nios2-elf/lib\libc.a(lib_a-puts.o) (__sfvwrite_r)
d:/altera/15.0.0.130/nios2eds/bin/gnu/h-x86_64-mingw32/bin/../lib/gcc/nios2-elf/4.9.1/../../../../../H-x86_64-mingw32/nios2-elf/lib\libc.a(lib_a-fwalk.o)
                              d:/altera/15.0.0.130/nios2eds/bin/gnu/h-x86_64-mingw32/bin/../lib/gcc/nios2-elf/4.9.1/../../../../../H-x86_64-mingw32/nios2-elf/lib\libc.a(lib_a-findfp.o) (_fwalk)
d:/altera/15.0.0.130/nios2eds/bin/gnu/h-x86_64-mingw32/bin/../lib/gcc/nios2-elf/4.9.1/../../../../../H-x86_64-mingw32/nios2-elf/lib\libc.a(lib_a-impure.o)
                              d:/altera/15.0.0.130/nios2eds/bin/gnu/h-x86_64-mingw32/bin/../lib/gcc/nios2-elf/4.9.1/../../../../../H-x86_64-mingw32/nios2-elf/lib\libc.a(lib_a-fflush.o) (_global_impure_ptr)
d:/altera/15.0.0.130/nios2eds/bin/gnu/h-x86_64-mingw32/bin/../lib/gcc/nios2-elf/4.9.1/../../../../../H-x86_64-mingw32/nios2-elf/lib\libc.a(lib_a-locale.o)
                              d:/altera/15.0.0.130/nios2eds/bin/gnu/h-x86_64-mingw32/bin/../lib/gcc/nios2-elf/4.9.1/../../../../../H-x86_64-mingw32/nios2-elf/lib\libc.a(lib_a-vfprintf.o) (_localeconv_r)
d:/altera/15.0.0.130/nios2eds/bin/gnu/h-x86_64-mingw32/bin/../lib/gcc/nios2-elf/4.9.1/../../../../../H-x86_64-mingw32/nios2-elf/lib\libc.a(lib_a-makebuf.o)
                              d:/altera/15.0.0.130/nios2eds/bin/gnu/h-x86_64-mingw32/bin/../lib/gcc/nios2-elf/4.9.1/../../../../../H-x86_64-mingw32/nios2-elf/lib\libc.a(lib_a-wsetup.o) (__smakebuf_r)
d:/altera/15.0.0.130/nios2eds/bin/gnu/h-x86_64-mingw32/bin/../lib/gcc/nios2-elf/4.9.1/../../../../../H-x86_64-mingw32/nios2-elf/lib\libc.a(lib_a-mallocr.o)
                              d:/altera/15.0.0.130/nios2eds/bin/gnu/h-x86_64-mingw32/bin/../lib/gcc/nios2-elf/4.9.1/../../../../../H-x86_64-mingw32/nios2-elf/lib\libc.a(lib_a-findfp.o) (_malloc_r)
d:/altera/15.0.0.130/nios2eds/bin/gnu/h-x86_64-mingw32/bin/../lib/gcc/nios2-elf/4.9.1/../../../../../H-x86_64-mingw32/nios2-elf/lib\libc.a(lib_a-memchr.o)
                              d:/altera/15.0.0.130/nios2eds/bin/gnu/h-x86_64-mingw32/bin/../lib/gcc/nios2-elf/4.9.1/../../../../../H-x86_64-mingw32/nios2-elf/lib\libc.a(lib_a-vfprintf.o) (memchr)
d:/altera/15.0.0.130/nios2eds/bin/gnu/h-x86_64-mingw32/bin/../lib/gcc/nios2-elf/4.9.1/../../../../../H-x86_64-mingw32/nios2-elf/lib\libc.a(lib_a-memcpy.o)
                              d:/altera/15.0.0.130/nios2eds/bin/gnu/h-x86_64-mingw32/bin/../lib/gcc/nios2-elf/4.9.1/../../../../../H-x86_64-mingw32/nios2-elf/lib\libc.a(lib_a-dtoa.o) (memcpy)
d:/altera/15.0.0.130/nios2eds/bin/gnu/h-x86_64-mingw32/bin/../lib/gcc/nios2-elf/4.9.1/../../../../../H-x86_64-mingw32/nios2-elf/lib\libc.a(lib_a-memmove.o)
                              d:/altera/15.0.0.130/nios2eds/bin/gnu/h-x86_64-mingw32/bin/../lib/gcc/nios2-elf/4.9.1/../../../../../H-x86_64-mingw32/nios2-elf/lib\libc.a(lib_a-fvwrite.o) (memmove)
d:/altera/15.0.0.130/nios2eds/bin/gnu/h-x86_64-mingw32/bin/../lib/gcc/nios2-elf/4.9.1/../../../../../H-x86_64-mingw32/nios2-elf/lib\libc.a(lib_a-memset.o)
                              d:/altera/15.0.0.130/nios2eds/bin/gnu/h-x86_64-mingw32/bin/../lib/gcc/nios2-elf/4.9.1/../../../../../H-x86_64-mingw32/nios2-elf/lib\libc.a(lib_a-findfp.o) (memset)
d:/altera/15.0.0.130/nios2eds/bin/gnu/h-x86_64-mingw32/bin/../lib/gcc/nios2-elf/4.9.1/../../../../../H-x86_64-mingw32/nios2-elf/lib\libc.a(lib_a-mprec.o)
                              d:/altera/15.0.0.130/nios2eds/bin/gnu/h-x86_64-mingw32/bin/../lib/gcc/nios2-elf/4.9.1/../../../../../H-x86_64-mingw32/nios2-elf/lib\libc.a(lib_a-dtoa.o) (_Balloc)
d:/altera/15.0.0.130/nios2eds/bin/gnu/h-x86_64-mingw32/bin/../lib/gcc/nios2-elf/4.9.1/../../../../../H-x86_64-mingw32/nios2-elf/lib\libc.a(lib_a-reallocr.o)
                              d:/altera/15.0.0.130/nios2eds/bin/gnu/h-x86_64-mingw32/bin/../lib/gcc/nios2-elf/4.9.1/../../../../../H-x86_64-mingw32/nios2-elf/lib\libc.a(lib_a-fvwrite.o) (_realloc_r)
d:/altera/15.0.0.130/nios2eds/bin/gnu/h-x86_64-mingw32/bin/../lib/gcc/nios2-elf/4.9.1/../../../../../H-x86_64-mingw32/nios2-elf/lib\libc.a(lib_a-s_fpclassify.o)
                              d:/altera/15.0.0.130/nios2eds/bin/gnu/h-x86_64-mingw32/bin/../lib/gcc/nios2-elf/4.9.1/../../../../../H-x86_64-mingw32/nios2-elf/lib\libc.a(lib_a-vfprintf.o) (__fpclassifyd)
d:/altera/15.0.0.130/nios2eds/bin/gnu/h-x86_64-mingw32/bin/../lib/gcc/nios2-elf/4.9.1/../../../../../H-x86_64-mingw32/nios2-elf/lib\libc.a(lib_a-sbrkr.o)
                              d:/altera/15.0.0.130/nios2eds/bin/gnu/h-x86_64-mingw32/bin/../lib/gcc/nios2-elf/4.9.1/../../../../../H-x86_64-mingw32/nios2-elf/lib\libc.a(lib_a-freer.o) (_sbrk_r)
d:/altera/15.0.0.130/nios2eds/bin/gnu/h-x86_64-mingw32/bin/../lib/gcc/nios2-elf/4.9.1/../../../../../H-x86_64-mingw32/nios2-elf/lib\libc.a(lib_a-stdio.o)
                              d:/altera/15.0.0.130/nios2eds/bin/gnu/h-x86_64-mingw32/bin/../lib/gcc/nios2-elf/4.9.1/../../../../../H-x86_64-mingw32/nios2-elf/lib\libc.a(lib_a-findfp.o) (__sread)
d:/altera/15.0.0.130/nios2eds/bin/gnu/h-x86_64-mingw32/bin/../lib/gcc/nios2-elf/4.9.1/../../../../../H-x86_64-mingw32/nios2-elf/lib\libc.a(lib_a-strcmp.o)
                              d:/altera/15.0.0.130/nios2eds/bin/gnu/h-x86_64-mingw32/bin/../lib/gcc/nios2-elf/4.9.1/../../../../../H-x86_64-mingw32/nios2-elf/lib\libc.a(lib_a-locale.o) (strcmp)
d:/altera/15.0.0.130/nios2eds/bin/gnu/h-x86_64-mingw32/bin/../lib/gcc/nios2-elf/4.9.1/../../../../../H-x86_64-mingw32/nios2-elf/lib\libc.a(lib_a-vfiprintf.o)
                              d:/altera/15.0.0.130/nios2eds/bin/gnu/h-x86_64-mingw32/bin/../lib/gcc/nios2-elf/4.9.1/../../../../../H-x86_64-mingw32/nios2-elf/lib\libc.a(lib_a-vfprintf.o) (__sprint_r)
d:/altera/15.0.0.130/nios2eds/bin/gnu/h-x86_64-mingw32/bin/../lib/gcc/nios2-elf/4.9.1/../../../../../H-x86_64-mingw32/nios2-elf/lib\libc.a(lib_a-writer.o)
                              d:/altera/15.0.0.130/nios2eds/bin/gnu/h-x86_64-mingw32/bin/../lib/gcc/nios2-elf/4.9.1/../../../../../H-x86_64-mingw32/nios2-elf/lib\libc.a(lib_a-stdio.o) (_write_r)
d:/altera/15.0.0.130/nios2eds/bin/gnu/h-x86_64-mingw32/bin/../lib/gcc/nios2-elf/4.9.1/../../../../../H-x86_64-mingw32/nios2-elf/lib\libc.a(closer.o)
                              d:/altera/15.0.0.130/nios2eds/bin/gnu/h-x86_64-mingw32/bin/../lib/gcc/nios2-elf/4.9.1/../../../../../H-x86_64-mingw32/nios2-elf/lib\libc.a(lib_a-stdio.o) (_close_r)
d:/altera/15.0.0.130/nios2eds/bin/gnu/h-x86_64-mingw32/bin/../lib/gcc/nios2-elf/4.9.1/../../../../../H-x86_64-mingw32/nios2-elf/lib\libc.a(lib_a-callocr.o)
                              d:/altera/15.0.0.130/nios2eds/bin/gnu/h-x86_64-mingw32/bin/../lib/gcc/nios2-elf/4.9.1/../../../../../H-x86_64-mingw32/nios2-elf/lib\libc.a(lib_a-mprec.o) (_calloc_r)
d:/altera/15.0.0.130/nios2eds/bin/gnu/h-x86_64-mingw32/bin/../lib/gcc/nios2-elf/4.9.1/../../../../../H-x86_64-mingw32/nios2-elf/lib\libc.a(lib_a-fclose.o)
                              d:/altera/15.0.0.130/nios2eds/bin/gnu/h-x86_64-mingw32/bin/../lib/gcc/nios2-elf/4.9.1/../../../../../H-x86_64-mingw32/nios2-elf/lib\libc.a(lib_a-findfp.o) (fclose)
d:/altera/15.0.0.130/nios2eds/bin/gnu/h-x86_64-mingw32/bin/../lib/gcc/nios2-elf/4.9.1/../../../../../H-x86_64-mingw32/nios2-elf/lib\libc.a(lib_a-fputwc.o)
                              d:/altera/15.0.0.130/nios2eds/bin/gnu/h-x86_64-mingw32/bin/../lib/gcc/nios2-elf/4.9.1/../../../../../H-x86_64-mingw32/nios2-elf/lib\libc.a(lib_a-vfiprintf.o) (_fputwc_r)
d:/altera/15.0.0.130/nios2eds/bin/gnu/h-x86_64-mingw32/bin/../lib/gcc/nios2-elf/4.9.1/../../../../../H-x86_64-mingw32/nios2-elf/lib\libc.a(lib_a-fstatr.o)
                              d:/altera/15.0.0.130/nios2eds/bin/gnu/h-x86_64-mingw32/bin/../lib/gcc/nios2-elf/4.9.1/../../../../../H-x86_64-mingw32/nios2-elf/lib\libc.a(lib_a-makebuf.o) (_fstat_r)
d:/altera/15.0.0.130/nios2eds/bin/gnu/h-x86_64-mingw32/bin/../lib/gcc/nios2-elf/4.9.1/../../../../../H-x86_64-mingw32/nios2-elf/lib\libc.a(lib_a-int_errno.o)
                              d:/altera/15.0.0.130/nios2eds/bin/gnu/h-x86_64-mingw32/bin/../lib/gcc/nios2-elf/4.9.1/../../../../../H-x86_64-mingw32/nios2-elf/lib\libc.a(lib_a-sbrkr.o) (errno)
d:/altera/15.0.0.130/nios2eds/bin/gnu/h-x86_64-mingw32/bin/../lib/gcc/nios2-elf/4.9.1/../../../../../H-x86_64-mingw32/nios2-elf/lib\libc.a(lib_a-isattyr.o)
                              d:/altera/15.0.0.130/nios2eds/bin/gnu/h-x86_64-mingw32/bin/../lib/gcc/nios2-elf/4.9.1/../../../../../H-x86_64-mingw32/nios2-elf/lib\libc.a(lib_a-makebuf.o) (_isatty_r)
d:/altera/15.0.0.130/nios2eds/bin/gnu/h-x86_64-mingw32/bin/../lib/gcc/nios2-elf/4.9.1/../../../../../H-x86_64-mingw32/nios2-elf/lib\libc.a(lib_a-lseekr.o)
                              d:/altera/15.0.0.130/nios2eds/bin/gnu/h-x86_64-mingw32/bin/../lib/gcc/nios2-elf/4.9.1/../../../../../H-x86_64-mingw32/nios2-elf/lib\libc.a(lib_a-stdio.o) (_lseek_r)
d:/altera/15.0.0.130/nios2eds/bin/gnu/h-x86_64-mingw32/bin/../lib/gcc/nios2-elf/4.9.1/../../../../../H-x86_64-mingw32/nios2-elf/lib\libc.a(lib_a-readr.o)
                              d:/altera/15.0.0.130/nios2eds/bin/gnu/h-x86_64-mingw32/bin/../lib/gcc/nios2-elf/4.9.1/../../../../../H-x86_64-mingw32/nios2-elf/lib\libc.a(lib_a-stdio.o) (_read_r)
d:/altera/15.0.0.130/nios2eds/bin/gnu/h-x86_64-mingw32/bin/../lib/gcc/nios2-elf/4.9.1/../../../../../H-x86_64-mingw32/nios2-elf/lib\libc.a(lib_a-wbuf.o)
                              d:/altera/15.0.0.130/nios2eds/bin/gnu/h-x86_64-mingw32/bin/../lib/gcc/nios2-elf/4.9.1/../../../../../H-x86_64-mingw32/nios2-elf/lib\libc.a(lib_a-fputwc.o) (__swbuf_r)
d:/altera/15.0.0.130/nios2eds/bin/gnu/h-x86_64-mingw32/bin/../lib/gcc/nios2-elf/4.9.1/../../../../../H-x86_64-mingw32/nios2-elf/lib\libc.a(lib_a-wcrtomb.o)
                              d:/altera/15.0.0.130/nios2eds/bin/gnu/h-x86_64-mingw32/bin/../lib/gcc/nios2-elf/4.9.1/../../../../../H-x86_64-mingw32/nios2-elf/lib\libc.a(lib_a-fputwc.o) (_wcrtomb_r)
d:/altera/15.0.0.130/nios2eds/bin/gnu/h-x86_64-mingw32/bin/../lib/gcc/nios2-elf/4.9.1/../../../../../H-x86_64-mingw32/nios2-elf/lib\libc.a(lib_a-wctomb_r.o)
                              d:/altera/15.0.0.130/nios2eds/bin/gnu/h-x86_64-mingw32/bin/../lib/gcc/nios2-elf/4.9.1/../../../../../H-x86_64-mingw32/nios2-elf/lib\libc.a(lib_a-wcrtomb.o) (__wctomb)
d:/altera/15.0.0.130/nios2eds/bin/gnu/h-x86_64-mingw32/bin/../lib/gcc/nios2-elf/4.9.1\libgcc.a(_udivdi3.o)
                              d:/altera/15.0.0.130/nios2eds/bin/gnu/h-x86_64-mingw32/bin/../lib/gcc/nios2-elf/4.9.1/../../../../../H-x86_64-mingw32/nios2-elf/lib\libc.a(lib_a-vfprintf.o) (__udivdi3)
d:/altera/15.0.0.130/nios2eds/bin/gnu/h-x86_64-mingw32/bin/../lib/gcc/nios2-elf/4.9.1\libgcc.a(_umoddi3.o)
                              d:/altera/15.0.0.130/nios2eds/bin/gnu/h-x86_64-mingw32/bin/../lib/gcc/nios2-elf/4.9.1/../../../../../H-x86_64-mingw32/nios2-elf/lib\libc.a(lib_a-vfprintf.o) (__umoddi3)
d:/altera/15.0.0.130/nios2eds/bin/gnu/h-x86_64-mingw32/bin/../lib/gcc/nios2-elf/4.9.1\libgcc.a(lib2-divmod.o)
                              d:/altera/15.0.0.130/nios2eds/bin/gnu/h-x86_64-mingw32/bin/../lib/gcc/nios2-elf/4.9.1/../../../../../H-x86_64-mingw32/nios2-elf/lib\libc.a(lib_a-vfprintf.o) (__divsi3)
d:/altera/15.0.0.130/nios2eds/bin/gnu/h-x86_64-mingw32/bin/../lib/gcc/nios2-elf/4.9.1\libgcc.a(adddf3.o)
                              d:/altera/15.0.0.130/nios2eds/bin/gnu/h-x86_64-mingw32/bin/../lib/gcc/nios2-elf/4.9.1/../../../../../H-x86_64-mingw32/nios2-elf/lib\libc.a(lib_a-dtoa.o) (__adddf3)
d:/altera/15.0.0.130/nios2eds/bin/gnu/h-x86_64-mingw32/bin/../lib/gcc/nios2-elf/4.9.1\libgcc.a(divdf3.o)
                              d:/altera/15.0.0.130/nios2eds/bin/gnu/h-x86_64-mingw32/bin/../lib/gcc/nios2-elf/4.9.1/../../../../../H-x86_64-mingw32/nios2-elf/lib\libc.a(lib_a-dtoa.o) (__divdf3)
d:/altera/15.0.0.130/nios2eds/bin/gnu/h-x86_64-mingw32/bin/../lib/gcc/nios2-elf/4.9.1\libgcc.a(eqdf2.o)
                              d:/altera/15.0.0.130/nios2eds/bin/gnu/h-x86_64-mingw32/bin/../lib/gcc/nios2-elf/4.9.1/../../../../../H-x86_64-mingw32/nios2-elf/lib\libc.a(lib_a-vfprintf.o) (__eqdf2)
d:/altera/15.0.0.130/nios2eds/bin/gnu/h-x86_64-mingw32/bin/../lib/gcc/nios2-elf/4.9.1\libgcc.a(gedf2.o)
                              d:/altera/15.0.0.130/nios2eds/bin/gnu/h-x86_64-mingw32/bin/../lib/gcc/nios2-elf/4.9.1/../../../../../H-x86_64-mingw32/nios2-elf/lib\libc.a(lib_a-dtoa.o) (__gedf2)
d:/altera/15.0.0.130/nios2eds/bin/gnu/h-x86_64-mingw32/bin/../lib/gcc/nios2-elf/4.9.1\libgcc.a(ledf2.o)
                              d:/altera/15.0.0.130/nios2eds/bin/gnu/h-x86_64-mingw32/bin/../lib/gcc/nios2-elf/4.9.1/../../../../../H-x86_64-mingw32/nios2-elf/lib\libc.a(lib_a-vfprintf.o) (__ltdf2)
d:/altera/15.0.0.130/nios2eds/bin/gnu/h-x86_64-mingw32/bin/../lib/gcc/nios2-elf/4.9.1\libgcc.a(muldf3.o)
                              d:/altera/15.0.0.130/nios2eds/bin/gnu/h-x86_64-mingw32/bin/../lib/gcc/nios2-elf/4.9.1/../../../../../H-x86_64-mingw32/nios2-elf/lib\libc.a(lib_a-dtoa.o) (__muldf3)
d:/altera/15.0.0.130/nios2eds/bin/gnu/h-x86_64-mingw32/bin/../lib/gcc/nios2-elf/4.9.1\libgcc.a(subdf3.o)
                              d:/altera/15.0.0.130/nios2eds/bin/gnu/h-x86_64-mingw32/bin/../lib/gcc/nios2-elf/4.9.1/../../../../../H-x86_64-mingw32/nios2-elf/lib\libc.a(lib_a-dtoa.o) (__subdf3)
d:/altera/15.0.0.130/nios2eds/bin/gnu/h-x86_64-mingw32/bin/../lib/gcc/nios2-elf/4.9.1\libgcc.a(fixdfsi.o)
                              d:/altera/15.0.0.130/nios2eds/bin/gnu/h-x86_64-mingw32/bin/../lib/gcc/nios2-elf/4.9.1/../../../../../H-x86_64-mingw32/nios2-elf/lib\libc.a(lib_a-dtoa.o) (__fixdfsi)
d:/altera/15.0.0.130/nios2eds/bin/gnu/h-x86_64-mingw32/bin/../lib/gcc/nios2-elf/4.9.1\libgcc.a(floatsidf.o)
                              d:/altera/15.0.0.130/nios2eds/bin/gnu/h-x86_64-mingw32/bin/../lib/gcc/nios2-elf/4.9.1/../../../../../H-x86_64-mingw32/nios2-elf/lib\libc.a(lib_a-dtoa.o) (__floatsidf)
d:/altera/15.0.0.130/nios2eds/bin/gnu/h-x86_64-mingw32/bin/../lib/gcc/nios2-elf/4.9.1\libgcc.a(floatunsidf.o)
                              d:/altera/15.0.0.130/nios2eds/bin/gnu/h-x86_64-mingw32/bin/../lib/gcc/nios2-elf/4.9.1/../../../../../H-x86_64-mingw32/nios2-elf/lib\libc.a(lib_a-dtoa.o) (__floatunsidf)
../DECA_TEMP_bsp/\libhal_bsp.a(alt_close.o)
                              d:/altera/15.0.0.130/nios2eds/bin/gnu/h-x86_64-mingw32/bin/../lib/gcc/nios2-elf/4.9.1/../../../../../H-x86_64-mingw32/nios2-elf/lib\libc.a(closer.o) (close)
../DECA_TEMP_bsp/\libhal_bsp.a(alt_dev.o)
                              ../DECA_TEMP_bsp/\libhal_bsp.a(alt_close.o) (alt_fd_list)
../DECA_TEMP_bsp/\libhal_bsp.a(alt_errno.o)
                              ../DECA_TEMP_bsp/\libhal_bsp.a(alt_close.o) (alt_errno)
../DECA_TEMP_bsp/\libhal_bsp.a(alt_fstat.o)
                              d:/altera/15.0.0.130/nios2eds/bin/gnu/h-x86_64-mingw32/bin/../lib/gcc/nios2-elf/4.9.1/../../../../../H-x86_64-mingw32/nios2-elf/lib\libc.a(lib_a-fstatr.o) (fstat)
../DECA_TEMP_bsp/\libhal_bsp.a(alt_isatty.o)
                              d:/altera/15.0.0.130/nios2eds/bin/gnu/h-x86_64-mingw32/bin/../lib/gcc/nios2-elf/4.9.1/../../../../../H-x86_64-mingw32/nios2-elf/lib\libc.a(lib_a-isattyr.o) (isatty)
../DECA_TEMP_bsp/\libhal_bsp.a(alt_load.o)
                              ../DECA_TEMP_bsp//obj/HAL/src/crt0.o (alt_load)
../DECA_TEMP_bsp/\libhal_bsp.a(alt_lseek.o)
                              d:/altera/15.0.0.130/nios2eds/bin/gnu/h-x86_64-mingw32/bin/../lib/gcc/nios2-elf/4.9.1/../../../../../H-x86_64-mingw32/nios2-elf/lib\libc.a(lib_a-lseekr.o) (lseek)
../DECA_TEMP_bsp/\libhal_bsp.a(alt_main.o)
                              ../DECA_TEMP_bsp//obj/HAL/src/crt0.o (alt_main)
../DECA_TEMP_bsp/\libhal_bsp.a(alt_malloc_lock.o)
                              d:/altera/15.0.0.130/nios2eds/bin/gnu/h-x86_64-mingw32/bin/../lib/gcc/nios2-elf/4.9.1/../../../../../H-x86_64-mingw32/nios2-elf/lib\libc.a(lib_a-freer.o) (__malloc_lock)
../DECA_TEMP_bsp/\libhal_bsp.a(alt_read.o)
                              d:/altera/15.0.0.130/nios2eds/bin/gnu/h-x86_64-mingw32/bin/../lib/gcc/nios2-elf/4.9.1/../../../../../H-x86_64-mingw32/nios2-elf/lib\libc.a(lib_a-readr.o) (read)
../DECA_TEMP_bsp/\libhal_bsp.a(alt_release_fd.o)
                              ../DECA_TEMP_bsp/\libhal_bsp.a(alt_close.o) (alt_release_fd)
../DECA_TEMP_bsp/\libhal_bsp.a(alt_sbrk.o)
                              d:/altera/15.0.0.130/nios2eds/bin/gnu/h-x86_64-mingw32/bin/../lib/gcc/nios2-elf/4.9.1/../../../../../H-x86_64-mingw32/nios2-elf/lib\libc.a(lib_a-sbrkr.o) (sbrk)
../DECA_TEMP_bsp/\libhal_bsp.a(alt_usleep.o)
                              obj/default/main.o (usleep)
../DECA_TEMP_bsp/\libhal_bsp.a(alt_write.o)
                              d:/altera/15.0.0.130/nios2eds/bin/gnu/h-x86_64-mingw32/bin/../lib/gcc/nios2-elf/4.9.1/../../../../../H-x86_64-mingw32/nios2-elf/lib\libc.a(lib_a-writer.o) (write)
../DECA_TEMP_bsp/\libhal_bsp.a(alt_sys_init.o)
                              ../DECA_TEMP_bsp/\libhal_bsp.a(alt_main.o) (alt_irq_init)
../DECA_TEMP_bsp/\libhal_bsp.a(altera_avalon_jtag_uart_fd.o)
                              ../DECA_TEMP_bsp/\libhal_bsp.a(alt_sys_init.o) (altera_avalon_jtag_uart_read_fd)
../DECA_TEMP_bsp/\libhal_bsp.a(altera_avalon_jtag_uart_init.o)
                              ../DECA_TEMP_bsp/\libhal_bsp.a(alt_sys_init.o) (altera_avalon_jtag_uart_init)
../DECA_TEMP_bsp/\libhal_bsp.a(altera_avalon_jtag_uart_ioctl.o)
                              ../DECA_TEMP_bsp/\libhal_bsp.a(altera_avalon_jtag_uart_fd.o) (altera_avalon_jtag_uart_ioctl)
../DECA_TEMP_bsp/\libhal_bsp.a(altera_avalon_jtag_uart_read.o)
                              ../DECA_TEMP_bsp/\libhal_bsp.a(altera_avalon_jtag_uart_fd.o) (altera_avalon_jtag_uart_read)
../DECA_TEMP_bsp/\libhal_bsp.a(altera_avalon_jtag_uart_write.o)
                              ../DECA_TEMP_bsp/\libhal_bsp.a(altera_avalon_jtag_uart_fd.o) (altera_avalon_jtag_uart_write)
../DECA_TEMP_bsp/\libhal_bsp.a(altera_avalon_timer_sc.o)
                              ../DECA_TEMP_bsp/\libhal_bsp.a(alt_sys_init.o) (alt_avalon_timer_sc_init)
../DECA_TEMP_bsp/\libhal_bsp.a(alt_alarm_start.o)
                              ../DECA_TEMP_bsp/\libhal_bsp.a(altera_avalon_jtag_uart_init.o) (alt_alarm_start)
../DECA_TEMP_bsp/\libhal_bsp.a(alt_busy_sleep.o)
                              ../DECA_TEMP_bsp/\libhal_bsp.a(alt_usleep.o) (alt_busy_sleep)
../DECA_TEMP_bsp/\libhal_bsp.a(alt_dcache_flush_all.o)
                              ../DECA_TEMP_bsp/\libhal_bsp.a(alt_load.o) (alt_dcache_flush_all)
../DECA_TEMP_bsp/\libhal_bsp.a(alt_dev_llist_insert.o)
                              ../DECA_TEMP_bsp/\libhal_bsp.a(alt_sys_init.o) (alt_dev_llist_insert)
../DECA_TEMP_bsp/\libhal_bsp.a(alt_do_ctors.o)
                              ../DECA_TEMP_bsp/\libhal_bsp.a(alt_main.o) (_do_ctors)
../DECA_TEMP_bsp/\libhal_bsp.a(alt_do_dtors.o)
                              ../DECA_TEMP_bsp/\libhal_bsp.a(alt_main.o) (_do_dtors)
../DECA_TEMP_bsp/\libhal_bsp.a(alt_icache_flush_all.o)
                              ../DECA_TEMP_bsp/\libhal_bsp.a(alt_load.o) (alt_icache_flush_all)
../DECA_TEMP_bsp/\libhal_bsp.a(alt_iic.o)
                              ../DECA_TEMP_bsp/\libhal_bsp.a(altera_avalon_jtag_uart_init.o) (alt_ic_isr_register)
../DECA_TEMP_bsp/\libhal_bsp.a(alt_iic_isr_register.o)
                              ../DECA_TEMP_bsp/\libhal_bsp.a(alt_iic.o) (alt_iic_isr_register)
../DECA_TEMP_bsp/\libhal_bsp.a(alt_io_redirect.o)
                              ../DECA_TEMP_bsp/\libhal_bsp.a(alt_main.o) (alt_io_redirect)
../DECA_TEMP_bsp/\libhal_bsp.a(alt_irq_entry.o)
                              ../DECA_TEMP_bsp/\libhal_bsp.a(alt_iic_isr_register.o) (alt_irq_entry)
../DECA_TEMP_bsp/\libhal_bsp.a(alt_irq_handler.o)
                              ../DECA_TEMP_bsp/\libhal_bsp.a(alt_iic_isr_register.o) (alt_irq)
../DECA_TEMP_bsp/\libhal_bsp.a(alt_irq_vars.o)
                              ../DECA_TEMP_bsp/\libhal_bsp.a(alt_iic.o) (alt_irq_active)
../DECA_TEMP_bsp/\libhal_bsp.a(alt_open.o)
                              ../DECA_TEMP_bsp/\libhal_bsp.a(alt_io_redirect.o) (open)
../DECA_TEMP_bsp/\libhal_bsp.a(alt_tick.o)
                              ../DECA_TEMP_bsp/\libhal_bsp.a(altera_avalon_jtag_uart_init.o) (_alt_tick_rate)
../DECA_TEMP_bsp/\libhal_bsp.a(altera_nios2_gen2_irq.o)
                              ../DECA_TEMP_bsp/\libhal_bsp.a(alt_sys_init.o) (altera_nios2_gen2_irq_init)
../DECA_TEMP_bsp/\libhal_bsp.a(alt_exception_entry.o)
                              ../DECA_TEMP_bsp/\libhal_bsp.a(alt_irq_entry.o) (alt_exception)
../DECA_TEMP_bsp/\libhal_bsp.a(alt_find_dev.o)
                              ../DECA_TEMP_bsp/\libhal_bsp.a(alt_open.o) (alt_find_dev)
../DECA_TEMP_bsp/\libhal_bsp.a(alt_find_file.o)
                              ../DECA_TEMP_bsp/\libhal_bsp.a(alt_open.o) (alt_find_file)
../DECA_TEMP_bsp/\libhal_bsp.a(alt_get_fd.o)
                              ../DECA_TEMP_bsp/\libhal_bsp.a(alt_open.o) (alt_get_fd)
../DECA_TEMP_bsp/\libhal_bsp.a(alt_icache_flush.o)
                              ../DECA_TEMP_bsp/\libhal_bsp.a(alt_icache_flush_all.o) (alt_icache_flush)
../DECA_TEMP_bsp/\libhal_bsp.a(alt_instruction_exception_entry.o)
                              ../DECA_TEMP_bsp/\libhal_bsp.a(alt_exception_entry.o) (alt_instruction_exception_entry)
d:/altera/15.0.0.130/nios2eds/bin/gnu/h-x86_64-mingw32/bin/../lib/gcc/nios2-elf/4.9.1/../../../../../H-x86_64-mingw32/nios2-elf/lib\libc.a(lib_a-atexit.o)
                              ../DECA_TEMP_bsp/\libhal_bsp.a(alt_main.o) (atexit)
d:/altera/15.0.0.130/nios2eds/bin/gnu/h-x86_64-mingw32/bin/../lib/gcc/nios2-elf/4.9.1/../../../../../H-x86_64-mingw32/nios2-elf/lib\libc.a(lib_a-exit.o)
                              ../DECA_TEMP_bsp/\libhal_bsp.a(alt_main.o) (exit)
d:/altera/15.0.0.130/nios2eds/bin/gnu/h-x86_64-mingw32/bin/../lib/gcc/nios2-elf/4.9.1/../../../../../H-x86_64-mingw32/nios2-elf/lib\libc.a(lib_a-memcmp.o)
                              ../DECA_TEMP_bsp/\libhal_bsp.a(alt_find_dev.o) (memcmp)
d:/altera/15.0.0.130/nios2eds/bin/gnu/h-x86_64-mingw32/bin/../lib/gcc/nios2-elf/4.9.1/../../../../../H-x86_64-mingw32/nios2-elf/lib\libc.a(lib_a-__atexit.o)
                              d:/altera/15.0.0.130/nios2eds/bin/gnu/h-x86_64-mingw32/bin/../lib/gcc/nios2-elf/4.9.1/../../../../../H-x86_64-mingw32/nios2-elf/lib\libc.a(lib_a-atexit.o) (__register_exitproc)
d:/altera/15.0.0.130/nios2eds/bin/gnu/h-x86_64-mingw32/bin/../lib/gcc/nios2-elf/4.9.1/../../../../../H-x86_64-mingw32/nios2-elf/lib\libc.a(lib_a-__call_atexit.o)
                              d:/altera/15.0.0.130/nios2eds/bin/gnu/h-x86_64-mingw32/bin/../lib/gcc/nios2-elf/4.9.1/../../../../../H-x86_64-mingw32/nios2-elf/lib\libc.a(lib_a-exit.o) (__call_exitprocs)
../DECA_TEMP_bsp/\libhal_bsp.a(alt_exit.o)
                              d:/altera/15.0.0.130/nios2eds/bin/gnu/h-x86_64-mingw32/bin/../lib/gcc/nios2-elf/4.9.1/../../../../../H-x86_64-mingw32/nios2-elf/lib\libc.a(lib_a-exit.o) (_exit)

Allocating common symbols
Common symbol       size              file

alt_irq             0x100             ../DECA_TEMP_bsp/\libhal_bsp.a(alt_irq_handler.o)
errno               0x4               d:/altera/15.0.0.130/nios2eds/bin/gnu/h-x86_64-mingw32/bin/../lib/gcc/nios2-elf/4.9.1/../../../../../H-x86_64-mingw32/nios2-elf/lib\libc.a(lib_a-int_errno.o)

Memory Configuration

Name             Origin             Length             Attributes
reset            0x0000000001040000 0x0000000000000020
onchip_memory2   0x0000000001040020 0x000000000001ffe0
*default*        0x0000000000000000 0xffffffffffffffff

Linker script and memory map

LOAD ../DECA_TEMP_bsp//obj/HAL/src/crt0.o
LOAD obj/default/main.o
LOAD d:/altera/15.0.0.130/nios2eds/bin/gnu/h-x86_64-mingw32/bin/../lib/gcc/nios2-elf/4.9.1/../../../../../H-x86_64-mingw32/nios2-elf/lib\libstdc++.a
LOAD d:/altera/15.0.0.130/nios2eds/bin/gnu/h-x86_64-mingw32/bin/../lib/gcc/nios2-elf/4.9.1/../../../../../H-x86_64-mingw32/nios2-elf/lib\libm.a
LOAD d:/altera/15.0.0.130/nios2eds/bin/gnu/h-x86_64-mingw32/bin/../lib/gcc/nios2-elf/4.9.1\libgcc.a
START GROUP
LOAD d:/altera/15.0.0.130/nios2eds/bin/gnu/h-x86_64-mingw32/bin/../lib/gcc/nios2-elf/4.9.1/../../../../../H-x86_64-mingw32/nios2-elf/lib\libc.a
LOAD d:/altera/15.0.0.130/nios2eds/bin/gnu/h-x86_64-mingw32/bin/../lib/gcc/nios2-elf/4.9.1\libgcc.a
LOAD ../DECA_TEMP_bsp/\libhal_bsp.a
END GROUP
LOAD d:/altera/15.0.0.130/nios2eds/bin/gnu/h-x86_64-mingw32/bin/../lib/gcc/nios2-elf/4.9.1\libgcc.a
                0x0000000001040000                __alt_mem_onchip_memory2 = 0x1040000

.entry          0x0000000001040000       0x20
 *(.entry)
 .entry         0x0000000001040000       0x20 ../DECA_TEMP_bsp//obj/HAL/src/crt0.o
                0x0000000001040000                __reset

.exceptions     0x0000000001040020      0x220
                0x0000000001040020                PROVIDE (__ram_exceptions_start, ABSOLUTE (.))
                0x0000000001040020                . = ALIGN (0x20)
 *(.irq)
 *(.exceptions.entry.label)
 .exceptions.entry.label
                0x0000000001040020        0x0 ../DECA_TEMP_bsp/\libhal_bsp.a(alt_irq_entry.o)
                0x0000000001040020                alt_irq_entry
 .exceptions.entry.label
                0x0000000001040020        0x0 ../DECA_TEMP_bsp/\libhal_bsp.a(alt_exception_entry.o)
                0x0000000001040020                alt_exception
 *(.exceptions.entry.user)
 *(.exceptions.entry.ecc_fatal)
 *(.exceptions.entry)
 .exceptions.entry
                0x0000000001040020       0x54 ../DECA_TEMP_bsp/\libhal_bsp.a(alt_exception_entry.o)
 *(.exceptions.irqtest.user)
 *(.exceptions.irqtest)
 .exceptions.irqtest
                0x0000000001040074       0x10 ../DECA_TEMP_bsp/\libhal_bsp.a(alt_irq_entry.o)
 *(.exceptions.irqhandler.user)
 *(.exceptions.irqhandler)
 .exceptions.irqhandler
                0x0000000001040084        0x4 ../DECA_TEMP_bsp/\libhal_bsp.a(alt_irq_entry.o)
 *(.exceptions.irqreturn.user)
 *(.exceptions.irqreturn)
 .exceptions.irqreturn
                0x0000000001040088        0x4 ../DECA_TEMP_bsp/\libhal_bsp.a(alt_irq_entry.o)
 *(.exceptions.notirq.label)
 .exceptions.notirq.label
                0x000000000104008c        0x0 ../DECA_TEMP_bsp/\libhal_bsp.a(alt_irq_entry.o)
 *(.exceptions.notirq.user)
 *(.exceptions.notirq)
 .exceptions.notirq
                0x000000000104008c        0x8 ../DECA_TEMP_bsp/\libhal_bsp.a(alt_exception_entry.o)
 *(.exceptions.soft.user)
 *(.exceptions.soft)
 *(.exceptions.unknown.user)
 *(.exceptions.unknown)
 .exceptions.unknown
                0x0000000001040094       0x14 ../DECA_TEMP_bsp/\libhal_bsp.a(alt_exception_entry.o)
 *(.exceptions.exit.label)
 .exceptions.exit.label
                0x00000000010400a8        0x0 ../DECA_TEMP_bsp/\libhal_bsp.a(alt_irq_entry.o)
 .exceptions.exit.label
                0x00000000010400a8        0x0 ../DECA_TEMP_bsp/\libhal_bsp.a(alt_exception_entry.o)
 *(.exceptions.exit.user)
 *(.exceptions.exit)
 .exceptions.exit
                0x00000000010400a8       0x54 ../DECA_TEMP_bsp/\libhal_bsp.a(alt_exception_entry.o)
 *(.exceptions)
 .exceptions    0x00000000010400fc       0xd0 ../DECA_TEMP_bsp/\libhal_bsp.a(alt_irq_handler.o)
                0x00000000010400fc                alt_irq_handler
 .exceptions    0x00000000010401cc       0x74 ../DECA_TEMP_bsp/\libhal_bsp.a(alt_instruction_exception_entry.o)
                0x00000000010401cc                alt_instruction_exception_entry
                0x0000000001040240                PROVIDE (__ram_exceptions_end, ABSOLUTE (.))
                0x0000000001040020                PROVIDE (__flash_exceptions_start, LOADADDR (.exceptions))

.text           0x0000000001040240     0xf4f4
                0x0000000001040240                PROVIDE (stext, ABSOLUTE (.))
 *(.interp)
 *(.hash)
 *(.dynsym)
 *(.dynstr)
 *(.gnu.version)
 *(.gnu.version_d)
 *(.gnu.version_r)
 *(.rel.init)
 *(.rela.init)
 *(.rel.text .rel.text.* .rel.gnu.linkonce.t.*)
 *(.rela.text .rela.text.* .rela.gnu.linkonce.t.*)
 *(.rel.fini)
 *(.rela.fini)
 *(.rel.rodata .rel.rodata.* .rel.gnu.linkonce.r.*)
 *(.rela.rodata .rela.rodata.* .rela.gnu.linkonce.r.*)
 *(.rel.data .rel.data.* .rel.gnu.linkonce.d.*)
 *(.rela.data .rela.data.* .rela.gnu.linkonce.d.*)
 *(.rel.tdata .rel.tdata.* .rel.gnu.linkonce.td.*)
 *(.rela.tdata .rela.tdata.* .rela.gnu.linkonce.td.*)
 *(.rel.tbss .rel.tbss.* .rel.gnu.linkonce.tb.*)
 *(.rela.tbss .rela.tbss.* .rela.gnu.linkonce.tb.*)
 *(.rel.ctors)
 *(.rela.ctors)
 *(.rel.dtors)
 *(.rela.dtors)
 *(.rel.got)
 *(.rela.got)
 *(.rel.sdata .rel.sdata.* .rel.gnu.linkonce.s.*)
 *(.rela.sdata .rela.sdata.* .rela.gnu.linkonce.s.*)
 *(.rel.sbss .rel.sbss.* .rel.gnu.linkonce.sb.*)
 *(.rela.sbss .rela.sbss.* .rela.gnu.linkonce.sb.*)
 *(.rel.sdata2 .rel.sdata2.* .rel.gnu.linkonce.s2.*)
 *(.rela.sdata2 .rela.sdata2.* .rela.gnu.linkonce.s2.*)
 *(.rel.sbss2 .rel.sbss2.* .rel.gnu.linkonce.sb2.*)
 *(.rela.sbss2 .rela.sbss2.* .rela.gnu.linkonce.sb2.*)
 *(.rel.bss .rel.bss.* .rel.gnu.linkonce.b.*)
 *(.rela.bss .rela.bss.* .rela.gnu.linkonce.b.*)
 *(.rel.plt)
 *(.rela.plt)
 *(.rel.dyn)
 *(.init)
 *(.plt)
 *(.text .stub .text.* .gnu.linkonce.t.*)
 .text          0x0000000001040240       0x4c ../DECA_TEMP_bsp//obj/HAL/src/crt0.o
                0x0000000001040240                _start
 .text          0x000000000104028c      0x10c obj/default/main.o
                0x000000000104028c                main
 .text          0x0000000001040398      0x424 d:/altera/15.0.0.130/nios2eds/bin/gnu/h-x86_64-mingw32/bin/../lib/gcc/nios2-elf/4.9.1\libgcc.a(mulsf3.o)
                0x0000000001040398                __mulsf3
 .text          0x00000000010407bc      0x110 d:/altera/15.0.0.130/nios2eds/bin/gnu/h-x86_64-mingw32/bin/../lib/gcc/nios2-elf/4.9.1\libgcc.a(floatunsisf.o)
                0x00000000010407bc                __floatunsisf
 .text          0x00000000010408cc      0x110 d:/altera/15.0.0.130/nios2eds/bin/gnu/h-x86_64-mingw32/bin/../lib/gcc/nios2-elf/4.9.1\libgcc.a(extendsfdf2.o)
                0x00000000010408cc                __extendsfdf2
 .text          0x00000000010409dc       0x64 d:/altera/15.0.0.130/nios2eds/bin/gnu/h-x86_64-mingw32/bin/../lib/gcc/nios2-elf/4.9.1\libgcc.a(_clzsi2.o)
                0x00000000010409dc                __clzsi2
 .text          0x0000000001040a40        0x0 d:/altera/15.0.0.130/nios2eds/bin/gnu/h-x86_64-mingw32/bin/../lib/gcc/nios2-elf/4.9.1\libgcc.a(_clz.o)
 .text          0x0000000001040a40       0x68 d:/altera/15.0.0.130/nios2eds/bin/gnu/h-x86_64-mingw32/bin/../lib/gcc/nios2-elf/4.9.1/../../../../../H-x86_64-mingw32/nios2-elf/lib\libc.a(lib_a-printf.o)
                0x0000000001040a40                _printf_r
                0x0000000001040a6c                printf
 .text          0x0000000001040aa8       0xcc d:/altera/15.0.0.130/nios2eds/bin/gnu/h-x86_64-mingw32/bin/../lib/gcc/nios2-elf/4.9.1/../../../../../H-x86_64-mingw32/nios2-elf/lib\libc.a(lib_a-puts.o)
                0x0000000001040aa8                _puts_r
                0x0000000001040b60                puts
 .text          0x0000000001040b74       0x98 d:/altera/15.0.0.130/nios2eds/bin/gnu/h-x86_64-mingw32/bin/../lib/gcc/nios2-elf/4.9.1/../../../../../H-x86_64-mingw32/nios2-elf/lib\libc.a(lib_a-strlen.o)
                0x0000000001040b74                strlen
 .text          0x0000000001040c0c     0x2020 d:/altera/15.0.0.130/nios2eds/bin/gnu/h-x86_64-mingw32/bin/../lib/gcc/nios2-elf/4.9.1/../../../../../H-x86_64-mingw32/nios2-elf/lib\libc.a(lib_a-vfprintf.o)
                0x0000000001040c0c                ___vfprintf_internal_r
                0x0000000001042c08                __vfprintf_internal
 .text          0x0000000001042c2c      0x130 d:/altera/15.0.0.130/nios2eds/bin/gnu/h-x86_64-mingw32/bin/../lib/gcc/nios2-elf/4.9.1/../../../../../H-x86_64-mingw32/nios2-elf/lib\libc.a(lib_a-wsetup.o)
                0x0000000001042c2c                __swsetup_r
 .text          0x0000000001042d5c     0x1928 d:/altera/15.0.0.130/nios2eds/bin/gnu/h-x86_64-mingw32/bin/../lib/gcc/nios2-elf/4.9.1/../../../../../H-x86_64-mingw32/nios2-elf/lib\libc.a(lib_a-dtoa.o)
                0x0000000001042f5c                _dtoa_r
 .text          0x0000000001044684      0x258 d:/altera/15.0.0.130/nios2eds/bin/gnu/h-x86_64-mingw32/bin/../lib/gcc/nios2-elf/4.9.1/../../../../../H-x86_64-mingw32/nios2-elf/lib\libc.a(lib_a-fflush.o)
                0x0000000001044684                _fflush_r
                0x00000000010448ac                fflush
 .text          0x00000000010448dc      0x3a0 d:/altera/15.0.0.130/nios2eds/bin/gnu/h-x86_64-mingw32/bin/../lib/gcc/nios2-elf/4.9.1/../../../../../H-x86_64-mingw32/nios2-elf/lib\libc.a(lib_a-findfp.o)
                0x00000000010448ec                _cleanup_r
                0x0000000001044a98                __sfmoreglue
                0x0000000001044afc                __sfp
                0x0000000001044c14                _cleanup
                0x0000000001044c2c                __sinit
                0x0000000001044c3c                __sfp_lock_acquire
                0x0000000001044c40                __sfp_lock_release
                0x0000000001044c44                __sinit_lock_acquire
                0x0000000001044c48                __sinit_lock_release
                0x0000000001044c4c                __fp_lock_all
                0x0000000001044c64                __fp_unlock_all
 .text          0x0000000001044c7c      0x414 d:/altera/15.0.0.130/nios2eds/bin/gnu/h-x86_64-mingw32/bin/../lib/gcc/nios2-elf/4.9.1/../../../../../H-x86_64-mingw32/nios2-elf/lib\libc.a(lib_a-freer.o)
                0x0000000001044c7c                _malloc_trim_r
                0x0000000001044da0                _free_r
 .text          0x0000000001045090      0x4a4 d:/altera/15.0.0.130/nios2eds/bin/gnu/h-x86_64-mingw32/bin/../lib/gcc/nios2-elf/4.9.1/../../../../../H-x86_64-mingw32/nios2-elf/lib\libc.a(lib_a-fvwrite.o)
                0x0000000001045090                __sfvwrite_r
 .text          0x0000000001045534      0x170 d:/altera/15.0.0.130/nios2eds/bin/gnu/h-x86_64-mingw32/bin/../lib/gcc/nios2-elf/4.9.1/../../../../../H-x86_64-mingw32/nios2-elf/lib\libc.a(lib_a-fwalk.o)
                0x0000000001045534                _fwalk
                0x00000000010455ec                _fwalk_reent
 .text          0x00000000010456a4        0x0 d:/altera/15.0.0.130/nios2eds/bin/gnu/h-x86_64-mingw32/bin/../lib/gcc/nios2-elf/4.9.1/../../../../../H-x86_64-mingw32/nios2-elf/lib\libc.a(lib_a-impure.o)
 .text          0x00000000010456a4       0xe0 d:/altera/15.0.0.130/nios2eds/bin/gnu/h-x86_64-mingw32/bin/../lib/gcc/nios2-elf/4.9.1/../../../../../H-x86_64-mingw32/nios2-elf/lib\libc.a(lib_a-locale.o)
                0x00000000010456a4                _setlocale_r
                0x0000000001045720                __locale_charset
                0x000000000104572c                __locale_mb_cur_max
                0x000000000104573c                __locale_msgcharset
                0x0000000001045748                __locale_cjk_lang
                0x0000000001045750                _localeconv_r
                0x000000000104575c                setlocale
                0x0000000001045778                localeconv
 .text          0x0000000001045784      0x1b8 d:/altera/15.0.0.130/nios2eds/bin/gnu/h-x86_64-mingw32/bin/../lib/gcc/nios2-elf/4.9.1/../../../../../H-x86_64-mingw32/nios2-elf/lib\libc.a(lib_a-makebuf.o)
                0x0000000001045784                __smakebuf_r
 .text          0x000000000104593c      0x7a8 d:/altera/15.0.0.130/nios2eds/bin/gnu/h-x86_64-mingw32/bin/../lib/gcc/nios2-elf/4.9.1/../../../../../H-x86_64-mingw32/nios2-elf/lib\libc.a(lib_a-mallocr.o)
                0x000000000104593c                _malloc_r
 .text          0x00000000010460e4       0xe8 d:/altera/15.0.0.130/nios2eds/bin/gnu/h-x86_64-mingw32/bin/../lib/gcc/nios2-elf/4.9.1/../../../../../H-x86_64-mingw32/nios2-elf/lib\libc.a(lib_a-memchr.o)
                0x00000000010460e4                memchr
 .text          0x00000000010461cc      0x138 d:/altera/15.0.0.130/nios2eds/bin/gnu/h-x86_64-mingw32/bin/../lib/gcc/nios2-elf/4.9.1/../../../../../H-x86_64-mingw32/nios2-elf/lib\libc.a(lib_a-memcpy.o)
                0x00000000010461cc                memcpy
 .text          0x0000000001046304      0x15c d:/altera/15.0.0.130/nios2eds/bin/gnu/h-x86_64-mingw32/bin/../lib/gcc/nios2-elf/4.9.1/../../../../../H-x86_64-mingw32/nios2-elf/lib\libc.a(lib_a-memmove.o)
                0x0000000001046304                memmove
 .text          0x0000000001046460      0x124 d:/altera/15.0.0.130/nios2eds/bin/gnu/h-x86_64-mingw32/bin/../lib/gcc/nios2-elf/4.9.1/../../../../../H-x86_64-mingw32/nios2-elf/lib\libc.a(lib_a-memset.o)
                0x0000000001046460                memset
 .text          0x0000000001046584      0xf8c d:/altera/15.0.0.130/nios2eds/bin/gnu/h-x86_64-mingw32/bin/../lib/gcc/nios2-elf/4.9.1/../../../../../H-x86_64-mingw32/nios2-elf/lib\libc.a(lib_a-mprec.o)
                0x0000000001046584                _Balloc
                0x000000000104662c                _Bfree
                0x0000000001046654                __multadd
                0x0000000001046768                __s2b
                0x000000000104686c                __hi0bits
                0x00000000010468d4                __lo0bits
                0x0000000001046984                __i2b
                0x00000000010469c0                __multiply
                0x0000000001046bbc                __pow5mult
                0x0000000001046cfc                __lshift
                0x0000000001046e44                __mcmp
                0x0000000001046ea4                __mdiff
                0x000000000104703c                __ulp
                0x000000000104709c                __b2d
                0x00000000010471b8                __d2b
                0x00000000010472f4                __ratio
                0x0000000001047398                _mprec_log10
                0x000000000104740c                __copybits
                0x0000000001047484                __any_on
 .text          0x0000000001047510      0x5a0 d:/altera/15.0.0.130/nios2eds/bin/gnu/h-x86_64-mingw32/bin/../lib/gcc/nios2-elf/4.9.1/../../../../../H-x86_64-mingw32/nios2-elf/lib\libc.a(lib_a-reallocr.o)
                0x0000000001047510                _realloc_r
 .text          0x0000000001047ab0       0x74 d:/altera/15.0.0.130/nios2eds/bin/gnu/h-x86_64-mingw32/bin/../lib/gcc/nios2-elf/4.9.1/../../../../../H-x86_64-mingw32/nios2-elf/lib\libc.a(lib_a-s_fpclassify.o)
                0x0000000001047ab0                __fpclassifyd
 .text          0x0000000001047b24       0x54 d:/altera/15.0.0.130/nios2eds/bin/gnu/h-x86_64-mingw32/bin/../lib/gcc/nios2-elf/4.9.1/../../../../../H-x86_64-mingw32/nios2-elf/lib\libc.a(lib_a-sbrkr.o)
                0x0000000001047b24                _sbrk_r
 .text          0x0000000001047b78      0x13c d:/altera/15.0.0.130/nios2eds/bin/gnu/h-x86_64-mingw32/bin/../lib/gcc/nios2-elf/4.9.1/../../../../../H-x86_64-mingw32/nios2-elf/lib\libc.a(lib_a-stdio.o)
                0x0000000001047b78                __sread
                0x0000000001047bcc                __seofread
                0x0000000001047bd4                __swrite
                0x0000000001047c50                __sseek
                0x0000000001047cac                __sclose
 .text          0x0000000001047cb4       0xa4 d:/altera/15.0.0.130/nios2eds/bin/gnu/h-x86_64-mingw32/bin/../lib/gcc/nios2-elf/4.9.1/../../../../../H-x86_64-mingw32/nios2-elf/lib\libc.a(lib_a-strcmp.o)
                0x0000000001047cb4                strcmp
 .text          0x0000000001047d58     0x1494 d:/altera/15.0.0.130/nios2eds/bin/gnu/h-x86_64-mingw32/bin/../lib/gcc/nios2-elf/4.9.1/../../../../../H-x86_64-mingw32/nios2-elf/lib\libc.a(lib_a-vfiprintf.o)
                0x0000000001047e54                __sprint_r
                0x0000000001047e6c                ___vfiprintf_internal_r
                0x00000000010491c8                __vfiprintf_internal
 .text          0x00000000010491ec       0x5c d:/altera/15.0.0.130/nios2eds/bin/gnu/h-x86_64-mingw32/bin/../lib/gcc/nios2-elf/4.9.1/../../../../../H-x86_64-mingw32/nios2-elf/lib\libc.a(lib_a-writer.o)
                0x00000000010491ec                _write_r
 .text          0x0000000001049248       0x54 d:/altera/15.0.0.130/nios2eds/bin/gnu/h-x86_64-mingw32/bin/../lib/gcc/nios2-elf/4.9.1/../../../../../H-x86_64-mingw32/nios2-elf/lib\libc.a(closer.o)
                0x0000000001049248                _close_r
 .text          0x000000000104929c       0xc4 d:/altera/15.0.0.130/nios2eds/bin/gnu/h-x86_64-mingw32/bin/../lib/gcc/nios2-elf/4.9.1/../../../../../H-x86_64-mingw32/nios2-elf/lib\libc.a(lib_a-callocr.o)
                0x000000000104929c                _calloc_r
 .text          0x0000000001049360      0x114 d:/altera/15.0.0.130/nios2eds/bin/gnu/h-x86_64-mingw32/bin/../lib/gcc/nios2-elf/4.9.1/../../../../../H-x86_64-mingw32/nios2-elf/lib\libc.a(lib_a-fclose.o)
                0x0000000001049360                _fclose_r
                0x0000000001049460                fclose
 .text          0x0000000001049474      0x1dc d:/altera/15.0.0.130/nios2eds/bin/gnu/h-x86_64-mingw32/bin/../lib/gcc/nios2-elf/4.9.1/../../../../../H-x86_64-mingw32/nios2-elf/lib\libc.a(lib_a-fputwc.o)
                0x0000000001049474                _fputwc_r
                0x00000000010495f8                fputwc
 .text          0x0000000001049650       0x58 d:/altera/15.0.0.130/nios2eds/bin/gnu/h-x86_64-mingw32/bin/../lib/gcc/nios2-elf/4.9.1/../../../../../H-x86_64-mingw32/nios2-elf/lib\libc.a(lib_a-fstatr.o)
                0x0000000001049650                _fstat_r
 .text          0x00000000010496a8        0x0 d:/altera/15.0.0.130/nios2eds/bin/gnu/h-x86_64-mingw32/bin/../lib/gcc/nios2-elf/4.9.1/../../../../../H-x86_64-mingw32/nios2-elf/lib\libc.a(lib_a-int_errno.o)
 .text          0x00000000010496a8       0x54 d:/altera/15.0.0.130/nios2eds/bin/gnu/h-x86_64-mingw32/bin/../lib/gcc/nios2-elf/4.9.1/../../../../../H-x86_64-mingw32/nios2-elf/lib\libc.a(lib_a-isattyr.o)
                0x00000000010496a8                _isatty_r
 .text          0x00000000010496fc       0x5c d:/altera/15.0.0.130/nios2eds/bin/gnu/h-x86_64-mingw32/bin/../lib/gcc/nios2-elf/4.9.1/../../../../../H-x86_64-mingw32/nios2-elf/lib\libc.a(lib_a-lseekr.o)
                0x00000000010496fc                _lseek_r
 .text          0x0000000001049758       0x5c d:/altera/15.0.0.130/nios2eds/bin/gnu/h-x86_64-mingw32/bin/../lib/gcc/nios2-elf/4.9.1/../../../../../H-x86_64-mingw32/nios2-elf/lib\libc.a(lib_a-readr.o)
                0x0000000001049758                _read_r
 .text          0x00000000010497b4      0x170 d:/altera/15.0.0.130/nios2eds/bin/gnu/h-x86_64-mingw32/bin/../lib/gcc/nios2-elf/4.9.1/../../../../../H-x86_64-mingw32/nios2-elf/lib\libc.a(lib_a-wbuf.o)
                0x00000000010497b4                __swbuf_r
                0x0000000001049908                __swbuf
 .text          0x0000000001049924      0x174 d:/altera/15.0.0.130/nios2eds/bin/gnu/h-x86_64-mingw32/bin/../lib/gcc/nios2-elf/4.9.1/../../../../../H-x86_64-mingw32/nios2-elf/lib\libc.a(lib_a-wcrtomb.o)
                0x0000000001049924                _wcrtomb_r
                0x00000000010499c0                wcrtomb
 .text          0x0000000001049a98       0x8c d:/altera/15.0.0.130/nios2eds/bin/gnu/h-x86_64-mingw32/bin/../lib/gcc/nios2-elf/4.9.1/../../../../../H-x86_64-mingw32/nios2-elf/lib\libc.a(lib_a-wctomb_r.o)
                0x0000000001049a98                __ascii_wctomb
                0x0000000001049ac8                _wctomb_r
 .text          0x0000000001049b24      0x5c0 d:/altera/15.0.0.130/nios2eds/bin/gnu/h-x86_64-mingw32/bin/../lib/gcc/nios2-elf/4.9.1\libgcc.a(_udivdi3.o)
                0x0000000001049b24                __udivdi3
 .text          0x000000000104a0e4      0x590 d:/altera/15.0.0.130/nios2eds/bin/gnu/h-x86_64-mingw32/bin/../lib/gcc/nios2-elf/4.9.1\libgcc.a(_umoddi3.o)
                0x000000000104a0e4                __umoddi3
 .text          0x000000000104a674      0x12c d:/altera/15.0.0.130/nios2eds/bin/gnu/h-x86_64-mingw32/bin/../lib/gcc/nios2-elf/4.9.1\libgcc.a(lib2-divmod.o)
                0x000000000104a6e0                __divsi3
                0x000000000104a734                __modsi3
                0x000000000104a790                __udivsi3
                0x000000000104a798                __umodsi3
 .text          0x000000000104a7a0      0x89c d:/altera/15.0.0.130/nios2eds/bin/gnu/h-x86_64-mingw32/bin/../lib/gcc/nios2-elf/4.9.1\libgcc.a(adddf3.o)
                0x000000000104a7a0                __adddf3
 .text          0x000000000104b03c      0x8cc d:/altera/15.0.0.130/nios2eds/bin/gnu/h-x86_64-mingw32/bin/../lib/gcc/nios2-elf/4.9.1\libgcc.a(divdf3.o)
                0x000000000104b03c                __divdf3
 .text          0x000000000104b908       0x84 d:/altera/15.0.0.130/nios2eds/bin/gnu/h-x86_64-mingw32/bin/../lib/gcc/nios2-elf/4.9.1\libgcc.a(eqdf2.o)
                0x000000000104b908                __nedf2
                0x000000000104b908                __eqdf2
 .text          0x000000000104b98c       0xe0 d:/altera/15.0.0.130/nios2eds/bin/gnu/h-x86_64-mingw32/bin/../lib/gcc/nios2-elf/4.9.1\libgcc.a(gedf2.o)
                0x000000000104b98c                __gedf2
                0x000000000104b98c                __gtdf2
 .text          0x000000000104ba6c       0xe0 d:/altera/15.0.0.130/nios2eds/bin/gnu/h-x86_64-mingw32/bin/../lib/gcc/nios2-elf/4.9.1\libgcc.a(ledf2.o)
                0x000000000104ba6c                __ledf2
                0x000000000104ba6c                __ltdf2
 .text          0x000000000104bb4c      0x724 d:/altera/15.0.0.130/nios2eds/bin/gnu/h-x86_64-mingw32/bin/../lib/gcc/nios2-elf/4.9.1\libgcc.a(muldf3.o)
                0x000000000104bb4c                __muldf3
 .text          0x000000000104c270      0x8d0 d:/altera/15.0.0.130/nios2eds/bin/gnu/h-x86_64-mingw32/bin/../lib/gcc/nios2-elf/4.9.1\libgcc.a(subdf3.o)
                0x000000000104c270                __subdf3
 .text          0x000000000104cb40       0x88 d:/altera/15.0.0.130/nios2eds/bin/gnu/h-x86_64-mingw32/bin/../lib/gcc/nios2-elf/4.9.1\libgcc.a(fixdfsi.o)
                0x000000000104cb40                __fixdfsi
 .text          0x000000000104cbc8       0xd0 d:/altera/15.0.0.130/nios2eds/bin/gnu/h-x86_64-mingw32/bin/../lib/gcc/nios2-elf/4.9.1\libgcc.a(floatsidf.o)
                0x000000000104cbc8                __floatsidf
 .text          0x000000000104cc98       0xa4 d:/altera/15.0.0.130/nios2eds/bin/gnu/h-x86_64-mingw32/bin/../lib/gcc/nios2-elf/4.9.1\libgcc.a(floatunsidf.o)
                0x000000000104cc98                __floatunsidf
 .text          0x000000000104cd3c      0x120 ../DECA_TEMP_bsp/\libhal_bsp.a(alt_close.o)
                0x000000000104cd8c                close
 .text          0x000000000104ce5c       0x2c ../DECA_TEMP_bsp/\libhal_bsp.a(alt_dev.o)
 .text          0x000000000104ce88        0x0 ../DECA_TEMP_bsp/\libhal_bsp.a(alt_errno.o)
 .text          0x000000000104ce88      0x100 ../DECA_TEMP_bsp/\libhal_bsp.a(alt_fstat.o)
                0x000000000104ced8                fstat
 .text          0x000000000104cf88       0xf4 ../DECA_TEMP_bsp/\libhal_bsp.a(alt_isatty.o)
                0x000000000104cfd8                isatty
 .text          0x000000000104d07c       0xe4 ../DECA_TEMP_bsp/\libhal_bsp.a(alt_load.o)
                0x000000000104d0e0                alt_load
 .text          0x000000000104d160      0x124 ../DECA_TEMP_bsp/\libhal_bsp.a(alt_lseek.o)
                0x000000000104d1b0                lseek
 .text          0x000000000104d284       0x78 ../DECA_TEMP_bsp/\libhal_bsp.a(alt_main.o)
                0x000000000104d284                alt_main
 .text          0x000000000104d2fc       0x40 ../DECA_TEMP_bsp/\libhal_bsp.a(alt_malloc_lock.o)
                0x000000000104d2fc                __malloc_lock
                0x000000000104d31c                __malloc_unlock
 .text          0x000000000104d33c      0x14c ../DECA_TEMP_bsp/\libhal_bsp.a(alt_read.o)
                0x000000000104d38c                read
 .text          0x000000000104d488       0x60 ../DECA_TEMP_bsp/\libhal_bsp.a(alt_release_fd.o)
                0x000000000104d488                alt_release_fd
 .text          0x000000000104d4e8       0xb0 ../DECA_TEMP_bsp/\libhal_bsp.a(alt_sbrk.o)
                0x000000000104d4e8                sbrk
 .text          0x000000000104d598       0x30 ../DECA_TEMP_bsp/\libhal_bsp.a(alt_usleep.o)
                0x000000000104d598                usleep
 .text          0x000000000104d5c8      0x148 ../DECA_TEMP_bsp/\libhal_bsp.a(alt_write.o)
                0x000000000104d618                write
 .text          0x000000000104d710       0xc8 ../DECA_TEMP_bsp/\libhal_bsp.a(alt_sys_init.o)
                0x000000000104d748                alt_irq_init
                0x000000000104d77c                alt_sys_init
 .text          0x000000000104d7d8      0x164 ../DECA_TEMP_bsp/\libhal_bsp.a(altera_avalon_jtag_uart_fd.o)
                0x000000000104d7d8                altera_avalon_jtag_uart_read_fd
                0x000000000104d838                altera_avalon_jtag_uart_write_fd
                0x000000000104d898                altera_avalon_jtag_uart_close_fd
                0x000000000104d8e8                altera_avalon_jtag_uart_ioctl_fd
 .text          0x000000000104d93c      0x3d8 ../DECA_TEMP_bsp/\libhal_bsp.a(altera_avalon_jtag_uart_init.o)
                0x000000000104d93c                altera_avalon_jtag_uart_init
                0x000000000104dcac                altera_avalon_jtag_uart_close
 .text          0x000000000104dd14       0xec ../DECA_TEMP_bsp/\libhal_bsp.a(altera_avalon_jtag_uart_ioctl.o)
                0x000000000104dd14                altera_avalon_jtag_uart_ioctl
 .text          0x000000000104de00      0x20c ../DECA_TEMP_bsp/\libhal_bsp.a(altera_avalon_jtag_uart_read.o)
                0x000000000104de00                altera_avalon_jtag_uart_read
 .text          0x000000000104e00c      0x218 ../DECA_TEMP_bsp/\libhal_bsp.a(altera_avalon_jtag_uart_write.o)
                0x000000000104e00c                altera_avalon_jtag_uart_write
 .text          0x000000000104e224       0xfc ../DECA_TEMP_bsp/\libhal_bsp.a(altera_avalon_timer_sc.o)
                0x000000000104e298                alt_avalon_timer_sc_init
 .text          0x000000000104e320      0x140 ../DECA_TEMP_bsp/\libhal_bsp.a(alt_alarm_start.o)
                0x000000000104e320                alt_alarm_start
 .text          0x000000000104e460      0x158 ../DECA_TEMP_bsp/\libhal_bsp.a(alt_busy_sleep.o)
                0x000000000104e460                alt_busy_sleep
 .text          0x000000000104e5b8       0x44 ../DECA_TEMP_bsp/\libhal_bsp.a(alt_dcache_flush_all.o)
                0x000000000104e5b8                alt_dcache_flush_all
 .text          0x000000000104e5fc       0xf4 ../DECA_TEMP_bsp/\libhal_bsp.a(alt_dev_llist_insert.o)
                0x000000000104e64c                alt_dev_llist_insert
 .text          0x000000000104e6f0       0x5c ../DECA_TEMP_bsp/\libhal_bsp.a(alt_do_ctors.o)
                0x000000000104e6f0                _do_ctors
 .text          0x000000000104e74c       0x5c ../DECA_TEMP_bsp/\libhal_bsp.a(alt_do_dtors.o)
                0x000000000104e74c                _do_dtors
 .text          0x000000000104e7a8       0x30 ../DECA_TEMP_bsp/\libhal_bsp.a(alt_icache_flush_all.o)
                0x000000000104e7a8                alt_icache_flush_all
 .text          0x000000000104e7d8      0x1e0 ../DECA_TEMP_bsp/\libhal_bsp.a(alt_iic.o)
                0x000000000104e7d8                alt_ic_isr_register
                0x000000000104e828                alt_ic_irq_enable
                0x000000000104e8c8                alt_ic_irq_disable
                0x000000000104e96c                alt_ic_irq_enabled
 .text          0x000000000104e9b8       0xf0 ../DECA_TEMP_bsp/\libhal_bsp.a(alt_iic_isr_register.o)
                0x000000000104e9b8                alt_iic_isr_register
 .text          0x000000000104eaa8      0x138 ../DECA_TEMP_bsp/\libhal_bsp.a(alt_io_redirect.o)
                0x000000000104eb68                alt_io_redirect
 .text          0x000000000104ebe0        0x0 ../DECA_TEMP_bsp/\libhal_bsp.a(alt_irq_entry.o)
 .text          0x000000000104ebe0        0x0 ../DECA_TEMP_bsp/\libhal_bsp.a(alt_irq_handler.o)
 .text          0x000000000104ebe0        0x0 ../DECA_TEMP_bsp/\libhal_bsp.a(alt_irq_vars.o)
 .text          0x000000000104ebe0      0x274 ../DECA_TEMP_bsp/\libhal_bsp.a(alt_open.o)
                0x000000000104ecfc                open
 .text          0x000000000104ee54      0x19c ../DECA_TEMP_bsp/\libhal_bsp.a(alt_tick.o)
                0x000000000104ee54                alt_alarm_stop
                0x000000000104eeec                alt_tick
 .text          0x000000000104eff0       0x20 ../DECA_TEMP_bsp/\libhal_bsp.a(altera_nios2_gen2_irq.o)
                0x000000000104eff0                altera_nios2_gen2_irq_init
 .text          0x000000000104f010        0x0 ../DECA_TEMP_bsp/\libhal_bsp.a(alt_exception_entry.o)
 .text          0x000000000104f010       0x90 ../DECA_TEMP_bsp/\libhal_bsp.a(alt_find_dev.o)
                0x000000000104f010                alt_find_dev
 .text          0x000000000104f0a0      0x114 ../DECA_TEMP_bsp/\libhal_bsp.a(alt_find_file.o)
                0x000000000104f0a0                alt_find_file
 .text          0x000000000104f1b4       0xb4 ../DECA_TEMP_bsp/\libhal_bsp.a(alt_get_fd.o)
                0x000000000104f1b4                alt_get_fd
 .text          0x000000000104f268       0x8c ../DECA_TEMP_bsp/\libhal_bsp.a(alt_icache_flush.o)
                0x000000000104f268                alt_icache_flush
 .text          0x000000000104f2f4       0x9c ../DECA_TEMP_bsp/\libhal_bsp.a(alt_instruction_exception_entry.o)
                0x000000000104f2f4                alt_exception_cause_generated_bad_addr
 .text          0x000000000104f390       0x14 d:/altera/15.0.0.130/nios2eds/bin/gnu/h-x86_64-mingw32/bin/../lib/gcc/nios2-elf/4.9.1/../../../../../H-x86_64-mingw32/nios2-elf/lib\libc.a(lib_a-atexit.o)
                0x000000000104f390                atexit
 .text          0x000000000104f3a4       0x38 d:/altera/15.0.0.130/nios2eds/bin/gnu/h-x86_64-mingw32/bin/../lib/gcc/nios2-elf/4.9.1/../../../../../H-x86_64-mingw32/nios2-elf/lib\libc.a(lib_a-exit.o)
                0x000000000104f3a4                exit
 .text          0x000000000104f3dc       0x7c d:/altera/15.0.0.130/nios2eds/bin/gnu/h-x86_64-mingw32/bin/../lib/gcc/nios2-elf/4.9.1/../../../../../H-x86_64-mingw32/nios2-elf/lib\libc.a(lib_a-memcmp.o)
                0x000000000104f3dc                memcmp
 .text          0x000000000104f458      0x114 d:/altera/15.0.0.130/nios2eds/bin/gnu/h-x86_64-mingw32/bin/../lib/gcc/nios2-elf/4.9.1/../../../../../H-x86_64-mingw32/nios2-elf/lib\libc.a(lib_a-__atexit.o)
                0x000000000104f458                __register_exitproc
 .text          0x000000000104f56c      0x194 d:/altera/15.0.0.130/nios2eds/bin/gnu/h-x86_64-mingw32/bin/../lib/gcc/nios2-elf/4.9.1/../../../../../H-x86_64-mingw32/nios2-elf/lib\libc.a(lib_a-__call_atexit.o)
                0x000000000104f56c                __call_exitprocs
 .text          0x000000000104f700       0x34 ../DECA_TEMP_bsp/\libhal_bsp.a(alt_exit.o)
                0x000000000104f700                _exit
 *(.gnu.warning.*)
 *(.fini)
                0x000000000104f734                PROVIDE (__etext, ABSOLUTE (.))
                0x000000000104f734                PROVIDE (_etext, ABSOLUTE (.))
                0x000000000104f734                PROVIDE (etext, ABSOLUTE (.))
 *(.eh_frame_hdr)
                0x000000000104f734                . = ALIGN (0x4)
                0x000000000104f734                PROVIDE (__preinit_array_start, ABSOLUTE (.))
 *(.preinit_array)
                0x000000000104f734                PROVIDE (__preinit_array_end, ABSOLUTE (.))
                0x000000000104f734                PROVIDE (__init_array_start, ABSOLUTE (.))
 *(.init_array)
                0x000000000104f734                PROVIDE (__init_array_end, ABSOLUTE (.))
                0x000000000104f734                PROVIDE (__fini_array_start, ABSOLUTE (.))
 *(.fini_array)
                0x000000000104f734                PROVIDE (__fini_array_end, ABSOLUTE (.))
 *(.eh_frame)
 *(.gcc_except_table .gcc_except_table.*)
 *(.dynamic)
                0x000000000104f734                PROVIDE (__CTOR_LIST__, ABSOLUTE (.))
 *(.ctors)
 *(SORT(.ctors.*))
                0x000000000104f734                PROVIDE (__CTOR_END__, ABSOLUTE (.))
                0x000000000104f734                PROVIDE (__DTOR_LIST__, ABSOLUTE (.))
 *(.dtors)
 *(SORT(.dtors.*))
                0x000000000104f734                PROVIDE (__DTOR_END__, ABSOLUTE (.))
 *(.jcr)
                0x000000000104f734                . = ALIGN (0x4)

.rodata         0x000000000104f734      0x35c
                0x000000000104f734                PROVIDE (__ram_rodata_start, ABSOLUTE (.))
                0x000000000104f734                . = ALIGN (0x4)
 *(.rodata .rodata.* .gnu.linkonce.r.*)
 .rodata        0x000000000104f734       0x64 obj/default/main.o
 .rodata        0x000000000104f798      0x100 d:/altera/15.0.0.130/nios2eds/bin/gnu/h-x86_64-mingw32/bin/../lib/gcc/nios2-elf/4.9.1\libgcc.a(_clz.o)
                0x000000000104f798                __clz_tab
 .rodata.str1.4
                0x000000000104f898        0x2 d:/altera/15.0.0.130/nios2eds/bin/gnu/h-x86_64-mingw32/bin/../lib/gcc/nios2-elf/4.9.1/../../../../../H-x86_64-mingw32/nios2-elf/lib\libc.a(lib_a-puts.o)
                                          0x4 (size before relaxing)
 *fill*         0x000000000104f89a        0x2 
 .rodata.str1.4
                0x000000000104f89c       0x42 d:/altera/15.0.0.130/nios2eds/bin/gnu/h-x86_64-mingw32/bin/../lib/gcc/nios2-elf/4.9.1/../../../../../H-x86_64-mingw32/nios2-elf/lib\libc.a(lib_a-vfprintf.o)
                                         0x44 (size before relaxing)
 .rodata        0x000000000104f8de       0x20 d:/altera/15.0.0.130/nios2eds/bin/gnu/h-x86_64-mingw32/bin/../lib/gcc/nios2-elf/4.9.1/../../../../../H-x86_64-mingw32/nios2-elf/lib\libc.a(lib_a-vfprintf.o)
 *fill*         0x000000000104f8fe        0x2 
 .rodata.str1.4
                0x000000000104f900       0x10 d:/altera/15.0.0.130/nios2eds/bin/gnu/h-x86_64-mingw32/bin/../lib/gcc/nios2-elf/4.9.1/../../../../../H-x86_64-mingw32/nios2-elf/lib\libc.a(lib_a-dtoa.o)
                                         0x14 (size before relaxing)
 .rodata.str1.4
                0x000000000104f910        0x2 d:/altera/15.0.0.130/nios2eds/bin/gnu/h-x86_64-mingw32/bin/../lib/gcc/nios2-elf/4.9.1/../../../../../H-x86_64-mingw32/nios2-elf/lib\libc.a(lib_a-impure.o)
                                          0x4 (size before relaxing)
 *fill*         0x000000000104f912        0x2 
 .rodata.str1.4
                0x000000000104f914        0xc d:/altera/15.0.0.130/nios2eds/bin/gnu/h-x86_64-mingw32/bin/../lib/gcc/nios2-elf/4.9.1/../../../../../H-x86_64-mingw32/nios2-elf/lib\libc.a(lib_a-locale.o)
                                         0x14 (size before relaxing)
 .rodata        0x000000000104f920      0x124 d:/altera/15.0.0.130/nios2eds/bin/gnu/h-x86_64-mingw32/bin/../lib/gcc/nios2-elf/4.9.1/../../../../../H-x86_64-mingw32/nios2-elf/lib\libc.a(lib_a-mprec.o)
                0x000000000104f92c                __mprec_tinytens
                0x000000000104f954                __mprec_bigtens
                0x000000000104f97c                __mprec_tens
 .rodata.str1.4
                0x0000000000000000       0x30 d:/altera/15.0.0.130/nios2eds/bin/gnu/h-x86_64-mingw32/bin/../lib/gcc/nios2-elf/4.9.1/../../../../../H-x86_64-mingw32/nios2-elf/lib\libc.a(lib_a-vfiprintf.o)
 .rodata        0x000000000104fa44       0x20 d:/altera/15.0.0.130/nios2eds/bin/gnu/h-x86_64-mingw32/bin/../lib/gcc/nios2-elf/4.9.1/../../../../../H-x86_64-mingw32/nios2-elf/lib\libc.a(lib_a-vfiprintf.o)
 .rodata        0x000000000104fa64        0xc ../DECA_TEMP_bsp/\libhal_bsp.a(alt_dev.o)
 .rodata        0x000000000104fa70       0x10 ../DECA_TEMP_bsp/\libhal_bsp.a(alt_main.o)
 .rodata        0x000000000104fa80       0x10 ../DECA_TEMP_bsp/\libhal_bsp.a(alt_sys_init.o)
 *(.rodata1)
                0x000000000104fa90                . = ALIGN (0x4)
                0x000000000104fa90                PROVIDE (__ram_rodata_end, ABSOLUTE (.))
                0x000000000104f734                PROVIDE (__flash_rodata_start, LOADADDR (.rodata))

.rwdata         0x000000000104fa90     0x1aec load address 0x000000000105157c
                0x000000000104fa90                PROVIDE (__ram_rwdata_start, ABSOLUTE (.))
                0x000000000104fa90                . = ALIGN (0x4)
 *(.got.plt)
 *(.got)
 *(.data1)
 *(.data .data.* .gnu.linkonce.d.*)
 .data          0x000000000104fa90        0x0 ../DECA_TEMP_bsp//obj/HAL/src/crt0.o
 .data          0x000000000104fa90        0x0 obj/default/main.o
 .data          0x000000000104fa90        0x0 d:/altera/15.0.0.130/nios2eds/bin/gnu/h-x86_64-mingw32/bin/../lib/gcc/nios2-elf/4.9.1\libgcc.a(mulsf3.o)
 .data          0x000000000104fa90        0x0 d:/altera/15.0.0.130/nios2eds/bin/gnu/h-x86_64-mingw32/bin/../lib/gcc/nios2-elf/4.9.1\libgcc.a(floatunsisf.o)
 .data          0x000000000104fa90        0x0 d:/altera/15.0.0.130/nios2eds/bin/gnu/h-x86_64-mingw32/bin/../lib/gcc/nios2-elf/4.9.1\libgcc.a(extendsfdf2.o)
 .data          0x000000000104fa90        0x0 d:/altera/15.0.0.130/nios2eds/bin/gnu/h-x86_64-mingw32/bin/../lib/gcc/nios2-elf/4.9.1\libgcc.a(_clzsi2.o)
 .data          0x000000000104fa90        0x0 d:/altera/15.0.0.130/nios2eds/bin/gnu/h-x86_64-mingw32/bin/../lib/gcc/nios2-elf/4.9.1\libgcc.a(_clz.o)
 .data          0x000000000104fa90        0x0 d:/altera/15.0.0.130/nios2eds/bin/gnu/h-x86_64-mingw32/bin/../lib/gcc/nios2-elf/4.9.1/../../../../../H-x86_64-mingw32/nios2-elf/lib\libc.a(lib_a-printf.o)
 .data          0x000000000104fa90        0x0 d:/altera/15.0.0.130/nios2eds/bin/gnu/h-x86_64-mingw32/bin/../lib/gcc/nios2-elf/4.9.1/../../../../../H-x86_64-mingw32/nios2-elf/lib\libc.a(lib_a-puts.o)
 .data          0x000000000104fa90        0x0 d:/altera/15.0.0.130/nios2eds/bin/gnu/h-x86_64-mingw32/bin/../lib/gcc/nios2-elf/4.9.1/../../../../../H-x86_64-mingw32/nios2-elf/lib\libc.a(lib_a-strlen.o)
 .data          0x000000000104fa90        0x0 d:/altera/15.0.0.130/nios2eds/bin/gnu/h-x86_64-mingw32/bin/../lib/gcc/nios2-elf/4.9.1/../../../../../H-x86_64-mingw32/nios2-elf/lib\libc.a(lib_a-vfprintf.o)
 .data          0x000000000104fa90        0x0 d:/altera/15.0.0.130/nios2eds/bin/gnu/h-x86_64-mingw32/bin/../lib/gcc/nios2-elf/4.9.1/../../../../../H-x86_64-mingw32/nios2-elf/lib\libc.a(lib_a-wsetup.o)
 .data          0x000000000104fa90        0x0 d:/altera/15.0.0.130/nios2eds/bin/gnu/h-x86_64-mingw32/bin/../lib/gcc/nios2-elf/4.9.1/../../../../../H-x86_64-mingw32/nios2-elf/lib\libc.a(lib_a-dtoa.o)
 .data          0x000000000104fa90        0x0 d:/altera/15.0.0.130/nios2eds/bin/gnu/h-x86_64-mingw32/bin/../lib/gcc/nios2-elf/4.9.1/../../../../../H-x86_64-mingw32/nios2-elf/lib\libc.a(lib_a-fflush.o)
 .data          0x000000000104fa90        0x0 d:/altera/15.0.0.130/nios2eds/bin/gnu/h-x86_64-mingw32/bin/../lib/gcc/nios2-elf/4.9.1/../../../../../H-x86_64-mingw32/nios2-elf/lib\libc.a(lib_a-findfp.o)
 .data          0x000000000104fa90        0x0 d:/altera/15.0.0.130/nios2eds/bin/gnu/h-x86_64-mingw32/bin/../lib/gcc/nios2-elf/4.9.1/../../../../../H-x86_64-mingw32/nios2-elf/lib\libc.a(lib_a-freer.o)
 .data          0x000000000104fa90        0x0 d:/altera/15.0.0.130/nios2eds/bin/gnu/h-x86_64-mingw32/bin/../lib/gcc/nios2-elf/4.9.1/../../../../../H-x86_64-mingw32/nios2-elf/lib\libc.a(lib_a-fvwrite.o)
 .data          0x000000000104fa90        0x0 d:/altera/15.0.0.130/nios2eds/bin/gnu/h-x86_64-mingw32/bin/../lib/gcc/nios2-elf/4.9.1/../../../../../H-x86_64-mingw32/nios2-elf/lib\libc.a(lib_a-fwalk.o)
 .data          0x000000000104fa90      0x424 d:/altera/15.0.0.130/nios2eds/bin/gnu/h-x86_64-mingw32/bin/../lib/gcc/nios2-elf/4.9.1/../../../../../H-x86_64-mingw32/nios2-elf/lib\libc.a(lib_a-impure.o)
 .data          0x000000000104feb4       0x78 d:/altera/15.0.0.130/nios2eds/bin/gnu/h-x86_64-mingw32/bin/../lib/gcc/nios2-elf/4.9.1/../../../../../H-x86_64-mingw32/nios2-elf/lib\libc.a(lib_a-locale.o)
 .data          0x000000000104ff2c        0x0 d:/altera/15.0.0.130/nios2eds/bin/gnu/h-x86_64-mingw32/bin/../lib/gcc/nios2-elf/4.9.1/../../../../../H-x86_64-mingw32/nios2-elf/lib\libc.a(lib_a-makebuf.o)
 .data          0x000000000104ff2c      0x408 d:/altera/15.0.0.130/nios2eds/bin/gnu/h-x86_64-mingw32/bin/../lib/gcc/nios2-elf/4.9.1/../../../../../H-x86_64-mingw32/nios2-elf/lib\libc.a(lib_a-mallocr.o)
                0x000000000104ff2c                __malloc_av_
 .data          0x0000000001050334        0x0 d:/altera/15.0.0.130/nios2eds/bin/gnu/h-x86_64-mingw32/bin/../lib/gcc/nios2-elf/4.9.1/../../../../../H-x86_64-mingw32/nios2-elf/lib\libc.a(lib_a-memchr.o)
 .data          0x0000000001050334        0x0 d:/altera/15.0.0.130/nios2eds/bin/gnu/h-x86_64-mingw32/bin/../lib/gcc/nios2-elf/4.9.1/../../../../../H-x86_64-mingw32/nios2-elf/lib\libc.a(lib_a-memcpy.o)
 .data          0x0000000001050334        0x0 d:/altera/15.0.0.130/nios2eds/bin/gnu/h-x86_64-mingw32/bin/../lib/gcc/nios2-elf/4.9.1/../../../../../H-x86_64-mingw32/nios2-elf/lib\libc.a(lib_a-memmove.o)
 .data          0x0000000001050334        0x0 d:/altera/15.0.0.130/nios2eds/bin/gnu/h-x86_64-mingw32/bin/../lib/gcc/nios2-elf/4.9.1/../../../../../H-x86_64-mingw32/nios2-elf/lib\libc.a(lib_a-memset.o)
 .data          0x0000000001050334        0x0 d:/altera/15.0.0.130/nios2eds/bin/gnu/h-x86_64-mingw32/bin/../lib/gcc/nios2-elf/4.9.1/../../../../../H-x86_64-mingw32/nios2-elf/lib\libc.a(lib_a-mprec.o)
 .data          0x0000000001050334        0x0 d:/altera/15.0.0.130/nios2eds/bin/gnu/h-x86_64-mingw32/bin/../lib/gcc/nios2-elf/4.9.1/../../../../../H-x86_64-mingw32/nios2-elf/lib\libc.a(lib_a-reallocr.o)
 .data          0x0000000001050334        0x0 d:/altera/15.0.0.130/nios2eds/bin/gnu/h-x86_64-mingw32/bin/../lib/gcc/nios2-elf/4.9.1/../../../../../H-x86_64-mingw32/nios2-elf/lib\libc.a(lib_a-s_fpclassify.o)
 .data          0x0000000001050334        0x0 d:/altera/15.0.0.130/nios2eds/bin/gnu/h-x86_64-mingw32/bin/../lib/gcc/nios2-elf/4.9.1/../../../../../H-x86_64-mingw32/nios2-elf/lib\libc.a(lib_a-sbrkr.o)
 .data          0x0000000001050334        0x0 d:/altera/15.0.0.130/nios2eds/bin/gnu/h-x86_64-mingw32/bin/../lib/gcc/nios2-elf/4.9.1/../../../../../H-x86_64-mingw32/nios2-elf/lib\libc.a(lib_a-stdio.o)
 .data          0x0000000001050334        0x0 d:/altera/15.0.0.130/nios2eds/bin/gnu/h-x86_64-mingw32/bin/../lib/gcc/nios2-elf/4.9.1/../../../../../H-x86_64-mingw32/nios2-elf/lib\libc.a(lib_a-strcmp.o)
 .data          0x0000000001050334        0x0 d:/altera/15.0.0.130/nios2eds/bin/gnu/h-x86_64-mingw32/bin/../lib/gcc/nios2-elf/4.9.1/../../../../../H-x86_64-mingw32/nios2-elf/lib\libc.a(lib_a-vfiprintf.o)
 .data          0x0000000001050334        0x0 d:/altera/15.0.0.130/nios2eds/bin/gnu/h-x86_64-mingw32/bin/../lib/gcc/nios2-elf/4.9.1/../../../../../H-x86_64-mingw32/nios2-elf/lib\libc.a(lib_a-writer.o)
 .data          0x0000000001050334        0x0 d:/altera/15.0.0.130/nios2eds/bin/gnu/h-x86_64-mingw32/bin/../lib/gcc/nios2-elf/4.9.1/../../../../../H-x86_64-mingw32/nios2-elf/lib\libc.a(closer.o)
 .data          0x0000000001050334        0x0 d:/altera/15.0.0.130/nios2eds/bin/gnu/h-x86_64-mingw32/bin/../lib/gcc/nios2-elf/4.9.1/../../../../../H-x86_64-mingw32/nios2-elf/lib\libc.a(lib_a-callocr.o)
 .data          0x0000000001050334        0x0 d:/altera/15.0.0.130/nios2eds/bin/gnu/h-x86_64-mingw32/bin/../lib/gcc/nios2-elf/4.9.1/../../../../../H-x86_64-mingw32/nios2-elf/lib\libc.a(lib_a-fclose.o)
 .data          0x0000000001050334        0x0 d:/altera/15.0.0.130/nios2eds/bin/gnu/h-x86_64-mingw32/bin/../lib/gcc/nios2-elf/4.9.1/../../../../../H-x86_64-mingw32/nios2-elf/lib\libc.a(lib_a-fputwc.o)
 .data          0x0000000001050334        0x0 d:/altera/15.0.0.130/nios2eds/bin/gnu/h-x86_64-mingw32/bin/../lib/gcc/nios2-elf/4.9.1/../../../../../H-x86_64-mingw32/nios2-elf/lib\libc.a(lib_a-fstatr.o)
 .data          0x0000000001050334        0x0 d:/altera/15.0.0.130/nios2eds/bin/gnu/h-x86_64-mingw32/bin/../lib/gcc/nios2-elf/4.9.1/../../../../../H-x86_64-mingw32/nios2-elf/lib\libc.a(lib_a-int_errno.o)
 .data          0x0000000001050334        0x0 d:/altera/15.0.0.130/nios2eds/bin/gnu/h-x86_64-mingw32/bin/../lib/gcc/nios2-elf/4.9.1/../../../../../H-x86_64-mingw32/nios2-elf/lib\libc.a(lib_a-isattyr.o)
 .data          0x0000000001050334        0x0 d:/altera/15.0.0.130/nios2eds/bin/gnu/h-x86_64-mingw32/bin/../lib/gcc/nios2-elf/4.9.1/../../../../../H-x86_64-mingw32/nios2-elf/lib\libc.a(lib_a-lseekr.o)
 .data          0x0000000001050334        0x0 d:/altera/15.0.0.130/nios2eds/bin/gnu/h-x86_64-mingw32/bin/../lib/gcc/nios2-elf/4.9.1/../../../../../H-x86_64-mingw32/nios2-elf/lib\libc.a(lib_a-readr.o)
 .data          0x0000000001050334        0x0 d:/altera/15.0.0.130/nios2eds/bin/gnu/h-x86_64-mingw32/bin/../lib/gcc/nios2-elf/4.9.1/../../../../../H-x86_64-mingw32/nios2-elf/lib\libc.a(lib_a-wbuf.o)
 .data          0x0000000001050334        0x0 d:/altera/15.0.0.130/nios2eds/bin/gnu/h-x86_64-mingw32/bin/../lib/gcc/nios2-elf/4.9.1/../../../../../H-x86_64-mingw32/nios2-elf/lib\libc.a(lib_a-wcrtomb.o)
 .data          0x0000000001050334        0x0 d:/altera/15.0.0.130/nios2eds/bin/gnu/h-x86_64-mingw32/bin/../lib/gcc/nios2-elf/4.9.1/../../../../../H-x86_64-mingw32/nios2-elf/lib\libc.a(lib_a-wctomb_r.o)
 .data          0x0000000001050334        0x0 d:/altera/15.0.0.130/nios2eds/bin/gnu/h-x86_64-mingw32/bin/../lib/gcc/nios2-elf/4.9.1\libgcc.a(_udivdi3.o)
 .data          0x0000000001050334        0x0 d:/altera/15.0.0.130/nios2eds/bin/gnu/h-x86_64-mingw32/bin/../lib/gcc/nios2-elf/4.9.1\libgcc.a(_umoddi3.o)
 .data          0x0000000001050334        0x0 d:/altera/15.0.0.130/nios2eds/bin/gnu/h-x86_64-mingw32/bin/../lib/gcc/nios2-elf/4.9.1\libgcc.a(lib2-divmod.o)
 .data          0x0000000001050334        0x0 d:/altera/15.0.0.130/nios2eds/bin/gnu/h-x86_64-mingw32/bin/../lib/gcc/nios2-elf/4.9.1\libgcc.a(adddf3.o)
 .data          0x0000000001050334        0x0 d:/altera/15.0.0.130/nios2eds/bin/gnu/h-x86_64-mingw32/bin/../lib/gcc/nios2-elf/4.9.1\libgcc.a(divdf3.o)
 .data          0x0000000001050334        0x0 d:/altera/15.0.0.130/nios2eds/bin/gnu/h-x86_64-mingw32/bin/../lib/gcc/nios2-elf/4.9.1\libgcc.a(eqdf2.o)
 .data          0x0000000001050334        0x0 d:/altera/15.0.0.130/nios2eds/bin/gnu/h-x86_64-mingw32/bin/../lib/gcc/nios2-elf/4.9.1\libgcc.a(gedf2.o)
 .data          0x0000000001050334        0x0 d:/altera/15.0.0.130/nios2eds/bin/gnu/h-x86_64-mingw32/bin/../lib/gcc/nios2-elf/4.9.1\libgcc.a(ledf2.o)
 .data          0x0000000001050334        0x0 d:/altera/15.0.0.130/nios2eds/bin/gnu/h-x86_64-mingw32/bin/../lib/gcc/nios2-elf/4.9.1\libgcc.a(muldf3.o)
 .data          0x0000000001050334        0x0 d:/altera/15.0.0.130/nios2eds/bin/gnu/h-x86_64-mingw32/bin/../lib/gcc/nios2-elf/4.9.1\libgcc.a(subdf3.o)
 .data          0x0000000001050334        0x0 d:/altera/15.0.0.130/nios2eds/bin/gnu/h-x86_64-mingw32/bin/../lib/gcc/nios2-elf/4.9.1\libgcc.a(fixdfsi.o)
 .data          0x0000000001050334        0x0 d:/altera/15.0.0.130/nios2eds/bin/gnu/h-x86_64-mingw32/bin/../lib/gcc/nios2-elf/4.9.1\libgcc.a(floatsidf.o)
 .data          0x0000000001050334        0x0 d:/altera/15.0.0.130/nios2eds/bin/gnu/h-x86_64-mingw32/bin/../lib/gcc/nios2-elf/4.9.1\libgcc.a(floatunsidf.o)
 .data          0x0000000001050334        0x0 ../DECA_TEMP_bsp/\libhal_bsp.a(alt_close.o)
 .data          0x0000000001050334      0x1a8 ../DECA_TEMP_bsp/\libhal_bsp.a(alt_dev.o)
                0x0000000001050334                alt_dev_null
                0x000000000105035c                alt_fd_list
 .data          0x00000000010504dc        0x0 ../DECA_TEMP_bsp/\libhal_bsp.a(alt_errno.o)
 .data          0x00000000010504dc        0x0 ../DECA_TEMP_bsp/\libhal_bsp.a(alt_fstat.o)
 .data          0x00000000010504dc        0x0 ../DECA_TEMP_bsp/\libhal_bsp.a(alt_isatty.o)
 .data          0x00000000010504dc        0x0 ../DECA_TEMP_bsp/\libhal_bsp.a(alt_load.o)
 .data          0x00000000010504dc        0x0 ../DECA_TEMP_bsp/\libhal_bsp.a(alt_lseek.o)
 .data          0x00000000010504dc        0x0 ../DECA_TEMP_bsp/\libhal_bsp.a(alt_main.o)
 .data          0x00000000010504dc        0x0 ../DECA_TEMP_bsp/\libhal_bsp.a(alt_malloc_lock.o)
 .data          0x00000000010504dc        0x0 ../DECA_TEMP_bsp/\libhal_bsp.a(alt_read.o)
 .data          0x00000000010504dc        0x0 ../DECA_TEMP_bsp/\libhal_bsp.a(alt_release_fd.o)
 .data          0x00000000010504dc        0x0 ../DECA_TEMP_bsp/\libhal_bsp.a(alt_sbrk.o)
 .data          0x00000000010504dc        0x0 ../DECA_TEMP_bsp/\libhal_bsp.a(alt_usleep.o)
 .data          0x00000000010504dc        0x0 ../DECA_TEMP_bsp/\libhal_bsp.a(alt_write.o)
 .data          0x00000000010504dc     0x1060 ../DECA_TEMP_bsp/\libhal_bsp.a(alt_sys_init.o)
 .data          0x000000000105153c        0x0 ../DECA_TEMP_bsp/\libhal_bsp.a(altera_avalon_jtag_uart_fd.o)
 .data          0x000000000105153c        0x0 ../DECA_TEMP_bsp/\libhal_bsp.a(altera_avalon_jtag_uart_init.o)
 .data          0x000000000105153c        0x0 ../DECA_TEMP_bsp/\libhal_bsp.a(altera_avalon_jtag_uart_ioctl.o)
 .data          0x000000000105153c        0x0 ../DECA_TEMP_bsp/\libhal_bsp.a(altera_avalon_jtag_uart_read.o)
 .data          0x000000000105153c        0x0 ../DECA_TEMP_bsp/\libhal_bsp.a(altera_avalon_jtag_uart_write.o)
 .data          0x000000000105153c        0x0 ../DECA_TEMP_bsp/\libhal_bsp.a(altera_avalon_timer_sc.o)
 .data          0x000000000105153c        0x0 ../DECA_TEMP_bsp/\libhal_bsp.a(alt_alarm_start.o)
 .data          0x000000000105153c        0x0 ../DECA_TEMP_bsp/\libhal_bsp.a(alt_busy_sleep.o)
 .data          0x000000000105153c        0x0 ../DECA_TEMP_bsp/\libhal_bsp.a(alt_dcache_flush_all.o)
 .data          0x000000000105153c        0x0 ../DECA_TEMP_bsp/\libhal_bsp.a(alt_dev_llist_insert.o)
 .data          0x000000000105153c        0x0 ../DECA_TEMP_bsp/\libhal_bsp.a(alt_do_ctors.o)
 .data          0x000000000105153c        0x0 ../DECA_TEMP_bsp/\libhal_bsp.a(alt_do_dtors.o)
 .data          0x000000000105153c        0x0 ../DECA_TEMP_bsp/\libhal_bsp.a(alt_icache_flush_all.o)
 .data          0x000000000105153c        0x0 ../DECA_TEMP_bsp/\libhal_bsp.a(alt_iic.o)
 .data          0x000000000105153c        0x0 ../DECA_TEMP_bsp/\libhal_bsp.a(alt_iic_isr_register.o)
 .data          0x000000000105153c        0x0 ../DECA_TEMP_bsp/\libhal_bsp.a(alt_io_redirect.o)
 .data          0x000000000105153c        0x0 ../DECA_TEMP_bsp/\libhal_bsp.a(alt_irq_entry.o)
 .data          0x000000000105153c        0x0 ../DECA_TEMP_bsp/\libhal_bsp.a(alt_irq_handler.o)
 .data          0x000000000105153c        0x0 ../DECA_TEMP_bsp/\libhal_bsp.a(alt_irq_vars.o)
 .data          0x000000000105153c        0x0 ../DECA_TEMP_bsp/\libhal_bsp.a(alt_open.o)
 .data          0x000000000105153c        0x0 ../DECA_TEMP_bsp/\libhal_bsp.a(alt_tick.o)
 .data          0x000000000105153c        0x0 ../DECA_TEMP_bsp/\libhal_bsp.a(altera_nios2_gen2_irq.o)
 .data          0x000000000105153c        0x0 ../DECA_TEMP_bsp/\libhal_bsp.a(alt_exception_entry.o)
 .data          0x000000000105153c        0x0 ../DECA_TEMP_bsp/\libhal_bsp.a(alt_find_dev.o)
 .data          0x000000000105153c        0x0 ../DECA_TEMP_bsp/\libhal_bsp.a(alt_find_file.o)
 .data          0x000000000105153c        0x0 ../DECA_TEMP_bsp/\libhal_bsp.a(alt_get_fd.o)
 .data          0x000000000105153c        0x0 ../DECA_TEMP_bsp/\libhal_bsp.a(alt_icache_flush.o)
 .data          0x000000000105153c        0x0 ../DECA_TEMP_bsp/\libhal_bsp.a(alt_instruction_exception_entry.o)
 .data          0x000000000105153c        0x0 d:/altera/15.0.0.130/nios2eds/bin/gnu/h-x86_64-mingw32/bin/../lib/gcc/nios2-elf/4.9.1/../../../../../H-x86_64-mingw32/nios2-elf/lib\libc.a(lib_a-atexit.o)
 .data          0x000000000105153c        0x0 d:/altera/15.0.0.130/nios2eds/bin/gnu/h-x86_64-mingw32/bin/../lib/gcc/nios2-elf/4.9.1/../../../../../H-x86_64-mingw32/nios2-elf/lib\libc.a(lib_a-exit.o)
 .data          0x000000000105153c        0x0 d:/altera/15.0.0.130/nios2eds/bin/gnu/h-x86_64-mingw32/bin/../lib/gcc/nios2-elf/4.9.1/../../../../../H-x86_64-mingw32/nios2-elf/lib\libc.a(lib_a-memcmp.o)
 .data          0x000000000105153c        0x0 d:/altera/15.0.0.130/nios2eds/bin/gnu/h-x86_64-mingw32/bin/../lib/gcc/nios2-elf/4.9.1/../../../../../H-x86_64-mingw32/nios2-elf/lib\libc.a(lib_a-__atexit.o)
 .data          0x000000000105153c        0x0 d:/altera/15.0.0.130/nios2eds/bin/gnu/h-x86_64-mingw32/bin/../lib/gcc/nios2-elf/4.9.1/../../../../../H-x86_64-mingw32/nios2-elf/lib\libc.a(lib_a-__call_atexit.o)
 .data          0x000000000105153c        0x0 ../DECA_TEMP_bsp/\libhal_bsp.a(alt_exit.o)
                0x000000000105953c                _gp = ABSOLUTE ((. + 0x8000))
                0x000000000105953c                PROVIDE (gp, _gp)
 *(.rwdata .rwdata.*)
 *(.sdata .sdata.* .gnu.linkonce.s.*)
 .sdata         0x000000000105153c        0x8 d:/altera/15.0.0.130/nios2eds/bin/gnu/h-x86_64-mingw32/bin/../lib/gcc/nios2-elf/4.9.1/../../../../../H-x86_64-mingw32/nios2-elf/lib\libc.a(lib_a-impure.o)
                0x000000000105153c                _global_impure_ptr
                0x0000000001051540                _impure_ptr
 .sdata         0x0000000001051544        0x4 d:/altera/15.0.0.130/nios2eds/bin/gnu/h-x86_64-mingw32/bin/../lib/gcc/nios2-elf/4.9.1/../../../../../H-x86_64-mingw32/nios2-elf/lib\libc.a(lib_a-locale.o)
                0x0000000001051544                __mb_cur_max
 .sdata         0x0000000001051548        0x8 d:/altera/15.0.0.130/nios2eds/bin/gnu/h-x86_64-mingw32/bin/../lib/gcc/nios2-elf/4.9.1/../../../../../H-x86_64-mingw32/nios2-elf/lib\libc.a(lib_a-mallocr.o)
                0x0000000001051548                __malloc_sbrk_base
                0x000000000105154c                __malloc_trim_threshold
 .sdata         0x0000000001051550        0x4 d:/altera/15.0.0.130/nios2eds/bin/gnu/h-x86_64-mingw32/bin/../lib/gcc/nios2-elf/4.9.1/../../../../../H-x86_64-mingw32/nios2-elf/lib\libc.a(lib_a-wctomb_r.o)
                0x0000000001051550                __wctomb
 .sdata         0x0000000001051554       0x14 ../DECA_TEMP_bsp/\libhal_bsp.a(alt_dev.o)
                0x0000000001051554                alt_fs_list
                0x000000000105155c                alt_dev_list
                0x0000000001051564                alt_max_fd
 .sdata         0x0000000001051568        0x4 ../DECA_TEMP_bsp/\libhal_bsp.a(alt_errno.o)
                0x0000000001051568                alt_errno
 .sdata         0x000000000105156c        0x4 ../DECA_TEMP_bsp/\libhal_bsp.a(alt_sbrk.o)
 .sdata         0x0000000001051570        0x4 ../DECA_TEMP_bsp/\libhal_bsp.a(alt_irq_vars.o)
                0x0000000001051570                alt_priority_mask
 .sdata         0x0000000001051574        0x8 ../DECA_TEMP_bsp/\libhal_bsp.a(alt_tick.o)
                0x0000000001051574                alt_alarm_list
 *(.sdata2 .sdata2.* .gnu.linkonce.s2.*)
                0x000000000105157c                . = ALIGN (0x4)
                0x000000000105157c                _edata = ABSOLUTE (.)
                0x000000000105157c                PROVIDE (edata, ABSOLUTE (.))
                0x000000000105157c                PROVIDE (__ram_rwdata_end, ABSOLUTE (.))
                0x000000000105157c                PROVIDE (__flash_rwdata_start, LOADADDR (.rwdata))

.bss            0x0000000001053068      0x160
                0x0000000001053068                __bss_start = ABSOLUTE (.)
                0x0000000001053068                PROVIDE (__sbss_start, ABSOLUTE (.))
                0x0000000001053068                PROVIDE (___sbss_start, ABSOLUTE (.))
 *(.dynsbss)
 *(.sbss .sbss.* .gnu.linkonce.sb.*)
 .sbss          0x0000000001053068        0xc d:/altera/15.0.0.130/nios2eds/bin/gnu/h-x86_64-mingw32/bin/../lib/gcc/nios2-elf/4.9.1/../../../../../H-x86_64-mingw32/nios2-elf/lib\libc.a(lib_a-locale.o)
                0x0000000001053068                _PathLocale
                0x000000000105306c                __mlocale_changed
                0x0000000001053070                __nlocale_changed
 .sbss          0x0000000001053074        0xc d:/altera/15.0.0.130/nios2eds/bin/gnu/h-x86_64-mingw32/bin/../lib/gcc/nios2-elf/4.9.1/../../../../../H-x86_64-mingw32/nios2-elf/lib\libc.a(lib_a-mallocr.o)
                0x0000000001053074                __malloc_max_total_mem
                0x0000000001053078                __malloc_max_sbrked_mem
                0x000000000105307c                __malloc_top_pad
 .sbss          0x0000000001053080        0x4 d:/altera/15.0.0.130/nios2eds/bin/gnu/h-x86_64-mingw32/bin/../lib/gcc/nios2-elf/4.9.1/../../../../../H-x86_64-mingw32/nios2-elf/lib\libc.a(lib_a-int_errno.o)
                0x0000000001053080                errno
 .sbss          0x0000000001053084        0xc ../DECA_TEMP_bsp/\libhal_bsp.a(alt_main.o)
                0x0000000001053084                alt_argc
                0x0000000001053088                alt_argv
                0x000000000105308c                alt_envp
 .sbss          0x0000000001053090        0x4 ../DECA_TEMP_bsp/\libhal_bsp.a(alt_irq_vars.o)
                0x0000000001053090                alt_irq_active
 .sbss          0x0000000001053094        0x8 ../DECA_TEMP_bsp/\libhal_bsp.a(alt_tick.o)
                0x0000000001053094                _alt_tick_rate
                0x0000000001053098                _alt_nticks
 .sbss          0x000000000105309c        0x4 ../DECA_TEMP_bsp/\libhal_bsp.a(alt_instruction_exception_entry.o)
                0x000000000105309c                alt_instruction_exception_handler
 *(.sbss2 .sbss2.* .gnu.linkonce.sb2.*)
 *(.scommon)
                0x00000000010530a0                PROVIDE (__sbss_end, ABSOLUTE (.))
                0x00000000010530a0                PROVIDE (___sbss_end, ABSOLUTE (.))
 *(.dynbss)
 *(.bss .bss.* .gnu.linkonce.b.*)
 .bss           0x00000000010530a0        0x0 ../DECA_TEMP_bsp//obj/HAL/src/crt0.o
 .bss           0x00000000010530a0        0x0 obj/default/main.o
 .bss           0x00000000010530a0        0x0 d:/altera/15.0.0.130/nios2eds/bin/gnu/h-x86_64-mingw32/bin/../lib/gcc/nios2-elf/4.9.1\libgcc.a(mulsf3.o)
 .bss           0x00000000010530a0        0x0 d:/altera/15.0.0.130/nios2eds/bin/gnu/h-x86_64-mingw32/bin/../lib/gcc/nios2-elf/4.9.1\libgcc.a(floatunsisf.o)
 .bss           0x00000000010530a0        0x0 d:/altera/15.0.0.130/nios2eds/bin/gnu/h-x86_64-mingw32/bin/../lib/gcc/nios2-elf/4.9.1\libgcc.a(extendsfdf2.o)
 .bss           0x00000000010530a0        0x0 d:/altera/15.0.0.130/nios2eds/bin/gnu/h-x86_64-mingw32/bin/../lib/gcc/nios2-elf/4.9.1\libgcc.a(_clzsi2.o)
 .bss           0x00000000010530a0        0x0 d:/altera/15.0.0.130/nios2eds/bin/gnu/h-x86_64-mingw32/bin/../lib/gcc/nios2-elf/4.9.1\libgcc.a(_clz.o)
 .bss           0x00000000010530a0        0x0 d:/altera/15.0.0.130/nios2eds/bin/gnu/h-x86_64-mingw32/bin/../lib/gcc/nios2-elf/4.9.1/../../../../../H-x86_64-mingw32/nios2-elf/lib\libc.a(lib_a-printf.o)
 .bss           0x00000000010530a0        0x0 d:/altera/15.0.0.130/nios2eds/bin/gnu/h-x86_64-mingw32/bin/../lib/gcc/nios2-elf/4.9.1/../../../../../H-x86_64-mingw32/nios2-elf/lib\libc.a(lib_a-puts.o)
 .bss           0x00000000010530a0        0x0 d:/altera/15.0.0.130/nios2eds/bin/gnu/h-x86_64-mingw32/bin/../lib/gcc/nios2-elf/4.9.1/../../../../../H-x86_64-mingw32/nios2-elf/lib\libc.a(lib_a-strlen.o)
 .bss           0x00000000010530a0        0x0 d:/altera/15.0.0.130/nios2eds/bin/gnu/h-x86_64-mingw32/bin/../lib/gcc/nios2-elf/4.9.1/../../../../../H-x86_64-mingw32/nios2-elf/lib\libc.a(lib_a-vfprintf.o)
 .bss           0x00000000010530a0        0x0 d:/altera/15.0.0.130/nios2eds/bin/gnu/h-x86_64-mingw32/bin/../lib/gcc/nios2-elf/4.9.1/../../../../../H-x86_64-mingw32/nios2-elf/lib\libc.a(lib_a-wsetup.o)
 .bss           0x00000000010530a0        0x0 d:/altera/15.0.0.130/nios2eds/bin/gnu/h-x86_64-mingw32/bin/../lib/gcc/nios2-elf/4.9.1/../../../../../H-x86_64-mingw32/nios2-elf/lib\libc.a(lib_a-dtoa.o)
 .bss           0x00000000010530a0        0x0 d:/altera/15.0.0.130/nios2eds/bin/gnu/h-x86_64-mingw32/bin/../lib/gcc/nios2-elf/4.9.1/../../../../../H-x86_64-mingw32/nios2-elf/lib\libc.a(lib_a-fflush.o)
 .bss           0x00000000010530a0        0x0 d:/altera/15.0.0.130/nios2eds/bin/gnu/h-x86_64-mingw32/bin/../lib/gcc/nios2-elf/4.9.1/../../../../../H-x86_64-mingw32/nios2-elf/lib\libc.a(lib_a-findfp.o)
 .bss           0x00000000010530a0        0x0 d:/altera/15.0.0.130/nios2eds/bin/gnu/h-x86_64-mingw32/bin/../lib/gcc/nios2-elf/4.9.1/../../../../../H-x86_64-mingw32/nios2-elf/lib\libc.a(lib_a-freer.o)
 .bss           0x00000000010530a0        0x0 d:/altera/15.0.0.130/nios2eds/bin/gnu/h-x86_64-mingw32/bin/../lib/gcc/nios2-elf/4.9.1/../../../../../H-x86_64-mingw32/nios2-elf/lib\libc.a(lib_a-fvwrite.o)
 .bss           0x00000000010530a0        0x0 d:/altera/15.0.0.130/nios2eds/bin/gnu/h-x86_64-mingw32/bin/../lib/gcc/nios2-elf/4.9.1/../../../../../H-x86_64-mingw32/nios2-elf/lib\libc.a(lib_a-fwalk.o)
 .bss           0x00000000010530a0        0x0 d:/altera/15.0.0.130/nios2eds/bin/gnu/h-x86_64-mingw32/bin/../lib/gcc/nios2-elf/4.9.1/../../../../../H-x86_64-mingw32/nios2-elf/lib\libc.a(lib_a-impure.o)
 .bss           0x00000000010530a0        0x0 d:/altera/15.0.0.130/nios2eds/bin/gnu/h-x86_64-mingw32/bin/../lib/gcc/nios2-elf/4.9.1/../../../../../H-x86_64-mingw32/nios2-elf/lib\libc.a(lib_a-locale.o)
 .bss           0x00000000010530a0        0x0 d:/altera/15.0.0.130/nios2eds/bin/gnu/h-x86_64-mingw32/bin/../lib/gcc/nios2-elf/4.9.1/../../../../../H-x86_64-mingw32/nios2-elf/lib\libc.a(lib_a-makebuf.o)
 .bss           0x00000000010530a0       0x28 d:/altera/15.0.0.130/nios2eds/bin/gnu/h-x86_64-mingw32/bin/../lib/gcc/nios2-elf/4.9.1/../../../../../H-x86_64-mingw32/nios2-elf/lib\libc.a(lib_a-mallocr.o)
                0x00000000010530a0                __malloc_current_mallinfo
 .bss           0x00000000010530c8        0x0 d:/altera/15.0.0.130/nios2eds/bin/gnu/h-x86_64-mingw32/bin/../lib/gcc/nios2-elf/4.9.1/../../../../../H-x86_64-mingw32/nios2-elf/lib\libc.a(lib_a-memchr.o)
 .bss           0x00000000010530c8        0x0 d:/altera/15.0.0.130/nios2eds/bin/gnu/h-x86_64-mingw32/bin/../lib/gcc/nios2-elf/4.9.1/../../../../../H-x86_64-mingw32/nios2-elf/lib\libc.a(lib_a-memcpy.o)
 .bss           0x00000000010530c8        0x0 d:/altera/15.0.0.130/nios2eds/bin/gnu/h-x86_64-mingw32/bin/../lib/gcc/nios2-elf/4.9.1/../../../../../H-x86_64-mingw32/nios2-elf/lib\libc.a(lib_a-memmove.o)
 .bss           0x00000000010530c8        0x0 d:/altera/15.0.0.130/nios2eds/bin/gnu/h-x86_64-mingw32/bin/../lib/gcc/nios2-elf/4.9.1/../../../../../H-x86_64-mingw32/nios2-elf/lib\libc.a(lib_a-memset.o)
 .bss           0x00000000010530c8        0x0 d:/altera/15.0.0.130/nios2eds/bin/gnu/h-x86_64-mingw32/bin/../lib/gcc/nios2-elf/4.9.1/../../../../../H-x86_64-mingw32/nios2-elf/lib\libc.a(lib_a-mprec.o)
 .bss           0x00000000010530c8        0x0 d:/altera/15.0.0.130/nios2eds/bin/gnu/h-x86_64-mingw32/bin/../lib/gcc/nios2-elf/4.9.1/../../../../../H-x86_64-mingw32/nios2-elf/lib\libc.a(lib_a-reallocr.o)
 .bss           0x00000000010530c8        0x0 d:/altera/15.0.0.130/nios2eds/bin/gnu/h-x86_64-mingw32/bin/../lib/gcc/nios2-elf/4.9.1/../../../../../H-x86_64-mingw32/nios2-elf/lib\libc.a(lib_a-s_fpclassify.o)
 .bss           0x00000000010530c8        0x0 d:/altera/15.0.0.130/nios2eds/bin/gnu/h-x86_64-mingw32/bin/../lib/gcc/nios2-elf/4.9.1/../../../../../H-x86_64-mingw32/nios2-elf/lib\libc.a(lib_a-sbrkr.o)
 .bss           0x00000000010530c8        0x0 d:/altera/15.0.0.130/nios2eds/bin/gnu/h-x86_64-mingw32/bin/../lib/gcc/nios2-elf/4.9.1/../../../../../H-x86_64-mingw32/nios2-elf/lib\libc.a(lib_a-stdio.o)
 .bss           0x00000000010530c8        0x0 d:/altera/15.0.0.130/nios2eds/bin/gnu/h-x86_64-mingw32/bin/../lib/gcc/nios2-elf/4.9.1/../../../../../H-x86_64-mingw32/nios2-elf/lib\libc.a(lib_a-strcmp.o)
 .bss           0x00000000010530c8        0x0 d:/altera/15.0.0.130/nios2eds/bin/gnu/h-x86_64-mingw32/bin/../lib/gcc/nios2-elf/4.9.1/../../../../../H-x86_64-mingw32/nios2-elf/lib\libc.a(lib_a-vfiprintf.o)
 .bss           0x00000000010530c8        0x0 d:/altera/15.0.0.130/nios2eds/bin/gnu/h-x86_64-mingw32/bin/../lib/gcc/nios2-elf/4.9.1/../../../../../H-x86_64-mingw32/nios2-elf/lib\libc.a(lib_a-writer.o)
 .bss           0x00000000010530c8        0x0 d:/altera/15.0.0.130/nios2eds/bin/gnu/h-x86_64-mingw32/bin/../lib/gcc/nios2-elf/4.9.1/../../../../../H-x86_64-mingw32/nios2-elf/lib\libc.a(closer.o)
 .bss           0x00000000010530c8        0x0 d:/altera/15.0.0.130/nios2eds/bin/gnu/h-x86_64-mingw32/bin/../lib/gcc/nios2-elf/4.9.1/../../../../../H-x86_64-mingw32/nios2-elf/lib\libc.a(lib_a-callocr.o)
 .bss           0x00000000010530c8        0x0 d:/altera/15.0.0.130/nios2eds/bin/gnu/h-x86_64-mingw32/bin/../lib/gcc/nios2-elf/4.9.1/../../../../../H-x86_64-mingw32/nios2-elf/lib\libc.a(lib_a-fclose.o)
 .bss           0x00000000010530c8        0x0 d:/altera/15.0.0.130/nios2eds/bin/gnu/h-x86_64-mingw32/bin/../lib/gcc/nios2-elf/4.9.1/../../../../../H-x86_64-mingw32/nios2-elf/lib\libc.a(lib_a-fputwc.o)
 .bss           0x00000000010530c8        0x0 d:/altera/15.0.0.130/nios2eds/bin/gnu/h-x86_64-mingw32/bin/../lib/gcc/nios2-elf/4.9.1/../../../../../H-x86_64-mingw32/nios2-elf/lib\libc.a(lib_a-fstatr.o)
 .bss           0x00000000010530c8        0x0 d:/altera/15.0.0.130/nios2eds/bin/gnu/h-x86_64-mingw32/bin/../lib/gcc/nios2-elf/4.9.1/../../../../../H-x86_64-mingw32/nios2-elf/lib\libc.a(lib_a-int_errno.o)
 .bss           0x00000000010530c8        0x0 d:/altera/15.0.0.130/nios2eds/bin/gnu/h-x86_64-mingw32/bin/../lib/gcc/nios2-elf/4.9.1/../../../../../H-x86_64-mingw32/nios2-elf/lib\libc.a(lib_a-isattyr.o)
 .bss           0x00000000010530c8        0x0 d:/altera/15.0.0.130/nios2eds/bin/gnu/h-x86_64-mingw32/bin/../lib/gcc/nios2-elf/4.9.1/../../../../../H-x86_64-mingw32/nios2-elf/lib\libc.a(lib_a-lseekr.o)
 .bss           0x00000000010530c8        0x0 d:/altera/15.0.0.130/nios2eds/bin/gnu/h-x86_64-mingw32/bin/../lib/gcc/nios2-elf/4.9.1/../../../../../H-x86_64-mingw32/nios2-elf/lib\libc.a(lib_a-readr.o)
 .bss           0x00000000010530c8        0x0 d:/altera/15.0.0.130/nios2eds/bin/gnu/h-x86_64-mingw32/bin/../lib/gcc/nios2-elf/4.9.1/../../../../../H-x86_64-mingw32/nios2-elf/lib\libc.a(lib_a-wbuf.o)
 .bss           0x00000000010530c8        0x0 d:/altera/15.0.0.130/nios2eds/bin/gnu/h-x86_64-mingw32/bin/../lib/gcc/nios2-elf/4.9.1/../../../../../H-x86_64-mingw32/nios2-elf/lib\libc.a(lib_a-wcrtomb.o)
 .bss           0x00000000010530c8        0x0 d:/altera/15.0.0.130/nios2eds/bin/gnu/h-x86_64-mingw32/bin/../lib/gcc/nios2-elf/4.9.1/../../../../../H-x86_64-mingw32/nios2-elf/lib\libc.a(lib_a-wctomb_r.o)
 .bss           0x00000000010530c8        0x0 d:/altera/15.0.0.130/nios2eds/bin/gnu/h-x86_64-mingw32/bin/../lib/gcc/nios2-elf/4.9.1\libgcc.a(_udivdi3.o)
 .bss           0x00000000010530c8        0x0 d:/altera/15.0.0.130/nios2eds/bin/gnu/h-x86_64-mingw32/bin/../lib/gcc/nios2-elf/4.9.1\libgcc.a(_umoddi3.o)
 .bss           0x00000000010530c8        0x0 d:/altera/15.0.0.130/nios2eds/bin/gnu/h-x86_64-mingw32/bin/../lib/gcc/nios2-elf/4.9.1\libgcc.a(lib2-divmod.o)
 .bss           0x00000000010530c8        0x0 d:/altera/15.0.0.130/nios2eds/bin/gnu/h-x86_64-mingw32/bin/../lib/gcc/nios2-elf/4.9.1\libgcc.a(adddf3.o)
 .bss           0x00000000010530c8        0x0 d:/altera/15.0.0.130/nios2eds/bin/gnu/h-x86_64-mingw32/bin/../lib/gcc/nios2-elf/4.9.1\libgcc.a(divdf3.o)
 .bss           0x00000000010530c8        0x0 d:/altera/15.0.0.130/nios2eds/bin/gnu/h-x86_64-mingw32/bin/../lib/gcc/nios2-elf/4.9.1\libgcc.a(eqdf2.o)
 .bss           0x00000000010530c8        0x0 d:/altera/15.0.0.130/nios2eds/bin/gnu/h-x86_64-mingw32/bin/../lib/gcc/nios2-elf/4.9.1\libgcc.a(gedf2.o)
 .bss           0x00000000010530c8        0x0 d:/altera/15.0.0.130/nios2eds/bin/gnu/h-x86_64-mingw32/bin/../lib/gcc/nios2-elf/4.9.1\libgcc.a(ledf2.o)
 .bss           0x00000000010530c8        0x0 d:/altera/15.0.0.130/nios2eds/bin/gnu/h-x86_64-mingw32/bin/../lib/gcc/nios2-elf/4.9.1\libgcc.a(muldf3.o)
 .bss           0x00000000010530c8        0x0 d:/altera/15.0.0.130/nios2eds/bin/gnu/h-x86_64-mingw32/bin/../lib/gcc/nios2-elf/4.9.1\libgcc.a(subdf3.o)
 .bss           0x00000000010530c8        0x0 d:/altera/15.0.0.130/nios2eds/bin/gnu/h-x86_64-mingw32/bin/../lib/gcc/nios2-elf/4.9.1\libgcc.a(fixdfsi.o)
 .bss           0x00000000010530c8        0x0 d:/altera/15.0.0.130/nios2eds/bin/gnu/h-x86_64-mingw32/bin/../lib/gcc/nios2-elf/4.9.1\libgcc.a(floatsidf.o)
 .bss           0x00000000010530c8        0x0 d:/altera/15.0.0.130/nios2eds/bin/gnu/h-x86_64-mingw32/bin/../lib/gcc/nios2-elf/4.9.1\libgcc.a(floatunsidf.o)
 .bss           0x00000000010530c8        0x0 ../DECA_TEMP_bsp/\libhal_bsp.a(alt_close.o)
 .bss           0x00000000010530c8        0x0 ../DECA_TEMP_bsp/\libhal_bsp.a(alt_dev.o)
 .bss           0x00000000010530c8        0x0 ../DECA_TEMP_bsp/\libhal_bsp.a(alt_errno.o)
 .bss           0x00000000010530c8        0x0 ../DECA_TEMP_bsp/\libhal_bsp.a(alt_fstat.o)
 .bss           0x00000000010530c8        0x0 ../DECA_TEMP_bsp/\libhal_bsp.a(alt_isatty.o)
 .bss           0x00000000010530c8        0x0 ../DECA_TEMP_bsp/\libhal_bsp.a(alt_load.o)
 .bss           0x00000000010530c8        0x0 ../DECA_TEMP_bsp/\libhal_bsp.a(alt_lseek.o)
 .bss           0x00000000010530c8        0x0 ../DECA_TEMP_bsp/\libhal_bsp.a(alt_main.o)
 .bss           0x00000000010530c8        0x0 ../DECA_TEMP_bsp/\libhal_bsp.a(alt_malloc_lock.o)
 .bss           0x00000000010530c8        0x0 ../DECA_TEMP_bsp/\libhal_bsp.a(alt_read.o)
 .bss           0x00000000010530c8        0x0 ../DECA_TEMP_bsp/\libhal_bsp.a(alt_release_fd.o)
 .bss           0x00000000010530c8        0x0 ../DECA_TEMP_bsp/\libhal_bsp.a(alt_sbrk.o)
 .bss           0x00000000010530c8        0x0 ../DECA_TEMP_bsp/\libhal_bsp.a(alt_usleep.o)
 .bss           0x00000000010530c8        0x0 ../DECA_TEMP_bsp/\libhal_bsp.a(alt_write.o)
 .bss           0x00000000010530c8        0x0 ../DECA_TEMP_bsp/\libhal_bsp.a(alt_sys_init.o)
 .bss           0x00000000010530c8        0x0 ../DECA_TEMP_bsp/\libhal_bsp.a(altera_avalon_jtag_uart_fd.o)
 .bss           0x00000000010530c8        0x0 ../DECA_TEMP_bsp/\libhal_bsp.a(altera_avalon_jtag_uart_init.o)
 .bss           0x00000000010530c8        0x0 ../DECA_TEMP_bsp/\libhal_bsp.a(altera_avalon_jtag_uart_ioctl.o)
 .bss           0x00000000010530c8        0x0 ../DECA_TEMP_bsp/\libhal_bsp.a(altera_avalon_jtag_uart_read.o)
 .bss           0x00000000010530c8        0x0 ../DECA_TEMP_bsp/\libhal_bsp.a(altera_avalon_jtag_uart_write.o)
 .bss           0x00000000010530c8        0x0 ../DECA_TEMP_bsp/\libhal_bsp.a(altera_avalon_timer_sc.o)
 .bss           0x00000000010530c8        0x0 ../DECA_TEMP_bsp/\libhal_bsp.a(alt_alarm_start.o)
 .bss           0x00000000010530c8        0x0 ../DECA_TEMP_bsp/\libhal_bsp.a(alt_busy_sleep.o)
 .bss           0x00000000010530c8        0x0 ../DECA_TEMP_bsp/\libhal_bsp.a(alt_dcache_flush_all.o)
 .bss           0x00000000010530c8        0x0 ../DECA_TEMP_bsp/\libhal_bsp.a(alt_dev_llist_insert.o)
 .bss           0x00000000010530c8        0x0 ../DECA_TEMP_bsp/\libhal_bsp.a(alt_do_ctors.o)
 .bss           0x00000000010530c8        0x0 ../DECA_TEMP_bsp/\libhal_bsp.a(alt_do_dtors.o)
 .bss           0x00000000010530c8        0x0 ../DECA_TEMP_bsp/\libhal_bsp.a(alt_icache_flush_all.o)
 .bss           0x00000000010530c8        0x0 ../DECA_TEMP_bsp/\libhal_bsp.a(alt_iic.o)
 .bss           0x00000000010530c8        0x0 ../DECA_TEMP_bsp/\libhal_bsp.a(alt_iic_isr_register.o)
 .bss           0x00000000010530c8        0x0 ../DECA_TEMP_bsp/\libhal_bsp.a(alt_io_redirect.o)
 .bss           0x00000000010530c8        0x0 ../DECA_TEMP_bsp/\libhal_bsp.a(alt_irq_entry.o)
 .bss           0x00000000010530c8        0x0 ../DECA_TEMP_bsp/\libhal_bsp.a(alt_irq_handler.o)
 .bss           0x00000000010530c8        0x0 ../DECA_TEMP_bsp/\libhal_bsp.a(alt_irq_vars.o)
 .bss           0x00000000010530c8        0x0 ../DECA_TEMP_bsp/\libhal_bsp.a(alt_open.o)
 .bss           0x00000000010530c8        0x0 ../DECA_TEMP_bsp/\libhal_bsp.a(alt_tick.o)
 .bss           0x00000000010530c8        0x0 ../DECA_TEMP_bsp/\libhal_bsp.a(altera_nios2_gen2_irq.o)
 .bss           0x00000000010530c8        0x0 ../DECA_TEMP_bsp/\libhal_bsp.a(alt_exception_entry.o)
 .bss           0x00000000010530c8        0x0 ../DECA_TEMP_bsp/\libhal_bsp.a(alt_find_dev.o)
 .bss           0x00000000010530c8        0x0 ../DECA_TEMP_bsp/\libhal_bsp.a(alt_find_file.o)
 .bss           0x00000000010530c8        0x0 ../DECA_TEMP_bsp/\libhal_bsp.a(alt_get_fd.o)
 .bss           0x00000000010530c8        0x0 ../DECA_TEMP_bsp/\libhal_bsp.a(alt_icache_flush.o)
 .bss           0x00000000010530c8        0x0 ../DECA_TEMP_bsp/\libhal_bsp.a(alt_instruction_exception_entry.o)
 .bss           0x00000000010530c8        0x0 d:/altera/15.0.0.130/nios2eds/bin/gnu/h-x86_64-mingw32/bin/../lib/gcc/nios2-elf/4.9.1/../../../../../H-x86_64-mingw32/nios2-elf/lib\libc.a(lib_a-atexit.o)
 .bss           0x00000000010530c8        0x0 d:/altera/15.0.0.130/nios2eds/bin/gnu/h-x86_64-mingw32/bin/../lib/gcc/nios2-elf/4.9.1/../../../../../H-x86_64-mingw32/nios2-elf/lib\libc.a(lib_a-exit.o)
 .bss           0x00000000010530c8        0x0 d:/altera/15.0.0.130/nios2eds/bin/gnu/h-x86_64-mingw32/bin/../lib/gcc/nios2-elf/4.9.1/../../../../../H-x86_64-mingw32/nios2-elf/lib\libc.a(lib_a-memcmp.o)
 .bss           0x00000000010530c8        0x0 d:/altera/15.0.0.130/nios2eds/bin/gnu/h-x86_64-mingw32/bin/../lib/gcc/nios2-elf/4.9.1/../../../../../H-x86_64-mingw32/nios2-elf/lib\libc.a(lib_a-__atexit.o)
 .bss           0x00000000010530c8        0x0 d:/altera/15.0.0.130/nios2eds/bin/gnu/h-x86_64-mingw32/bin/../lib/gcc/nios2-elf/4.9.1/../../../../../H-x86_64-mingw32/nios2-elf/lib\libc.a(lib_a-__call_atexit.o)
 .bss           0x00000000010530c8        0x0 ../DECA_TEMP_bsp/\libhal_bsp.a(alt_exit.o)
 *(COMMON)
 COMMON         0x00000000010530c8      0x100 ../DECA_TEMP_bsp/\libhal_bsp.a(alt_irq_handler.o)
                0x00000000010530c8                alt_irq
                0x00000000010531c8                . = ALIGN (0x4)
                0x00000000010531c8                __bss_end = ABSOLUTE (.)

.onchip_memory2
                0x00000000010531c8        0x0
                0x00000000010531c8                PROVIDE (_alt_partition_onchip_memory2_start, ABSOLUTE (.))
 *(.onchip_memory2 .onchip_memory2. onchip_memory2.*)
                0x00000000010531c8                . = ALIGN (0x4)
                0x00000000010531c8                PROVIDE (_alt_partition_onchip_memory2_end, ABSOLUTE (.))
                0x00000000010531c8                _end = ABSOLUTE (.)
                0x00000000010531c8                end = ABSOLUTE (.)
                0x00000000010531c8                __alt_stack_base = ABSOLUTE (.)
                0x00000000010531c8                PROVIDE (_alt_partition_onchip_memory2_load_addr, LOADADDR (.onchip_memory2))

.stab
 *(.stab)

.stabstr
 *(.stabstr)

.stab.excl
 *(.stab.excl)

.stab.exclstr
 *(.stab.exclstr)

.stab.index
 *(.stab.index)

.stab.indexstr
 *(.stab.indexstr)

.comment        0x0000000000000000       0x23
 *(.comment)
 .comment       0x0000000000000000       0x23 obj/default/main.o
                                         0x24 (size before relaxing)
 .comment       0x0000000000000000       0x24 d:/altera/15.0.0.130/nios2eds/bin/gnu/h-x86_64-mingw32/bin/../lib/gcc/nios2-elf/4.9.1\libgcc.a(mulsf3.o)
 .comment       0x0000000000000000       0x24 d:/altera/15.0.0.130/nios2eds/bin/gnu/h-x86_64-mingw32/bin/../lib/gcc/nios2-elf/4.9.1\libgcc.a(floatunsisf.o)
 .comment       0x0000000000000000       0x24 d:/altera/15.0.0.130/nios2eds/bin/gnu/h-x86_64-mingw32/bin/../lib/gcc/nios2-elf/4.9.1\libgcc.a(extendsfdf2.o)
 .comment       0x0000000000000000       0x24 d:/altera/15.0.0.130/nios2eds/bin/gnu/h-x86_64-mingw32/bin/../lib/gcc/nios2-elf/4.9.1\libgcc.a(_clzsi2.o)
 .comment       0x0000000000000000       0x24 d:/altera/15.0.0.130/nios2eds/bin/gnu/h-x86_64-mingw32/bin/../lib/gcc/nios2-elf/4.9.1\libgcc.a(_clz.o)
 .comment       0x0000000000000000       0x24 d:/altera/15.0.0.130/nios2eds/bin/gnu/h-x86_64-mingw32/bin/../lib/gcc/nios2-elf/4.9.1/../../../../../H-x86_64-mingw32/nios2-elf/lib\libc.a(lib_a-printf.o)
 .comment       0x0000000000000000       0x24 d:/altera/15.0.0.130/nios2eds/bin/gnu/h-x86_64-mingw32/bin/../lib/gcc/nios2-elf/4.9.1/../../../../../H-x86_64-mingw32/nios2-elf/lib\libc.a(lib_a-puts.o)
 .comment       0x0000000000000000       0x24 d:/altera/15.0.0.130/nios2eds/bin/gnu/h-x86_64-mingw32/bin/../lib/gcc/nios2-elf/4.9.1/../../../../../H-x86_64-mingw32/nios2-elf/lib\libc.a(lib_a-strlen.o)
 .comment       0x0000000000000000       0x24 d:/altera/15.0.0.130/nios2eds/bin/gnu/h-x86_64-mingw32/bin/../lib/gcc/nios2-elf/4.9.1/../../../../../H-x86_64-mingw32/nios2-elf/lib\libc.a(lib_a-vfprintf.o)
 .comment       0x0000000000000000       0x24 d:/altera/15.0.0.130/nios2eds/bin/gnu/h-x86_64-mingw32/bin/../lib/gcc/nios2-elf/4.9.1/../../../../../H-x86_64-mingw32/nios2-elf/lib\libc.a(lib_a-wsetup.o)
 .comment       0x0000000000000000       0x24 d:/altera/15.0.0.130/nios2eds/bin/gnu/h-x86_64-mingw32/bin/../lib/gcc/nios2-elf/4.9.1/../../../../../H-x86_64-mingw32/nios2-elf/lib\libc.a(lib_a-dtoa.o)
 .comment       0x0000000000000000       0x24 d:/altera/15.0.0.130/nios2eds/bin/gnu/h-x86_64-mingw32/bin/../lib/gcc/nios2-elf/4.9.1/../../../../../H-x86_64-mingw32/nios2-elf/lib\libc.a(lib_a-fflush.o)
 .comment       0x0000000000000000       0x24 d:/altera/15.0.0.130/nios2eds/bin/gnu/h-x86_64-mingw32/bin/../lib/gcc/nios2-elf/4.9.1/../../../../../H-x86_64-mingw32/nios2-elf/lib\libc.a(lib_a-findfp.o)
 .comment       0x0000000000000000       0x24 d:/altera/15.0.0.130/nios2eds/bin/gnu/h-x86_64-mingw32/bin/../lib/gcc/nios2-elf/4.9.1/../../../../../H-x86_64-mingw32/nios2-elf/lib\libc.a(lib_a-freer.o)
 .comment       0x0000000000000000       0x24 d:/altera/15.0.0.130/nios2eds/bin/gnu/h-x86_64-mingw32/bin/../lib/gcc/nios2-elf/4.9.1/../../../../../H-x86_64-mingw32/nios2-elf/lib\libc.a(lib_a-fvwrite.o)
 .comment       0x0000000000000000       0x24 d:/altera/15.0.0.130/nios2eds/bin/gnu/h-x86_64-mingw32/bin/../lib/gcc/nios2-elf/4.9.1/../../../../../H-x86_64-mingw32/nios2-elf/lib\libc.a(lib_a-fwalk.o)
 .comment       0x0000000000000000       0x24 d:/altera/15.0.0.130/nios2eds/bin/gnu/h-x86_64-mingw32/bin/../lib/gcc/nios2-elf/4.9.1/../../../../../H-x86_64-mingw32/nios2-elf/lib\libc.a(lib_a-impure.o)
 .comment       0x0000000000000000       0x24 d:/altera/15.0.0.130/nios2eds/bin/gnu/h-x86_64-mingw32/bin/../lib/gcc/nios2-elf/4.9.1/../../../../../H-x86_64-mingw32/nios2-elf/lib\libc.a(lib_a-locale.o)
 .comment       0x0000000000000000       0x24 d:/altera/15.0.0.130/nios2eds/bin/gnu/h-x86_64-mingw32/bin/../lib/gcc/nios2-elf/4.9.1/../../../../../H-x86_64-mingw32/nios2-elf/lib\libc.a(lib_a-makebuf.o)
 .comment       0x0000000000000000       0x24 d:/altera/15.0.0.130/nios2eds/bin/gnu/h-x86_64-mingw32/bin/../lib/gcc/nios2-elf/4.9.1/../../../../../H-x86_64-mingw32/nios2-elf/lib\libc.a(lib_a-mallocr.o)
 .comment       0x0000000000000000       0x24 d:/altera/15.0.0.130/nios2eds/bin/gnu/h-x86_64-mingw32/bin/../lib/gcc/nios2-elf/4.9.1/../../../../../H-x86_64-mingw32/nios2-elf/lib\libc.a(lib_a-memchr.o)
 .comment       0x0000000000000000       0x24 d:/altera/15.0.0.130/nios2eds/bin/gnu/h-x86_64-mingw32/bin/../lib/gcc/nios2-elf/4.9.1/../../../../../H-x86_64-mingw32/nios2-elf/lib\libc.a(lib_a-memcpy.o)
 .comment       0x0000000000000000       0x24 d:/altera/15.0.0.130/nios2eds/bin/gnu/h-x86_64-mingw32/bin/../lib/gcc/nios2-elf/4.9.1/../../../../../H-x86_64-mingw32/nios2-elf/lib\libc.a(lib_a-memmove.o)
 .comment       0x0000000000000000       0x24 d:/altera/15.0.0.130/nios2eds/bin/gnu/h-x86_64-mingw32/bin/../lib/gcc/nios2-elf/4.9.1/../../../../../H-x86_64-mingw32/nios2-elf/lib\libc.a(lib_a-memset.o)
 .comment       0x0000000000000000       0x24 d:/altera/15.0.0.130/nios2eds/bin/gnu/h-x86_64-mingw32/bin/../lib/gcc/nios2-elf/4.9.1/../../../../../H-x86_64-mingw32/nios2-elf/lib\libc.a(lib_a-mprec.o)
 .comment       0x0000000000000000       0x24 d:/altera/15.0.0.130/nios2eds/bin/gnu/h-x86_64-mingw32/bin/../lib/gcc/nios2-elf/4.9.1/../../../../../H-x86_64-mingw32/nios2-elf/lib\libc.a(lib_a-reallocr.o)
 .comment       0x0000000000000000       0x24 d:/altera/15.0.0.130/nios2eds/bin/gnu/h-x86_64-mingw32/bin/../lib/gcc/nios2-elf/4.9.1/../../../../../H-x86_64-mingw32/nios2-elf/lib\libc.a(lib_a-s_fpclassify.o)
 .comment       0x0000000000000000       0x24 d:/altera/15.0.0.130/nios2eds/bin/gnu/h-x86_64-mingw32/bin/../lib/gcc/nios2-elf/4.9.1/../../../../../H-x86_64-mingw32/nios2-elf/lib\libc.a(lib_a-sbrkr.o)
 .comment       0x0000000000000000       0x24 d:/altera/15.0.0.130/nios2eds/bin/gnu/h-x86_64-mingw32/bin/../lib/gcc/nios2-elf/4.9.1/../../../../../H-x86_64-mingw32/nios2-elf/lib\libc.a(lib_a-stdio.o)
 .comment       0x0000000000000000       0x24 d:/altera/15.0.0.130/nios2eds/bin/gnu/h-x86_64-mingw32/bin/../lib/gcc/nios2-elf/4.9.1/../../../../../H-x86_64-mingw32/nios2-elf/lib\libc.a(lib_a-strcmp.o)
 .comment       0x0000000000000000       0x24 d:/altera/15.0.0.130/nios2eds/bin/gnu/h-x86_64-mingw32/bin/../lib/gcc/nios2-elf/4.9.1/../../../../../H-x86_64-mingw32/nios2-elf/lib\libc.a(lib_a-vfiprintf.o)
 .comment       0x0000000000000000       0x24 d:/altera/15.0.0.130/nios2eds/bin/gnu/h-x86_64-mingw32/bin/../lib/gcc/nios2-elf/4.9.1/../../../../../H-x86_64-mingw32/nios2-elf/lib\libc.a(lib_a-writer.o)
 .comment       0x0000000000000000       0x24 d:/altera/15.0.0.130/nios2eds/bin/gnu/h-x86_64-mingw32/bin/../lib/gcc/nios2-elf/4.9.1/../../../../../H-x86_64-mingw32/nios2-elf/lib\libc.a(closer.o)
 .comment       0x0000000000000000       0x24 d:/altera/15.0.0.130/nios2eds/bin/gnu/h-x86_64-mingw32/bin/../lib/gcc/nios2-elf/4.9.1/../../../../../H-x86_64-mingw32/nios2-elf/lib\libc.a(lib_a-callocr.o)
 .comment       0x0000000000000000       0x24 d:/altera/15.0.0.130/nios2eds/bin/gnu/h-x86_64-mingw32/bin/../lib/gcc/nios2-elf/4.9.1/../../../../../H-x86_64-mingw32/nios2-elf/lib\libc.a(lib_a-fclose.o)
 .comment       0x0000000000000000       0x24 d:/altera/15.0.0.130/nios2eds/bin/gnu/h-x86_64-mingw32/bin/../lib/gcc/nios2-elf/4.9.1/../../../../../H-x86_64-mingw32/nios2-elf/lib\libc.a(lib_a-fputwc.o)
 .comment       0x0000000000000000       0x24 d:/altera/15.0.0.130/nios2eds/bin/gnu/h-x86_64-mingw32/bin/../lib/gcc/nios2-elf/4.9.1/../../../../../H-x86_64-mingw32/nios2-elf/lib\libc.a(lib_a-fstatr.o)
 .comment       0x0000000000000000       0x24 d:/altera/15.0.0.130/nios2eds/bin/gnu/h-x86_64-mingw32/bin/../lib/gcc/nios2-elf/4.9.1/../../../../../H-x86_64-mingw32/nios2-elf/lib\libc.a(lib_a-int_errno.o)
 .comment       0x0000000000000000       0x24 d:/altera/15.0.0.130/nios2eds/bin/gnu/h-x86_64-mingw32/bin/../lib/gcc/nios2-elf/4.9.1/../../../../../H-x86_64-mingw32/nios2-elf/lib\libc.a(lib_a-isattyr.o)
 .comment       0x0000000000000000       0x24 d:/altera/15.0.0.130/nios2eds/bin/gnu/h-x86_64-mingw32/bin/../lib/gcc/nios2-elf/4.9.1/../../../../../H-x86_64-mingw32/nios2-elf/lib\libc.a(lib_a-lseekr.o)
 .comment       0x0000000000000000       0x24 d:/altera/15.0.0.130/nios2eds/bin/gnu/h-x86_64-mingw32/bin/../lib/gcc/nios2-elf/4.9.1/../../../../../H-x86_64-mingw32/nios2-elf/lib\libc.a(lib_a-readr.o)
 .comment       0x0000000000000000       0x24 d:/altera/15.0.0.130/nios2eds/bin/gnu/h-x86_64-mingw32/bin/../lib/gcc/nios2-elf/4.9.1/../../../../../H-x86_64-mingw32/nios2-elf/lib\libc.a(lib_a-wbuf.o)
 .comment       0x0000000000000000       0x24 d:/altera/15.0.0.130/nios2eds/bin/gnu/h-x86_64-mingw32/bin/../lib/gcc/nios2-elf/4.9.1/../../../../../H-x86_64-mingw32/nios2-elf/lib\libc.a(lib_a-wcrtomb.o)
 .comment       0x0000000000000000       0x24 d:/altera/15.0.0.130/nios2eds/bin/gnu/h-x86_64-mingw32/bin/../lib/gcc/nios2-elf/4.9.1/../../../../../H-x86_64-mingw32/nios2-elf/lib\libc.a(lib_a-wctomb_r.o)
 .comment       0x0000000000000000       0x24 d:/altera/15.0.0.130/nios2eds/bin/gnu/h-x86_64-mingw32/bin/../lib/gcc/nios2-elf/4.9.1\libgcc.a(_udivdi3.o)
 .comment       0x0000000000000000       0x24 d:/altera/15.0.0.130/nios2eds/bin/gnu/h-x86_64-mingw32/bin/../lib/gcc/nios2-elf/4.9.1\libgcc.a(_umoddi3.o)
 .comment       0x0000000000000000       0x24 d:/altera/15.0.0.130/nios2eds/bin/gnu/h-x86_64-mingw32/bin/../lib/gcc/nios2-elf/4.9.1\libgcc.a(lib2-divmod.o)
 .comment       0x0000000000000000       0x24 d:/altera/15.0.0.130/nios2eds/bin/gnu/h-x86_64-mingw32/bin/../lib/gcc/nios2-elf/4.9.1\libgcc.a(adddf3.o)
 .comment       0x0000000000000000       0x24 d:/altera/15.0.0.130/nios2eds/bin/gnu/h-x86_64-mingw32/bin/../lib/gcc/nios2-elf/4.9.1\libgcc.a(divdf3.o)
 .comment       0x0000000000000000       0x24 d:/altera/15.0.0.130/nios2eds/bin/gnu/h-x86_64-mingw32/bin/../lib/gcc/nios2-elf/4.9.1\libgcc.a(eqdf2.o)
 .comment       0x0000000000000000       0x24 d:/altera/15.0.0.130/nios2eds/bin/gnu/h-x86_64-mingw32/bin/../lib/gcc/nios2-elf/4.9.1\libgcc.a(gedf2.o)
 .comment       0x0000000000000000       0x24 d:/altera/15.0.0.130/nios2eds/bin/gnu/h-x86_64-mingw32/bin/../lib/gcc/nios2-elf/4.9.1\libgcc.a(ledf2.o)
 .comment       0x0000000000000000       0x24 d:/altera/15.0.0.130/nios2eds/bin/gnu/h-x86_64-mingw32/bin/../lib/gcc/nios2-elf/4.9.1\libgcc.a(muldf3.o)
 .comment       0x0000000000000000       0x24 d:/altera/15.0.0.130/nios2eds/bin/gnu/h-x86_64-mingw32/bin/../lib/gcc/nios2-elf/4.9.1\libgcc.a(subdf3.o)
 .comment       0x0000000000000000       0x24 d:/altera/15.0.0.130/nios2eds/bin/gnu/h-x86_64-mingw32/bin/../lib/gcc/nios2-elf/4.9.1\libgcc.a(fixdfsi.o)
 .comment       0x0000000000000000       0x24 d:/altera/15.0.0.130/nios2eds/bin/gnu/h-x86_64-mingw32/bin/../lib/gcc/nios2-elf/4.9.1\libgcc.a(floatsidf.o)
 .comment       0x0000000000000000       0x24 d:/altera/15.0.0.130/nios2eds/bin/gnu/h-x86_64-mingw32/bin/../lib/gcc/nios2-elf/4.9.1\libgcc.a(floatunsidf.o)
 .comment       0x0000000000000000       0x24 ../DECA_TEMP_bsp/\libhal_bsp.a(alt_close.o)
 .comment       0x0000000000000000       0x24 ../DECA_TEMP_bsp/\libhal_bsp.a(alt_dev.o)
 .comment       0x0000000000000000       0x24 ../DECA_TEMP_bsp/\libhal_bsp.a(alt_errno.o)
 .comment       0x0000000000000000       0x24 ../DECA_TEMP_bsp/\libhal_bsp.a(alt_fstat.o)
 .comment       0x0000000000000000       0x24 ../DECA_TEMP_bsp/\libhal_bsp.a(alt_isatty.o)
 .comment       0x0000000000000000       0x24 ../DECA_TEMP_bsp/\libhal_bsp.a(alt_load.o)
 .comment       0x0000000000000000       0x24 ../DECA_TEMP_bsp/\libhal_bsp.a(alt_lseek.o)
 .comment       0x0000000000000000       0x24 ../DECA_TEMP_bsp/\libhal_bsp.a(alt_main.o)
 .comment       0x0000000000000000       0x24 ../DECA_TEMP_bsp/\libhal_bsp.a(alt_malloc_lock.o)
 .comment       0x0000000000000000       0x24 ../DECA_TEMP_bsp/\libhal_bsp.a(alt_read.o)
 .comment       0x0000000000000000       0x24 ../DECA_TEMP_bsp/\libhal_bsp.a(alt_release_fd.o)
 .comment       0x0000000000000000       0x24 ../DECA_TEMP_bsp/\libhal_bsp.a(alt_sbrk.o)
 .comment       0x0000000000000000       0x24 ../DECA_TEMP_bsp/\libhal_bsp.a(alt_usleep.o)
 .comment       0x0000000000000000       0x24 ../DECA_TEMP_bsp/\libhal_bsp.a(alt_write.o)
 .comment       0x0000000000000000       0x24 ../DECA_TEMP_bsp/\libhal_bsp.a(alt_sys_init.o)
 .comment       0x0000000000000000       0x24 ../DECA_TEMP_bsp/\libhal_bsp.a(altera_avalon_jtag_uart_fd.o)
 .comment       0x0000000000000000       0x24 ../DECA_TEMP_bsp/\libhal_bsp.a(altera_avalon_jtag_uart_init.o)
 .comment       0x0000000000000000       0x24 ../DECA_TEMP_bsp/\libhal_bsp.a(altera_avalon_jtag_uart_ioctl.o)
 .comment       0x0000000000000000       0x24 ../DECA_TEMP_bsp/\libhal_bsp.a(altera_avalon_jtag_uart_read.o)
 .comment       0x0000000000000000       0x24 ../DECA_TEMP_bsp/\libhal_bsp.a(altera_avalon_jtag_uart_write.o)
 .comment       0x0000000000000000       0x24 ../DECA_TEMP_bsp/\libhal_bsp.a(altera_avalon_timer_sc.o)
 .comment       0x0000000000000000       0x24 ../DECA_TEMP_bsp/\libhal_bsp.a(alt_alarm_start.o)
 .comment       0x0000000000000000       0x24 ../DECA_TEMP_bsp/\libhal_bsp.a(alt_busy_sleep.o)
 .comment       0x0000000000000000       0x24 ../DECA_TEMP_bsp/\libhal_bsp.a(alt_dcache_flush_all.o)
 .comment       0x0000000000000000       0x24 ../DECA_TEMP_bsp/\libhal_bsp.a(alt_dev_llist_insert.o)
 .comment       0x0000000000000000       0x24 ../DECA_TEMP_bsp/\libhal_bsp.a(alt_do_ctors.o)
 .comment       0x0000000000000000       0x24 ../DECA_TEMP_bsp/\libhal_bsp.a(alt_do_dtors.o)
 .comment       0x0000000000000000       0x24 ../DECA_TEMP_bsp/\libhal_bsp.a(alt_icache_flush_all.o)
 .comment       0x0000000000000000       0x24 ../DECA_TEMP_bsp/\libhal_bsp.a(alt_iic.o)
 .comment       0x0000000000000000       0x24 ../DECA_TEMP_bsp/\libhal_bsp.a(alt_iic_isr_register.o)
 .comment       0x0000000000000000       0x24 ../DECA_TEMP_bsp/\libhal_bsp.a(alt_io_redirect.o)
 .comment       0x0000000000000000       0x24 ../DECA_TEMP_bsp/\libhal_bsp.a(alt_irq_handler.o)
 .comment       0x0000000000000000       0x24 ../DECA_TEMP_bsp/\libhal_bsp.a(alt_irq_vars.o)
 .comment       0x0000000000000000       0x24 ../DECA_TEMP_bsp/\libhal_bsp.a(alt_open.o)
 .comment       0x0000000000000000       0x24 ../DECA_TEMP_bsp/\libhal_bsp.a(alt_tick.o)
 .comment       0x0000000000000000       0x24 ../DECA_TEMP_bsp/\libhal_bsp.a(altera_nios2_gen2_irq.o)
 .comment       0x0000000000000000       0x24 ../DECA_TEMP_bsp/\libhal_bsp.a(alt_find_dev.o)
 .comment       0x0000000000000000       0x24 ../DECA_TEMP_bsp/\libhal_bsp.a(alt_find_file.o)
 .comment       0x0000000000000000       0x24 ../DECA_TEMP_bsp/\libhal_bsp.a(alt_get_fd.o)
 .comment       0x0000000000000000       0x24 ../DECA_TEMP_bsp/\libhal_bsp.a(alt_icache_flush.o)
 .comment       0x0000000000000000       0x24 ../DECA_TEMP_bsp/\libhal_bsp.a(alt_instruction_exception_entry.o)
 .comment       0x0000000000000000       0x24 d:/altera/15.0.0.130/nios2eds/bin/gnu/h-x86_64-mingw32/bin/../lib/gcc/nios2-elf/4.9.1/../../../../../H-x86_64-mingw32/nios2-elf/lib\libc.a(lib_a-atexit.o)
 .comment       0x0000000000000000       0x24 d:/altera/15.0.0.130/nios2eds/bin/gnu/h-x86_64-mingw32/bin/../lib/gcc/nios2-elf/4.9.1/../../../../../H-x86_64-mingw32/nios2-elf/lib\libc.a(lib_a-exit.o)
 .comment       0x0000000000000000       0x24 d:/altera/15.0.0.130/nios2eds/bin/gnu/h-x86_64-mingw32/bin/../lib/gcc/nios2-elf/4.9.1/../../../../../H-x86_64-mingw32/nios2-elf/lib\libc.a(lib_a-memcmp.o)
 .comment       0x0000000000000000       0x24 d:/altera/15.0.0.130/nios2eds/bin/gnu/h-x86_64-mingw32/bin/../lib/gcc/nios2-elf/4.9.1/../../../../../H-x86_64-mingw32/nios2-elf/lib\libc.a(lib_a-__atexit.o)
 .comment       0x0000000000000000       0x24 d:/altera/15.0.0.130/nios2eds/bin/gnu/h-x86_64-mingw32/bin/../lib/gcc/nios2-elf/4.9.1/../../../../../H-x86_64-mingw32/nios2-elf/lib\libc.a(lib_a-__call_atexit.o)
 .comment       0x0000000000000000       0x24 ../DECA_TEMP_bsp/\libhal_bsp.a(alt_exit.o)

.debug
 *(.debug)

.line
 *(.line)

.debug_srcinfo
 *(.debug_srcinfo)

.debug_sfnames
 *(.debug_sfnames)

.debug_aranges  0x0000000000000000      0xd90
 *(.debug_aranges)
 .debug_aranges
                0x0000000000000000       0x28 ../DECA_TEMP_bsp//obj/HAL/src/crt0.o
 .debug_aranges
                0x0000000000000028       0x20 obj/default/main.o
 .debug_aranges
                0x0000000000000048       0x20 d:/altera/15.0.0.130/nios2eds/bin/gnu/h-x86_64-mingw32/bin/../lib/gcc/nios2-elf/4.9.1\libgcc.a(mulsf3.o)
 .debug_aranges
                0x0000000000000068       0x20 d:/altera/15.0.0.130/nios2eds/bin/gnu/h-x86_64-mingw32/bin/../lib/gcc/nios2-elf/4.9.1\libgcc.a(floatunsisf.o)
 .debug_aranges
                0x0000000000000088       0x20 d:/altera/15.0.0.130/nios2eds/bin/gnu/h-x86_64-mingw32/bin/../lib/gcc/nios2-elf/4.9.1\libgcc.a(extendsfdf2.o)
 .debug_aranges
                0x00000000000000a8       0x20 d:/altera/15.0.0.130/nios2eds/bin/gnu/h-x86_64-mingw32/bin/../lib/gcc/nios2-elf/4.9.1\libgcc.a(_clzsi2.o)
 .debug_aranges
                0x00000000000000c8       0x18 d:/altera/15.0.0.130/nios2eds/bin/gnu/h-x86_64-mingw32/bin/../lib/gcc/nios2-elf/4.9.1\libgcc.a(_clz.o)
 .debug_aranges
                0x00000000000000e0       0x20 d:/altera/15.0.0.130/nios2eds/bin/gnu/h-x86_64-mingw32/bin/../lib/gcc/nios2-elf/4.9.1/../../../../../H-x86_64-mingw32/nios2-elf/lib\libc.a(lib_a-printf.o)
 .debug_aranges
                0x0000000000000100       0x20 d:/altera/15.0.0.130/nios2eds/bin/gnu/h-x86_64-mingw32/bin/../lib/gcc/nios2-elf/4.9.1/../../../../../H-x86_64-mingw32/nios2-elf/lib\libc.a(lib_a-puts.o)
 .debug_aranges
                0x0000000000000120       0x20 d:/altera/15.0.0.130/nios2eds/bin/gnu/h-x86_64-mingw32/bin/../lib/gcc/nios2-elf/4.9.1/../../../../../H-x86_64-mingw32/nios2-elf/lib\libc.a(lib_a-strlen.o)
 .debug_aranges
                0x0000000000000140       0x20 d:/altera/15.0.0.130/nios2eds/bin/gnu/h-x86_64-mingw32/bin/../lib/gcc/nios2-elf/4.9.1/../../../../../H-x86_64-mingw32/nios2-elf/lib\libc.a(lib_a-vfprintf.o)
 .debug_aranges
                0x0000000000000160       0x20 d:/altera/15.0.0.130/nios2eds/bin/gnu/h-x86_64-mingw32/bin/../lib/gcc/nios2-elf/4.9.1/../../../../../H-x86_64-mingw32/nios2-elf/lib\libc.a(lib_a-wsetup.o)
 .debug_aranges
                0x0000000000000180       0x20 d:/altera/15.0.0.130/nios2eds/bin/gnu/h-x86_64-mingw32/bin/../lib/gcc/nios2-elf/4.9.1/../../../../../H-x86_64-mingw32/nios2-elf/lib\libc.a(lib_a-dtoa.o)
 .debug_aranges
                0x00000000000001a0       0x20 d:/altera/15.0.0.130/nios2eds/bin/gnu/h-x86_64-mingw32/bin/../lib/gcc/nios2-elf/4.9.1/../../../../../H-x86_64-mingw32/nios2-elf/lib\libc.a(lib_a-fflush.o)
 .debug_aranges
                0x00000000000001c0       0x20 d:/altera/15.0.0.130/nios2eds/bin/gnu/h-x86_64-mingw32/bin/../lib/gcc/nios2-elf/4.9.1/../../../../../H-x86_64-mingw32/nios2-elf/lib\libc.a(lib_a-findfp.o)
 .debug_aranges
                0x00000000000001e0       0x20 d:/altera/15.0.0.130/nios2eds/bin/gnu/h-x86_64-mingw32/bin/../lib/gcc/nios2-elf/4.9.1/../../../../../H-x86_64-mingw32/nios2-elf/lib\libc.a(lib_a-freer.o)
 .debug_aranges
                0x0000000000000200       0x20 d:/altera/15.0.0.130/nios2eds/bin/gnu/h-x86_64-mingw32/bin/../lib/gcc/nios2-elf/4.9.1/../../../../../H-x86_64-mingw32/nios2-elf/lib\libc.a(lib_a-fvwrite.o)
 .debug_aranges
                0x0000000000000220       0x20 d:/altera/15.0.0.130/nios2eds/bin/gnu/h-x86_64-mingw32/bin/../lib/gcc/nios2-elf/4.9.1/../../../../../H-x86_64-mingw32/nios2-elf/lib\libc.a(lib_a-fwalk.o)
 .debug_aranges
                0x0000000000000240       0x18 d:/altera/15.0.0.130/nios2eds/bin/gnu/h-x86_64-mingw32/bin/../lib/gcc/nios2-elf/4.9.1/../../../../../H-x86_64-mingw32/nios2-elf/lib\libc.a(lib_a-impure.o)
 .debug_aranges
                0x0000000000000258       0x20 d:/altera/15.0.0.130/nios2eds/bin/gnu/h-x86_64-mingw32/bin/../lib/gcc/nios2-elf/4.9.1/../../../../../H-x86_64-mingw32/nios2-elf/lib\libc.a(lib_a-locale.o)
 .debug_aranges
                0x0000000000000278       0x20 d:/altera/15.0.0.130/nios2eds/bin/gnu/h-x86_64-mingw32/bin/../lib/gcc/nios2-elf/4.9.1/../../../../../H-x86_64-mingw32/nios2-elf/lib\libc.a(lib_a-makebuf.o)
 .debug_aranges
                0x0000000000000298       0x20 d:/altera/15.0.0.130/nios2eds/bin/gnu/h-x86_64-mingw32/bin/../lib/gcc/nios2-elf/4.9.1/../../../../../H-x86_64-mingw32/nios2-elf/lib\libc.a(lib_a-mallocr.o)
 .debug_aranges
                0x00000000000002b8       0x20 d:/altera/15.0.0.130/nios2eds/bin/gnu/h-x86_64-mingw32/bin/../lib/gcc/nios2-elf/4.9.1/../../../../../H-x86_64-mingw32/nios2-elf/lib\libc.a(lib_a-memchr.o)
 .debug_aranges
                0x00000000000002d8       0x20 d:/altera/15.0.0.130/nios2eds/bin/gnu/h-x86_64-mingw32/bin/../lib/gcc/nios2-elf/4.9.1/../../../../../H-x86_64-mingw32/nios2-elf/lib\libc.a(lib_a-memcpy.o)
 .debug_aranges
                0x00000000000002f8       0x20 d:/altera/15.0.0.130/nios2eds/bin/gnu/h-x86_64-mingw32/bin/../lib/gcc/nios2-elf/4.9.1/../../../../../H-x86_64-mingw32/nios2-elf/lib\libc.a(lib_a-memmove.o)
 .debug_aranges
                0x0000000000000318       0x20 d:/altera/15.0.0.130/nios2eds/bin/gnu/h-x86_64-mingw32/bin/../lib/gcc/nios2-elf/4.9.1/../../../../../H-x86_64-mingw32/nios2-elf/lib\libc.a(lib_a-memset.o)
 .debug_aranges
                0x0000000000000338       0x20 d:/altera/15.0.0.130/nios2eds/bin/gnu/h-x86_64-mingw32/bin/../lib/gcc/nios2-elf/4.9.1/../../../../../H-x86_64-mingw32/nios2-elf/lib\libc.a(lib_a-mprec.o)
 .debug_aranges
                0x0000000000000358       0x20 d:/altera/15.0.0.130/nios2eds/bin/gnu/h-x86_64-mingw32/bin/../lib/gcc/nios2-elf/4.9.1/../../../../../H-x86_64-mingw32/nios2-elf/lib\libc.a(lib_a-reallocr.o)
 .debug_aranges
                0x0000000000000378       0x20 d:/altera/15.0.0.130/nios2eds/bin/gnu/h-x86_64-mingw32/bin/../lib/gcc/nios2-elf/4.9.1/../../../../../H-x86_64-mingw32/nios2-elf/lib\libc.a(lib_a-s_fpclassify.o)
 .debug_aranges
                0x0000000000000398       0x20 d:/altera/15.0.0.130/nios2eds/bin/gnu/h-x86_64-mingw32/bin/../lib/gcc/nios2-elf/4.9.1/../../../../../H-x86_64-mingw32/nios2-elf/lib\libc.a(lib_a-sbrkr.o)
 .debug_aranges
                0x00000000000003b8       0x20 d:/altera/15.0.0.130/nios2eds/bin/gnu/h-x86_64-mingw32/bin/../lib/gcc/nios2-elf/4.9.1/../../../../../H-x86_64-mingw32/nios2-elf/lib\libc.a(lib_a-stdio.o)
 .debug_aranges
                0x00000000000003d8       0x20 d:/altera/15.0.0.130/nios2eds/bin/gnu/h-x86_64-mingw32/bin/../lib/gcc/nios2-elf/4.9.1/../../../../../H-x86_64-mingw32/nios2-elf/lib\libc.a(lib_a-strcmp.o)
 .debug_aranges
                0x00000000000003f8       0x20 d:/altera/15.0.0.130/nios2eds/bin/gnu/h-x86_64-mingw32/bin/../lib/gcc/nios2-elf/4.9.1/../../../../../H-x86_64-mingw32/nios2-elf/lib\libc.a(lib_a-vfiprintf.o)
 .debug_aranges
                0x0000000000000418       0x20 d:/altera/15.0.0.130/nios2eds/bin/gnu/h-x86_64-mingw32/bin/../lib/gcc/nios2-elf/4.9.1/../../../../../H-x86_64-mingw32/nios2-elf/lib\libc.a(lib_a-writer.o)
 .debug_aranges
                0x0000000000000438       0x20 d:/altera/15.0.0.130/nios2eds/bin/gnu/h-x86_64-mingw32/bin/../lib/gcc/nios2-elf/4.9.1/../../../../../H-x86_64-mingw32/nios2-elf/lib\libc.a(closer.o)
 .debug_aranges
                0x0000000000000458       0x20 d:/altera/15.0.0.130/nios2eds/bin/gnu/h-x86_64-mingw32/bin/../lib/gcc/nios2-elf/4.9.1/../../../../../H-x86_64-mingw32/nios2-elf/lib\libc.a(lib_a-callocr.o)
 .debug_aranges
                0x0000000000000478       0x20 d:/altera/15.0.0.130/nios2eds/bin/gnu/h-x86_64-mingw32/bin/../lib/gcc/nios2-elf/4.9.1/../../../../../H-x86_64-mingw32/nios2-elf/lib\libc.a(lib_a-fclose.o)
 .debug_aranges
                0x0000000000000498       0x20 d:/altera/15.0.0.130/nios2eds/bin/gnu/h-x86_64-mingw32/bin/../lib/gcc/nios2-elf/4.9.1/../../../../../H-x86_64-mingw32/nios2-elf/lib\libc.a(lib_a-fputwc.o)
 .debug_aranges
                0x00000000000004b8       0x20 d:/altera/15.0.0.130/nios2eds/bin/gnu/h-x86_64-mingw32/bin/../lib/gcc/nios2-elf/4.9.1/../../../../../H-x86_64-mingw32/nios2-elf/lib\libc.a(lib_a-fstatr.o)
 .debug_aranges
                0x00000000000004d8       0x18 d:/altera/15.0.0.130/nios2eds/bin/gnu/h-x86_64-mingw32/bin/../lib/gcc/nios2-elf/4.9.1/../../../../../H-x86_64-mingw32/nios2-elf/lib\libc.a(lib_a-int_errno.o)
 .debug_aranges
                0x00000000000004f0       0x20 d:/altera/15.0.0.130/nios2eds/bin/gnu/h-x86_64-mingw32/bin/../lib/gcc/nios2-elf/4.9.1/../../../../../H-x86_64-mingw32/nios2-elf/lib\libc.a(lib_a-isattyr.o)
 .debug_aranges
                0x0000000000000510       0x20 d:/altera/15.0.0.130/nios2eds/bin/gnu/h-x86_64-mingw32/bin/../lib/gcc/nios2-elf/4.9.1/../../../../../H-x86_64-mingw32/nios2-elf/lib\libc.a(lib_a-lseekr.o)
 .debug_aranges
                0x0000000000000530       0x20 d:/altera/15.0.0.130/nios2eds/bin/gnu/h-x86_64-mingw32/bin/../lib/gcc/nios2-elf/4.9.1/../../../../../H-x86_64-mingw32/nios2-elf/lib\libc.a(lib_a-readr.o)
 .debug_aranges
                0x0000000000000550       0x20 d:/altera/15.0.0.130/nios2eds/bin/gnu/h-x86_64-mingw32/bin/../lib/gcc/nios2-elf/4.9.1/../../../../../H-x86_64-mingw32/nios2-elf/lib\libc.a(lib_a-wbuf.o)
 .debug_aranges
                0x0000000000000570       0x20 d:/altera/15.0.0.130/nios2eds/bin/gnu/h-x86_64-mingw32/bin/../lib/gcc/nios2-elf/4.9.1/../../../../../H-x86_64-mingw32/nios2-elf/lib\libc.a(lib_a-wcrtomb.o)
 .debug_aranges
                0x0000000000000590       0x20 d:/altera/15.0.0.130/nios2eds/bin/gnu/h-x86_64-mingw32/bin/../lib/gcc/nios2-elf/4.9.1/../../../../../H-x86_64-mingw32/nios2-elf/lib\libc.a(lib_a-wctomb_r.o)
 .debug_aranges
                0x00000000000005b0       0x20 d:/altera/15.0.0.130/nios2eds/bin/gnu/h-x86_64-mingw32/bin/../lib/gcc/nios2-elf/4.9.1\libgcc.a(_udivdi3.o)
 .debug_aranges
                0x00000000000005d0       0x20 d:/altera/15.0.0.130/nios2eds/bin/gnu/h-x86_64-mingw32/bin/../lib/gcc/nios2-elf/4.9.1\libgcc.a(_umoddi3.o)
 .debug_aranges
                0x00000000000005f0       0x20 d:/altera/15.0.0.130/nios2eds/bin/gnu/h-x86_64-mingw32/bin/../lib/gcc/nios2-elf/4.9.1\libgcc.a(lib2-divmod.o)
 .debug_aranges
                0x0000000000000610       0x20 d:/altera/15.0.0.130/nios2eds/bin/gnu/h-x86_64-mingw32/bin/../lib/gcc/nios2-elf/4.9.1\libgcc.a(adddf3.o)
 .debug_aranges
                0x0000000000000630       0x20 d:/altera/15.0.0.130/nios2eds/bin/gnu/h-x86_64-mingw32/bin/../lib/gcc/nios2-elf/4.9.1\libgcc.a(divdf3.o)
 .debug_aranges
                0x0000000000000650       0x20 d:/altera/15.0.0.130/nios2eds/bin/gnu/h-x86_64-mingw32/bin/../lib/gcc/nios2-elf/4.9.1\libgcc.a(eqdf2.o)
 .debug_aranges
                0x0000000000000670       0x20 d:/altera/15.0.0.130/nios2eds/bin/gnu/h-x86_64-mingw32/bin/../lib/gcc/nios2-elf/4.9.1\libgcc.a(gedf2.o)
 .debug_aranges
                0x0000000000000690       0x20 d:/altera/15.0.0.130/nios2eds/bin/gnu/h-x86_64-mingw32/bin/../lib/gcc/nios2-elf/4.9.1\libgcc.a(ledf2.o)
 .debug_aranges
                0x00000000000006b0       0x20 d:/altera/15.0.0.130/nios2eds/bin/gnu/h-x86_64-mingw32/bin/../lib/gcc/nios2-elf/4.9.1\libgcc.a(muldf3.o)
 .debug_aranges
                0x00000000000006d0       0x20 d:/altera/15.0.0.130/nios2eds/bin/gnu/h-x86_64-mingw32/bin/../lib/gcc/nios2-elf/4.9.1\libgcc.a(subdf3.o)
 .debug_aranges
                0x00000000000006f0       0x20 d:/altera/15.0.0.130/nios2eds/bin/gnu/h-x86_64-mingw32/bin/../lib/gcc/nios2-elf/4.9.1\libgcc.a(fixdfsi.o)
 .debug_aranges
                0x0000000000000710       0x20 d:/altera/15.0.0.130/nios2eds/bin/gnu/h-x86_64-mingw32/bin/../lib/gcc/nios2-elf/4.9.1\libgcc.a(floatsidf.o)
 .debug_aranges
                0x0000000000000730       0x20 d:/altera/15.0.0.130/nios2eds/bin/gnu/h-x86_64-mingw32/bin/../lib/gcc/nios2-elf/4.9.1\libgcc.a(floatunsidf.o)
 .debug_aranges
                0x0000000000000750       0x20 ../DECA_TEMP_bsp/\libhal_bsp.a(alt_close.o)
 .debug_aranges
                0x0000000000000770       0x20 ../DECA_TEMP_bsp/\libhal_bsp.a(alt_dev.o)
 .debug_aranges
                0x0000000000000790       0x18 ../DECA_TEMP_bsp/\libhal_bsp.a(alt_errno.o)
 .debug_aranges
                0x00000000000007a8       0x20 ../DECA_TEMP_bsp/\libhal_bsp.a(alt_fstat.o)
 .debug_aranges
                0x00000000000007c8       0x20 ../DECA_TEMP_bsp/\libhal_bsp.a(alt_isatty.o)
 .debug_aranges
                0x00000000000007e8       0x20 ../DECA_TEMP_bsp/\libhal_bsp.a(alt_load.o)
 .debug_aranges
                0x0000000000000808       0x20 ../DECA_TEMP_bsp/\libhal_bsp.a(alt_lseek.o)
 .debug_aranges
                0x0000000000000828       0x20 ../DECA_TEMP_bsp/\libhal_bsp.a(alt_main.o)
 .debug_aranges
                0x0000000000000848       0x20 ../DECA_TEMP_bsp/\libhal_bsp.a(alt_malloc_lock.o)
 .debug_aranges
                0x0000000000000868       0x20 ../DECA_TEMP_bsp/\libhal_bsp.a(alt_read.o)
 .debug_aranges
                0x0000000000000888       0x20 ../DECA_TEMP_bsp/\libhal_bsp.a(alt_release_fd.o)
 .debug_aranges
                0x00000000000008a8       0x20 ../DECA_TEMP_bsp/\libhal_bsp.a(alt_sbrk.o)
 .debug_aranges
                0x00000000000008c8       0x20 ../DECA_TEMP_bsp/\libhal_bsp.a(alt_usleep.o)
 .debug_aranges
                0x00000000000008e8       0x20 ../DECA_TEMP_bsp/\libhal_bsp.a(alt_write.o)
 .debug_aranges
                0x0000000000000908       0x20 ../DECA_TEMP_bsp/\libhal_bsp.a(alt_sys_init.o)
 .debug_aranges
                0x0000000000000928       0x20 ../DECA_TEMP_bsp/\libhal_bsp.a(altera_avalon_jtag_uart_fd.o)
 .debug_aranges
                0x0000000000000948       0x20 ../DECA_TEMP_bsp/\libhal_bsp.a(altera_avalon_jtag_uart_init.o)
 .debug_aranges
                0x0000000000000968       0x20 ../DECA_TEMP_bsp/\libhal_bsp.a(altera_avalon_jtag_uart_ioctl.o)
 .debug_aranges
                0x0000000000000988       0x20 ../DECA_TEMP_bsp/\libhal_bsp.a(altera_avalon_jtag_uart_read.o)
 .debug_aranges
                0x00000000000009a8       0x20 ../DECA_TEMP_bsp/\libhal_bsp.a(altera_avalon_jtag_uart_write.o)
 .debug_aranges
                0x00000000000009c8       0x20 ../DECA_TEMP_bsp/\libhal_bsp.a(altera_avalon_timer_sc.o)
 .debug_aranges
                0x00000000000009e8       0x20 ../DECA_TEMP_bsp/\libhal_bsp.a(alt_alarm_start.o)
 .debug_aranges
                0x0000000000000a08       0x20 ../DECA_TEMP_bsp/\libhal_bsp.a(alt_busy_sleep.o)
 .debug_aranges
                0x0000000000000a28       0x20 ../DECA_TEMP_bsp/\libhal_bsp.a(alt_dcache_flush_all.o)
 .debug_aranges
                0x0000000000000a48       0x20 ../DECA_TEMP_bsp/\libhal_bsp.a(alt_dev_llist_insert.o)
 .debug_aranges
                0x0000000000000a68       0x20 ../DECA_TEMP_bsp/\libhal_bsp.a(alt_do_ctors.o)
 .debug_aranges
                0x0000000000000a88       0x20 ../DECA_TEMP_bsp/\libhal_bsp.a(alt_do_dtors.o)
 .debug_aranges
                0x0000000000000aa8       0x20 ../DECA_TEMP_bsp/\libhal_bsp.a(alt_icache_flush_all.o)
 .debug_aranges
                0x0000000000000ac8       0x20 ../DECA_TEMP_bsp/\libhal_bsp.a(alt_iic.o)
 .debug_aranges
                0x0000000000000ae8       0x20 ../DECA_TEMP_bsp/\libhal_bsp.a(alt_iic_isr_register.o)
 .debug_aranges
                0x0000000000000b08       0x20 ../DECA_TEMP_bsp/\libhal_bsp.a(alt_io_redirect.o)
 .debug_aranges
                0x0000000000000b28       0x30 ../DECA_TEMP_bsp/\libhal_bsp.a(alt_irq_entry.o)
 .debug_aranges
                0x0000000000000b58       0x20 ../DECA_TEMP_bsp/\libhal_bsp.a(alt_irq_handler.o)
 .debug_aranges
                0x0000000000000b78       0x18 ../DECA_TEMP_bsp/\libhal_bsp.a(alt_irq_vars.o)
 .debug_aranges
                0x0000000000000b90       0x20 ../DECA_TEMP_bsp/\libhal_bsp.a(alt_open.o)
 .debug_aranges
                0x0000000000000bb0       0x20 ../DECA_TEMP_bsp/\libhal_bsp.a(alt_tick.o)
 .debug_aranges
                0x0000000000000bd0       0x20 ../DECA_TEMP_bsp/\libhal_bsp.a(altera_nios2_gen2_irq.o)
 .debug_aranges
                0x0000000000000bf0       0x38 ../DECA_TEMP_bsp/\libhal_bsp.a(alt_exception_entry.o)
 .debug_aranges
                0x0000000000000c28       0x20 ../DECA_TEMP_bsp/\libhal_bsp.a(alt_find_dev.o)
 .debug_aranges
                0x0000000000000c48       0x20 ../DECA_TEMP_bsp/\libhal_bsp.a(alt_find_file.o)
 .debug_aranges
                0x0000000000000c68       0x20 ../DECA_TEMP_bsp/\libhal_bsp.a(alt_get_fd.o)
 .debug_aranges
                0x0000000000000c88       0x20 ../DECA_TEMP_bsp/\libhal_bsp.a(alt_icache_flush.o)
 .debug_aranges
                0x0000000000000ca8       0x28 ../DECA_TEMP_bsp/\libhal_bsp.a(alt_instruction_exception_entry.o)
 .debug_aranges
                0x0000000000000cd0       0x20 d:/altera/15.0.0.130/nios2eds/bin/gnu/h-x86_64-mingw32/bin/../lib/gcc/nios2-elf/4.9.1/../../../../../H-x86_64-mingw32/nios2-elf/lib\libc.a(lib_a-atexit.o)
 .debug_aranges
                0x0000000000000cf0       0x20 d:/altera/15.0.0.130/nios2eds/bin/gnu/h-x86_64-mingw32/bin/../lib/gcc/nios2-elf/4.9.1/../../../../../H-x86_64-mingw32/nios2-elf/lib\libc.a(lib_a-exit.o)
 .debug_aranges
                0x0000000000000d10       0x20 d:/altera/15.0.0.130/nios2eds/bin/gnu/h-x86_64-mingw32/bin/../lib/gcc/nios2-elf/4.9.1/../../../../../H-x86_64-mingw32/nios2-elf/lib\libc.a(lib_a-memcmp.o)
 .debug_aranges
                0x0000000000000d30       0x20 d:/altera/15.0.0.130/nios2eds/bin/gnu/h-x86_64-mingw32/bin/../lib/gcc/nios2-elf/4.9.1/../../../../../H-x86_64-mingw32/nios2-elf/lib\libc.a(lib_a-__atexit.o)
 .debug_aranges
                0x0000000000000d50       0x20 d:/altera/15.0.0.130/nios2eds/bin/gnu/h-x86_64-mingw32/bin/../lib/gcc/nios2-elf/4.9.1/../../../../../H-x86_64-mingw32/nios2-elf/lib\libc.a(lib_a-__call_atexit.o)
 .debug_aranges
                0x0000000000000d70       0x20 ../DECA_TEMP_bsp/\libhal_bsp.a(alt_exit.o)

.debug_pubnames
 *(.debug_pubnames)

.debug_info     0x0000000000000000    0x23e1d
 *(.debug_info .gnu.linkonce.wi.*)
 .debug_info    0x0000000000000000       0x7d ../DECA_TEMP_bsp//obj/HAL/src/crt0.o
 .debug_info    0x000000000000007d       0xe9 obj/default/main.o
 .debug_info    0x0000000000000166      0x31c d:/altera/15.0.0.130/nios2eds/bin/gnu/h-x86_64-mingw32/bin/../lib/gcc/nios2-elf/4.9.1\libgcc.a(mulsf3.o)
 .debug_info    0x0000000000000482      0x1ba d:/altera/15.0.0.130/nios2eds/bin/gnu/h-x86_64-mingw32/bin/../lib/gcc/nios2-elf/4.9.1\libgcc.a(floatunsisf.o)
 .debug_info    0x000000000000063c      0x248 d:/altera/15.0.0.130/nios2eds/bin/gnu/h-x86_64-mingw32/bin/../lib/gcc/nios2-elf/4.9.1\libgcc.a(extendsfdf2.o)
 .debug_info    0x0000000000000884      0x11d d:/altera/15.0.0.130/nios2eds/bin/gnu/h-x86_64-mingw32/bin/../lib/gcc/nios2-elf/4.9.1\libgcc.a(_clzsi2.o)
 .debug_info    0x00000000000009a1       0xab d:/altera/15.0.0.130/nios2eds/bin/gnu/h-x86_64-mingw32/bin/../lib/gcc/nios2-elf/4.9.1\libgcc.a(_clz.o)
 .debug_info    0x0000000000000a4c      0x9af d:/altera/15.0.0.130/nios2eds/bin/gnu/h-x86_64-mingw32/bin/../lib/gcc/nios2-elf/4.9.1/../../../../../H-x86_64-mingw32/nios2-elf/lib\libc.a(lib_a-printf.o)
 .debug_info    0x00000000000013fb      0x9f4 d:/altera/15.0.0.130/nios2eds/bin/gnu/h-x86_64-mingw32/bin/../lib/gcc/nios2-elf/4.9.1/../../../../../H-x86_64-mingw32/nios2-elf/lib\libc.a(lib_a-puts.o)
 .debug_info    0x0000000000001def       0xdb d:/altera/15.0.0.130/nios2eds/bin/gnu/h-x86_64-mingw32/bin/../lib/gcc/nios2-elf/4.9.1/../../../../../H-x86_64-mingw32/nios2-elf/lib\libc.a(lib_a-strlen.o)
 .debug_info    0x0000000000001eca     0x17d1 d:/altera/15.0.0.130/nios2eds/bin/gnu/h-x86_64-mingw32/bin/../lib/gcc/nios2-elf/4.9.1/../../../../../H-x86_64-mingw32/nios2-elf/lib\libc.a(lib_a-vfprintf.o)
 .debug_info    0x000000000000369b      0x91d d:/altera/15.0.0.130/nios2eds/bin/gnu/h-x86_64-mingw32/bin/../lib/gcc/nios2-elf/4.9.1/../../../../../H-x86_64-mingw32/nios2-elf/lib\libc.a(lib_a-wsetup.o)
 .debug_info    0x0000000000003fb8     0x1348 d:/altera/15.0.0.130/nios2eds/bin/gnu/h-x86_64-mingw32/bin/../lib/gcc/nios2-elf/4.9.1/../../../../../H-x86_64-mingw32/nios2-elf/lib\libc.a(lib_a-dtoa.o)
 .debug_info    0x0000000000005300      0xa3a d:/altera/15.0.0.130/nios2eds/bin/gnu/h-x86_64-mingw32/bin/../lib/gcc/nios2-elf/4.9.1/../../../../../H-x86_64-mingw32/nios2-elf/lib\libc.a(lib_a-fflush.o)
 .debug_info    0x0000000000005d3a      0xd38 d:/altera/15.0.0.130/nios2eds/bin/gnu/h-x86_64-mingw32/bin/../lib/gcc/nios2-elf/4.9.1/../../../../../H-x86_64-mingw32/nios2-elf/lib\libc.a(lib_a-findfp.o)
 .debug_info    0x0000000000006a72      0xc02 d:/altera/15.0.0.130/nios2eds/bin/gnu/h-x86_64-mingw32/bin/../lib/gcc/nios2-elf/4.9.1/../../../../../H-x86_64-mingw32/nios2-elf/lib\libc.a(lib_a-freer.o)
 .debug_info    0x0000000000007674      0xc31 d:/altera/15.0.0.130/nios2eds/bin/gnu/h-x86_64-mingw32/bin/../lib/gcc/nios2-elf/4.9.1/../../../../../H-x86_64-mingw32/nios2-elf/lib\libc.a(lib_a-fvwrite.o)
 .debug_info    0x00000000000082a5      0xab7 d:/altera/15.0.0.130/nios2eds/bin/gnu/h-x86_64-mingw32/bin/../lib/gcc/nios2-elf/4.9.1/../../../../../H-x86_64-mingw32/nios2-elf/lib\libc.a(lib_a-fwalk.o)
 .debug_info    0x0000000000008d5c      0x88f d:/altera/15.0.0.130/nios2eds/bin/gnu/h-x86_64-mingw32/bin/../lib/gcc/nios2-elf/4.9.1/../../../../../H-x86_64-mingw32/nios2-elf/lib\libc.a(lib_a-impure.o)
 .debug_info    0x00000000000095eb      0xc19 d:/altera/15.0.0.130/nios2eds/bin/gnu/h-x86_64-mingw32/bin/../lib/gcc/nios2-elf/4.9.1/../../../../../H-x86_64-mingw32/nios2-elf/lib\libc.a(lib_a-locale.o)
 .debug_info    0x000000000000a204      0xaff d:/altera/15.0.0.130/nios2eds/bin/gnu/h-x86_64-mingw32/bin/../lib/gcc/nios2-elf/4.9.1/../../../../../H-x86_64-mingw32/nios2-elf/lib\libc.a(lib_a-makebuf.o)
 .debug_info    0x000000000000ad03      0xd71 d:/altera/15.0.0.130/nios2eds/bin/gnu/h-x86_64-mingw32/bin/../lib/gcc/nios2-elf/4.9.1/../../../../../H-x86_64-mingw32/nios2-elf/lib\libc.a(lib_a-mallocr.o)
 .debug_info    0x000000000000ba74      0x12b d:/altera/15.0.0.130/nios2eds/bin/gnu/h-x86_64-mingw32/bin/../lib/gcc/nios2-elf/4.9.1/../../../../../H-x86_64-mingw32/nios2-elf/lib\libc.a(lib_a-memchr.o)
 .debug_info    0x000000000000bb9f      0x133 d:/altera/15.0.0.130/nios2eds/bin/gnu/h-x86_64-mingw32/bin/../lib/gcc/nios2-elf/4.9.1/../../../../../H-x86_64-mingw32/nios2-elf/lib\libc.a(lib_a-memcpy.o)
 .debug_info    0x000000000000bcd2      0x133 d:/altera/15.0.0.130/nios2eds/bin/gnu/h-x86_64-mingw32/bin/../lib/gcc/nios2-elf/4.9.1/../../../../../H-x86_64-mingw32/nios2-elf/lib\libc.a(lib_a-memmove.o)
 .debug_info    0x000000000000be05      0x11a d:/altera/15.0.0.130/nios2eds/bin/gnu/h-x86_64-mingw32/bin/../lib/gcc/nios2-elf/4.9.1/../../../../../H-x86_64-mingw32/nios2-elf/lib\libc.a(lib_a-memset.o)
 .debug_info    0x000000000000bf1f     0x1680 d:/altera/15.0.0.130/nios2eds/bin/gnu/h-x86_64-mingw32/bin/../lib/gcc/nios2-elf/4.9.1/../../../../../H-x86_64-mingw32/nios2-elf/lib\libc.a(lib_a-mprec.o)
 .debug_info    0x000000000000d59f      0xcc6 d:/altera/15.0.0.130/nios2eds/bin/gnu/h-x86_64-mingw32/bin/../lib/gcc/nios2-elf/4.9.1/../../../../../H-x86_64-mingw32/nios2-elf/lib\libc.a(lib_a-reallocr.o)
 .debug_info    0x000000000000e265       0xdc d:/altera/15.0.0.130/nios2eds/bin/gnu/h-x86_64-mingw32/bin/../lib/gcc/nios2-elf/4.9.1/../../../../../H-x86_64-mingw32/nios2-elf/lib\libc.a(lib_a-s_fpclassify.o)
 .debug_info    0x000000000000e341      0x8ef d:/altera/15.0.0.130/nios2eds/bin/gnu/h-x86_64-mingw32/bin/../lib/gcc/nios2-elf/4.9.1/../../../../../H-x86_64-mingw32/nios2-elf/lib\libc.a(lib_a-sbrkr.o)
 .debug_info    0x000000000000ec30      0xb83 d:/altera/15.0.0.130/nios2eds/bin/gnu/h-x86_64-mingw32/bin/../lib/gcc/nios2-elf/4.9.1/../../../../../H-x86_64-mingw32/nios2-elf/lib\libc.a(lib_a-stdio.o)
 .debug_info    0x000000000000f7b3       0xdd d:/altera/15.0.0.130/nios2eds/bin/gnu/h-x86_64-mingw32/bin/../lib/gcc/nios2-elf/4.9.1/../../../../../H-x86_64-mingw32/nios2-elf/lib\libc.a(lib_a-strcmp.o)
 .debug_info    0x000000000000f890     0x1567 d:/altera/15.0.0.130/nios2eds/bin/gnu/h-x86_64-mingw32/bin/../lib/gcc/nios2-elf/4.9.1/../../../../../H-x86_64-mingw32/nios2-elf/lib\libc.a(lib_a-vfiprintf.o)
 .debug_info    0x0000000000010df7      0x921 d:/altera/15.0.0.130/nios2eds/bin/gnu/h-x86_64-mingw32/bin/../lib/gcc/nios2-elf/4.9.1/../../../../../H-x86_64-mingw32/nios2-elf/lib\libc.a(lib_a-writer.o)
 .debug_info    0x0000000000011718      0x8ce d:/altera/15.0.0.130/nios2eds/bin/gnu/h-x86_64-mingw32/bin/../lib/gcc/nios2-elf/4.9.1/../../../../../H-x86_64-mingw32/nios2-elf/lib\libc.a(closer.o)
 .debug_info    0x0000000000011fe6      0x9e1 d:/altera/15.0.0.130/nios2eds/bin/gnu/h-x86_64-mingw32/bin/../lib/gcc/nios2-elf/4.9.1/../../../../../H-x86_64-mingw32/nios2-elf/lib\libc.a(lib_a-callocr.o)
 .debug_info    0x00000000000129c7      0xa12 d:/altera/15.0.0.130/nios2eds/bin/gnu/h-x86_64-mingw32/bin/../lib/gcc/nios2-elf/4.9.1/../../../../../H-x86_64-mingw32/nios2-elf/lib\libc.a(lib_a-fclose.o)
 .debug_info    0x00000000000133d9      0xaac d:/altera/15.0.0.130/nios2eds/bin/gnu/h-x86_64-mingw32/bin/../lib/gcc/nios2-elf/4.9.1/../../../../../H-x86_64-mingw32/nios2-elf/lib\libc.a(lib_a-fputwc.o)
 .debug_info    0x0000000000013e85      0xa5c d:/altera/15.0.0.130/nios2eds/bin/gnu/h-x86_64-mingw32/bin/../lib/gcc/nios2-elf/4.9.1/../../../../../H-x86_64-mingw32/nios2-elf/lib\libc.a(lib_a-fstatr.o)
 .debug_info    0x00000000000148e1       0x83 d:/altera/15.0.0.130/nios2eds/bin/gnu/h-x86_64-mingw32/bin/../lib/gcc/nios2-elf/4.9.1/../../../../../H-x86_64-mingw32/nios2-elf/lib\libc.a(lib_a-int_errno.o)
 .debug_info    0x0000000000014964      0x8ce d:/altera/15.0.0.130/nios2eds/bin/gnu/h-x86_64-mingw32/bin/../lib/gcc/nios2-elf/4.9.1/../../../../../H-x86_64-mingw32/nios2-elf/lib\libc.a(lib_a-isattyr.o)
 .debug_info    0x0000000000015232      0x91a d:/altera/15.0.0.130/nios2eds/bin/gnu/h-x86_64-mingw32/bin/../lib/gcc/nios2-elf/4.9.1/../../../../../H-x86_64-mingw32/nios2-elf/lib\libc.a(lib_a-lseekr.o)
 .debug_info    0x0000000000015b4c      0x91a d:/altera/15.0.0.130/nios2eds/bin/gnu/h-x86_64-mingw32/bin/../lib/gcc/nios2-elf/4.9.1/../../../../../H-x86_64-mingw32/nios2-elf/lib\libc.a(lib_a-readr.o)
 .debug_info    0x0000000000016466      0x9b2 d:/altera/15.0.0.130/nios2eds/bin/gnu/h-x86_64-mingw32/bin/../lib/gcc/nios2-elf/4.9.1/../../../../../H-x86_64-mingw32/nios2-elf/lib\libc.a(lib_a-wbuf.o)
 .debug_info    0x0000000000016e18      0xa52 d:/altera/15.0.0.130/nios2eds/bin/gnu/h-x86_64-mingw32/bin/../lib/gcc/nios2-elf/4.9.1/../../../../../H-x86_64-mingw32/nios2-elf/lib\libc.a(lib_a-wcrtomb.o)
 .debug_info    0x000000000001786a      0x99a d:/altera/15.0.0.130/nios2eds/bin/gnu/h-x86_64-mingw32/bin/../lib/gcc/nios2-elf/4.9.1/../../../../../H-x86_64-mingw32/nios2-elf/lib\libc.a(lib_a-wctomb_r.o)
 .debug_info    0x0000000000018204      0x70c d:/altera/15.0.0.130/nios2eds/bin/gnu/h-x86_64-mingw32/bin/../lib/gcc/nios2-elf/4.9.1\libgcc.a(_udivdi3.o)
 .debug_info    0x0000000000018910      0x765 d:/altera/15.0.0.130/nios2eds/bin/gnu/h-x86_64-mingw32/bin/../lib/gcc/nios2-elf/4.9.1\libgcc.a(_umoddi3.o)
 .debug_info    0x0000000000019075      0x234 d:/altera/15.0.0.130/nios2eds/bin/gnu/h-x86_64-mingw32/bin/../lib/gcc/nios2-elf/4.9.1\libgcc.a(lib2-divmod.o)
 .debug_info    0x00000000000192a9      0x485 d:/altera/15.0.0.130/nios2eds/bin/gnu/h-x86_64-mingw32/bin/../lib/gcc/nios2-elf/4.9.1\libgcc.a(adddf3.o)
 .debug_info    0x000000000001972e      0x5c6 d:/altera/15.0.0.130/nios2eds/bin/gnu/h-x86_64-mingw32/bin/../lib/gcc/nios2-elf/4.9.1\libgcc.a(divdf3.o)
 .debug_info    0x0000000000019cf4      0x1e2 d:/altera/15.0.0.130/nios2eds/bin/gnu/h-x86_64-mingw32/bin/../lib/gcc/nios2-elf/4.9.1\libgcc.a(eqdf2.o)
 .debug_info    0x0000000000019ed6      0x202 d:/altera/15.0.0.130/nios2eds/bin/gnu/h-x86_64-mingw32/bin/../lib/gcc/nios2-elf/4.9.1\libgcc.a(gedf2.o)
 .debug_info    0x000000000001a0d8      0x202 d:/altera/15.0.0.130/nios2eds/bin/gnu/h-x86_64-mingw32/bin/../lib/gcc/nios2-elf/4.9.1\libgcc.a(ledf2.o)
 .debug_info    0x000000000001a2da      0x5f2 d:/altera/15.0.0.130/nios2eds/bin/gnu/h-x86_64-mingw32/bin/../lib/gcc/nios2-elf/4.9.1\libgcc.a(muldf3.o)
 .debug_info    0x000000000001a8cc      0x4a2 d:/altera/15.0.0.130/nios2eds/bin/gnu/h-x86_64-mingw32/bin/../lib/gcc/nios2-elf/4.9.1\libgcc.a(subdf3.o)
 .debug_info    0x000000000001ad6e      0x1a6 d:/altera/15.0.0.130/nios2eds/bin/gnu/h-x86_64-mingw32/bin/../lib/gcc/nios2-elf/4.9.1\libgcc.a(fixdfsi.o)
 .debug_info    0x000000000001af14      0x1b6 d:/altera/15.0.0.130/nios2eds/bin/gnu/h-x86_64-mingw32/bin/../lib/gcc/nios2-elf/4.9.1\libgcc.a(floatsidf.o)
 .debug_info    0x000000000001b0ca      0x1af d:/altera/15.0.0.130/nios2eds/bin/gnu/h-x86_64-mingw32/bin/../lib/gcc/nios2-elf/4.9.1\libgcc.a(floatunsidf.o)
 .debug_info    0x000000000001b279      0x31a ../DECA_TEMP_bsp/\libhal_bsp.a(alt_close.o)
 .debug_info    0x000000000001b593      0x495 ../DECA_TEMP_bsp/\libhal_bsp.a(alt_dev.o)
 .debug_info    0x000000000001ba28       0x9f ../DECA_TEMP_bsp/\libhal_bsp.a(alt_errno.o)
 .debug_info    0x000000000001bac7      0x481 ../DECA_TEMP_bsp/\libhal_bsp.a(alt_fstat.o)
 .debug_info    0x000000000001bf48      0x484 ../DECA_TEMP_bsp/\libhal_bsp.a(alt_isatty.o)
 .debug_info    0x000000000001c3cc      0x13e ../DECA_TEMP_bsp/\libhal_bsp.a(alt_load.o)
 .debug_info    0x000000000001c50a      0x34b ../DECA_TEMP_bsp/\libhal_bsp.a(alt_lseek.o)
 .debug_info    0x000000000001c855      0x12a ../DECA_TEMP_bsp/\libhal_bsp.a(alt_main.o)
 .debug_info    0x000000000001c97f      0x89f ../DECA_TEMP_bsp/\libhal_bsp.a(alt_malloc_lock.o)
 .debug_info    0x000000000001d21e      0x4a9 ../DECA_TEMP_bsp/\libhal_bsp.a(alt_read.o)
 .debug_info    0x000000000001d6c7      0x2b0 ../DECA_TEMP_bsp/\libhal_bsp.a(alt_release_fd.o)
 .debug_info    0x000000000001d977      0x1a5 ../DECA_TEMP_bsp/\libhal_bsp.a(alt_sbrk.o)
 .debug_info    0x000000000001db1c       0xa9 ../DECA_TEMP_bsp/\libhal_bsp.a(alt_usleep.o)
 .debug_info    0x000000000001dbc5      0x4b0 ../DECA_TEMP_bsp/\libhal_bsp.a(alt_write.o)
 .debug_info    0x000000000001e075      0x4d2 ../DECA_TEMP_bsp/\libhal_bsp.a(alt_sys_init.o)
 .debug_info    0x000000000001e547      0x527 ../DECA_TEMP_bsp/\libhal_bsp.a(altera_avalon_jtag_uart_fd.o)
 .debug_info    0x000000000001ea6e      0x3a1 ../DECA_TEMP_bsp/\libhal_bsp.a(altera_avalon_jtag_uart_init.o)
 .debug_info    0x000000000001ee0f      0x279 ../DECA_TEMP_bsp/\libhal_bsp.a(altera_avalon_jtag_uart_ioctl.o)
 .debug_info    0x000000000001f088      0x342 ../DECA_TEMP_bsp/\libhal_bsp.a(altera_avalon_jtag_uart_read.o)
 .debug_info    0x000000000001f3ca      0x339 ../DECA_TEMP_bsp/\libhal_bsp.a(altera_avalon_jtag_uart_write.o)
 .debug_info    0x000000000001f703      0x21f ../DECA_TEMP_bsp/\libhal_bsp.a(altera_avalon_timer_sc.o)
 .debug_info    0x000000000001f922      0x2c5 ../DECA_TEMP_bsp/\libhal_bsp.a(alt_alarm_start.o)
 .debug_info    0x000000000001fbe7       0xd0 ../DECA_TEMP_bsp/\libhal_bsp.a(alt_busy_sleep.o)
 .debug_info    0x000000000001fcb7       0x9e ../DECA_TEMP_bsp/\libhal_bsp.a(alt_dcache_flush_all.o)
 .debug_info    0x000000000001fd55      0x1a2 ../DECA_TEMP_bsp/\libhal_bsp.a(alt_dev_llist_insert.o)
 .debug_info    0x000000000001fef7       0x83 ../DECA_TEMP_bsp/\libhal_bsp.a(alt_do_ctors.o)
 .debug_info    0x000000000001ff7a       0x83 ../DECA_TEMP_bsp/\libhal_bsp.a(alt_do_dtors.o)
 .debug_info    0x000000000001fffd       0x8b ../DECA_TEMP_bsp/\libhal_bsp.a(alt_icache_flush_all.o)
 .debug_info    0x0000000000020088      0x349 ../DECA_TEMP_bsp/\libhal_bsp.a(alt_iic.o)
 .debug_info    0x00000000000203d1      0x1e8 ../DECA_TEMP_bsp/\libhal_bsp.a(alt_iic_isr_register.o)
 .debug_info    0x00000000000205b9      0x49e ../DECA_TEMP_bsp/\libhal_bsp.a(alt_io_redirect.o)
 .debug_info    0x0000000000020a57       0x86 ../DECA_TEMP_bsp/\libhal_bsp.a(alt_irq_entry.o)
 .debug_info    0x0000000000020add      0x180 ../DECA_TEMP_bsp/\libhal_bsp.a(alt_irq_handler.o)
 .debug_info    0x0000000000020c5d       0x88 ../DECA_TEMP_bsp/\libhal_bsp.a(alt_irq_vars.o)
 .debug_info    0x0000000000020ce5      0x3b4 ../DECA_TEMP_bsp/\libhal_bsp.a(alt_open.o)
 .debug_info    0x0000000000021099      0x292 ../DECA_TEMP_bsp/\libhal_bsp.a(alt_tick.o)
 .debug_info    0x000000000002132b       0x8b ../DECA_TEMP_bsp/\libhal_bsp.a(altera_nios2_gen2_irq.o)
 .debug_info    0x00000000000213b6       0x8c ../DECA_TEMP_bsp/\libhal_bsp.a(alt_exception_entry.o)
 .debug_info    0x0000000000021442      0x2e2 ../DECA_TEMP_bsp/\libhal_bsp.a(alt_find_dev.o)
 .debug_info    0x0000000000021724      0x2df ../DECA_TEMP_bsp/\libhal_bsp.a(alt_find_file.o)
 .debug_info    0x0000000000021a03      0x309 ../DECA_TEMP_bsp/\libhal_bsp.a(alt_get_fd.o)
 .debug_info    0x0000000000021d0c       0xd5 ../DECA_TEMP_bsp/\libhal_bsp.a(alt_icache_flush.o)
 .debug_info    0x0000000000021de1      0x1d8 ../DECA_TEMP_bsp/\libhal_bsp.a(alt_instruction_exception_entry.o)
 .debug_info    0x0000000000021fb9      0x10a d:/altera/15.0.0.130/nios2eds/bin/gnu/h-x86_64-mingw32/bin/../lib/gcc/nios2-elf/4.9.1/../../../../../H-x86_64-mingw32/nios2-elf/lib\libc.a(lib_a-atexit.o)
 .debug_info    0x00000000000220c3      0x8df d:/altera/15.0.0.130/nios2eds/bin/gnu/h-x86_64-mingw32/bin/../lib/gcc/nios2-elf/4.9.1/../../../../../H-x86_64-mingw32/nios2-elf/lib\libc.a(lib_a-exit.o)
 .debug_info    0x00000000000229a2      0x113 d:/altera/15.0.0.130/nios2eds/bin/gnu/h-x86_64-mingw32/bin/../lib/gcc/nios2-elf/4.9.1/../../../../../H-x86_64-mingw32/nios2-elf/lib\libc.a(lib_a-memcmp.o)
 .debug_info    0x0000000000022ab5      0x93b d:/altera/15.0.0.130/nios2eds/bin/gnu/h-x86_64-mingw32/bin/../lib/gcc/nios2-elf/4.9.1/../../../../../H-x86_64-mingw32/nios2-elf/lib\libc.a(lib_a-__atexit.o)
 .debug_info    0x00000000000233f0      0x948 d:/altera/15.0.0.130/nios2eds/bin/gnu/h-x86_64-mingw32/bin/../lib/gcc/nios2-elf/4.9.1/../../../../../H-x86_64-mingw32/nios2-elf/lib\libc.a(lib_a-__call_atexit.o)
 .debug_info    0x0000000000023d38       0xe5 ../DECA_TEMP_bsp/\libhal_bsp.a(alt_exit.o)

.debug_abbrev   0x0000000000000000     0x9317
 *(.debug_abbrev)
 .debug_abbrev  0x0000000000000000       0x12 ../DECA_TEMP_bsp//obj/HAL/src/crt0.o
 .debug_abbrev  0x0000000000000012       0x60 obj/default/main.o
 .debug_abbrev  0x0000000000000072      0x117 d:/altera/15.0.0.130/nios2eds/bin/gnu/h-x86_64-mingw32/bin/../lib/gcc/nios2-elf/4.9.1\libgcc.a(mulsf3.o)
 .debug_abbrev  0x0000000000000189      0x12b d:/altera/15.0.0.130/nios2eds/bin/gnu/h-x86_64-mingw32/bin/../lib/gcc/nios2-elf/4.9.1\libgcc.a(floatunsisf.o)
 .debug_abbrev  0x00000000000002b4      0x124 d:/altera/15.0.0.130/nios2eds/bin/gnu/h-x86_64-mingw32/bin/../lib/gcc/nios2-elf/4.9.1\libgcc.a(extendsfdf2.o)
 .debug_abbrev  0x00000000000003d8       0xbe d:/altera/15.0.0.130/nios2eds/bin/gnu/h-x86_64-mingw32/bin/../lib/gcc/nios2-elf/4.9.1\libgcc.a(_clzsi2.o)
 .debug_abbrev  0x0000000000000496       0x5d d:/altera/15.0.0.130/nios2eds/bin/gnu/h-x86_64-mingw32/bin/../lib/gcc/nios2-elf/4.9.1\libgcc.a(_clz.o)
 .debug_abbrev  0x00000000000004f3      0x234 d:/altera/15.0.0.130/nios2eds/bin/gnu/h-x86_64-mingw32/bin/../lib/gcc/nios2-elf/4.9.1/../../../../../H-x86_64-mingw32/nios2-elf/lib\libc.a(lib_a-printf.o)
 .debug_abbrev  0x0000000000000727      0x226 d:/altera/15.0.0.130/nios2eds/bin/gnu/h-x86_64-mingw32/bin/../lib/gcc/nios2-elf/4.9.1/../../../../../H-x86_64-mingw32/nios2-elf/lib\libc.a(lib_a-puts.o)
 .debug_abbrev  0x000000000000094d       0x90 d:/altera/15.0.0.130/nios2eds/bin/gnu/h-x86_64-mingw32/bin/../lib/gcc/nios2-elf/4.9.1/../../../../../H-x86_64-mingw32/nios2-elf/lib\libc.a(lib_a-strlen.o)
 .debug_abbrev  0x00000000000009dd      0x3c2 d:/altera/15.0.0.130/nios2eds/bin/gnu/h-x86_64-mingw32/bin/../lib/gcc/nios2-elf/4.9.1/../../../../../H-x86_64-mingw32/nios2-elf/lib\libc.a(lib_a-vfprintf.o)
 .debug_abbrev  0x0000000000000d9f      0x1f3 d:/altera/15.0.0.130/nios2eds/bin/gnu/h-x86_64-mingw32/bin/../lib/gcc/nios2-elf/4.9.1/../../../../../H-x86_64-mingw32/nios2-elf/lib\libc.a(lib_a-wsetup.o)
 .debug_abbrev  0x0000000000000f92      0x2c9 d:/altera/15.0.0.130/nios2eds/bin/gnu/h-x86_64-mingw32/bin/../lib/gcc/nios2-elf/4.9.1/../../../../../H-x86_64-mingw32/nios2-elf/lib\libc.a(lib_a-dtoa.o)
 .debug_abbrev  0x000000000000125b      0x275 d:/altera/15.0.0.130/nios2eds/bin/gnu/h-x86_64-mingw32/bin/../lib/gcc/nios2-elf/4.9.1/../../../../../H-x86_64-mingw32/nios2-elf/lib\libc.a(lib_a-fflush.o)
 .debug_abbrev  0x00000000000014d0      0x36b d:/altera/15.0.0.130/nios2eds/bin/gnu/h-x86_64-mingw32/bin/../lib/gcc/nios2-elf/4.9.1/../../../../../H-x86_64-mingw32/nios2-elf/lib\libc.a(lib_a-findfp.o)
 .debug_abbrev  0x000000000000183b      0x27b d:/altera/15.0.0.130/nios2eds/bin/gnu/h-x86_64-mingw32/bin/../lib/gcc/nios2-elf/4.9.1/../../../../../H-x86_64-mingw32/nios2-elf/lib\libc.a(lib_a-freer.o)
 .debug_abbrev  0x0000000000001ab6      0x252 d:/altera/15.0.0.130/nios2eds/bin/gnu/h-x86_64-mingw32/bin/../lib/gcc/nios2-elf/4.9.1/../../../../../H-x86_64-mingw32/nios2-elf/lib\libc.a(lib_a-fvwrite.o)
 .debug_abbrev  0x0000000000001d08      0x242 d:/altera/15.0.0.130/nios2eds/bin/gnu/h-x86_64-mingw32/bin/../lib/gcc/nios2-elf/4.9.1/../../../../../H-x86_64-mingw32/nios2-elf/lib\libc.a(lib_a-fwalk.o)
 .debug_abbrev  0x0000000000001f4a      0x180 d:/altera/15.0.0.130/nios2eds/bin/gnu/h-x86_64-mingw32/bin/../lib/gcc/nios2-elf/4.9.1/../../../../../H-x86_64-mingw32/nios2-elf/lib\libc.a(lib_a-impure.o)
 .debug_abbrev  0x00000000000020ca      0x2b3 d:/altera/15.0.0.130/nios2eds/bin/gnu/h-x86_64-mingw32/bin/../lib/gcc/nios2-elf/4.9.1/../../../../../H-x86_64-mingw32/nios2-elf/lib\libc.a(lib_a-locale.o)
 .debug_abbrev  0x000000000000237d      0x206 d:/altera/15.0.0.130/nios2eds/bin/gnu/h-x86_64-mingw32/bin/../lib/gcc/nios2-elf/4.9.1/../../../../../H-x86_64-mingw32/nios2-elf/lib\libc.a(lib_a-makebuf.o)
 .debug_abbrev  0x0000000000002583      0x2ad d:/altera/15.0.0.130/nios2eds/bin/gnu/h-x86_64-mingw32/bin/../lib/gcc/nios2-elf/4.9.1/../../../../../H-x86_64-mingw32/nios2-elf/lib\libc.a(lib_a-mallocr.o)
 .debug_abbrev  0x0000000000002830       0xab d:/altera/15.0.0.130/nios2eds/bin/gnu/h-x86_64-mingw32/bin/../lib/gcc/nios2-elf/4.9.1/../../../../../H-x86_64-mingw32/nios2-elf/lib\libc.a(lib_a-memchr.o)
 .debug_abbrev  0x00000000000028db       0x9c d:/altera/15.0.0.130/nios2eds/bin/gnu/h-x86_64-mingw32/bin/../lib/gcc/nios2-elf/4.9.1/../../../../../H-x86_64-mingw32/nios2-elf/lib\libc.a(lib_a-memcpy.o)
 .debug_abbrev  0x0000000000002977       0x9c d:/altera/15.0.0.130/nios2eds/bin/gnu/h-x86_64-mingw32/bin/../lib/gcc/nios2-elf/4.9.1/../../../../../H-x86_64-mingw32/nios2-elf/lib\libc.a(lib_a-memmove.o)
 .debug_abbrev  0x0000000000002a13       0xae d:/altera/15.0.0.130/nios2eds/bin/gnu/h-x86_64-mingw32/bin/../lib/gcc/nios2-elf/4.9.1/../../../../../H-x86_64-mingw32/nios2-elf/lib\libc.a(lib_a-memset.o)
 .debug_abbrev  0x0000000000002ac1      0x3c2 d:/altera/15.0.0.130/nios2eds/bin/gnu/h-x86_64-mingw32/bin/../lib/gcc/nios2-elf/4.9.1/../../../../../H-x86_64-mingw32/nios2-elf/lib\libc.a(lib_a-mprec.o)
 .debug_abbrev  0x0000000000002e83      0x269 d:/altera/15.0.0.130/nios2eds/bin/gnu/h-x86_64-mingw32/bin/../lib/gcc/nios2-elf/4.9.1/../../../../../H-x86_64-mingw32/nios2-elf/lib\libc.a(lib_a-reallocr.o)
 .debug_abbrev  0x00000000000030ec       0x7e d:/altera/15.0.0.130/nios2eds/bin/gnu/h-x86_64-mingw32/bin/../lib/gcc/nios2-elf/4.9.1/../../../../../H-x86_64-mingw32/nios2-elf/lib\libc.a(lib_a-s_fpclassify.o)
 .debug_abbrev  0x000000000000316a      0x1fd d:/altera/15.0.0.130/nios2eds/bin/gnu/h-x86_64-mingw32/bin/../lib/gcc/nios2-elf/4.9.1/../../../../../H-x86_64-mingw32/nios2-elf/lib\libc.a(lib_a-sbrkr.o)
 .debug_abbrev  0x0000000000003367      0x246 d:/altera/15.0.0.130/nios2eds/bin/gnu/h-x86_64-mingw32/bin/../lib/gcc/nios2-elf/4.9.1/../../../../../H-x86_64-mingw32/nios2-elf/lib\libc.a(lib_a-stdio.o)
 .debug_abbrev  0x00000000000035ad       0x74 d:/altera/15.0.0.130/nios2eds/bin/gnu/h-x86_64-mingw32/bin/../lib/gcc/nios2-elf/4.9.1/../../../../../H-x86_64-mingw32/nios2-elf/lib\libc.a(lib_a-strcmp.o)
 .debug_abbrev  0x0000000000003621      0x3f8 d:/altera/15.0.0.130/nios2eds/bin/gnu/h-x86_64-mingw32/bin/../lib/gcc/nios2-elf/4.9.1/../../../../../H-x86_64-mingw32/nios2-elf/lib\libc.a(lib_a-vfiprintf.o)
 .debug_abbrev  0x0000000000003a19      0x1de d:/altera/15.0.0.130/nios2eds/bin/gnu/h-x86_64-mingw32/bin/../lib/gcc/nios2-elf/4.9.1/../../../../../H-x86_64-mingw32/nios2-elf/lib\libc.a(lib_a-writer.o)
 .debug_abbrev  0x0000000000003bf7      0x1d9 d:/altera/15.0.0.130/nios2eds/bin/gnu/h-x86_64-mingw32/bin/../lib/gcc/nios2-elf/4.9.1/../../../../../H-x86_64-mingw32/nios2-elf/lib\libc.a(closer.o)
 .debug_abbrev  0x0000000000003dd0      0x213 d:/altera/15.0.0.130/nios2eds/bin/gnu/h-x86_64-mingw32/bin/../lib/gcc/nios2-elf/4.9.1/../../../../../H-x86_64-mingw32/nios2-elf/lib\libc.a(lib_a-callocr.o)
 .debug_abbrev  0x0000000000003fe3      0x2a9 d:/altera/15.0.0.130/nios2eds/bin/gnu/h-x86_64-mingw32/bin/../lib/gcc/nios2-elf/4.9.1/../../../../../H-x86_64-mingw32/nios2-elf/lib\libc.a(lib_a-fclose.o)
 .debug_abbrev  0x000000000000428c      0x289 d:/altera/15.0.0.130/nios2eds/bin/gnu/h-x86_64-mingw32/bin/../lib/gcc/nios2-elf/4.9.1/../../../../../H-x86_64-mingw32/nios2-elf/lib\libc.a(lib_a-fputwc.o)
 .debug_abbrev  0x0000000000004515      0x1e8 d:/altera/15.0.0.130/nios2eds/bin/gnu/h-x86_64-mingw32/bin/../lib/gcc/nios2-elf/4.9.1/../../../../../H-x86_64-mingw32/nios2-elf/lib\libc.a(lib_a-fstatr.o)
 .debug_abbrev  0x00000000000046fd       0x37 d:/altera/15.0.0.130/nios2eds/bin/gnu/h-x86_64-mingw32/bin/../lib/gcc/nios2-elf/4.9.1/../../../../../H-x86_64-mingw32/nios2-elf/lib\libc.a(lib_a-int_errno.o)
 .debug_abbrev  0x0000000000004734      0x1d9 d:/altera/15.0.0.130/nios2eds/bin/gnu/h-x86_64-mingw32/bin/../lib/gcc/nios2-elf/4.9.1/../../../../../H-x86_64-mingw32/nios2-elf/lib\libc.a(lib_a-isattyr.o)
 .debug_abbrev  0x000000000000490d      0x1e8 d:/altera/15.0.0.130/nios2eds/bin/gnu/h-x86_64-mingw32/bin/../lib/gcc/nios2-elf/4.9.1/../../../../../H-x86_64-mingw32/nios2-elf/lib\libc.a(lib_a-lseekr.o)
 .debug_abbrev  0x0000000000004af5      0x1d9 d:/altera/15.0.0.130/nios2eds/bin/gnu/h-x86_64-mingw32/bin/../lib/gcc/nios2-elf/4.9.1/../../../../../H-x86_64-mingw32/nios2-elf/lib\libc.a(lib_a-readr.o)
 .debug_abbrev  0x0000000000004cce      0x238 d:/altera/15.0.0.130/nios2eds/bin/gnu/h-x86_64-mingw32/bin/../lib/gcc/nios2-elf/4.9.1/../../../../../H-x86_64-mingw32/nios2-elf/lib\libc.a(lib_a-wbuf.o)
 .debug_abbrev  0x0000000000004f06      0x21c d:/altera/15.0.0.130/nios2eds/bin/gnu/h-x86_64-mingw32/bin/../lib/gcc/nios2-elf/4.9.1/../../../../../H-x86_64-mingw32/nios2-elf/lib\libc.a(lib_a-wcrtomb.o)
 .debug_abbrev  0x0000000000005122      0x212 d:/altera/15.0.0.130/nios2eds/bin/gnu/h-x86_64-mingw32/bin/../lib/gcc/nios2-elf/4.9.1/../../../../../H-x86_64-mingw32/nios2-elf/lib\libc.a(lib_a-wctomb_r.o)
 .debug_abbrev  0x0000000000005334      0x170 d:/altera/15.0.0.130/nios2eds/bin/gnu/h-x86_64-mingw32/bin/../lib/gcc/nios2-elf/4.9.1\libgcc.a(_udivdi3.o)
 .debug_abbrev  0x00000000000054a4      0x193 d:/altera/15.0.0.130/nios2eds/bin/gnu/h-x86_64-mingw32/bin/../lib/gcc/nios2-elf/4.9.1\libgcc.a(_umoddi3.o)
 .debug_abbrev  0x0000000000005637       0xd9 d:/altera/15.0.0.130/nios2eds/bin/gnu/h-x86_64-mingw32/bin/../lib/gcc/nios2-elf/4.9.1\libgcc.a(lib2-divmod.o)
 .debug_abbrev  0x0000000000005710      0x13a d:/altera/15.0.0.130/nios2eds/bin/gnu/h-x86_64-mingw32/bin/../lib/gcc/nios2-elf/4.9.1\libgcc.a(adddf3.o)
 .debug_abbrev  0x000000000000584a      0x120 d:/altera/15.0.0.130/nios2eds/bin/gnu/h-x86_64-mingw32/bin/../lib/gcc/nios2-elf/4.9.1\libgcc.a(divdf3.o)
 .debug_abbrev  0x000000000000596a      0x128 d:/altera/15.0.0.130/nios2eds/bin/gnu/h-x86_64-mingw32/bin/../lib/gcc/nios2-elf/4.9.1\libgcc.a(eqdf2.o)
 .debug_abbrev  0x0000000000005a92      0x137 d:/altera/15.0.0.130/nios2eds/bin/gnu/h-x86_64-mingw32/bin/../lib/gcc/nios2-elf/4.9.1\libgcc.a(gedf2.o)
 .debug_abbrev  0x0000000000005bc9      0x137 d:/altera/15.0.0.130/nios2eds/bin/gnu/h-x86_64-mingw32/bin/../lib/gcc/nios2-elf/4.9.1\libgcc.a(ledf2.o)
 .debug_abbrev  0x0000000000005d00      0x132 d:/altera/15.0.0.130/nios2eds/bin/gnu/h-x86_64-mingw32/bin/../lib/gcc/nios2-elf/4.9.1\libgcc.a(muldf3.o)
 .debug_abbrev  0x0000000000005e32      0x133 d:/altera/15.0.0.130/nios2eds/bin/gnu/h-x86_64-mingw32/bin/../lib/gcc/nios2-elf/4.9.1\libgcc.a(subdf3.o)
 .debug_abbrev  0x0000000000005f65      0x119 d:/altera/15.0.0.130/nios2eds/bin/gnu/h-x86_64-mingw32/bin/../lib/gcc/nios2-elf/4.9.1\libgcc.a(fixdfsi.o)
 .debug_abbrev  0x000000000000607e      0x11e d:/altera/15.0.0.130/nios2eds/bin/gnu/h-x86_64-mingw32/bin/../lib/gcc/nios2-elf/4.9.1\libgcc.a(floatsidf.o)
 .debug_abbrev  0x000000000000619c      0x117 d:/altera/15.0.0.130/nios2eds/bin/gnu/h-x86_64-mingw32/bin/../lib/gcc/nios2-elf/4.9.1\libgcc.a(floatunsidf.o)
 .debug_abbrev  0x00000000000062b3      0x11f ../DECA_TEMP_bsp/\libhal_bsp.a(alt_close.o)
 .debug_abbrev  0x00000000000063d2       0xd9 ../DECA_TEMP_bsp/\libhal_bsp.a(alt_dev.o)
 .debug_abbrev  0x00000000000064ab       0x5a ../DECA_TEMP_bsp/\libhal_bsp.a(alt_errno.o)
 .debug_abbrev  0x0000000000006505      0x11f ../DECA_TEMP_bsp/\libhal_bsp.a(alt_fstat.o)
 .debug_abbrev  0x0000000000006624      0x11f ../DECA_TEMP_bsp/\libhal_bsp.a(alt_isatty.o)
 .debug_abbrev  0x0000000000006743       0x9f ../DECA_TEMP_bsp/\libhal_bsp.a(alt_load.o)
 .debug_abbrev  0x00000000000067e2      0x11f ../DECA_TEMP_bsp/\libhal_bsp.a(alt_lseek.o)
 .debug_abbrev  0x0000000000006901       0xba ../DECA_TEMP_bsp/\libhal_bsp.a(alt_main.o)
 .debug_abbrev  0x00000000000069bb      0x1a5 ../DECA_TEMP_bsp/\libhal_bsp.a(alt_malloc_lock.o)
 .debug_abbrev  0x0000000000006b60      0x12e ../DECA_TEMP_bsp/\libhal_bsp.a(alt_read.o)
 .debug_abbrev  0x0000000000006c8e       0xde ../DECA_TEMP_bsp/\libhal_bsp.a(alt_release_fd.o)
 .debug_abbrev  0x0000000000006d6c      0x112 ../DECA_TEMP_bsp/\libhal_bsp.a(alt_sbrk.o)
 .debug_abbrev  0x0000000000006e7e       0x60 ../DECA_TEMP_bsp/\libhal_bsp.a(alt_usleep.o)
 .debug_abbrev  0x0000000000006ede      0x133 ../DECA_TEMP_bsp/\libhal_bsp.a(alt_write.o)
 .debug_abbrev  0x0000000000007011      0x187 ../DECA_TEMP_bsp/\libhal_bsp.a(alt_sys_init.o)
 .debug_abbrev  0x0000000000007198      0x127 ../DECA_TEMP_bsp/\libhal_bsp.a(altera_avalon_jtag_uart_fd.o)
 .debug_abbrev  0x00000000000072bf      0x197 ../DECA_TEMP_bsp/\libhal_bsp.a(altera_avalon_jtag_uart_init.o)
 .debug_abbrev  0x0000000000007456      0x111 ../DECA_TEMP_bsp/\libhal_bsp.a(altera_avalon_jtag_uart_ioctl.o)
 .debug_abbrev  0x0000000000007567      0x1ac ../DECA_TEMP_bsp/\libhal_bsp.a(altera_avalon_jtag_uart_read.o)
 .debug_abbrev  0x0000000000007713      0x1a8 ../DECA_TEMP_bsp/\libhal_bsp.a(altera_avalon_jtag_uart_write.o)
 .debug_abbrev  0x00000000000078bb      0x155 ../DECA_TEMP_bsp/\libhal_bsp.a(altera_avalon_timer_sc.o)
 .debug_abbrev  0x0000000000007a10      0x162 ../DECA_TEMP_bsp/\libhal_bsp.a(alt_alarm_start.o)
 .debug_abbrev  0x0000000000007b72       0x7e ../DECA_TEMP_bsp/\libhal_bsp.a(alt_busy_sleep.o)
 .debug_abbrev  0x0000000000007bf0       0x5a ../DECA_TEMP_bsp/\libhal_bsp.a(alt_dcache_flush_all.o)
 .debug_abbrev  0x0000000000007c4a      0x114 ../DECA_TEMP_bsp/\libhal_bsp.a(alt_dev_llist_insert.o)
 .debug_abbrev  0x0000000000007d5e       0x79 ../DECA_TEMP_bsp/\libhal_bsp.a(alt_do_ctors.o)
 .debug_abbrev  0x0000000000007dd7       0x79 ../DECA_TEMP_bsp/\libhal_bsp.a(alt_do_dtors.o)
 .debug_abbrev  0x0000000000007e50       0x42 ../DECA_TEMP_bsp/\libhal_bsp.a(alt_icache_flush_all.o)
 .debug_abbrev  0x0000000000007e92      0x163 ../DECA_TEMP_bsp/\libhal_bsp.a(alt_iic.o)
 .debug_abbrev  0x0000000000007ff5      0x169 ../DECA_TEMP_bsp/\libhal_bsp.a(alt_iic_isr_register.o)
 .debug_abbrev  0x000000000000815e      0x114 ../DECA_TEMP_bsp/\libhal_bsp.a(alt_io_redirect.o)
 .debug_abbrev  0x0000000000008272       0x12 ../DECA_TEMP_bsp/\libhal_bsp.a(alt_irq_entry.o)
 .debug_abbrev  0x0000000000008284      0x122 ../DECA_TEMP_bsp/\libhal_bsp.a(alt_irq_handler.o)
 .debug_abbrev  0x00000000000083a6       0x40 ../DECA_TEMP_bsp/\libhal_bsp.a(alt_irq_vars.o)
 .debug_abbrev  0x00000000000083e6      0x148 ../DECA_TEMP_bsp/\libhal_bsp.a(alt_open.o)
 .debug_abbrev  0x000000000000852e      0x15a ../DECA_TEMP_bsp/\libhal_bsp.a(alt_tick.o)
 .debug_abbrev  0x0000000000008688       0x42 ../DECA_TEMP_bsp/\libhal_bsp.a(altera_nios2_gen2_irq.o)
 .debug_abbrev  0x00000000000086ca       0x12 ../DECA_TEMP_bsp/\libhal_bsp.a(alt_exception_entry.o)
 .debug_abbrev  0x00000000000086dc       0xf0 ../DECA_TEMP_bsp/\libhal_bsp.a(alt_find_dev.o)
 .debug_abbrev  0x00000000000087cc       0xf0 ../DECA_TEMP_bsp/\libhal_bsp.a(alt_find_file.o)
 .debug_abbrev  0x00000000000088bc      0x10d ../DECA_TEMP_bsp/\libhal_bsp.a(alt_get_fd.o)
 .debug_abbrev  0x00000000000089c9       0x8c ../DECA_TEMP_bsp/\libhal_bsp.a(alt_icache_flush.o)
 .debug_abbrev  0x0000000000008a55       0xd1 ../DECA_TEMP_bsp/\libhal_bsp.a(alt_instruction_exception_entry.o)
 .debug_abbrev  0x0000000000008b26       0xb8 d:/altera/15.0.0.130/nios2eds/bin/gnu/h-x86_64-mingw32/bin/../lib/gcc/nios2-elf/4.9.1/../../../../../H-x86_64-mingw32/nios2-elf/lib\libc.a(lib_a-atexit.o)
 .debug_abbrev  0x0000000000008bde      0x1e6 d:/altera/15.0.0.130/nios2eds/bin/gnu/h-x86_64-mingw32/bin/../lib/gcc/nios2-elf/4.9.1/../../../../../H-x86_64-mingw32/nios2-elf/lib\libc.a(lib_a-exit.o)
 .debug_abbrev  0x0000000000008dc4       0x7f d:/altera/15.0.0.130/nios2eds/bin/gnu/h-x86_64-mingw32/bin/../lib/gcc/nios2-elf/4.9.1/../../../../../H-x86_64-mingw32/nios2-elf/lib\libc.a(lib_a-memcmp.o)
 .debug_abbrev  0x0000000000008e43      0x21e d:/altera/15.0.0.130/nios2eds/bin/gnu/h-x86_64-mingw32/bin/../lib/gcc/nios2-elf/4.9.1/../../../../../H-x86_64-mingw32/nios2-elf/lib\libc.a(lib_a-__atexit.o)
 .debug_abbrev  0x0000000000009061      0x210 d:/altera/15.0.0.130/nios2eds/bin/gnu/h-x86_64-mingw32/bin/../lib/gcc/nios2-elf/4.9.1/../../../../../H-x86_64-mingw32/nios2-elf/lib\libc.a(lib_a-__call_atexit.o)
 .debug_abbrev  0x0000000000009271       0xa6 ../DECA_TEMP_bsp/\libhal_bsp.a(alt_exit.o)

.debug_line     0x0000000000000000     0xb19d
 *(.debug_line)
 .debug_line    0x0000000000000000       0x72 ../DECA_TEMP_bsp//obj/HAL/src/crt0.o
 .debug_line    0x0000000000000072       0x89 obj/default/main.o
 .debug_line    0x00000000000000fb      0x158 d:/altera/15.0.0.130/nios2eds/bin/gnu/h-x86_64-mingw32/bin/../lib/gcc/nios2-elf/4.9.1\libgcc.a(mulsf3.o)
 .debug_line    0x0000000000000253       0xb5 d:/altera/15.0.0.130/nios2eds/bin/gnu/h-x86_64-mingw32/bin/../lib/gcc/nios2-elf/4.9.1\libgcc.a(floatunsisf.o)
 .debug_line    0x0000000000000308       0xc6 d:/altera/15.0.0.130/nios2eds/bin/gnu/h-x86_64-mingw32/bin/../lib/gcc/nios2-elf/4.9.1\libgcc.a(extendsfdf2.o)
 .debug_line    0x00000000000003ce       0xb4 d:/altera/15.0.0.130/nios2eds/bin/gnu/h-x86_64-mingw32/bin/../lib/gcc/nios2-elf/4.9.1\libgcc.a(_clzsi2.o)
 .debug_line    0x0000000000000482       0x53 d:/altera/15.0.0.130/nios2eds/bin/gnu/h-x86_64-mingw32/bin/../lib/gcc/nios2-elf/4.9.1\libgcc.a(_clz.o)
 .debug_line    0x00000000000004d5      0x1fd d:/altera/15.0.0.130/nios2eds/bin/gnu/h-x86_64-mingw32/bin/../lib/gcc/nios2-elf/4.9.1/../../../../../H-x86_64-mingw32/nios2-elf/lib\libc.a(lib_a-printf.o)
 .debug_line    0x00000000000006d2      0x223 d:/altera/15.0.0.130/nios2eds/bin/gnu/h-x86_64-mingw32/bin/../lib/gcc/nios2-elf/4.9.1/../../../../../H-x86_64-mingw32/nios2-elf/lib\libc.a(lib_a-puts.o)
 .debug_line    0x00000000000008f5      0x16e d:/altera/15.0.0.130/nios2eds/bin/gnu/h-x86_64-mingw32/bin/../lib/gcc/nios2-elf/4.9.1/../../../../../H-x86_64-mingw32/nios2-elf/lib\libc.a(lib_a-strlen.o)
 .debug_line    0x0000000000000a63      0xaca d:/altera/15.0.0.130/nios2eds/bin/gnu/h-x86_64-mingw32/bin/../lib/gcc/nios2-elf/4.9.1/../../../../../H-x86_64-mingw32/nios2-elf/lib\libc.a(lib_a-vfprintf.o)
 .debug_line    0x000000000000152d      0x258 d:/altera/15.0.0.130/nios2eds/bin/gnu/h-x86_64-mingw32/bin/../lib/gcc/nios2-elf/4.9.1/../../../../../H-x86_64-mingw32/nios2-elf/lib\libc.a(lib_a-wsetup.o)
 .debug_line    0x0000000000001785      0x7eb d:/altera/15.0.0.130/nios2eds/bin/gnu/h-x86_64-mingw32/bin/../lib/gcc/nios2-elf/4.9.1/../../../../../H-x86_64-mingw32/nios2-elf/lib\libc.a(lib_a-dtoa.o)
 .debug_line    0x0000000000001f70      0x2bd d:/altera/15.0.0.130/nios2eds/bin/gnu/h-x86_64-mingw32/bin/../lib/gcc/nios2-elf/4.9.1/../../../../../H-x86_64-mingw32/nios2-elf/lib\libc.a(lib_a-fflush.o)
 .debug_line    0x000000000000222d      0x304 d:/altera/15.0.0.130/nios2eds/bin/gnu/h-x86_64-mingw32/bin/../lib/gcc/nios2-elf/4.9.1/../../../../../H-x86_64-mingw32/nios2-elf/lib\libc.a(lib_a-findfp.o)
 .debug_line    0x0000000000002531      0x2e4 d:/altera/15.0.0.130/nios2eds/bin/gnu/h-x86_64-mingw32/bin/../lib/gcc/nios2-elf/4.9.1/../../../../../H-x86_64-mingw32/nios2-elf/lib\libc.a(lib_a-freer.o)
 .debug_line    0x0000000000002815      0x357 d:/altera/15.0.0.130/nios2eds/bin/gnu/h-x86_64-mingw32/bin/../lib/gcc/nios2-elf/4.9.1/../../../../../H-x86_64-mingw32/nios2-elf/lib\libc.a(lib_a-fvwrite.o)
 .debug_line    0x0000000000002b6c      0x228 d:/altera/15.0.0.130/nios2eds/bin/gnu/h-x86_64-mingw32/bin/../lib/gcc/nios2-elf/4.9.1/../../../../../H-x86_64-mingw32/nios2-elf/lib\libc.a(lib_a-fwalk.o)
 .debug_line    0x0000000000002d94      0x15f d:/altera/15.0.0.130/nios2eds/bin/gnu/h-x86_64-mingw32/bin/../lib/gcc/nios2-elf/4.9.1/../../../../../H-x86_64-mingw32/nios2-elf/lib\libc.a(lib_a-impure.o)
 .debug_line    0x0000000000002ef3      0x22d d:/altera/15.0.0.130/nios2eds/bin/gnu/h-x86_64-mingw32/bin/../lib/gcc/nios2-elf/4.9.1/../../../../../H-x86_64-mingw32/nios2-elf/lib\libc.a(lib_a-locale.o)
 .debug_line    0x0000000000003120      0x274 d:/altera/15.0.0.130/nios2eds/bin/gnu/h-x86_64-mingw32/bin/../lib/gcc/nios2-elf/4.9.1/../../../../../H-x86_64-mingw32/nios2-elf/lib\libc.a(lib_a-makebuf.o)
 .debug_line    0x0000000000003394      0x3fd d:/altera/15.0.0.130/nios2eds/bin/gnu/h-x86_64-mingw32/bin/../lib/gcc/nios2-elf/4.9.1/../../../../../H-x86_64-mingw32/nios2-elf/lib\libc.a(lib_a-mallocr.o)
 .debug_line    0x0000000000003791      0x18d d:/altera/15.0.0.130/nios2eds/bin/gnu/h-x86_64-mingw32/bin/../lib/gcc/nios2-elf/4.9.1/../../../../../H-x86_64-mingw32/nios2-elf/lib\libc.a(lib_a-memchr.o)
 .debug_line    0x000000000000391e      0x184 d:/altera/15.0.0.130/nios2eds/bin/gnu/h-x86_64-mingw32/bin/../lib/gcc/nios2-elf/4.9.1/../../../../../H-x86_64-mingw32/nios2-elf/lib\libc.a(lib_a-memcpy.o)
 .debug_line    0x0000000000003aa2      0x18b d:/altera/15.0.0.130/nios2eds/bin/gnu/h-x86_64-mingw32/bin/../lib/gcc/nios2-elf/4.9.1/../../../../../H-x86_64-mingw32/nios2-elf/lib\libc.a(lib_a-memmove.o)
 .debug_line    0x0000000000003c2d      0x18e d:/altera/15.0.0.130/nios2eds/bin/gnu/h-x86_64-mingw32/bin/../lib/gcc/nios2-elf/4.9.1/../../../../../H-x86_64-mingw32/nios2-elf/lib\libc.a(lib_a-memset.o)
 .debug_line    0x0000000000003dbb      0x698 d:/altera/15.0.0.130/nios2eds/bin/gnu/h-x86_64-mingw32/bin/../lib/gcc/nios2-elf/4.9.1/../../../../../H-x86_64-mingw32/nios2-elf/lib\libc.a(lib_a-mprec.o)
 .debug_line    0x0000000000004453      0x2fc d:/altera/15.0.0.130/nios2eds/bin/gnu/h-x86_64-mingw32/bin/../lib/gcc/nios2-elf/4.9.1/../../../../../H-x86_64-mingw32/nios2-elf/lib\libc.a(lib_a-reallocr.o)
 .debug_line    0x000000000000474f      0x17b d:/altera/15.0.0.130/nios2eds/bin/gnu/h-x86_64-mingw32/bin/../lib/gcc/nios2-elf/4.9.1/../../../../../H-x86_64-mingw32/nios2-elf/lib\libc.a(lib_a-s_fpclassify.o)
 .debug_line    0x00000000000048ca      0x1e9 d:/altera/15.0.0.130/nios2eds/bin/gnu/h-x86_64-mingw32/bin/../lib/gcc/nios2-elf/4.9.1/../../../../../H-x86_64-mingw32/nios2-elf/lib\libc.a(lib_a-sbrkr.o)
 .debug_line    0x0000000000004ab3      0x227 d:/altera/15.0.0.130/nios2eds/bin/gnu/h-x86_64-mingw32/bin/../lib/gcc/nios2-elf/4.9.1/../../../../../H-x86_64-mingw32/nios2-elf/lib\libc.a(lib_a-stdio.o)
 .debug_line    0x0000000000004cda       0xf6 d:/altera/15.0.0.130/nios2eds/bin/gnu/h-x86_64-mingw32/bin/../lib/gcc/nios2-elf/4.9.1/../../../../../H-x86_64-mingw32/nios2-elf/lib\libc.a(lib_a-strcmp.o)
 .debug_line    0x0000000000004dd0      0x7be d:/altera/15.0.0.130/nios2eds/bin/gnu/h-x86_64-mingw32/bin/../lib/gcc/nios2-elf/4.9.1/../../../../../H-x86_64-mingw32/nios2-elf/lib\libc.a(lib_a-vfiprintf.o)
 .debug_line    0x000000000000558e      0x1f6 d:/altera/15.0.0.130/nios2eds/bin/gnu/h-x86_64-mingw32/bin/../lib/gcc/nios2-elf/4.9.1/../../../../../H-x86_64-mingw32/nios2-elf/lib\libc.a(lib_a-writer.o)
 .debug_line    0x0000000000005784      0x1f6 d:/altera/15.0.0.130/nios2eds/bin/gnu/h-x86_64-mingw32/bin/../lib/gcc/nios2-elf/4.9.1/../../../../../H-x86_64-mingw32/nios2-elf/lib\libc.a(closer.o)
 .debug_line    0x000000000000597a      0x1b6 d:/altera/15.0.0.130/nios2eds/bin/gnu/h-x86_64-mingw32/bin/../lib/gcc/nios2-elf/4.9.1/../../../../../H-x86_64-mingw32/nios2-elf/lib\libc.a(lib_a-callocr.o)
 .debug_line    0x0000000000005b30      0x229 d:/altera/15.0.0.130/nios2eds/bin/gnu/h-x86_64-mingw32/bin/../lib/gcc/nios2-elf/4.9.1/../../../../../H-x86_64-mingw32/nios2-elf/lib\libc.a(lib_a-fclose.o)
 .debug_line    0x0000000000005d59      0x251 d:/altera/15.0.0.130/nios2eds/bin/gnu/h-x86_64-mingw32/bin/../lib/gcc/nios2-elf/4.9.1/../../../../../H-x86_64-mingw32/nios2-elf/lib\libc.a(lib_a-fputwc.o)
 .debug_line    0x0000000000005faa      0x1ff d:/altera/15.0.0.130/nios2eds/bin/gnu/h-x86_64-mingw32/bin/../lib/gcc/nios2-elf/4.9.1/../../../../../H-x86_64-mingw32/nios2-elf/lib\libc.a(lib_a-fstatr.o)
 .debug_line    0x00000000000061a9       0x5d d:/altera/15.0.0.130/nios2eds/bin/gnu/h-x86_64-mingw32/bin/../lib/gcc/nios2-elf/4.9.1/../../../../../H-x86_64-mingw32/nios2-elf/lib\libc.a(lib_a-int_errno.o)
 .debug_line    0x0000000000006206      0x1f7 d:/altera/15.0.0.130/nios2eds/bin/gnu/h-x86_64-mingw32/bin/../lib/gcc/nios2-elf/4.9.1/../../../../../H-x86_64-mingw32/nios2-elf/lib\libc.a(lib_a-isattyr.o)
 .debug_line    0x00000000000063fd      0x201 d:/altera/15.0.0.130/nios2eds/bin/gnu/h-x86_64-mingw32/bin/../lib/gcc/nios2-elf/4.9.1/../../../../../H-x86_64-mingw32/nios2-elf/lib\libc.a(lib_a-lseekr.o)
 .debug_line    0x00000000000065fe      0x1f5 d:/altera/15.0.0.130/nios2eds/bin/gnu/h-x86_64-mingw32/bin/../lib/gcc/nios2-elf/4.9.1/../../../../../H-x86_64-mingw32/nios2-elf/lib\libc.a(lib_a-readr.o)
 .debug_line    0x00000000000067f3      0x270 d:/altera/15.0.0.130/nios2eds/bin/gnu/h-x86_64-mingw32/bin/../lib/gcc/nios2-elf/4.9.1/../../../../../H-x86_64-mingw32/nios2-elf/lib\libc.a(lib_a-wbuf.o)
 .debug_line    0x0000000000006a63      0x219 d:/altera/15.0.0.130/nios2eds/bin/gnu/h-x86_64-mingw32/bin/../lib/gcc/nios2-elf/4.9.1/../../../../../H-x86_64-mingw32/nios2-elf/lib\libc.a(lib_a-wcrtomb.o)
 .debug_line    0x0000000000006c7c      0x20e d:/altera/15.0.0.130/nios2eds/bin/gnu/h-x86_64-mingw32/bin/../lib/gcc/nios2-elf/4.9.1/../../../../../H-x86_64-mingw32/nios2-elf/lib\libc.a(lib_a-wctomb_r.o)
 .debug_line    0x0000000000006e8a      0x134 d:/altera/15.0.0.130/nios2eds/bin/gnu/h-x86_64-mingw32/bin/../lib/gcc/nios2-elf/4.9.1\libgcc.a(_udivdi3.o)
 .debug_line    0x0000000000006fbe      0x145 d:/altera/15.0.0.130/nios2eds/bin/gnu/h-x86_64-mingw32/bin/../lib/gcc/nios2-elf/4.9.1\libgcc.a(_umoddi3.o)
 .debug_line    0x0000000000007103       0xc4 d:/altera/15.0.0.130/nios2eds/bin/gnu/h-x86_64-mingw32/bin/../lib/gcc/nios2-elf/4.9.1\libgcc.a(lib2-divmod.o)
 .debug_line    0x00000000000071c7      0x383 d:/altera/15.0.0.130/nios2eds/bin/gnu/h-x86_64-mingw32/bin/../lib/gcc/nios2-elf/4.9.1\libgcc.a(adddf3.o)
 .debug_line    0x000000000000754a      0x2a3 d:/altera/15.0.0.130/nios2eds/bin/gnu/h-x86_64-mingw32/bin/../lib/gcc/nios2-elf/4.9.1\libgcc.a(divdf3.o)
 .debug_line    0x00000000000077ed       0xab d:/altera/15.0.0.130/nios2eds/bin/gnu/h-x86_64-mingw32/bin/../lib/gcc/nios2-elf/4.9.1\libgcc.a(eqdf2.o)
 .debug_line    0x0000000000007898       0xcb d:/altera/15.0.0.130/nios2eds/bin/gnu/h-x86_64-mingw32/bin/../lib/gcc/nios2-elf/4.9.1\libgcc.a(gedf2.o)
 .debug_line    0x0000000000007963       0xca d:/altera/15.0.0.130/nios2eds/bin/gnu/h-x86_64-mingw32/bin/../lib/gcc/nios2-elf/4.9.1\libgcc.a(ledf2.o)
 .debug_line    0x0000000000007a2d      0x1db d:/altera/15.0.0.130/nios2eds/bin/gnu/h-x86_64-mingw32/bin/../lib/gcc/nios2-elf/4.9.1\libgcc.a(muldf3.o)
 .debug_line    0x0000000000007c08      0x39e d:/altera/15.0.0.130/nios2eds/bin/gnu/h-x86_64-mingw32/bin/../lib/gcc/nios2-elf/4.9.1\libgcc.a(subdf3.o)
 .debug_line    0x0000000000007fa6       0x99 d:/altera/15.0.0.130/nios2eds/bin/gnu/h-x86_64-mingw32/bin/../lib/gcc/nios2-elf/4.9.1\libgcc.a(fixdfsi.o)
 .debug_line    0x000000000000803f       0x9d d:/altera/15.0.0.130/nios2eds/bin/gnu/h-x86_64-mingw32/bin/../lib/gcc/nios2-elf/4.9.1\libgcc.a(floatsidf.o)
 .debug_line    0x00000000000080dc       0x93 d:/altera/15.0.0.130/nios2eds/bin/gnu/h-x86_64-mingw32/bin/../lib/gcc/nios2-elf/4.9.1\libgcc.a(floatunsidf.o)
 .debug_line    0x000000000000816f      0x164 ../DECA_TEMP_bsp/\libhal_bsp.a(alt_close.o)
 .debug_line    0x00000000000082d3       0xf6 ../DECA_TEMP_bsp/\libhal_bsp.a(alt_dev.o)
 .debug_line    0x00000000000083c9       0x51 ../DECA_TEMP_bsp/\libhal_bsp.a(alt_errno.o)
 .debug_line    0x000000000000841a      0x15d ../DECA_TEMP_bsp/\libhal_bsp.a(alt_fstat.o)
 .debug_line    0x0000000000008577      0x161 ../DECA_TEMP_bsp/\libhal_bsp.a(alt_isatty.o)
 .debug_line    0x00000000000086d8       0x8d ../DECA_TEMP_bsp/\libhal_bsp.a(alt_load.o)
 .debug_line    0x0000000000008765      0x162 ../DECA_TEMP_bsp/\libhal_bsp.a(alt_lseek.o)
 .debug_line    0x00000000000088c7       0xa4 ../DECA_TEMP_bsp/\libhal_bsp.a(alt_main.o)
 .debug_line    0x000000000000896b      0x11d ../DECA_TEMP_bsp/\libhal_bsp.a(alt_malloc_lock.o)
 .debug_line    0x0000000000008a88      0x1d9 ../DECA_TEMP_bsp/\libhal_bsp.a(alt_read.o)
 .debug_line    0x0000000000008c61       0xae ../DECA_TEMP_bsp/\libhal_bsp.a(alt_release_fd.o)
 .debug_line    0x0000000000008d0f       0xf1 ../DECA_TEMP_bsp/\libhal_bsp.a(alt_sbrk.o)
 .debug_line    0x0000000000008e00       0xab ../DECA_TEMP_bsp/\libhal_bsp.a(alt_usleep.o)
 .debug_line    0x0000000000008eab      0x1d8 ../DECA_TEMP_bsp/\libhal_bsp.a(alt_write.o)
 .debug_line    0x0000000000009083      0x152 ../DECA_TEMP_bsp/\libhal_bsp.a(alt_sys_init.o)
 .debug_line    0x00000000000091d5      0x12f ../DECA_TEMP_bsp/\libhal_bsp.a(altera_avalon_jtag_uart_fd.o)
 .debug_line    0x0000000000009304      0x180 ../DECA_TEMP_bsp/\libhal_bsp.a(altera_avalon_jtag_uart_init.o)
 .debug_line    0x0000000000009484      0x12e ../DECA_TEMP_bsp/\libhal_bsp.a(altera_avalon_jtag_uart_ioctl.o)
 .debug_line    0x00000000000095b2      0x16a ../DECA_TEMP_bsp/\libhal_bsp.a(altera_avalon_jtag_uart_read.o)
 .debug_line    0x000000000000971c      0x16a ../DECA_TEMP_bsp/\libhal_bsp.a(altera_avalon_jtag_uart_write.o)
 .debug_line    0x0000000000009886       0xfd ../DECA_TEMP_bsp/\libhal_bsp.a(altera_avalon_timer_sc.o)
 .debug_line    0x0000000000009983       0xfa ../DECA_TEMP_bsp/\libhal_bsp.a(alt_alarm_start.o)
 .debug_line    0x0000000000009a7d       0xa0 ../DECA_TEMP_bsp/\libhal_bsp.a(alt_busy_sleep.o)
 .debug_line    0x0000000000009b1d       0x61 ../DECA_TEMP_bsp/\libhal_bsp.a(alt_dcache_flush_all.o)
 .debug_line    0x0000000000009b7e       0xd0 ../DECA_TEMP_bsp/\libhal_bsp.a(alt_dev_llist_insert.o)
 .debug_line    0x0000000000009c4e       0x59 ../DECA_TEMP_bsp/\libhal_bsp.a(alt_do_ctors.o)
 .debug_line    0x0000000000009ca7       0x59 ../DECA_TEMP_bsp/\libhal_bsp.a(alt_do_dtors.o)
 .debug_line    0x0000000000009d00       0x50 ../DECA_TEMP_bsp/\libhal_bsp.a(alt_icache_flush_all.o)
 .debug_line    0x0000000000009d50       0xef ../DECA_TEMP_bsp/\libhal_bsp.a(alt_iic.o)
 .debug_line    0x0000000000009e3f       0xdb ../DECA_TEMP_bsp/\libhal_bsp.a(alt_iic_isr_register.o)
 .debug_line    0x0000000000009f1a      0x131 ../DECA_TEMP_bsp/\libhal_bsp.a(alt_io_redirect.o)
 .debug_line    0x000000000000a04b       0x6b ../DECA_TEMP_bsp/\libhal_bsp.a(alt_irq_entry.o)
 .debug_line    0x000000000000a0b6       0xaa ../DECA_TEMP_bsp/\libhal_bsp.a(alt_irq_handler.o)
 .debug_line    0x000000000000a160       0x50 ../DECA_TEMP_bsp/\libhal_bsp.a(alt_irq_vars.o)
 .debug_line    0x000000000000a1b0      0x12a ../DECA_TEMP_bsp/\libhal_bsp.a(alt_open.o)
 .debug_line    0x000000000000a2da       0xfe ../DECA_TEMP_bsp/\libhal_bsp.a(alt_tick.o)
 .debug_line    0x000000000000a3d8       0x51 ../DECA_TEMP_bsp/\libhal_bsp.a(altera_nios2_gen2_irq.o)
 .debug_line    0x000000000000a429       0xb3 ../DECA_TEMP_bsp/\libhal_bsp.a(alt_exception_entry.o)
 .debug_line    0x000000000000a4dc       0xb5 ../DECA_TEMP_bsp/\libhal_bsp.a(alt_find_dev.o)
 .debug_line    0x000000000000a591       0xd1 ../DECA_TEMP_bsp/\libhal_bsp.a(alt_find_file.o)
 .debug_line    0x000000000000a662       0xd5 ../DECA_TEMP_bsp/\libhal_bsp.a(alt_get_fd.o)
 .debug_line    0x000000000000a737       0x81 ../DECA_TEMP_bsp/\libhal_bsp.a(alt_icache_flush.o)
 .debug_line    0x000000000000a7b8       0xba ../DECA_TEMP_bsp/\libhal_bsp.a(alt_instruction_exception_entry.o)
 .debug_line    0x000000000000a872       0xe6 d:/altera/15.0.0.130/nios2eds/bin/gnu/h-x86_64-mingw32/bin/../lib/gcc/nios2-elf/4.9.1/../../../../../H-x86_64-mingw32/nios2-elf/lib\libc.a(lib_a-atexit.o)
 .debug_line    0x000000000000a958      0x1fa d:/altera/15.0.0.130/nios2eds/bin/gnu/h-x86_64-mingw32/bin/../lib/gcc/nios2-elf/4.9.1/../../../../../H-x86_64-mingw32/nios2-elf/lib\libc.a(lib_a-exit.o)
 .debug_line    0x000000000000ab52      0x175 d:/altera/15.0.0.130/nios2eds/bin/gnu/h-x86_64-mingw32/bin/../lib/gcc/nios2-elf/4.9.1/../../../../../H-x86_64-mingw32/nios2-elf/lib\libc.a(lib_a-memcmp.o)
 .debug_line    0x000000000000acc7      0x224 d:/altera/15.0.0.130/nios2eds/bin/gnu/h-x86_64-mingw32/bin/../lib/gcc/nios2-elf/4.9.1/../../../../../H-x86_64-mingw32/nios2-elf/lib\libc.a(lib_a-__atexit.o)
 .debug_line    0x000000000000aeeb      0x241 d:/altera/15.0.0.130/nios2eds/bin/gnu/h-x86_64-mingw32/bin/../lib/gcc/nios2-elf/4.9.1/../../../../../H-x86_64-mingw32/nios2-elf/lib\libc.a(lib_a-__call_atexit.o)
 .debug_line    0x000000000000b12c       0x71 ../DECA_TEMP_bsp/\libhal_bsp.a(alt_exit.o)

.debug_frame    0x0000000000000000     0x2140
 *(.debug_frame)
 .debug_frame   0x0000000000000000       0x2c obj/default/main.o
 .debug_frame   0x000000000000002c       0x58 d:/altera/15.0.0.130/nios2eds/bin/gnu/h-x86_64-mingw32/bin/../lib/gcc/nios2-elf/4.9.1\libgcc.a(mulsf3.o)
 .debug_frame   0x0000000000000084       0x34 d:/altera/15.0.0.130/nios2eds/bin/gnu/h-x86_64-mingw32/bin/../lib/gcc/nios2-elf/4.9.1\libgcc.a(floatunsisf.o)
 .debug_frame   0x00000000000000b8       0x38 d:/altera/15.0.0.130/nios2eds/bin/gnu/h-x86_64-mingw32/bin/../lib/gcc/nios2-elf/4.9.1\libgcc.a(extendsfdf2.o)
 .debug_frame   0x00000000000000f0       0x20 d:/altera/15.0.0.130/nios2eds/bin/gnu/h-x86_64-mingw32/bin/../lib/gcc/nios2-elf/4.9.1\libgcc.a(_clzsi2.o)
 .debug_frame   0x0000000000000110       0x48 d:/altera/15.0.0.130/nios2eds/bin/gnu/h-x86_64-mingw32/bin/../lib/gcc/nios2-elf/4.9.1/../../../../../H-x86_64-mingw32/nios2-elf/lib\libc.a(lib_a-printf.o)
 .debug_frame   0x0000000000000158       0x48 d:/altera/15.0.0.130/nios2eds/bin/gnu/h-x86_64-mingw32/bin/../lib/gcc/nios2-elf/4.9.1/../../../../../H-x86_64-mingw32/nios2-elf/lib\libc.a(lib_a-puts.o)
 .debug_frame   0x00000000000001a0       0x20 d:/altera/15.0.0.130/nios2eds/bin/gnu/h-x86_64-mingw32/bin/../lib/gcc/nios2-elf/4.9.1/../../../../../H-x86_64-mingw32/nios2-elf/lib\libc.a(lib_a-strlen.o)
 .debug_frame   0x00000000000001c0       0x68 d:/altera/15.0.0.130/nios2eds/bin/gnu/h-x86_64-mingw32/bin/../lib/gcc/nios2-elf/4.9.1/../../../../../H-x86_64-mingw32/nios2-elf/lib\libc.a(lib_a-vfprintf.o)
 .debug_frame   0x0000000000000228       0x38 d:/altera/15.0.0.130/nios2eds/bin/gnu/h-x86_64-mingw32/bin/../lib/gcc/nios2-elf/4.9.1/../../../../../H-x86_64-mingw32/nios2-elf/lib\libc.a(lib_a-wsetup.o)
 .debug_frame   0x0000000000000260       0x98 d:/altera/15.0.0.130/nios2eds/bin/gnu/h-x86_64-mingw32/bin/../lib/gcc/nios2-elf/4.9.1/../../../../../H-x86_64-mingw32/nios2-elf/lib\libc.a(lib_a-dtoa.o)
 .debug_frame   0x00000000000002f8       0x50 d:/altera/15.0.0.130/nios2eds/bin/gnu/h-x86_64-mingw32/bin/../lib/gcc/nios2-elf/4.9.1/../../../../../H-x86_64-mingw32/nios2-elf/lib\libc.a(lib_a-fflush.o)
 .debug_frame   0x0000000000000348      0x160 d:/altera/15.0.0.130/nios2eds/bin/gnu/h-x86_64-mingw32/bin/../lib/gcc/nios2-elf/4.9.1/../../../../../H-x86_64-mingw32/nios2-elf/lib\libc.a(lib_a-findfp.o)
 .debug_frame   0x00000000000004a8       0x70 d:/altera/15.0.0.130/nios2eds/bin/gnu/h-x86_64-mingw32/bin/../lib/gcc/nios2-elf/4.9.1/../../../../../H-x86_64-mingw32/nios2-elf/lib\libc.a(lib_a-freer.o)
 .debug_frame   0x0000000000000518       0x78 d:/altera/15.0.0.130/nios2eds/bin/gnu/h-x86_64-mingw32/bin/../lib/gcc/nios2-elf/4.9.1/../../../../../H-x86_64-mingw32/nios2-elf/lib\libc.a(lib_a-fvwrite.o)
 .debug_frame   0x0000000000000590       0x88 d:/altera/15.0.0.130/nios2eds/bin/gnu/h-x86_64-mingw32/bin/../lib/gcc/nios2-elf/4.9.1/../../../../../H-x86_64-mingw32/nios2-elf/lib\libc.a(lib_a-fwalk.o)
 .debug_frame   0x0000000000000618       0xa8 d:/altera/15.0.0.130/nios2eds/bin/gnu/h-x86_64-mingw32/bin/../lib/gcc/nios2-elf/4.9.1/../../../../../H-x86_64-mingw32/nios2-elf/lib\libc.a(lib_a-locale.o)
 .debug_frame   0x00000000000006c0       0x4c d:/altera/15.0.0.130/nios2eds/bin/gnu/h-x86_64-mingw32/bin/../lib/gcc/nios2-elf/4.9.1/../../../../../H-x86_64-mingw32/nios2-elf/lib\libc.a(lib_a-makebuf.o)
 .debug_frame   0x000000000000070c       0x54 d:/altera/15.0.0.130/nios2eds/bin/gnu/h-x86_64-mingw32/bin/../lib/gcc/nios2-elf/4.9.1/../../../../../H-x86_64-mingw32/nios2-elf/lib\libc.a(lib_a-mallocr.o)
 .debug_frame   0x0000000000000760       0x20 d:/altera/15.0.0.130/nios2eds/bin/gnu/h-x86_64-mingw32/bin/../lib/gcc/nios2-elf/4.9.1/../../../../../H-x86_64-mingw32/nios2-elf/lib\libc.a(lib_a-memchr.o)
 .debug_frame   0x0000000000000780       0x30 d:/altera/15.0.0.130/nios2eds/bin/gnu/h-x86_64-mingw32/bin/../lib/gcc/nios2-elf/4.9.1/../../../../../H-x86_64-mingw32/nios2-elf/lib\libc.a(lib_a-memcpy.o)
 .debug_frame   0x00000000000007b0       0x20 d:/altera/15.0.0.130/nios2eds/bin/gnu/h-x86_64-mingw32/bin/../lib/gcc/nios2-elf/4.9.1/../../../../../H-x86_64-mingw32/nios2-elf/lib\libc.a(lib_a-memmove.o)
 .debug_frame   0x00000000000007d0       0x20 d:/altera/15.0.0.130/nios2eds/bin/gnu/h-x86_64-mingw32/bin/../lib/gcc/nios2-elf/4.9.1/../../../../../H-x86_64-mingw32/nios2-elf/lib\libc.a(lib_a-memset.o)
 .debug_frame   0x00000000000007f0      0x2e8 d:/altera/15.0.0.130/nios2eds/bin/gnu/h-x86_64-mingw32/bin/../lib/gcc/nios2-elf/4.9.1/../../../../../H-x86_64-mingw32/nios2-elf/lib\libc.a(lib_a-mprec.o)
 .debug_frame   0x0000000000000ad8       0x70 d:/altera/15.0.0.130/nios2eds/bin/gnu/h-x86_64-mingw32/bin/../lib/gcc/nios2-elf/4.9.1/../../../../../H-x86_64-mingw32/nios2-elf/lib\libc.a(lib_a-reallocr.o)
 .debug_frame   0x0000000000000b48       0x20 d:/altera/15.0.0.130/nios2eds/bin/gnu/h-x86_64-mingw32/bin/../lib/gcc/nios2-elf/4.9.1/../../../../../H-x86_64-mingw32/nios2-elf/lib\libc.a(lib_a-s_fpclassify.o)
 .debug_frame   0x0000000000000b68       0x38 d:/altera/15.0.0.130/nios2eds/bin/gnu/h-x86_64-mingw32/bin/../lib/gcc/nios2-elf/4.9.1/../../../../../H-x86_64-mingw32/nios2-elf/lib\libc.a(lib_a-sbrkr.o)
 .debug_frame   0x0000000000000ba0       0xb4 d:/altera/15.0.0.130/nios2eds/bin/gnu/h-x86_64-mingw32/bin/../lib/gcc/nios2-elf/4.9.1/../../../../../H-x86_64-mingw32/nios2-elf/lib\libc.a(lib_a-stdio.o)
 .debug_frame   0x0000000000000c54       0x20 d:/altera/15.0.0.130/nios2eds/bin/gnu/h-x86_64-mingw32/bin/../lib/gcc/nios2-elf/4.9.1/../../../../../H-x86_64-mingw32/nios2-elf/lib\libc.a(lib_a-strcmp.o)
 .debug_frame   0x0000000000000c74       0xbc d:/altera/15.0.0.130/nios2eds/bin/gnu/h-x86_64-mingw32/bin/../lib/gcc/nios2-elf/4.9.1/../../../../../H-x86_64-mingw32/nios2-elf/lib\libc.a(lib_a-vfiprintf.o)
 .debug_frame   0x0000000000000d30       0x38 d:/altera/15.0.0.130/nios2eds/bin/gnu/h-x86_64-mingw32/bin/../lib/gcc/nios2-elf/4.9.1/../../../../../H-x86_64-mingw32/nios2-elf/lib\libc.a(lib_a-writer.o)
 .debug_frame   0x0000000000000d68       0x38 d:/altera/15.0.0.130/nios2eds/bin/gnu/h-x86_64-mingw32/bin/../lib/gcc/nios2-elf/4.9.1/../../../../../H-x86_64-mingw32/nios2-elf/lib\libc.a(closer.o)
 .debug_frame   0x0000000000000da0       0x40 d:/altera/15.0.0.130/nios2eds/bin/gnu/h-x86_64-mingw32/bin/../lib/gcc/nios2-elf/4.9.1/../../../../../H-x86_64-mingw32/nios2-elf/lib\libc.a(lib_a-callocr.o)
 .debug_frame   0x0000000000000de0       0x60 d:/altera/15.0.0.130/nios2eds/bin/gnu/h-x86_64-mingw32/bin/../lib/gcc/nios2-elf/4.9.1/../../../../../H-x86_64-mingw32/nios2-elf/lib\libc.a(lib_a-fclose.o)
 .debug_frame   0x0000000000000e40       0x70 d:/altera/15.0.0.130/nios2eds/bin/gnu/h-x86_64-mingw32/bin/../lib/gcc/nios2-elf/4.9.1/../../../../../H-x86_64-mingw32/nios2-elf/lib\libc.a(lib_a-fputwc.o)
 .debug_frame   0x0000000000000eb0       0x38 d:/altera/15.0.0.130/nios2eds/bin/gnu/h-x86_64-mingw32/bin/../lib/gcc/nios2-elf/4.9.1/../../../../../H-x86_64-mingw32/nios2-elf/lib\libc.a(lib_a-fstatr.o)
 .debug_frame   0x0000000000000ee8       0x38 d:/altera/15.0.0.130/nios2eds/bin/gnu/h-x86_64-mingw32/bin/../lib/gcc/nios2-elf/4.9.1/../../../../../H-x86_64-mingw32/nios2-elf/lib\libc.a(lib_a-isattyr.o)
 .debug_frame   0x0000000000000f20       0x38 d:/altera/15.0.0.130/nios2eds/bin/gnu/h-x86_64-mingw32/bin/../lib/gcc/nios2-elf/4.9.1/../../../../../H-x86_64-mingw32/nios2-elf/lib\libc.a(lib_a-lseekr.o)
 .debug_frame   0x0000000000000f58       0x38 d:/altera/15.0.0.130/nios2eds/bin/gnu/h-x86_64-mingw32/bin/../lib/gcc/nios2-elf/4.9.1/../../../../../H-x86_64-mingw32/nios2-elf/lib\libc.a(lib_a-readr.o)
 .debug_frame   0x0000000000000f90       0x4c d:/altera/15.0.0.130/nios2eds/bin/gnu/h-x86_64-mingw32/bin/../lib/gcc/nios2-elf/4.9.1/../../../../../H-x86_64-mingw32/nios2-elf/lib\libc.a(lib_a-wbuf.o)
 .debug_frame   0x0000000000000fdc       0x74 d:/altera/15.0.0.130/nios2eds/bin/gnu/h-x86_64-mingw32/bin/../lib/gcc/nios2-elf/4.9.1/../../../../../H-x86_64-mingw32/nios2-elf/lib\libc.a(lib_a-wcrtomb.o)
 .debug_frame   0x0000000000001050       0x44 d:/altera/15.0.0.130/nios2eds/bin/gnu/h-x86_64-mingw32/bin/../lib/gcc/nios2-elf/4.9.1/../../../../../H-x86_64-mingw32/nios2-elf/lib\libc.a(lib_a-wctomb_r.o)
 .debug_frame   0x0000000000001094       0x54 d:/altera/15.0.0.130/nios2eds/bin/gnu/h-x86_64-mingw32/bin/../lib/gcc/nios2-elf/4.9.1\libgcc.a(_udivdi3.o)
 .debug_frame   0x00000000000010e8       0x54 d:/altera/15.0.0.130/nios2eds/bin/gnu/h-x86_64-mingw32/bin/../lib/gcc/nios2-elf/4.9.1\libgcc.a(_umoddi3.o)
 .debug_frame   0x000000000000113c       0x8c d:/altera/15.0.0.130/nios2eds/bin/gnu/h-x86_64-mingw32/bin/../lib/gcc/nios2-elf/4.9.1\libgcc.a(lib2-divmod.o)
 .debug_frame   0x00000000000011c8       0x40 d:/altera/15.0.0.130/nios2eds/bin/gnu/h-x86_64-mingw32/bin/../lib/gcc/nios2-elf/4.9.1\libgcc.a(adddf3.o)
 .debug_frame   0x0000000000001208       0x58 d:/altera/15.0.0.130/nios2eds/bin/gnu/h-x86_64-mingw32/bin/../lib/gcc/nios2-elf/4.9.1\libgcc.a(divdf3.o)
 .debug_frame   0x0000000000001260       0x20 d:/altera/15.0.0.130/nios2eds/bin/gnu/h-x86_64-mingw32/bin/../lib/gcc/nios2-elf/4.9.1\libgcc.a(eqdf2.o)
 .debug_frame   0x0000000000001280       0x20 d:/altera/15.0.0.130/nios2eds/bin/gnu/h-x86_64-mingw32/bin/../lib/gcc/nios2-elf/4.9.1\libgcc.a(gedf2.o)
 .debug_frame   0x00000000000012a0       0x20 d:/altera/15.0.0.130/nios2eds/bin/gnu/h-x86_64-mingw32/bin/../lib/gcc/nios2-elf/4.9.1\libgcc.a(ledf2.o)
 .debug_frame   0x00000000000012c0       0x58 d:/altera/15.0.0.130/nios2eds/bin/gnu/h-x86_64-mingw32/bin/../lib/gcc/nios2-elf/4.9.1\libgcc.a(muldf3.o)
 .debug_frame   0x0000000000001318       0x44 d:/altera/15.0.0.130/nios2eds/bin/gnu/h-x86_64-mingw32/bin/../lib/gcc/nios2-elf/4.9.1\libgcc.a(subdf3.o)
 .debug_frame   0x000000000000135c       0x20 d:/altera/15.0.0.130/nios2eds/bin/gnu/h-x86_64-mingw32/bin/../lib/gcc/nios2-elf/4.9.1\libgcc.a(fixdfsi.o)
 .debug_frame   0x000000000000137c       0x38 d:/altera/15.0.0.130/nios2eds/bin/gnu/h-x86_64-mingw32/bin/../lib/gcc/nios2-elf/4.9.1\libgcc.a(floatsidf.o)
 .debug_frame   0x00000000000013b4       0x34 d:/altera/15.0.0.130/nios2eds/bin/gnu/h-x86_64-mingw32/bin/../lib/gcc/nios2-elf/4.9.1\libgcc.a(floatunsidf.o)
 .debug_frame   0x00000000000013e8       0x60 ../DECA_TEMP_bsp/\libhal_bsp.a(alt_close.o)
 .debug_frame   0x0000000000001448       0x34 ../DECA_TEMP_bsp/\libhal_bsp.a(alt_dev.o)
 .debug_frame   0x000000000000147c       0x60 ../DECA_TEMP_bsp/\libhal_bsp.a(alt_fstat.o)
 .debug_frame   0x00000000000014dc       0x60 ../DECA_TEMP_bsp/\libhal_bsp.a(alt_isatty.o)
 .debug_frame   0x000000000000153c       0x5c ../DECA_TEMP_bsp/\libhal_bsp.a(alt_load.o)
 .debug_frame   0x0000000000001598       0x60 ../DECA_TEMP_bsp/\libhal_bsp.a(alt_lseek.o)
 .debug_frame   0x00000000000015f8       0x2c ../DECA_TEMP_bsp/\libhal_bsp.a(alt_main.o)
 .debug_frame   0x0000000000001624       0x58 ../DECA_TEMP_bsp/\libhal_bsp.a(alt_malloc_lock.o)
 .debug_frame   0x000000000000167c       0x60 ../DECA_TEMP_bsp/\libhal_bsp.a(alt_read.o)
 .debug_frame   0x00000000000016dc       0x34 ../DECA_TEMP_bsp/\libhal_bsp.a(alt_release_fd.o)
 .debug_frame   0x0000000000001710       0x34 ../DECA_TEMP_bsp/\libhal_bsp.a(alt_sbrk.o)
 .debug_frame   0x0000000000001744       0x38 ../DECA_TEMP_bsp/\libhal_bsp.a(alt_usleep.o)
 .debug_frame   0x000000000000177c       0x60 ../DECA_TEMP_bsp/\libhal_bsp.a(alt_write.o)
 .debug_frame   0x00000000000017dc       0x88 ../DECA_TEMP_bsp/\libhal_bsp.a(alt_sys_init.o)
 .debug_frame   0x0000000000001864       0xb0 ../DECA_TEMP_bsp/\libhal_bsp.a(altera_avalon_jtag_uart_fd.o)
 .debug_frame   0x0000000000001914       0xa4 ../DECA_TEMP_bsp/\libhal_bsp.a(altera_avalon_jtag_uart_init.o)
 .debug_frame   0x00000000000019b8       0x34 ../DECA_TEMP_bsp/\libhal_bsp.a(altera_avalon_jtag_uart_ioctl.o)
 .debug_frame   0x00000000000019ec       0x38 ../DECA_TEMP_bsp/\libhal_bsp.a(altera_avalon_jtag_uart_read.o)
 .debug_frame   0x0000000000001a24       0x38 ../DECA_TEMP_bsp/\libhal_bsp.a(altera_avalon_jtag_uart_write.o)
 .debug_frame   0x0000000000001a5c       0x60 ../DECA_TEMP_bsp/\libhal_bsp.a(altera_avalon_timer_sc.o)
 .debug_frame   0x0000000000001abc       0x34 ../DECA_TEMP_bsp/\libhal_bsp.a(alt_alarm_start.o)
 .debug_frame   0x0000000000001af0       0x38 ../DECA_TEMP_bsp/\libhal_bsp.a(alt_busy_sleep.o)
 .debug_frame   0x0000000000001b28       0x34 ../DECA_TEMP_bsp/\libhal_bsp.a(alt_dcache_flush_all.o)
 .debug_frame   0x0000000000001b5c       0x60 ../DECA_TEMP_bsp/\libhal_bsp.a(alt_dev_llist_insert.o)
 .debug_frame   0x0000000000001bbc       0x38 ../DECA_TEMP_bsp/\libhal_bsp.a(alt_do_ctors.o)
 .debug_frame   0x0000000000001bf4       0x38 ../DECA_TEMP_bsp/\libhal_bsp.a(alt_do_dtors.o)
 .debug_frame   0x0000000000001c2c       0x38 ../DECA_TEMP_bsp/\libhal_bsp.a(alt_icache_flush_all.o)
 .debug_frame   0x0000000000001c64       0xa4 ../DECA_TEMP_bsp/\libhal_bsp.a(alt_iic.o)
 .debug_frame   0x0000000000001d08       0x38 ../DECA_TEMP_bsp/\libhal_bsp.a(alt_iic_isr_register.o)
 .debug_frame   0x0000000000001d40       0x60 ../DECA_TEMP_bsp/\libhal_bsp.a(alt_io_redirect.o)
 .debug_frame   0x0000000000001da0       0x38 ../DECA_TEMP_bsp/\libhal_bsp.a(alt_irq_handler.o)
 .debug_frame   0x0000000000001dd8       0x84 ../DECA_TEMP_bsp/\libhal_bsp.a(alt_open.o)
 .debug_frame   0x0000000000001e5c       0x5c ../DECA_TEMP_bsp/\libhal_bsp.a(alt_tick.o)
 .debug_frame   0x0000000000001eb8       0x34 ../DECA_TEMP_bsp/\libhal_bsp.a(altera_nios2_gen2_irq.o)
 .debug_frame   0x0000000000001eec       0x38 ../DECA_TEMP_bsp/\libhal_bsp.a(alt_find_dev.o)
 .debug_frame   0x0000000000001f24       0x38 ../DECA_TEMP_bsp/\libhal_bsp.a(alt_find_file.o)
 .debug_frame   0x0000000000001f5c       0x34 ../DECA_TEMP_bsp/\libhal_bsp.a(alt_get_fd.o)
 .debug_frame   0x0000000000001f90       0x34 ../DECA_TEMP_bsp/\libhal_bsp.a(alt_icache_flush.o)
 .debug_frame   0x0000000000001fc4       0x5c ../DECA_TEMP_bsp/\libhal_bsp.a(alt_instruction_exception_entry.o)
 .debug_frame   0x0000000000002020       0x20 d:/altera/15.0.0.130/nios2eds/bin/gnu/h-x86_64-mingw32/bin/../lib/gcc/nios2-elf/4.9.1/../../../../../H-x86_64-mingw32/nios2-elf/lib\libc.a(lib_a-atexit.o)
 .debug_frame   0x0000000000002040       0x28 d:/altera/15.0.0.130/nios2eds/bin/gnu/h-x86_64-mingw32/bin/../lib/gcc/nios2-elf/4.9.1/../../../../../H-x86_64-mingw32/nios2-elf/lib\libc.a(lib_a-exit.o)
 .debug_frame   0x0000000000002068       0x20 d:/altera/15.0.0.130/nios2eds/bin/gnu/h-x86_64-mingw32/bin/../lib/gcc/nios2-elf/4.9.1/../../../../../H-x86_64-mingw32/nios2-elf/lib\libc.a(lib_a-memcmp.o)
 .debug_frame   0x0000000000002088       0x38 d:/altera/15.0.0.130/nios2eds/bin/gnu/h-x86_64-mingw32/bin/../lib/gcc/nios2-elf/4.9.1/../../../../../H-x86_64-mingw32/nios2-elf/lib\libc.a(lib_a-__atexit.o)
 .debug_frame   0x00000000000020c0       0x54 d:/altera/15.0.0.130/nios2eds/bin/gnu/h-x86_64-mingw32/bin/../lib/gcc/nios2-elf/4.9.1/../../../../../H-x86_64-mingw32/nios2-elf/lib\libc.a(lib_a-__call_atexit.o)
 .debug_frame   0x0000000000002114       0x2c ../DECA_TEMP_bsp/\libhal_bsp.a(alt_exit.o)

.debug_str      0x0000000000000000     0x36ad
 *(.debug_str)
 .debug_str     0x0000000000000000      0x10b obj/default/main.o
                                        0x156 (size before relaxing)
 .debug_str     0x000000000000010b      0x19d d:/altera/15.0.0.130/nios2eds/bin/gnu/h-x86_64-mingw32/bin/../lib/gcc/nios2-elf/4.9.1\libgcc.a(mulsf3.o)
                                        0x227 (size before relaxing)
 .debug_str     0x00000000000002a8       0x6e d:/altera/15.0.0.130/nios2eds/bin/gnu/h-x86_64-mingw32/bin/../lib/gcc/nios2-elf/4.9.1\libgcc.a(floatunsisf.o)
                                        0x201 (size before relaxing)
 .debug_str     0x0000000000000316       0x69 d:/altera/15.0.0.130/nios2eds/bin/gnu/h-x86_64-mingw32/bin/../lib/gcc/nios2-elf/4.9.1\libgcc.a(extendsfdf2.o)
                                        0x203 (size before relaxing)
 .debug_str     0x000000000000037f       0x63 d:/altera/15.0.0.130/nios2eds/bin/gnu/h-x86_64-mingw32/bin/../lib/gcc/nios2-elf/4.9.1\libgcc.a(_clzsi2.o)
                                        0x1d8 (size before relaxing)
 .debug_str     0x0000000000000000      0x1bb d:/altera/15.0.0.130/nios2eds/bin/gnu/h-x86_64-mingw32/bin/../lib/gcc/nios2-elf/4.9.1\libgcc.a(_clz.o)
 .debug_str     0x00000000000003e2      0x485 d:/altera/15.0.0.130/nios2eds/bin/gnu/h-x86_64-mingw32/bin/../lib/gcc/nios2-elf/4.9.1/../../../../../H-x86_64-mingw32/nios2-elf/lib\libc.a(lib_a-printf.o)
                                        0x5a3 (size before relaxing)
 .debug_str     0x0000000000000867       0x95 d:/altera/15.0.0.130/nios2eds/bin/gnu/h-x86_64-mingw32/bin/../lib/gcc/nios2-elf/4.9.1/../../../../../H-x86_64-mingw32/nios2-elf/lib\libc.a(lib_a-puts.o)
                                        0x5a0 (size before relaxing)
 .debug_str     0x00000000000008fc       0xcc d:/altera/15.0.0.130/nios2eds/bin/gnu/h-x86_64-mingw32/bin/../lib/gcc/nios2-elf/4.9.1/../../../../../H-x86_64-mingw32/nios2-elf/lib\libc.a(lib_a-strlen.o)
                                        0x1a1 (size before relaxing)
 .debug_str     0x00000000000009c8      0x2f1 d:/altera/15.0.0.130/nios2eds/bin/gnu/h-x86_64-mingw32/bin/../lib/gcc/nios2-elf/4.9.1/../../../../../H-x86_64-mingw32/nios2-elf/lib\libc.a(lib_a-vfprintf.o)
                                        0x937 (size before relaxing)
 .debug_str     0x0000000000000cb9       0x4f d:/altera/15.0.0.130/nios2eds/bin/gnu/h-x86_64-mingw32/bin/../lib/gcc/nios2-elf/4.9.1/../../../../../H-x86_64-mingw32/nios2-elf/lib\libc.a(lib_a-wsetup.o)
                                        0x567 (size before relaxing)
 .debug_str     0x0000000000000d08      0x1e2 d:/altera/15.0.0.130/nios2eds/bin/gnu/h-x86_64-mingw32/bin/../lib/gcc/nios2-elf/4.9.1/../../../../../H-x86_64-mingw32/nios2-elf/lib\libc.a(lib_a-dtoa.o)
                                        0x6aa (size before relaxing)
 .debug_str     0x0000000000000eea       0x65 d:/altera/15.0.0.130/nios2eds/bin/gnu/h-x86_64-mingw32/bin/../lib/gcc/nios2-elf/4.9.1/../../../../../H-x86_64-mingw32/nios2-elf/lib\libc.a(lib_a-fflush.o)
                                        0x597 (size before relaxing)
 .debug_str     0x0000000000000f4f      0x10b d:/altera/15.0.0.130/nios2eds/bin/gnu/h-x86_64-mingw32/bin/../lib/gcc/nios2-elf/4.9.1/../../../../../H-x86_64-mingw32/nios2-elf/lib\libc.a(lib_a-findfp.o)
                                        0x651 (size before relaxing)
 .debug_str     0x000000000000105a      0x183 d:/altera/15.0.0.130/nios2eds/bin/gnu/h-x86_64-mingw32/bin/../lib/gcc/nios2-elf/4.9.1/../../../../../H-x86_64-mingw32/nios2-elf/lib\libc.a(lib_a-freer.o)
                                        0x6b1 (size before relaxing)
 .debug_str     0x00000000000011dd       0x6c d:/altera/15.0.0.130/nios2eds/bin/gnu/h-x86_64-mingw32/bin/../lib/gcc/nios2-elf/4.9.1/../../../../../H-x86_64-mingw32/nios2-elf/lib\libc.a(lib_a-fvwrite.o)
                                        0x5ea (size before relaxing)
 .debug_str     0x0000000000001249       0x5e d:/altera/15.0.0.130/nios2eds/bin/gnu/h-x86_64-mingw32/bin/../lib/gcc/nios2-elf/4.9.1/../../../../../H-x86_64-mingw32/nios2-elf/lib\libc.a(lib_a-fwalk.o)
                                        0x599 (size before relaxing)
 .debug_str     0x00000000000012a7       0xc9 d:/altera/15.0.0.130/nios2eds/bin/gnu/h-x86_64-mingw32/bin/../lib/gcc/nios2-elf/4.9.1/../../../../../H-x86_64-mingw32/nios2-elf/lib\libc.a(lib_a-impure.o)
                                        0x558 (size before relaxing)
 .debug_str     0x0000000000001370      0x1a6 d:/altera/15.0.0.130/nios2eds/bin/gnu/h-x86_64-mingw32/bin/../lib/gcc/nios2-elf/4.9.1/../../../../../H-x86_64-mingw32/nios2-elf/lib\libc.a(lib_a-locale.o)
                                        0x7b5 (size before relaxing)
 .debug_str     0x0000000000001516      0x129 d:/altera/15.0.0.130/nios2eds/bin/gnu/h-x86_64-mingw32/bin/../lib/gcc/nios2-elf/4.9.1/../../../../../H-x86_64-mingw32/nios2-elf/lib\libc.a(lib_a-makebuf.o)
                                        0x661 (size before relaxing)
 .debug_str     0x000000000000163f       0xe5 d:/altera/15.0.0.130/nios2eds/bin/gnu/h-x86_64-mingw32/bin/../lib/gcc/nios2-elf/4.9.1/../../../../../H-x86_64-mingw32/nios2-elf/lib\libc.a(lib_a-mallocr.o)
                                        0x767 (size before relaxing)
 .debug_str     0x0000000000001724       0x49 d:/altera/15.0.0.130/nios2eds/bin/gnu/h-x86_64-mingw32/bin/../lib/gcc/nios2-elf/4.9.1/../../../../../H-x86_64-mingw32/nios2-elf/lib\libc.a(lib_a-memchr.o)
                                        0x1a8 (size before relaxing)
 .debug_str     0x000000000000176d       0x62 d:/altera/15.0.0.130/nios2eds/bin/gnu/h-x86_64-mingw32/bin/../lib/gcc/nios2-elf/4.9.1/../../../../../H-x86_64-mingw32/nios2-elf/lib\libc.a(lib_a-memcpy.o)
                                        0x1b5 (size before relaxing)
 .debug_str     0x00000000000017cf       0x45 d:/altera/15.0.0.130/nios2eds/bin/gnu/h-x86_64-mingw32/bin/../lib/gcc/nios2-elf/4.9.1/../../../../../H-x86_64-mingw32/nios2-elf/lib\libc.a(lib_a-memmove.o)
                                        0x1c1 (size before relaxing)
 .debug_str     0x0000000000001814       0x42 d:/altera/15.0.0.130/nios2eds/bin/gnu/h-x86_64-mingw32/bin/../lib/gcc/nios2-elf/4.9.1/../../../../../H-x86_64-mingw32/nios2-elf/lib\libc.a(lib_a-memset.o)
                                        0x1a2 (size before relaxing)
 .debug_str     0x0000000000001856       0xa5 d:/altera/15.0.0.130/nios2eds/bin/gnu/h-x86_64-mingw32/bin/../lib/gcc/nios2-elf/4.9.1/../../../../../H-x86_64-mingw32/nios2-elf/lib\libc.a(lib_a-mprec.o)
                                        0x664 (size before relaxing)
 .debug_str     0x00000000000018fb       0x4e d:/altera/15.0.0.130/nios2eds/bin/gnu/h-x86_64-mingw32/bin/../lib/gcc/nios2-elf/4.9.1/../../../../../H-x86_64-mingw32/nios2-elf/lib\libc.a(lib_a-reallocr.o)
                                        0x639 (size before relaxing)
 .debug_str     0x0000000000001949       0xc5 d:/altera/15.0.0.130/nios2eds/bin/gnu/h-x86_64-mingw32/bin/../lib/gcc/nios2-elf/4.9.1/../../../../../H-x86_64-mingw32/nios2-elf/lib\libc.a(lib_a-s_fpclassify.o)
                                        0x1b8 (size before relaxing)
 .debug_str     0x0000000000001a0e       0x43 d:/altera/15.0.0.130/nios2eds/bin/gnu/h-x86_64-mingw32/bin/../lib/gcc/nios2-elf/4.9.1/../../../../../H-x86_64-mingw32/nios2-elf/lib\libc.a(lib_a-sbrkr.o)
                                        0x54e (size before relaxing)
 .debug_str     0x0000000000001a51       0x99 d:/altera/15.0.0.130/nios2eds/bin/gnu/h-x86_64-mingw32/bin/../lib/gcc/nios2-elf/4.9.1/../../../../../H-x86_64-mingw32/nios2-elf/lib\libc.a(lib_a-stdio.o)
                                        0x5b2 (size before relaxing)
 .debug_str     0x0000000000001aea       0x3b d:/altera/15.0.0.130/nios2eds/bin/gnu/h-x86_64-mingw32/bin/../lib/gcc/nios2-elf/4.9.1/../../../../../H-x86_64-mingw32/nios2-elf/lib\libc.a(lib_a-strcmp.o)
                                        0x187 (size before relaxing)
 .debug_str     0x0000000000001b25       0x3f d:/altera/15.0.0.130/nios2eds/bin/gnu/h-x86_64-mingw32/bin/../lib/gcc/nios2-elf/4.9.1/../../../../../H-x86_64-mingw32/nios2-elf/lib\libc.a(lib_a-vfiprintf.o)
                                        0x729 (size before relaxing)
 .debug_str     0x0000000000001b64       0x3a d:/altera/15.0.0.130/nios2eds/bin/gnu/h-x86_64-mingw32/bin/../lib/gcc/nios2-elf/4.9.1/../../../../../H-x86_64-mingw32/nios2-elf/lib\libc.a(lib_a-writer.o)
                                        0x552 (size before relaxing)
 .debug_str     0x0000000000001b9e       0x3a d:/altera/15.0.0.130/nios2eds/bin/gnu/h-x86_64-mingw32/bin/../lib/gcc/nios2-elf/4.9.1/../../../../../H-x86_64-mingw32/nios2-elf/lib\libc.a(closer.o)
                                        0x542 (size before relaxing)
 .debug_str     0x0000000000001bd8        0xf d:/altera/15.0.0.130/nios2eds/bin/gnu/h-x86_64-mingw32/bin/../lib/gcc/nios2-elf/4.9.1/../../../../../H-x86_64-mingw32/nios2-elf/lib\libc.a(lib_a-callocr.o)
                                        0x591 (size before relaxing)
 .debug_str     0x0000000000001be7       0x4b d:/altera/15.0.0.130/nios2eds/bin/gnu/h-x86_64-mingw32/bin/../lib/gcc/nios2-elf/4.9.1/../../../../../H-x86_64-mingw32/nios2-elf/lib\libc.a(lib_a-fclose.o)
                                        0x594 (size before relaxing)
 .debug_str     0x0000000000001c32       0x58 d:/altera/15.0.0.130/nios2eds/bin/gnu/h-x86_64-mingw32/bin/../lib/gcc/nios2-elf/4.9.1/../../../../../H-x86_64-mingw32/nios2-elf/lib\libc.a(lib_a-fputwc.o)
                                        0x5a2 (size before relaxing)
 .debug_str     0x0000000000001c8a       0x46 d:/altera/15.0.0.130/nios2eds/bin/gnu/h-x86_64-mingw32/bin/../lib/gcc/nios2-elf/4.9.1/../../../../../H-x86_64-mingw32/nios2-elf/lib\libc.a(lib_a-fstatr.o)
                                        0x635 (size before relaxing)
 .debug_str     0x0000000000001cd0       0x3d d:/altera/15.0.0.130/nios2eds/bin/gnu/h-x86_64-mingw32/bin/../lib/gcc/nios2-elf/4.9.1/../../../../../H-x86_64-mingw32/nios2-elf/lib\libc.a(lib_a-int_errno.o)
                                        0x187 (size before relaxing)
 .debug_str     0x0000000000001d0d       0x42 d:/altera/15.0.0.130/nios2eds/bin/gnu/h-x86_64-mingw32/bin/../lib/gcc/nios2-elf/4.9.1/../../../../../H-x86_64-mingw32/nios2-elf/lib\libc.a(lib_a-isattyr.o)
                                        0x545 (size before relaxing)
 .debug_str     0x0000000000001d4f       0x40 d:/altera/15.0.0.130/nios2eds/bin/gnu/h-x86_64-mingw32/bin/../lib/gcc/nios2-elf/4.9.1/../../../../../H-x86_64-mingw32/nios2-elf/lib\libc.a(lib_a-lseekr.o)
                                        0x556 (size before relaxing)
 .debug_str     0x0000000000001d8f       0x39 d:/altera/15.0.0.130/nios2eds/bin/gnu/h-x86_64-mingw32/bin/../lib/gcc/nios2-elf/4.9.1/../../../../../H-x86_64-mingw32/nios2-elf/lib\libc.a(lib_a-readr.o)
                                        0x54f (size before relaxing)
 .debug_str     0x0000000000001dc8       0x40 d:/altera/15.0.0.130/nios2eds/bin/gnu/h-x86_64-mingw32/bin/../lib/gcc/nios2-elf/4.9.1/../../../../../H-x86_64-mingw32/nios2-elf/lib\libc.a(lib_a-wbuf.o)
                                        0x56c (size before relaxing)
 .debug_str     0x0000000000001e08       0x54 d:/altera/15.0.0.130/nios2eds/bin/gnu/h-x86_64-mingw32/bin/../lib/gcc/nios2-elf/4.9.1/../../../../../H-x86_64-mingw32/nios2-elf/lib\libc.a(lib_a-wcrtomb.o)
                                        0x589 (size before relaxing)
 .debug_str     0x0000000000001e5c       0x5d d:/altera/15.0.0.130/nios2eds/bin/gnu/h-x86_64-mingw32/bin/../lib/gcc/nios2-elf/4.9.1/../../../../../H-x86_64-mingw32/nios2-elf/lib\libc.a(lib_a-wctomb_r.o)
                                        0x598 (size before relaxing)
 .debug_str     0x0000000000001eb9       0xe8 d:/altera/15.0.0.130/nios2eds/bin/gnu/h-x86_64-mingw32/bin/../lib/gcc/nios2-elf/4.9.1\libgcc.a(_udivdi3.o)
                                        0x274 (size before relaxing)
 .debug_str     0x0000000000001fa1        0xa d:/altera/15.0.0.130/nios2eds/bin/gnu/h-x86_64-mingw32/bin/../lib/gcc/nios2-elf/4.9.1\libgcc.a(_umoddi3.o)
                                        0x274 (size before relaxing)
 .debug_str     0x0000000000001fab       0x7c d:/altera/15.0.0.130/nios2eds/bin/gnu/h-x86_64-mingw32/bin/../lib/gcc/nios2-elf/4.9.1\libgcc.a(lib2-divmod.o)
                                        0x1b6 (size before relaxing)
 .debug_str     0x0000000000002027       0x80 d:/altera/15.0.0.130/nios2eds/bin/gnu/h-x86_64-mingw32/bin/../lib/gcc/nios2-elf/4.9.1\libgcc.a(adddf3.o)
                                        0x248 (size before relaxing)
 .debug_str     0x00000000000020a7       0x60 d:/altera/15.0.0.130/nios2eds/bin/gnu/h-x86_64-mingw32/bin/../lib/gcc/nios2-elf/4.9.1\libgcc.a(divdf3.o)
                                        0x289 (size before relaxing)
 .debug_str     0x0000000000002107       0x34 d:/altera/15.0.0.130/nios2eds/bin/gnu/h-x86_64-mingw32/bin/../lib/gcc/nios2-elf/4.9.1\libgcc.a(eqdf2.o)
                                        0x1e3 (size before relaxing)
 .debug_str     0x000000000000213b       0x4c d:/altera/15.0.0.130/nios2eds/bin/gnu/h-x86_64-mingw32/bin/../lib/gcc/nios2-elf/4.9.1\libgcc.a(gedf2.o)
                                        0x1fb (size before relaxing)
 .debug_str     0x0000000000002187       0x34 d:/altera/15.0.0.130/nios2eds/bin/gnu/h-x86_64-mingw32/bin/../lib/gcc/nios2-elf/4.9.1\libgcc.a(ledf2.o)
                                        0x1fb (size before relaxing)
 .debug_str     0x00000000000021bb       0x8d d:/altera/15.0.0.130/nios2eds/bin/gnu/h-x86_64-mingw32/bin/../lib/gcc/nios2-elf/4.9.1\libgcc.a(muldf3.o)
                                        0x2a1 (size before relaxing)
 .debug_str     0x0000000000002248       0x36 d:/altera/15.0.0.130/nios2eds/bin/gnu/h-x86_64-mingw32/bin/../lib/gcc/nios2-elf/4.9.1\libgcc.a(subdf3.o)
                                        0x248 (size before relaxing)
 .debug_str     0x000000000000227e       0x40 d:/altera/15.0.0.130/nios2eds/bin/gnu/h-x86_64-mingw32/bin/../lib/gcc/nios2-elf/4.9.1\libgcc.a(fixdfsi.o)
                                        0x1f4 (size before relaxing)
 .debug_str     0x00000000000022be       0x3c d:/altera/15.0.0.130/nios2eds/bin/gnu/h-x86_64-mingw32/bin/../lib/gcc/nios2-elf/4.9.1\libgcc.a(floatsidf.o)
                                        0x1f8 (size before relaxing)
 .debug_str     0x00000000000022fa       0x40 d:/altera/15.0.0.130/nios2eds/bin/gnu/h-x86_64-mingw32/bin/../lib/gcc/nios2-elf/4.9.1\libgcc.a(floatunsidf.o)
                                        0x1f5 (size before relaxing)
 .debug_str     0x000000000000233a       0xf3 ../DECA_TEMP_bsp/\libhal_bsp.a(alt_close.o)
                                        0x1fa (size before relaxing)
 .debug_str     0x000000000000242d       0x50 ../DECA_TEMP_bsp/\libhal_bsp.a(alt_dev.o)
                                        0x2f4 (size before relaxing)
 .debug_str     0x000000000000247d       0x14 ../DECA_TEMP_bsp/\libhal_bsp.a(alt_errno.o)
                                        0x134 (size before relaxing)
 .debug_str     0x0000000000002491       0x14 ../DECA_TEMP_bsp/\libhal_bsp.a(alt_fstat.o)
                                        0x2db (size before relaxing)
 .debug_str     0x00000000000024a5       0x15 ../DECA_TEMP_bsp/\libhal_bsp.a(alt_isatty.o)
                                        0x2e3 (size before relaxing)
 .debug_str     0x00000000000024ba       0xf1 ../DECA_TEMP_bsp/\libhal_bsp.a(alt_load.o)
                                        0x201 (size before relaxing)
 .debug_str     0x00000000000025ab       0x14 ../DECA_TEMP_bsp/\libhal_bsp.a(alt_lseek.o)
                                        0x200 (size before relaxing)
 .debug_str     0x00000000000025bf       0x44 ../DECA_TEMP_bsp/\libhal_bsp.a(alt_main.o)
                                        0x18c (size before relaxing)
 .debug_str     0x0000000000002603       0x1a ../DECA_TEMP_bsp/\libhal_bsp.a(alt_malloc_lock.o)
                                        0x4f7 (size before relaxing)
 .debug_str     0x000000000000261d       0x13 ../DECA_TEMP_bsp/\libhal_bsp.a(alt_read.o)
                                        0x2e6 (size before relaxing)
 .debug_str     0x0000000000002630       0x28 ../DECA_TEMP_bsp/\libhal_bsp.a(alt_release_fd.o)
                                        0x1ce (size before relaxing)
 .debug_str     0x0000000000002658       0x98 ../DECA_TEMP_bsp/\libhal_bsp.a(alt_sbrk.o)
                                        0x1c3 (size before relaxing)
 .debug_str     0x00000000000026f0       0x27 ../DECA_TEMP_bsp/\libhal_bsp.a(alt_usleep.o)
                                        0x137 (size before relaxing)
 .debug_str     0x0000000000002717       0x14 ../DECA_TEMP_bsp/\libhal_bsp.a(alt_write.o)
                                        0x2e7 (size before relaxing)
 .debug_str     0x000000000000272b      0x18b ../DECA_TEMP_bsp/\libhal_bsp.a(alt_sys_init.o)
                                        0x37d (size before relaxing)
 .debug_str     0x00000000000028b6       0xac ../DECA_TEMP_bsp/\libhal_bsp.a(altera_avalon_jtag_uart_fd.o)
                                        0x393 (size before relaxing)
 .debug_str     0x0000000000002962       0xd1 ../DECA_TEMP_bsp/\libhal_bsp.a(altera_avalon_jtag_uart_init.o)
                                        0x327 (size before relaxing)
 .debug_str     0x0000000000002a33       0x4a ../DECA_TEMP_bsp/\libhal_bsp.a(altera_avalon_jtag_uart_ioctl.o)
                                        0x282 (size before relaxing)
 .debug_str     0x0000000000002a7d       0x48 ../DECA_TEMP_bsp/\libhal_bsp.a(altera_avalon_jtag_uart_read.o)
                                        0x2d7 (size before relaxing)
 .debug_str     0x0000000000002ac5       0x4a ../DECA_TEMP_bsp/\libhal_bsp.a(altera_avalon_jtag_uart_write.o)
                                        0x2d8 (size before relaxing)
 .debug_str     0x0000000000002b0f       0x6d ../DECA_TEMP_bsp/\libhal_bsp.a(altera_avalon_timer_sc.o)
                                        0x23a (size before relaxing)
 .debug_str     0x0000000000002b7c       0x59 ../DECA_TEMP_bsp/\libhal_bsp.a(alt_alarm_start.o)
                                        0x26d (size before relaxing)
 .debug_str     0x0000000000002bd5       0x42 ../DECA_TEMP_bsp/\libhal_bsp.a(alt_busy_sleep.o)
                                        0x15a (size before relaxing)
 .debug_str     0x0000000000002c17       0x34 ../DECA_TEMP_bsp/\libhal_bsp.a(alt_dcache_flush_all.o)
                                        0x144 (size before relaxing)
 .debug_str     0x0000000000002c4b       0x34 ../DECA_TEMP_bsp/\libhal_bsp.a(alt_dev_llist_insert.o)
                                        0x1bb (size before relaxing)
 .debug_str     0x0000000000002c7f       0x48 ../DECA_TEMP_bsp/\libhal_bsp.a(alt_do_ctors.o)
                                         0xcb (size before relaxing)
 .debug_str     0x0000000000002cc7       0x4c ../DECA_TEMP_bsp/\libhal_bsp.a(alt_do_dtors.o)
                                         0xca (size before relaxing)
 .debug_str     0x0000000000002d13       0x34 ../DECA_TEMP_bsp/\libhal_bsp.a(alt_icache_flush_all.o)
                                        0x144 (size before relaxing)
 .debug_str     0x0000000000002d47       0xc4 ../DECA_TEMP_bsp/\libhal_bsp.a(alt_iic.o)
                                        0x22d (size before relaxing)
 .debug_str     0x0000000000002e0b       0x4c ../DECA_TEMP_bsp/\libhal_bsp.a(alt_iic_isr_register.o)
                                        0x1d7 (size before relaxing)
 .debug_str     0x0000000000002e57       0x56 ../DECA_TEMP_bsp/\libhal_bsp.a(alt_io_redirect.o)
                                        0x305 (size before relaxing)
 .debug_str     0x0000000000002ead       0x3a ../DECA_TEMP_bsp/\libhal_bsp.a(alt_irq_handler.o)
                                        0x186 (size before relaxing)
 .debug_str     0x0000000000002ee7       0x17 ../DECA_TEMP_bsp/\libhal_bsp.a(alt_irq_vars.o)
                                        0x135 (size before relaxing)
 .debug_str     0x0000000000002efe       0x29 ../DECA_TEMP_bsp/\libhal_bsp.a(alt_open.o)
                                        0x23a (size before relaxing)
 .debug_str     0x0000000000002f27       0x4a ../DECA_TEMP_bsp/\libhal_bsp.a(alt_tick.o)
                                        0x241 (size before relaxing)
 .debug_str     0x0000000000002f71       0x3b ../DECA_TEMP_bsp/\libhal_bsp.a(altera_nios2_gen2_irq.o)
                                        0x14b (size before relaxing)
 .debug_str     0x0000000000002fac       0x24 ../DECA_TEMP_bsp/\libhal_bsp.a(alt_find_dev.o)
                                        0x1db (size before relaxing)
 .debug_str     0x0000000000002fd0       0x26 ../DECA_TEMP_bsp/\libhal_bsp.a(alt_find_file.o)
                                        0x1e9 (size before relaxing)
 .debug_str     0x0000000000002ff6       0x30 ../DECA_TEMP_bsp/\libhal_bsp.a(alt_get_fd.o)
                                        0x20b (size before relaxing)
 .debug_str     0x0000000000003026       0x2c ../DECA_TEMP_bsp/\libhal_bsp.a(alt_icache_flush.o)
                                        0x14a (size before relaxing)
 .debug_str     0x0000000000003052      0x48b ../DECA_TEMP_bsp/\libhal_bsp.a(alt_instruction_exception_entry.o)
                                        0x58e (size before relaxing)
 .debug_str     0x00000000000034dd       0x7f d:/altera/15.0.0.130/nios2eds/bin/gnu/h-x86_64-mingw32/bin/../lib/gcc/nios2-elf/4.9.1/../../../../../H-x86_64-mingw32/nios2-elf/lib\libc.a(lib_a-atexit.o)
                                        0x1cb (size before relaxing)
 .debug_str     0x000000000000355c       0x4a d:/altera/15.0.0.130/nios2eds/bin/gnu/h-x86_64-mingw32/bin/../lib/gcc/nios2-elf/4.9.1/../../../../../H-x86_64-mingw32/nios2-elf/lib\libc.a(lib_a-exit.o)
                                        0x561 (size before relaxing)
 .debug_str     0x00000000000035a6       0x42 d:/altera/15.0.0.130/nios2eds/bin/gnu/h-x86_64-mingw32/bin/../lib/gcc/nios2-elf/4.9.1/../../../../../H-x86_64-mingw32/nios2-elf/lib\libc.a(lib_a-memcmp.o)
                                        0x18e (size before relaxing)
 .debug_str     0x00000000000035e8       0x4b d:/altera/15.0.0.130/nios2eds/bin/gnu/h-x86_64-mingw32/bin/../lib/gcc/nios2-elf/4.9.1/../../../../../H-x86_64-mingw32/nios2-elf/lib\libc.a(lib_a-__atexit.o)
                                        0x5ae (size before relaxing)
 .debug_str     0x0000000000003633       0x50 d:/altera/15.0.0.130/nios2eds/bin/gnu/h-x86_64-mingw32/bin/../lib/gcc/nios2-elf/4.9.1/../../../../../H-x86_64-mingw32/nios2-elf/lib\libc.a(lib_a-__call_atexit.o)
                                        0x577 (size before relaxing)
 .debug_str     0x0000000000003683       0x2a ../DECA_TEMP_bsp/\libhal_bsp.a(alt_exit.o)
                                        0x140 (size before relaxing)

.debug_loc      0x0000000000000000    0x179bc
 *(.debug_loc)
 .debug_loc     0x0000000000000000      0x845 d:/altera/15.0.0.130/nios2eds/bin/gnu/h-x86_64-mingw32/bin/../lib/gcc/nios2-elf/4.9.1\libgcc.a(mulsf3.o)
 .debug_loc     0x0000000000000845      0x1bb d:/altera/15.0.0.130/nios2eds/bin/gnu/h-x86_64-mingw32/bin/../lib/gcc/nios2-elf/4.9.1\libgcc.a(floatunsisf.o)
 .debug_loc     0x0000000000000a00      0x27e d:/altera/15.0.0.130/nios2eds/bin/gnu/h-x86_64-mingw32/bin/../lib/gcc/nios2-elf/4.9.1\libgcc.a(extendsfdf2.o)
 .debug_loc     0x0000000000000c7e       0x7a d:/altera/15.0.0.130/nios2eds/bin/gnu/h-x86_64-mingw32/bin/../lib/gcc/nios2-elf/4.9.1\libgcc.a(_clzsi2.o)
 .debug_loc     0x0000000000000cf8       0xd3 d:/altera/15.0.0.130/nios2eds/bin/gnu/h-x86_64-mingw32/bin/../lib/gcc/nios2-elf/4.9.1/../../../../../H-x86_64-mingw32/nios2-elf/lib\libc.a(lib_a-printf.o)
 .debug_loc     0x0000000000000dcb       0xb9 d:/altera/15.0.0.130/nios2eds/bin/gnu/h-x86_64-mingw32/bin/../lib/gcc/nios2-elf/4.9.1/../../../../../H-x86_64-mingw32/nios2-elf/lib\libc.a(lib_a-puts.o)
 .debug_loc     0x0000000000000e84       0x47 d:/altera/15.0.0.130/nios2eds/bin/gnu/h-x86_64-mingw32/bin/../lib/gcc/nios2-elf/4.9.1/../../../../../H-x86_64-mingw32/nios2-elf/lib\libc.a(lib_a-strlen.o)
 .debug_loc     0x0000000000000ecb     0x2d0e d:/altera/15.0.0.130/nios2eds/bin/gnu/h-x86_64-mingw32/bin/../lib/gcc/nios2-elf/4.9.1/../../../../../H-x86_64-mingw32/nios2-elf/lib\libc.a(lib_a-vfprintf.o)
 .debug_loc     0x0000000000003bd9       0x84 d:/altera/15.0.0.130/nios2eds/bin/gnu/h-x86_64-mingw32/bin/../lib/gcc/nios2-elf/4.9.1/../../../../../H-x86_64-mingw32/nios2-elf/lib\libc.a(lib_a-wsetup.o)
 .debug_loc     0x0000000000003c5d     0x299a d:/altera/15.0.0.130/nios2eds/bin/gnu/h-x86_64-mingw32/bin/../lib/gcc/nios2-elf/4.9.1/../../../../../H-x86_64-mingw32/nios2-elf/lib\libc.a(lib_a-dtoa.o)
 .debug_loc     0x00000000000065f7      0x23e d:/altera/15.0.0.130/nios2eds/bin/gnu/h-x86_64-mingw32/bin/../lib/gcc/nios2-elf/4.9.1/../../../../../H-x86_64-mingw32/nios2-elf/lib\libc.a(lib_a-fflush.o)
 .debug_loc     0x0000000000006835      0x208 d:/altera/15.0.0.130/nios2eds/bin/gnu/h-x86_64-mingw32/bin/../lib/gcc/nios2-elf/4.9.1/../../../../../H-x86_64-mingw32/nios2-elf/lib\libc.a(lib_a-findfp.o)
 .debug_loc     0x0000000000006a3d      0x4d3 d:/altera/15.0.0.130/nios2eds/bin/gnu/h-x86_64-mingw32/bin/../lib/gcc/nios2-elf/4.9.1/../../../../../H-x86_64-mingw32/nios2-elf/lib\libc.a(lib_a-freer.o)
 .debug_loc     0x0000000000006f10      0x5ca d:/altera/15.0.0.130/nios2eds/bin/gnu/h-x86_64-mingw32/bin/../lib/gcc/nios2-elf/4.9.1/../../../../../H-x86_64-mingw32/nios2-elf/lib\libc.a(lib_a-fvwrite.o)
 .debug_loc     0x00000000000074da      0x2d4 d:/altera/15.0.0.130/nios2eds/bin/gnu/h-x86_64-mingw32/bin/../lib/gcc/nios2-elf/4.9.1/../../../../../H-x86_64-mingw32/nios2-elf/lib\libc.a(lib_a-fwalk.o)
 .debug_loc     0x00000000000077ae      0x11b d:/altera/15.0.0.130/nios2eds/bin/gnu/h-x86_64-mingw32/bin/../lib/gcc/nios2-elf/4.9.1/../../../../../H-x86_64-mingw32/nios2-elf/lib\libc.a(lib_a-locale.o)
 .debug_loc     0x00000000000078c9      0x132 d:/altera/15.0.0.130/nios2eds/bin/gnu/h-x86_64-mingw32/bin/../lib/gcc/nios2-elf/4.9.1/../../../../../H-x86_64-mingw32/nios2-elf/lib\libc.a(lib_a-makebuf.o)
 .debug_loc     0x00000000000079fb      0xbad d:/altera/15.0.0.130/nios2eds/bin/gnu/h-x86_64-mingw32/bin/../lib/gcc/nios2-elf/4.9.1/../../../../../H-x86_64-mingw32/nios2-elf/lib\libc.a(lib_a-mallocr.o)
 .debug_loc     0x00000000000085a8      0x19f d:/altera/15.0.0.130/nios2eds/bin/gnu/h-x86_64-mingw32/bin/../lib/gcc/nios2-elf/4.9.1/../../../../../H-x86_64-mingw32/nios2-elf/lib\libc.a(lib_a-memchr.o)
 .debug_loc     0x0000000000008747      0x2a2 d:/altera/15.0.0.130/nios2eds/bin/gnu/h-x86_64-mingw32/bin/../lib/gcc/nios2-elf/4.9.1/../../../../../H-x86_64-mingw32/nios2-elf/lib\libc.a(lib_a-memcpy.o)
 .debug_loc     0x00000000000089e9      0x34f d:/altera/15.0.0.130/nios2eds/bin/gnu/h-x86_64-mingw32/bin/../lib/gcc/nios2-elf/4.9.1/../../../../../H-x86_64-mingw32/nios2-elf/lib\libc.a(lib_a-memmove.o)
 .debug_loc     0x0000000000008d38      0x190 d:/altera/15.0.0.130/nios2eds/bin/gnu/h-x86_64-mingw32/bin/../lib/gcc/nios2-elf/4.9.1/../../../../../H-x86_64-mingw32/nios2-elf/lib\libc.a(lib_a-memset.o)
 .debug_loc     0x0000000000008ec8     0x1a3e d:/altera/15.0.0.130/nios2eds/bin/gnu/h-x86_64-mingw32/bin/../lib/gcc/nios2-elf/4.9.1/../../../../../H-x86_64-mingw32/nios2-elf/lib\libc.a(lib_a-mprec.o)
 .debug_loc     0x000000000000a906      0xe5b d:/altera/15.0.0.130/nios2eds/bin/gnu/h-x86_64-mingw32/bin/../lib/gcc/nios2-elf/4.9.1/../../../../../H-x86_64-mingw32/nios2-elf/lib\libc.a(lib_a-reallocr.o)
 .debug_loc     0x000000000000b761       0x2f d:/altera/15.0.0.130/nios2eds/bin/gnu/h-x86_64-mingw32/bin/../lib/gcc/nios2-elf/4.9.1/../../../../../H-x86_64-mingw32/nios2-elf/lib\libc.a(lib_a-s_fpclassify.o)
 .debug_loc     0x000000000000b790       0x58 d:/altera/15.0.0.130/nios2eds/bin/gnu/h-x86_64-mingw32/bin/../lib/gcc/nios2-elf/4.9.1/../../../../../H-x86_64-mingw32/nios2-elf/lib\libc.a(lib_a-sbrkr.o)
 .debug_loc     0x000000000000b7e8      0x319 d:/altera/15.0.0.130/nios2eds/bin/gnu/h-x86_64-mingw32/bin/../lib/gcc/nios2-elf/4.9.1/../../../../../H-x86_64-mingw32/nios2-elf/lib\libc.a(lib_a-stdio.o)
 .debug_loc     0x000000000000bb01       0xb0 d:/altera/15.0.0.130/nios2eds/bin/gnu/h-x86_64-mingw32/bin/../lib/gcc/nios2-elf/4.9.1/../../../../../H-x86_64-mingw32/nios2-elf/lib\libc.a(lib_a-strcmp.o)
 .debug_loc     0x000000000000bbb1     0x2340 d:/altera/15.0.0.130/nios2eds/bin/gnu/h-x86_64-mingw32/bin/../lib/gcc/nios2-elf/4.9.1/../../../../../H-x86_64-mingw32/nios2-elf/lib\libc.a(lib_a-vfiprintf.o)
 .debug_loc     0x000000000000def1       0xb0 d:/altera/15.0.0.130/nios2eds/bin/gnu/h-x86_64-mingw32/bin/../lib/gcc/nios2-elf/4.9.1/../../../../../H-x86_64-mingw32/nios2-elf/lib\libc.a(lib_a-writer.o)
 .debug_loc     0x000000000000dfa1       0x58 d:/altera/15.0.0.130/nios2eds/bin/gnu/h-x86_64-mingw32/bin/../lib/gcc/nios2-elf/4.9.1/../../../../../H-x86_64-mingw32/nios2-elf/lib\libc.a(closer.o)
 .debug_loc     0x000000000000dff9      0x24b d:/altera/15.0.0.130/nios2eds/bin/gnu/h-x86_64-mingw32/bin/../lib/gcc/nios2-elf/4.9.1/../../../../../H-x86_64-mingw32/nios2-elf/lib\libc.a(lib_a-callocr.o)
 .debug_loc     0x000000000000e244      0x12b d:/altera/15.0.0.130/nios2eds/bin/gnu/h-x86_64-mingw32/bin/../lib/gcc/nios2-elf/4.9.1/../../../../../H-x86_64-mingw32/nios2-elf/lib\libc.a(lib_a-fclose.o)
 .debug_loc     0x000000000000e36f      0x223 d:/altera/15.0.0.130/nios2eds/bin/gnu/h-x86_64-mingw32/bin/../lib/gcc/nios2-elf/4.9.1/../../../../../H-x86_64-mingw32/nios2-elf/lib\libc.a(lib_a-fputwc.o)
 .debug_loc     0x000000000000e592       0x84 d:/altera/15.0.0.130/nios2eds/bin/gnu/h-x86_64-mingw32/bin/../lib/gcc/nios2-elf/4.9.1/../../../../../H-x86_64-mingw32/nios2-elf/lib\libc.a(lib_a-fstatr.o)
 .debug_loc     0x000000000000e616       0x58 d:/altera/15.0.0.130/nios2eds/bin/gnu/h-x86_64-mingw32/bin/../lib/gcc/nios2-elf/4.9.1/../../../../../H-x86_64-mingw32/nios2-elf/lib\libc.a(lib_a-isattyr.o)
 .debug_loc     0x000000000000e66e       0xb0 d:/altera/15.0.0.130/nios2eds/bin/gnu/h-x86_64-mingw32/bin/../lib/gcc/nios2-elf/4.9.1/../../../../../H-x86_64-mingw32/nios2-elf/lib\libc.a(lib_a-lseekr.o)
 .debug_loc     0x000000000000e71e       0xb0 d:/altera/15.0.0.130/nios2eds/bin/gnu/h-x86_64-mingw32/bin/../lib/gcc/nios2-elf/4.9.1/../../../../../H-x86_64-mingw32/nios2-elf/lib\libc.a(lib_a-readr.o)
 .debug_loc     0x000000000000e7ce      0x165 d:/altera/15.0.0.130/nios2eds/bin/gnu/h-x86_64-mingw32/bin/../lib/gcc/nios2-elf/4.9.1/../../../../../H-x86_64-mingw32/nios2-elf/lib\libc.a(lib_a-wbuf.o)
 .debug_loc     0x000000000000e933      0x230 d:/altera/15.0.0.130/nios2eds/bin/gnu/h-x86_64-mingw32/bin/../lib/gcc/nios2-elf/4.9.1/../../../../../H-x86_64-mingw32/nios2-elf/lib\libc.a(lib_a-wcrtomb.o)
 .debug_loc     0x000000000000eb63       0x8f d:/altera/15.0.0.130/nios2eds/bin/gnu/h-x86_64-mingw32/bin/../lib/gcc/nios2-elf/4.9.1/../../../../../H-x86_64-mingw32/nios2-elf/lib\libc.a(lib_a-wctomb_r.o)
 .debug_loc     0x000000000000ebf2     0x11a3 d:/altera/15.0.0.130/nios2eds/bin/gnu/h-x86_64-mingw32/bin/../lib/gcc/nios2-elf/4.9.1\libgcc.a(_udivdi3.o)
 .debug_loc     0x000000000000fd95     0x118c d:/altera/15.0.0.130/nios2eds/bin/gnu/h-x86_64-mingw32/bin/../lib/gcc/nios2-elf/4.9.1\libgcc.a(_umoddi3.o)
 .debug_loc     0x0000000000010f21      0x273 d:/altera/15.0.0.130/nios2eds/bin/gnu/h-x86_64-mingw32/bin/../lib/gcc/nios2-elf/4.9.1\libgcc.a(lib2-divmod.o)
 .debug_loc     0x0000000000011194     0x16ec d:/altera/15.0.0.130/nios2eds/bin/gnu/h-x86_64-mingw32/bin/../lib/gcc/nios2-elf/4.9.1\libgcc.a(adddf3.o)
 .debug_loc     0x0000000000012880     0x1f03 d:/altera/15.0.0.130/nios2eds/bin/gnu/h-x86_64-mingw32/bin/../lib/gcc/nios2-elf/4.9.1\libgcc.a(divdf3.o)
 .debug_loc     0x0000000000014783       0x52 d:/altera/15.0.0.130/nios2eds/bin/gnu/h-x86_64-mingw32/bin/../lib/gcc/nios2-elf/4.9.1\libgcc.a(eqdf2.o)
 .debug_loc     0x00000000000147d5      0x109 d:/altera/15.0.0.130/nios2eds/bin/gnu/h-x86_64-mingw32/bin/../lib/gcc/nios2-elf/4.9.1\libgcc.a(gedf2.o)
 .debug_loc     0x00000000000148de       0xfc d:/altera/15.0.0.130/nios2eds/bin/gnu/h-x86_64-mingw32/bin/../lib/gcc/nios2-elf/4.9.1\libgcc.a(ledf2.o)
 .debug_loc     0x00000000000149da     0x107e d:/altera/15.0.0.130/nios2eds/bin/gnu/h-x86_64-mingw32/bin/../lib/gcc/nios2-elf/4.9.1\libgcc.a(muldf3.o)
 .debug_loc     0x0000000000015a58     0x1660 d:/altera/15.0.0.130/nios2eds/bin/gnu/h-x86_64-mingw32/bin/../lib/gcc/nios2-elf/4.9.1\libgcc.a(subdf3.o)
 .debug_loc     0x00000000000170b8      0x136 d:/altera/15.0.0.130/nios2eds/bin/gnu/h-x86_64-mingw32/bin/../lib/gcc/nios2-elf/4.9.1\libgcc.a(fixdfsi.o)
 .debug_loc     0x00000000000171ee      0x17f d:/altera/15.0.0.130/nios2eds/bin/gnu/h-x86_64-mingw32/bin/../lib/gcc/nios2-elf/4.9.1\libgcc.a(floatsidf.o)
 .debug_loc     0x000000000001736d      0x1b4 d:/altera/15.0.0.130/nios2eds/bin/gnu/h-x86_64-mingw32/bin/../lib/gcc/nios2-elf/4.9.1\libgcc.a(floatunsidf.o)
 .debug_loc     0x0000000000017521       0x2c d:/altera/15.0.0.130/nios2eds/bin/gnu/h-x86_64-mingw32/bin/../lib/gcc/nios2-elf/4.9.1/../../../../../H-x86_64-mingw32/nios2-elf/lib\libc.a(lib_a-atexit.o)
 .debug_loc     0x000000000001754d       0x1e d:/altera/15.0.0.130/nios2eds/bin/gnu/h-x86_64-mingw32/bin/../lib/gcc/nios2-elf/4.9.1/../../../../../H-x86_64-mingw32/nios2-elf/lib\libc.a(lib_a-exit.o)
 .debug_loc     0x000000000001756b      0x126 d:/altera/15.0.0.130/nios2eds/bin/gnu/h-x86_64-mingw32/bin/../lib/gcc/nios2-elf/4.9.1/../../../../../H-x86_64-mingw32/nios2-elf/lib\libc.a(lib_a-memcmp.o)
 .debug_loc     0x0000000000017691      0x185 d:/altera/15.0.0.130/nios2eds/bin/gnu/h-x86_64-mingw32/bin/../lib/gcc/nios2-elf/4.9.1/../../../../../H-x86_64-mingw32/nios2-elf/lib\libc.a(lib_a-__atexit.o)
 .debug_loc     0x0000000000017816      0x1a6 d:/altera/15.0.0.130/nios2eds/bin/gnu/h-x86_64-mingw32/bin/../lib/gcc/nios2-elf/4.9.1/../../../../../H-x86_64-mingw32/nios2-elf/lib\libc.a(lib_a-__call_atexit.o)

.debug_macinfo
 *(.debug_macinfo)

.debug_weaknames
 *(.debug_weaknames)

.debug_funcnames
 *(.debug_funcnames)

.debug_typenames
 *(.debug_typenames)

.debug_varnames
 *(.debug_varnames)

.debug_alt_sim_info
                0x0000000000000000       0x60
 *(.debug_alt_sim_info)
 .debug_alt_sim_info
                0x0000000000000000       0x30 ../DECA_TEMP_bsp//obj/HAL/src/crt0.o
 .debug_alt_sim_info
                0x0000000000000030       0x30 ../DECA_TEMP_bsp/\libhal_bsp.a(alt_busy_sleep.o)
                0x0000000001060000                __alt_data_end = 0x1060000
                0x0000000001060000                PROVIDE (__alt_stack_pointer, __alt_data_end)
                0x00000000010531c8                PROVIDE (__alt_stack_limit, __alt_stack_base)
                0x00000000010531c8                PROVIDE (__alt_heap_start, end)
                0x0000000001060000                PROVIDE (__alt_heap_limit, 0x1060000)
OUTPUT(DECA_TEMP.elf elf32-littlenios2)

.debug_ranges   0x0000000000000000     0x1458
 .debug_ranges  0x0000000000000000       0x20 ../DECA_TEMP_bsp//obj/HAL/src/crt0.o
 .debug_ranges  0x0000000000000020       0x60 d:/altera/15.0.0.130/nios2eds/bin/gnu/h-x86_64-mingw32/bin/../lib/gcc/nios2-elf/4.9.1\libgcc.a(mulsf3.o)
 .debug_ranges  0x0000000000000080       0x30 d:/altera/15.0.0.130/nios2eds/bin/gnu/h-x86_64-mingw32/bin/../lib/gcc/nios2-elf/4.9.1\libgcc.a(floatunsisf.o)
 .debug_ranges  0x00000000000000b0       0x48 d:/altera/15.0.0.130/nios2eds/bin/gnu/h-x86_64-mingw32/bin/../lib/gcc/nios2-elf/4.9.1\libgcc.a(extendsfdf2.o)
 .debug_ranges  0x00000000000000f8       0x18 d:/altera/15.0.0.130/nios2eds/bin/gnu/h-x86_64-mingw32/bin/../lib/gcc/nios2-elf/4.9.1\libgcc.a(_clzsi2.o)
 .debug_ranges  0x0000000000000110      0x130 d:/altera/15.0.0.130/nios2eds/bin/gnu/h-x86_64-mingw32/bin/../lib/gcc/nios2-elf/4.9.1/../../../../../H-x86_64-mingw32/nios2-elf/lib\libc.a(lib_a-vfprintf.o)
 .debug_ranges  0x0000000000000240       0x20 d:/altera/15.0.0.130/nios2eds/bin/gnu/h-x86_64-mingw32/bin/../lib/gcc/nios2-elf/4.9.1/../../../../../H-x86_64-mingw32/nios2-elf/lib\libc.a(lib_a-fflush.o)
 .debug_ranges  0x0000000000000260       0x68 d:/altera/15.0.0.130/nios2eds/bin/gnu/h-x86_64-mingw32/bin/../lib/gcc/nios2-elf/4.9.1/../../../../../H-x86_64-mingw32/nios2-elf/lib\libc.a(lib_a-findfp.o)
 .debug_ranges  0x00000000000002c8       0x18 d:/altera/15.0.0.130/nios2eds/bin/gnu/h-x86_64-mingw32/bin/../lib/gcc/nios2-elf/4.9.1/../../../../../H-x86_64-mingw32/nios2-elf/lib\libc.a(lib_a-fvwrite.o)
 .debug_ranges  0x00000000000002e0       0x40 d:/altera/15.0.0.130/nios2eds/bin/gnu/h-x86_64-mingw32/bin/../lib/gcc/nios2-elf/4.9.1/../../../../../H-x86_64-mingw32/nios2-elf/lib\libc.a(lib_a-fwalk.o)
 .debug_ranges  0x0000000000000320       0x18 d:/altera/15.0.0.130/nios2eds/bin/gnu/h-x86_64-mingw32/bin/../lib/gcc/nios2-elf/4.9.1/../../../../../H-x86_64-mingw32/nios2-elf/lib\libc.a(lib_a-locale.o)
 .debug_ranges  0x0000000000000338       0x38 d:/altera/15.0.0.130/nios2eds/bin/gnu/h-x86_64-mingw32/bin/../lib/gcc/nios2-elf/4.9.1/../../../../../H-x86_64-mingw32/nios2-elf/lib\libc.a(lib_a-mallocr.o)
 .debug_ranges  0x0000000000000370       0x50 d:/altera/15.0.0.130/nios2eds/bin/gnu/h-x86_64-mingw32/bin/../lib/gcc/nios2-elf/4.9.1/../../../../../H-x86_64-mingw32/nios2-elf/lib\libc.a(lib_a-mprec.o)
 .debug_ranges  0x00000000000003c0      0x140 d:/altera/15.0.0.130/nios2eds/bin/gnu/h-x86_64-mingw32/bin/../lib/gcc/nios2-elf/4.9.1/../../../../../H-x86_64-mingw32/nios2-elf/lib\libc.a(lib_a-reallocr.o)
 .debug_ranges  0x0000000000000500      0x1c0 d:/altera/15.0.0.130/nios2eds/bin/gnu/h-x86_64-mingw32/bin/../lib/gcc/nios2-elf/4.9.1/../../../../../H-x86_64-mingw32/nios2-elf/lib\libc.a(lib_a-vfiprintf.o)
 .debug_ranges  0x00000000000006c0       0x48 d:/altera/15.0.0.130/nios2eds/bin/gnu/h-x86_64-mingw32/bin/../lib/gcc/nios2-elf/4.9.1/../../../../../H-x86_64-mingw32/nios2-elf/lib\libc.a(lib_a-callocr.o)
 .debug_ranges  0x0000000000000708       0x18 d:/altera/15.0.0.130/nios2eds/bin/gnu/h-x86_64-mingw32/bin/../lib/gcc/nios2-elf/4.9.1/../../../../../H-x86_64-mingw32/nios2-elf/lib\libc.a(lib_a-fclose.o)
 .debug_ranges  0x0000000000000720       0x18 d:/altera/15.0.0.130/nios2eds/bin/gnu/h-x86_64-mingw32/bin/../lib/gcc/nios2-elf/4.9.1/../../../../../H-x86_64-mingw32/nios2-elf/lib\libc.a(lib_a-fputwc.o)
 .debug_ranges  0x0000000000000738      0x170 d:/altera/15.0.0.130/nios2eds/bin/gnu/h-x86_64-mingw32/bin/../lib/gcc/nios2-elf/4.9.1\libgcc.a(_udivdi3.o)
 .debug_ranges  0x00000000000008a8      0x150 d:/altera/15.0.0.130/nios2eds/bin/gnu/h-x86_64-mingw32/bin/../lib/gcc/nios2-elf/4.9.1\libgcc.a(_umoddi3.o)
 .debug_ranges  0x00000000000009f8      0x238 d:/altera/15.0.0.130/nios2eds/bin/gnu/h-x86_64-mingw32/bin/../lib/gcc/nios2-elf/4.9.1\libgcc.a(adddf3.o)
 .debug_ranges  0x0000000000000c30      0x140 d:/altera/15.0.0.130/nios2eds/bin/gnu/h-x86_64-mingw32/bin/../lib/gcc/nios2-elf/4.9.1\libgcc.a(divdf3.o)
 .debug_ranges  0x0000000000000d70       0x48 d:/altera/15.0.0.130/nios2eds/bin/gnu/h-x86_64-mingw32/bin/../lib/gcc/nios2-elf/4.9.1\libgcc.a(eqdf2.o)
 .debug_ranges  0x0000000000000db8       0x90 d:/altera/15.0.0.130/nios2eds/bin/gnu/h-x86_64-mingw32/bin/../lib/gcc/nios2-elf/4.9.1\libgcc.a(gedf2.o)
 .debug_ranges  0x0000000000000e48       0x88 d:/altera/15.0.0.130/nios2eds/bin/gnu/h-x86_64-mingw32/bin/../lib/gcc/nios2-elf/4.9.1\libgcc.a(ledf2.o)
 .debug_ranges  0x0000000000000ed0      0x218 d:/altera/15.0.0.130/nios2eds/bin/gnu/h-x86_64-mingw32/bin/../lib/gcc/nios2-elf/4.9.1\libgcc.a(muldf3.o)
 .debug_ranges  0x00000000000010e8      0x258 d:/altera/15.0.0.130/nios2eds/bin/gnu/h-x86_64-mingw32/bin/../lib/gcc/nios2-elf/4.9.1\libgcc.a(subdf3.o)
 .debug_ranges  0x0000000000001340       0x38 d:/altera/15.0.0.130/nios2eds/bin/gnu/h-x86_64-mingw32/bin/../lib/gcc/nios2-elf/4.9.1\libgcc.a(fixdfsi.o)
 .debug_ranges  0x0000000000001378       0x30 d:/altera/15.0.0.130/nios2eds/bin/gnu/h-x86_64-mingw32/bin/../lib/gcc/nios2-elf/4.9.1\libgcc.a(floatsidf.o)
 .debug_ranges  0x00000000000013a8       0x18 d:/altera/15.0.0.130/nios2eds/bin/gnu/h-x86_64-mingw32/bin/../lib/gcc/nios2-elf/4.9.1\libgcc.a(floatunsidf.o)
 .debug_ranges  0x00000000000013c0       0x28 ../DECA_TEMP_bsp/\libhal_bsp.a(alt_irq_entry.o)
 .debug_ranges  0x00000000000013e8       0x10 ../DECA_TEMP_bsp/\libhal_bsp.a(alt_irq_handler.o)
 .debug_ranges  0x00000000000013f8       0x30 ../DECA_TEMP_bsp/\libhal_bsp.a(alt_exception_entry.o)
 .debug_ranges  0x0000000000001428       0x18 ../DECA_TEMP_bsp/\libhal_bsp.a(alt_instruction_exception_entry.o)
 .debug_ranges  0x0000000000001440       0x18 d:/altera/15.0.0.130/nios2eds/bin/gnu/h-x86_64-mingw32/bin/../lib/gcc/nios2-elf/4.9.1/../../../../../H-x86_64-mingw32/nios2-elf/lib\libc.a(lib_a-__call_atexit.o)
