
HDMI_TX.elf:     file format elf32-littlenios2
HDMI_TX.elf
architecture: nios2:r1, flags 0x00000112:
EXEC_P, HAS_SYMS, D_PAGED
start address 0x00040240

Program Header:
    LOAD off    0x00001000 vaddr 0x00040000 paddr 0x00040000 align 2**12
         filesz 0x00000020 memsz 0x00000020 flags r-x
    LOAD off    0x00001020 vaddr 0x00040020 paddr 0x00040020 align 2**12
         filesz 0x0001b174 memsz 0x0001b174 flags r-x
    LOAD off    0x0001c194 vaddr 0x0005b194 paddr 0x0005cd00 align 2**12
         filesz 0x00001b6c memsz 0x00001b6c flags rw-
    LOAD off    0x0001e86c vaddr 0x0005e86c paddr 0x0005e86c align 2**12
         filesz 0x00000000 memsz 0x00000260 flags rw-

Sections:
Idx Name          Size      VMA       LMA       File off  Algn
  0 .entry        00000020  00040000  00040000  00001000  2**5
                  CONTENTS, ALLOC, LOAD, READONLY, CODE
  1 .exceptions   00000220  00040020  00040020  00001020  2**2
                  CONTENTS, ALLOC, LOAD, READONLY, CODE
  2 .text         00016f84  00040240  00040240  00001240  2**2
                  CONTENTS, ALLOC, LOAD, READONLY, CODE
  3 .rodata       00003fd0  000571c4  000571c4  000181c4  2**2
                  CONTENTS, ALLOC, LOAD, READONLY, DATA
  4 .rwdata       00001b6c  0005b194  0005cd00  0001c194  2**2
                  CONTENTS, ALLOC, LOAD, DATA, SMALL_DATA
  5 .bss          00000260  0005e86c  0005e86c  0001e86c  2**2
                  ALLOC, SMALL_DATA
  6 .onchip_memory2 00000000  0005eacc  0005eacc  0001dd00  2**0
                  CONTENTS
  7 .comment      00000023  00000000  00000000  0001dd00  2**0
                  CONTENTS, READONLY
  8 .debug_aranges 00000f30  00000000  00000000  0001dd28  2**3
                  CONTENTS, READONLY, DEBUGGING
  9 .debug_info   0003012a  00000000  00000000  0001ec58  2**0
                  CONTENTS, READONLY, DEBUGGING
 10 .debug_abbrev 0000aeb3  00000000  00000000  0004ed82  2**0
                  CONTENTS, READONLY, DEBUGGING
 11 .debug_line   0000d8f7  00000000  00000000  00059c35  2**0
                  CONTENTS, READONLY, DEBUGGING
 12 .debug_frame  00002a9c  00000000  00000000  0006752c  2**2
                  CONTENTS, READONLY, DEBUGGING
 13 .debug_str    00005789  00000000  00000000  00069fc8  2**0
                  CONTENTS, READONLY, DEBUGGING
 14 .debug_loc    0001ca4c  00000000  00000000  0006f751  2**0
                  CONTENTS, READONLY, DEBUGGING
 15 .debug_alt_sim_info 00000060  00000000  00000000  0008c1a0  2**2
                  CONTENTS, READONLY, DEBUGGING
 16 .debug_ranges 000017d0  00000000  00000000  0008c200  2**3
                  CONTENTS, READONLY, DEBUGGING
 17 .thread_model 00000003  00000000  00000000  0009147b  2**0
                  CONTENTS, READONLY
 18 .cpu          0000000a  00000000  00000000  0009147e  2**0
                  CONTENTS, READONLY
 19 .qsys         00000001  00000000  00000000  00091488  2**0
                  CONTENTS, READONLY
 20 .simulation_enabled 00000001  00000000  00000000  00091489  2**0
                  CONTENTS, READONLY
 21 .sysid_hash   00000004  00000000  00000000  0009148a  2**0
                  CONTENTS, READONLY
 22 .sysid_base   00000004  00000000  00000000  0009148e  2**0
                  CONTENTS, READONLY
 23 .sysid_time   00000004  00000000  00000000  00091492  2**0
                  CONTENTS, READONLY
 24 .stderr_dev   00000009  00000000  00000000  00091496  2**0
                  CONTENTS, READONLY
 25 .stdin_dev    00000009  00000000  00000000  0009149f  2**0
                  CONTENTS, READONLY
 26 .stdout_dev   00000009  00000000  00000000  000914a8  2**0
                  CONTENTS, READONLY
 27 .sopc_system_name 0000000b  00000000  00000000  000914b1  2**0
                  CONTENTS, READONLY
 28 .quartus_project_dir 00000031  00000000  00000000  000914bc  2**0
                  CONTENTS, READONLY
 29 .jdi          00004065  00000000  00000000  000914ed  2**0
                  CONTENTS, READONLY
 30 .sopcinfo     00049a0c  00000000  00000000  00095552  2**0
                  CONTENTS, READONLY
SYMBOL TABLE:
00040000 l    d  .entry	00000000 .entry
00040020 l    d  .exceptions	00000000 .exceptions
00040240 l    d  .text	00000000 .text
000571c4 l    d  .rodata	00000000 .rodata
0005b194 l    d  .rwdata	00000000 .rwdata
0005e86c l    d  .bss	00000000 .bss
0005eacc l    d  .onchip_memory2	00000000 .onchip_memory2
00000000 l    d  .comment	00000000 .comment
00000000 l    d  .debug_aranges	00000000 .debug_aranges
00000000 l    d  .debug_info	00000000 .debug_info
00000000 l    d  .debug_abbrev	00000000 .debug_abbrev
00000000 l    d  .debug_line	00000000 .debug_line
00000000 l    d  .debug_frame	00000000 .debug_frame
00000000 l    d  .debug_str	00000000 .debug_str
00000000 l    d  .debug_loc	00000000 .debug_loc
00000000 l    d  .debug_alt_sim_info	00000000 .debug_alt_sim_info
00000000 l    d  .debug_ranges	00000000 .debug_ranges
00000000 l    df *ABS*	00000000 ../HDMI_TX_bsp//obj/HAL/src/crt0.o
00040288 l       .text	00000000 alt_after_alt_main
00000000 l    df *ABS*	00000000 alt_irq_handler.c
00000000 l    df *ABS*	00000000 alt_instruction_exception_entry.c
00000000 l    df *ABS*	00000000 adv7513.c
0004028c l     F .text	000000c0 adv7513_video_out_format.constprop.3
000578a0 l     O .rodata	000000f0 vic_table.3844
00000000 l    df *ABS*	00000000 edid.c
00040fec l     F .text	0000003c eb_establish_timing
0005a374 l     O .rodata	00000040 sad_format.4126
0005a284 l     O .rodata	000000f0 vic_table.4141
0005ccb4 l     O .rwdata	00000008 header.4237
00000000 l    df *ABS*	00000000 encoder.c
00000000 l    df *ABS*	00000000 i2c.c
00000000 l    df *ABS*	00000000 main.c
00046128 l     F .text	00000244 adv7513_int_handler
0004636c l     F .text	000000fc bin_dump.constprop.0
00000000 l    df *ABS*	00000000 lib2-divmod.c
00046c98 l     F .text	0000006c udivmodsi4
00000000 l    df *ABS*	00000000 addsf3.c
00000000 l    df *ABS*	00000000 divsf3.c
00000000 l    df *ABS*	00000000 mulsf3.c
00000000 l    df *ABS*	00000000 floatunsisf.c
00000000 l    df *ABS*	00000000 extendsfdf2.c
00000000 l    df *ABS*	00000000 libgcc2.c
00000000 l    df *ABS*	00000000 libgcc2.c
00000000 l    df *ABS*	00000000 fgets.c
00000000 l    df *ABS*	00000000 findfp.c
00047f14 l     F .text	00000008 __fp_lock
00047f1c l     F .text	00000008 __fp_unlock
00047f30 l     F .text	000001a0 __sinit.part.1
00000000 l    df *ABS*	00000000 fwalk.c
00000000 l    df *ABS*	00000000 impure.c
0005b208 l     O .rwdata	00000424 impure_data
00000000 l    df *ABS*	00000000 mallocr.c
00000000 l    df *ABS*	00000000 memchr.c
00000000 l    df *ABS*	00000000 memcmp.c
00000000 l    df *ABS*	00000000 memcpy.c
00000000 l    df *ABS*	00000000 memset.c
00000000 l    df *ABS*	00000000 printf.c
00000000 l    df *ABS*	00000000 putchar.c
00000000 l    df *ABS*	00000000 puts.c
00000000 l    df *ABS*	00000000 refill.c
000490e0 l     F .text	0000001c lflush
00000000 l    df *ABS*	00000000 sbrkr.c
00000000 l    df *ABS*	00000000 stdio.c
00000000 l    df *ABS*	00000000 strlen.c
00000000 l    df *ABS*	00000000 strncpy.c
00000000 l    df *ABS*	00000000 strtoul.c
00000000 l    df *ABS*	00000000 vfprintf.c
0005ad6b l     O .rodata	00000010 zeroes.4181
0005ad7b l     O .rodata	00000010 blanks.4180
00000000 l    df *ABS*	00000000 writer.c
00000000 l    df *ABS*	00000000 wsetup.c
00000000 l    df *ABS*	00000000 closer.c
00000000 l    df *ABS*	00000000 ctype_.c
0005ae8c l     O .rodata	00000180 _ctype_b
00000000 l    df *ABS*	00000000 dtoa.c
0004ba64 l     F .text	00000200 quorem
00000000 l    df *ABS*	00000000 fclose.c
00000000 l    df *ABS*	00000000 fflush.c
00000000 l    df *ABS*	00000000 mallocr.c
00000000 l    df *ABS*	00000000 fvwrite.c
00000000 l    df *ABS*	00000000 int_errno.c
00000000 l    df *ABS*	00000000 locale.c
0005ba54 l     O .rwdata	00000020 lc_ctype_charset
0005ba34 l     O .rwdata	00000020 lc_message_charset
0005ba74 l     O .rwdata	00000038 lconv
00000000 l    df *ABS*	00000000 lseekr.c
00000000 l    df *ABS*	00000000 makebuf.c
00000000 l    df *ABS*	00000000 memmove.c
00000000 l    df *ABS*	00000000 mprec.c
0005b024 l     O .rodata	0000000c p05.2678
00000000 l    df *ABS*	00000000 putc.c
00000000 l    df *ABS*	00000000 readr.c
00000000 l    df *ABS*	00000000 mallocr.c
00000000 l    df *ABS*	00000000 s_fpclassify.c
00000000 l    df *ABS*	00000000 strcmp.c
00000000 l    df *ABS*	00000000 vfprintf.c
0004fc08 l     F .text	000000fc __sprint_r.part.0
0005b158 l     O .rodata	00000010 blanks.4125
0005b148 l     O .rodata	00000010 zeroes.4126
00000000 l    df *ABS*	00000000 wbuf.c
00000000 l    df *ABS*	00000000 mallocr.c
00000000 l    df *ABS*	00000000 fputwc.c
00000000 l    df *ABS*	00000000 fstatr.c
00000000 l    df *ABS*	00000000 isattyr.c
00000000 l    df *ABS*	00000000 wcrtomb.c
00000000 l    df *ABS*	00000000 wctomb_r.c
00000000 l    df *ABS*	00000000 libgcc2.c
00000000 l    df *ABS*	00000000 libgcc2.c
00000000 l    df *ABS*	00000000 adddf3.c
00000000 l    df *ABS*	00000000 divdf3.c
00000000 l    df *ABS*	00000000 eqdf2.c
00000000 l    df *ABS*	00000000 gedf2.c
00000000 l    df *ABS*	00000000 ledf2.c
00000000 l    df *ABS*	00000000 muldf3.c
00000000 l    df *ABS*	00000000 subdf3.c
00000000 l    df *ABS*	00000000 fixdfsi.c
00000000 l    df *ABS*	00000000 floatsidf.c
00000000 l    df *ABS*	00000000 floatunsidf.c
00000000 l    df *ABS*	00000000 alt_close.c
00054844 l     F .text	00000050 alt_get_errno
00000000 l    df *ABS*	00000000 alt_dev.c
00054964 l     F .text	0000002c alt_dev_null_write
00000000 l    df *ABS*	00000000 alt_errno.c
00000000 l    df *ABS*	00000000 alt_fstat.c
00054990 l     F .text	00000050 alt_get_errno
00000000 l    df *ABS*	00000000 alt_iic.c
00000000 l    df *ABS*	00000000 alt_iic_isr_register.c
00000000 l    df *ABS*	00000000 alt_irq_vars.c
00000000 l    df *ABS*	00000000 alt_isatty.c
00054d60 l     F .text	00000050 alt_get_errno
00000000 l    df *ABS*	00000000 alt_load.c
00054e54 l     F .text	00000064 alt_load_section
00000000 l    df *ABS*	00000000 alt_lseek.c
00054f38 l     F .text	00000050 alt_get_errno
00000000 l    df *ABS*	00000000 alt_main.c
00000000 l    df *ABS*	00000000 alt_malloc_lock.c
00000000 l    df *ABS*	00000000 alt_read.c
00055114 l     F .text	00000050 alt_get_errno
00000000 l    df *ABS*	00000000 alt_release_fd.c
00000000 l    df *ABS*	00000000 alt_sbrk.c
0005ccf4 l     O .rwdata	00000004 heap_end
00000000 l    df *ABS*	00000000 alt_usleep.c
00000000 l    df *ABS*	00000000 alt_write.c
000553a0 l     F .text	00000050 alt_get_errno
00000000 l    df *ABS*	00000000 alt_sys_init.c
000554e8 l     F .text	00000038 alt_dev_reg
0005bc54 l     O .rwdata	00001060 jtag_uart
00000000 l    df *ABS*	00000000 altera_avalon_jtag_uart_fd.c
00000000 l    df *ABS*	00000000 altera_avalon_jtag_uart_init.c
000557dc l     F .text	00000204 altera_avalon_jtag_uart_irq
000559e0 l     F .text	000000a8 altera_avalon_jtag_uart_timeout
00000000 l    df *ABS*	00000000 altera_avalon_jtag_uart_ioctl.c
00000000 l    df *ABS*	00000000 altera_avalon_jtag_uart_read.c
00000000 l    df *ABS*	00000000 altera_avalon_jtag_uart_write.c
00000000 l    df *ABS*	00000000 altera_avalon_timer_sc.c
00056000 l     F .text	00000074 alt_avalon_timer_sc_irq
00000000 l    df *ABS*	00000000 alt_alarm_start.c
00000000 l    df *ABS*	00000000 alt_busy_sleep.c
00000000 l    df *ABS*	00000000 alt_dcache_flush_all.c
00000000 l    df *ABS*	00000000 alt_dev_llist_insert.c
000563d8 l     F .text	00000050 alt_get_errno
00000000 l    df *ABS*	00000000 alt_do_ctors.c
00000000 l    df *ABS*	00000000 alt_do_dtors.c
00000000 l    df *ABS*	00000000 alt_icache_flush_all.c
00000000 l    df *ABS*	00000000 alt_io_redirect.c
00056650 l     F .text	000000c0 alt_open_fd
00000000 l    df *ABS*	00000000 alt_open.c
00056788 l     F .text	00000050 alt_get_errno
000567d8 l     F .text	000000cc alt_file_locked
00000000 l    df *ABS*	00000000 alt_tick.c
00000000 l    df *ABS*	00000000 altera_nios2_gen2_irq.c
00000000 l    df *ABS*	00000000 alt_find_dev.c
00000000 l    df *ABS*	00000000 alt_find_file.c
00000000 l    df *ABS*	00000000 alt_get_fd.c
00000000 l    df *ABS*	00000000 alt_icache_flush.c
00000000 l    df *ABS*	00000000 atexit.c
00000000 l    df *ABS*	00000000 exit.c
00000000 l    df *ABS*	00000000 __atexit.c
00000000 l    df *ABS*	00000000 __call_atexit.c
00000000 l    df *ABS*	00000000 alt_exit.c
0005e898 g     O .bss	00000004 alt_instruction_exception_handler
00048ffc g     F .text	00000018 putchar
0004f214 g     F .text	00000074 _mprec_log10
00045cac g     F .text	000000d4 I2C_Read
0004f300 g     F .text	0000008c __any_on
00051504 g     F .text	00000054 _isatty_r
0005b030 g     O .rodata	00000028 __mprec_tinytens
0005505c g     F .text	00000078 alt_main
00049014 g     F .text	000000b8 _puts_r
0005e9cc g     O .bss	00000100 alt_irq
0004e090 g     F .text	0000005c _lseek_r
0005cd00 g       *ABS*	00000000 __flash_rwdata_start
00053410 g     F .text	00000084 .hidden __eqdf2
0005eacc g       *ABS*	00000000 __alt_heap_start
00048fb8 g     F .text	0000003c printf
00051558 g     F .text	0000009c _wcrtomb_r
00040774 g     F .text	00000094 adv7513_edid_read
000493d0 g     F .text	0000005c __sseek
00048264 g     F .text	00000010 __sinit
0005109c g     F .text	00000154 __swbuf_r
0004dfb0 g     F .text	0000007c _setlocale_r
000480d0 g     F .text	00000064 __sfmoreglue
000550f4 g     F .text	00000020 __malloc_unlock
000472a4 g     F .text	00000450 .hidden __divsf3
0004e2a4 g     F .text	0000015c memmove
0004824c g     F .text	00000018 _cleanup
0004e400 g     F .text	000000a8 _Balloc
00040400 g     F .text	000000b0 adv7513_hpd_probe
00053494 g     F .text	000000e0 .hidden __gtdf2
00056b98 g     F .text	00000020 altera_nios2_gen2_irq_init
00000000  w      *UND*	00000000 __errno
0004034c g     F .text	000000b4 adv7513_chip_identify
00045a14 g     F .text	000000e0 i2c_write
00040000 g     F .entry	0000001c __reset
00040020 g       *ABS*	00000000 __flash_exceptions_start
000514ac g     F .text	00000058 _fstat_r
0005e878 g     O .bss	00000004 errno
0004934c g     F .text	00000008 __seofread
0005e890 g     O .bss	00000004 alt_argv
00064cb4 g       *ABS*	00000000 _gp
00055370 g     F .text	00000030 usleep
00047ef0 g     F .text	00000024 fgets
0005bad4 g     O .rwdata	00000180 alt_fd_list
00048ff4 g     F .text	00000008 _putchar_r
00056bb8 g     F .text	00000090 alt_find_dev
00048d30 g     F .text	00000138 memcpy
000406b8 g     F .text	00000048 adv7513_power_state
00047f24 g     F .text	0000000c _cleanup_r
000546d0 g     F .text	000000d0 .hidden __floatsidf
00056710 g     F .text	00000078 alt_io_redirect
00053574 g     F .text	000000e0 .hidden __ltdf2
000571c4 g       *ABS*	00000000 __DTOR_END__
000490cc g     F .text	00000014 puts
000565b4 g     F .text	0000009c alt_exception_cause_generated_bad_addr
0004faf0 g     F .text	00000074 __fpclassifyd
0004f170 g     F .text	000000a4 __ratio
00051078 g     F .text	00000024 __vfiprintf_internal
00055bdc g     F .text	0000020c altera_avalon_jtag_uart_read
00000000  w      *UND*	00000000 malloc
00048f8c g     F .text	0000002c _printf_r
00046db4 g     F .text	00000008 .hidden __udivsi3
00054db0 g     F .text	000000a4 isatty
0005b080 g     O .rodata	000000c8 __mprec_tens
0004e02c g     F .text	0000000c __locale_charset
00056e10 g     F .text	0000008c alt_icache_flush
00045d80 g     F .text	000000f4 I2C_MultipleRead
0005e874 g     O .bss	00000004 __malloc_top_pad
00049840 g     F .text	00000024 strtoul
0005ccd0 g     O .rwdata	00000004 __mb_cur_max
0004e05c g     F .text	0000000c _localeconv_r
0004e800 g     F .text	0000003c __i2b
0004db0c g     F .text	000004a4 __sfvwrite_r
0005b194 g     O .rwdata	00000074 encoder
000492a4 g     F .text	00000054 _sbrk_r
0004f4f4 g     F .text	0000005c _read_r
0005cce8 g     O .rwdata	00000004 alt_max_fd
0004d38c g     F .text	00000100 _fclose_r
0004d6c8 g     F .text	00000030 fflush
0005e870 g     O .bss	00000004 __malloc_max_sbrked_mem
00045f3c g     F .text	000000e8 I2CL_Read
00047c28 g     F .text	00000110 .hidden __extendsfdf2
0004068c g     F .text	0000002c adv7513_do_hpd_powerdown
000522a8 g     F .text	0000089c .hidden __adddf3
0004ef18 g     F .text	0000011c __b2d
00051d18 g     F .text	00000590 .hidden __umoddi3
00054f88 g     F .text	000000d4 lseek
0005ccbc g     O .rwdata	00000004 _global_impure_ptr
0004f550 g     F .text	000005a0 _realloc_r
0005eacc g       *ABS*	00000000 __bss_end
00054c70 g     F .text	000000f0 alt_iic_isr_register
00056a94 g     F .text	00000104 alt_tick
000404b0 g     F .text	000000e8 adv7513_do_hpd_powerup
00042bf4 g     F .text	00000084 edid_decode_extensions
00051758 g     F .text	000005c0 .hidden __udivdi3
000512d0 g     F .text	00000184 _fputwc_r
0005b058 g     O .rodata	00000028 __mprec_bigtens
0004e5e4 g     F .text	00000104 __s2b
000547a0 g     F .text	000000a4 .hidden __floatunsidf
0004ecc0 g     F .text	00000060 __mcmp
00048284 g     F .text	00000018 __fp_lock_all
00054c24 g     F .text	0000004c alt_ic_irq_enabled
00045af4 g     F .text	000000b0 I2C_Write
0005e8cc g     O .bss	00000100 edid
000569fc g     F .text	00000098 alt_alarm_stop
0005e888 g     O .bss	00000004 alt_irq_active
000400fc g     F .exceptions	000000d0 alt_irq_handler
0005baac g     O .rwdata	00000028 alt_dev_null
00045960 g     F .text	0000006c i2c_start
00056394 g     F .text	00000044 alt_dcache_flush_all
0004e6e8 g     F .text	00000068 __hi0bits
00054648 g     F .text	00000088 .hidden __fixdfsi
0005cd00 g       *ABS*	00000000 __ram_rwdata_end
0005cce0 g     O .rwdata	00000008 alt_dev_list
000553f0 g     F .text	000000f8 write
0004f38c g     F .text	000000a0 _putc_r
0005b194 g       *ABS*	00000000 __ram_rodata_end
000549e0 g     F .text	000000b0 fstat
00053574 g     F .text	000000e0 .hidden __ledf2
0004ea38 g     F .text	00000140 __pow5mult
0004fd1c g     F .text	0000135c ___vfiprintf_internal_r
0005e884 g     O .bss	00000004 __nlocale_changed
00046dbc g     F .text	00000008 .hidden __umodsi3
0005eacc g       *ABS*	00000000 end
00055718 g     F .text	000000c4 altera_avalon_jtag_uart_init
000401cc g     F .exceptions	00000074 alt_instruction_exception_entry
000571c4 g       *ABS*	00000000 __CTOR_LIST__
00067100 g       *ABS*	00000000 __alt_stack_pointer
00056074 g     F .text	00000088 alt_avalon_timer_sc_init
00047d38 g     F .text	00000064 .hidden __clzsi2
00055de8 g     F .text	00000218 altera_avalon_jtag_uart_write
00048274 g     F .text	00000004 __sfp_lock_acquire
00048bcc g     F .text	000000e8 memchr
00049864 g     F .text	00001ffc ___vfprintf_internal_r
0004d81c g     F .text	000002f0 _free_r
00040808 g     F .text	00000080 adv7513_regmap_dump
0004e038 g     F .text	00000010 __locale_mb_cur_max
00056ffc g     F .text	00000194 __call_exitprocs
0005e880 g     O .bss	00000004 __mlocale_changed
0005ccc4 g     O .rwdata	00000004 __malloc_sbrk_base
00040240 g     F .text	0000004c _start
0005e89c g     O .bss	00000004 _alt_tick_rate
0004eb78 g     F .text	00000148 __lshift
0005e8a0 g     O .bss	00000004 _alt_nticks
00055164 g     F .text	000000fc read
00055554 g     F .text	00000060 alt_sys_init
00056ee8 g     F .text	00000114 __register_exitproc
00041c50 g     F .text	00000fa4 edid_print_cea
000456d4 g     F .text	00000040 reg_read
0004e83c g     F .text	000001fc __multiply
00055a88 g     F .text	00000068 altera_avalon_jtag_uart_close
0005b194 g       *ABS*	00000000 __ram_rwdata_start
000571c4 g       *ABS*	00000000 __ram_rodata_start
000494cc g     F .text	000000ec strncpy
0005e8a4 g     O .bss	00000028 __malloc_current_mallinfo
0004f034 g     F .text	0000013c __d2b
000555b4 g     F .text	00000060 altera_avalon_jtag_uart_read_fd
000495b8 g     F .text	00000288 _strtoul_r
00056d5c g     F .text	000000b4 alt_get_fd
0005623c g     F .text	00000158 alt_busy_sleep
0004ba10 g     F .text	00000054 _close_r
00048cb4 g     F .text	0000007c memcmp
00055674 g     F .text	00000050 altera_avalon_jtag_uart_close_fd
0005eacc g       *ABS*	00000000 __alt_stack_base
000556c4 g     F .text	00000054 altera_avalon_jtag_uart_ioctl_fd
0004b8e0 g     F .text	00000130 __swsetup_r
00052b44 g     F .text	000008cc .hidden __divdf3
00048134 g     F .text	00000118 __sfp
0004f288 g     F .text	00000078 __copybits
0005b62c g     O .rwdata	00000408 __malloc_av_
00048280 g     F .text	00000004 __sinit_lock_release
000459cc g     F .text	00000048 i2c_stop
00053654 g     F .text	00000724 .hidden __muldf3
000492f8 g     F .text	00000054 __sread
00040700 g     F .text	00000074 adv7513_mode_state
00056c48 g     F .text	00000114 alt_find_file
00056428 g     F .text	000000a4 alt_dev_llist_insert
000550d4 g     F .text	00000020 __malloc_lock
000552c0 g     F .text	000000b0 sbrk
0004d4a0 g     F .text	00000228 _fflush_r
0005120c g     F .text	000000c4 _calloc_r
0005e86c g       *ABS*	00000000 __bss_start
00040598 g     F .text	00000064 adv7513_audio_on
00048e68 g     F .text	00000124 memset
000465e4 g     F .text	000006b4 main
0005e894 g     O .bss	00000004 alt_envp
0005e86c g     O .bss	00000004 __malloc_max_total_mem
00055614 g     F .text	00000060 altera_avalon_jtag_uart_write_fd
00045ba4 g     F .text	00000108 i2c_read
000511f0 g     F .text	0000001c __swbuf
0004942c g     F .text	00000008 __sclose
00067100 g       *ABS*	00000000 __alt_heap_limit
0004d48c g     F .text	00000014 fclose
0004bc64 g     F .text	00001728 _dtoa_r
00048424 g     F .text	000007a8 _malloc_r
000516cc g     F .text	00000030 __ascii_wctomb
0005ccec g     O .rwdata	00000004 alt_errno
00045758 g     F .text	000000bc reg_update_bits
000482b4 g     F .text	000000b8 _fwalk
00047d9c g     F .text	00000154 _fgets_r
0004f42c g     F .text	000000c8 putc
00046d04 g     F .text	00000054 .hidden __divsi3
0004d6f8 g     F .text	00000124 _malloc_trim_r
000571c4 g       *ABS*	00000000 __CTOR_END__
000476f4 g     F .text	00000424 .hidden __mulsf3
000458b8 g     F .text	000000a8 reg_clear_bits
0004fb64 g     F .text	000000a4 strcmp
000571c4 g       *ABS*	00000000 __flash_rodata_start
000571c4 g       *ABS*	00000000 __DTOR_LIST__
00053410 g     F .text	00000084 .hidden __nedf2
00055520 g     F .text	00000034 alt_irq_init
00055260 g     F .text	00000060 alt_release_fd
0005ac2b g     O .rodata	00000100 .hidden __clz_tab
0005e87c g     O .bss	00000004 _PathLocale
00056e9c g     F .text	00000014 atexit
0004b884 g     F .text	0000005c _write_r
0004e068 g     F .text	0000001c setlocale
0005ccc0 g     O .rwdata	00000004 _impure_ptr
0005e88c g     O .bss	00000004 alt_argc
00056528 g     F .text	0000005c _do_dtors
00040b58 g     F .text	00000494 adv7513_chip_init_3d
0004e054 g     F .text	00000008 __locale_cjk_lang
00046024 g     F .text	00000104 I2CL_MultipleRead
000490fc g     F .text	000001a8 __srefill_r
00040020 g       .exceptions	00000000 alt_irq_entry
0004eeb8 g     F .text	00000060 __ulp
0004829c g     F .text	00000018 __fp_unlock_all
0005ccd8 g     O .rwdata	00000008 alt_fs_list
00040020 g       *ABS*	00000000 __ram_exceptions_start
0004e084 g     F .text	0000000c localeconv
00040000 g       *ABS*	00000000 __alt_mem_onchip_memory2
00054a90 g     F .text	00000050 alt_ic_isr_register
00042c78 g     F .text	00001cb0 edid_decode_v14
0005cd00 g       *ABS*	00000000 _edata
0005eacc g       *ABS*	00000000 _end
00046468 g     F .text	0000017c adv7513_int_setup
00040240 g       *ABS*	00000000 __ram_exceptions_end
00055af0 g     F .text	000000ec altera_avalon_jtag_uart_ioctl
00054b80 g     F .text	000000a4 alt_ic_irq_disable
00045814 g     F .text	000000a4 reg_or_bits
00049354 g     F .text	0000007c __swrite
0005ccc8 g     O .rwdata	00000004 __malloc_trim_threshold
0004e048 g     F .text	0000000c __locale_msgcharset
00056eb0 g     F .text	00000038 exit
0004836c g     F .text	000000b8 _fwalk_reent
00047b18 g     F .text	00000110 .hidden __floatunsisf
0004ed20 g     F .text	00000198 __mdiff
00045714 g     F .text	00000044 reg_write
00046d58 g     F .text	0000005c .hidden __modsi3
0005cccc g     O .rwdata	00000004 __ctype_ptr__
00067100 g       *ABS*	00000000 __alt_data_end
00040660 g     F .text	0000002c adv7513_kick_up
00040020 g     F .exceptions	00000000 alt_exception
00048278 g     F .text	00000004 __sfp_lock_release
0005ad8b g     O .rodata	00000101 _ctype_
00057190 g     F .text	00000034 _exit
000560fc g     F .text	00000140 alt_alarm_start
0004e0ec g     F .text	000001b8 __smakebuf_r
00049434 g     F .text	00000098 strlen
000568a4 g     F .text	00000158 open
00053494 g     F .text	000000e0 .hidden __gedf2
00041028 g     F .text	00000c28 edid_decode_cea
00040888 g     F .text	000002d0 adv7513_chip_init
0005ccd4 g     O .rwdata	00000004 __wctomb
00044928 g     F .text	00000dac edid_print_v14
0004fd04 g     F .text	00000018 __sprint_r
00056584 g     F .text	00000030 alt_icache_flush_all
0005ccf0 g     O .rwdata	00000004 alt_priority_mask
00054ae0 g     F .text	000000a0 alt_ic_irq_enable
0004b860 g     F .text	00000024 __vfprintf_internal
000516fc g     F .text	0000005c _wctomb_r
00053d78 g     F .text	000008d0 .hidden __subdf3
0004e750 g     F .text	000000b0 __lo0bits
0005ccf8 g     O .rwdata	00000008 alt_alarm_list
000564cc g     F .text	0000005c _do_ctors
00045e74 g     F .text	000000c8 I2CL_Write
000515f4 g     F .text	000000d8 wcrtomb
00054894 g     F .text	000000d0 close
00046dc4 g     F .text	000004e0 .hidden __addsf3
000405fc g     F .text	00000064 adv7513_audio_off
00054eb8 g     F .text	00000080 alt_load
00051454 g     F .text	00000058 fputwc
00000000  w      *UND*	00000000 free
0004827c g     F .text	00000004 __sinit_lock_acquire
0004e4d0 g     F .text	00000114 __multadd
0004e4a8 g     F .text	00000028 _Bfree



Disassembly of section .entry:

00040000 <__reset>:
#if NIOS2_ICACHE_SIZE > 0 && defined(ALT_ALLOW_CODE_AT_RESET) && (!defined(ALT_SIM_OPTIMIZE) || defined(NIOS2_ECC_PRESENT))
    /* Assume the instruction cache size is always a power of two. */
#if NIOS2_ICACHE_SIZE > 0x8000
    movhi r2, %hi(NIOS2_ICACHE_SIZE)
#else
    movui r2, NIOS2_ICACHE_SIZE
   40000:	00840014 	movui	r2,4096
#endif

0:
    initi r2
   40004:	1001483a 	initi	r2
    addi r2, r2, -NIOS2_ICACHE_LINE_SIZE
   40008:	10bff804 	addi	r2,r2,-32
    bgt r2, zero, 0b
   4000c:	00bffd16 	blt	zero,r2,40004 <__alt_data_end+0xfffd8f04>
 * Jump to the _start entry point in the .text section if reset code
 * is allowed or if optimizing for RTL simulation.
 */
#if defined(ALT_ALLOW_CODE_AT_RESET) || defined(ALT_SIM_OPTIMIZE)
    /* Jump to the _start entry point in the .text section. */
    movhi r1, %hi(_start)
   40010:	00400134 	movhi	at,4
    ori r1, r1, %lo(_start)
   40014:	08409014 	ori	at,at,576
    jmp r1
   40018:	0800683a 	jmp	at
   4001c:	00000000 	call	0 <__reset-0x40000>

Disassembly of section .exceptions:

00040020 <alt_exception>:

#else /* ALT_EXCEPTION_STACK disabled */
        /* 
         * Reserve space on normal stack for registers about to be pushed.
         */
        addi  sp, sp, -76
   40020:	deffed04 	addi	sp,sp,-76
         * documentation for details).
         *
         * Leave a gap in the stack frame at 4(sp) for the muldiv handler to
         * store zero into.
         */
        stw   ra,  0(sp)
   40024:	dfc00015 	stw	ra,0(sp)
        stw   r1,   8(sp)
   40028:	d8400215 	stw	at,8(sp)
        stw   r2,  12(sp)
   4002c:	d8800315 	stw	r2,12(sp)
        stw   r3,  16(sp)
   40030:	d8c00415 	stw	r3,16(sp)
        stw   r4,  20(sp)
   40034:	d9000515 	stw	r4,20(sp)
        stw   r5,  24(sp)
   40038:	d9400615 	stw	r5,24(sp)
        stw   r6,  28(sp)
   4003c:	d9800715 	stw	r6,28(sp)
        stw   r7,  32(sp)
   40040:	d9c00815 	stw	r7,32(sp)
        rdctl r5, estatus   /* Read early to avoid usage stall */
   40044:	000b307a 	rdctl	r5,estatus
        stw   r8,  36(sp)
   40048:	da000915 	stw	r8,36(sp)
        stw   r9,  40(sp)
   4004c:	da400a15 	stw	r9,40(sp)
        stw   r10, 44(sp)
   40050:	da800b15 	stw	r10,44(sp)
        stw   r11, 48(sp)
   40054:	dac00c15 	stw	r11,48(sp)
        stw   r12, 52(sp)
   40058:	db000d15 	stw	r12,52(sp)
        stw   r13, 56(sp)
   4005c:	db400e15 	stw	r13,56(sp)
        stw   r14, 60(sp)
   40060:	db800f15 	stw	r14,60(sp)
        stw   r15, 64(sp)
   40064:	dbc01015 	stw	r15,64(sp)
        /*
         * ea-4 contains the address of the instruction being executed
         * when the exception occured. For interrupt exceptions, we will
         * will be re-issue the isntruction. Store it in 72(sp)
         */
        stw   r5,  68(sp)  /* estatus */
   40068:	d9401115 	stw	r5,68(sp)
        addi  r15, ea, -4  /* instruction that caused exception */
   4006c:	ebffff04 	addi	r15,ea,-4
        stw   r15,  72(sp)
   40070:	dbc01215 	stw	r15,72(sp)
#else
        /*
         * Test to see if the exception was a software exception or caused 
         * by an external interrupt, and vector accordingly.
         */
        rdctl r4, ipending
   40074:	0009313a 	rdctl	r4,ipending
        andi  r2, r5, 1
   40078:	2880004c 	andi	r2,r5,1
        beq   r2, zero, .Lnot_irq
   4007c:	10000326 	beq	r2,zero,4008c <alt_exception+0x6c>
        beq   r4, zero, .Lnot_irq
   40080:	20000226 	beq	r4,zero,4008c <alt_exception+0x6c>
        /*
         * Now that all necessary registers have been preserved, call 
         * alt_irq_handler() to process the interrupts.
         */

        call alt_irq_handler
   40084:	00400fc0 	call	400fc <alt_irq_handler>

        .section .exceptions.irqreturn, "xa"

        br    .Lexception_exit
   40088:	00000706 	br	400a8 <alt_exception+0x88>
         * upon completion, so we write ea (address of instruction *after*
         * the one where the exception occured) into 72(sp). The actual
         * instruction that caused the exception is written in r2, which these
         * handlers will utilize.
         */
        stw   ea,  72(sp)  /* Don't re-issue */
   4008c:	df401215 	stw	ea,72(sp)
        ldhu.n  r2, 0(r4)
        ldhu.n  r3, 2(r4)
        slli.n  r3, r3, 16
        or.n    r2, r2, r3 /* Instruction that caused exception */
#else
        ldw   r2, -4(ea)   /* Instruction that caused exception */
   40090:	e8bfff17 	ldw	r2,-4(ea)
         * debugger is present) or go into an infinite loop since the
         * handling behavior is undefined; in that case we will not return here.
         */

        /* Load exception-causing address as first argument (r4) */
        addi   r4, ea, -4
   40094:	e93fff04 	addi	r4,ea,-4

        /* Call the instruction-exception entry */
        call   alt_instruction_exception_entry
   40098:	00401cc0 	call	401cc <alt_instruction_exception_entry>
         * instruction
         *
         * Return code was 0: Skip. The instruction after the exception is
         * already stored in 72(sp).
         */
        bne   r2, r0, .Lexception_exit
   4009c:	1000021e 	bne	r2,zero,400a8 <alt_exception+0x88>

        /*
         * Otherwise, modify 72(sp) to re-issue the instruction that caused the
         * exception.
         */
        addi  r15, ea, -4  /* instruction that caused exception */
   400a0:	ebffff04 	addi	r15,ea,-4
        stw   r15,  72(sp)
   400a4:	dbc01215 	stw	r15,72(sp)
        /* 
         * Restore the saved registers, so that all general purpose registers 
         * have been restored to their state at the time the interrupt occured.
         */

        ldw   r5,  68(sp)
   400a8:	d9401117 	ldw	r5,68(sp)
        ldw   ea,  72(sp)  /* This becomes the PC once eret is executed */
   400ac:	df401217 	ldw	ea,72(sp)
        ldw   ra,   0(sp)
   400b0:	dfc00017 	ldw	ra,0(sp)

        wrctl estatus, r5
   400b4:	2801707a 	wrctl	estatus,r5

        ldw   r1,   8(sp)
   400b8:	d8400217 	ldw	at,8(sp)
        ldw   r2,  12(sp)
   400bc:	d8800317 	ldw	r2,12(sp)
        ldw   r3,  16(sp)
   400c0:	d8c00417 	ldw	r3,16(sp)
        ldw   r4,  20(sp)
   400c4:	d9000517 	ldw	r4,20(sp)
        ldw   r5,  24(sp)
   400c8:	d9400617 	ldw	r5,24(sp)
        ldw   r6,  28(sp)
   400cc:	d9800717 	ldw	r6,28(sp)
        ldw   r7,  32(sp)
   400d0:	d9c00817 	ldw	r7,32(sp)

#if defined(ALT_EXCEPTION_STACK) && defined(ALT_STACK_CHECK)
        ldw   et, %gprel(alt_exception_old_stack_limit)(gp)
#endif

        ldw   r8,  36(sp)
   400d4:	da000917 	ldw	r8,36(sp)
        ldw   r9,  40(sp)
   400d8:	da400a17 	ldw	r9,40(sp)
        ldw   r10, 44(sp)
   400dc:	da800b17 	ldw	r10,44(sp)
        ldw   r11, 48(sp)
   400e0:	dac00c17 	ldw	r11,48(sp)
        ldw   r12, 52(sp)
   400e4:	db000d17 	ldw	r12,52(sp)
        ldw   r13, 56(sp)
   400e8:	db400e17 	ldw	r13,56(sp)
        ldw   r14, 60(sp)
   400ec:	db800f17 	ldw	r14,60(sp)
        ldw   r15, 64(sp)
   400f0:	dbc01017 	ldw	r15,64(sp)
        stw   et, %gprel(alt_stack_limit_value)(gp)
        stw   zero, %gprel(alt_exception_old_stack_limit)(gp)
#endif /* ALT_STACK_CHECK */
        ldw   sp,  76(sp)
#else /* ALT_EXCEPTION_STACK disabled */
        addi  sp, sp, 76
   400f4:	dec01304 	addi	sp,sp,76

        /*
         * Return to the interrupted instruction.
         */

        eret
   400f8:	ef80083a 	eret

000400fc <alt_irq_handler>:
 * instruction is present if the macro ALT_CI_INTERRUPT_VECTOR defined.
 */

void alt_irq_handler (void) __attribute__ ((section (".exceptions")));
void alt_irq_handler (void)
{
   400fc:	defff904 	addi	sp,sp,-28
   40100:	dfc00615 	stw	ra,24(sp)
   40104:	df000515 	stw	fp,20(sp)
   40108:	df000504 	addi	fp,sp,20
  
  /*
   * Notify the operating system that we are at interrupt level.
   */ 
  
  ALT_OS_INT_ENTER();
   4010c:	0001883a 	nop
#ifndef NIOS2_EIC_PRESENT
static ALT_INLINE alt_u32 ALT_ALWAYS_INLINE alt_irq_pending (void)
{
  alt_u32 active;

  NIOS2_READ_IPENDING (active);
   40110:	0005313a 	rdctl	r2,ipending
   40114:	e0bffe15 	stw	r2,-8(fp)

  return active;
   40118:	e0bffe17 	ldw	r2,-8(fp)
   * Consider the case where the high priority interupt is asserted during
   * the interrupt entry sequence for a lower priority interrupt to see why
   * this is the case.
   */

  active = alt_irq_pending ();
   4011c:	e0bffb15 	stw	r2,-20(fp)

  do
  {
    i = 0;
   40120:	e03ffd15 	stw	zero,-12(fp)
    mask = 1;
   40124:	00800044 	movi	r2,1
   40128:	e0bffc15 	stw	r2,-16(fp)
     * called to clear the interrupt condition.
     */

    do
    {
      if (active & mask)
   4012c:	e0fffb17 	ldw	r3,-20(fp)
   40130:	e0bffc17 	ldw	r2,-16(fp)
   40134:	1884703a 	and	r2,r3,r2
   40138:	10001426 	beq	r2,zero,4018c <alt_irq_handler+0x90>
      { 
#ifdef ALT_ENHANCED_INTERRUPT_API_PRESENT
        alt_irq[i].handler(alt_irq[i].context); 
   4013c:	008001b4 	movhi	r2,6
   40140:	10ba7304 	addi	r2,r2,-5684
   40144:	e0fffd17 	ldw	r3,-12(fp)
   40148:	180690fa 	slli	r3,r3,3
   4014c:	10c5883a 	add	r2,r2,r3
   40150:	10c00017 	ldw	r3,0(r2)
   40154:	008001b4 	movhi	r2,6
   40158:	10ba7304 	addi	r2,r2,-5684
   4015c:	e13ffd17 	ldw	r4,-12(fp)
   40160:	200890fa 	slli	r4,r4,3
   40164:	1105883a 	add	r2,r2,r4
   40168:	10800104 	addi	r2,r2,4
   4016c:	10800017 	ldw	r2,0(r2)
   40170:	1009883a 	mov	r4,r2
   40174:	183ee83a 	callr	r3
#else
        alt_irq[i].handler(alt_irq[i].context, i); 
#endif
        break;
   40178:	0001883a 	nop
#ifndef NIOS2_EIC_PRESENT
static ALT_INLINE alt_u32 ALT_ALWAYS_INLINE alt_irq_pending (void)
{
  alt_u32 active;

  NIOS2_READ_IPENDING (active);
   4017c:	0005313a 	rdctl	r2,ipending
   40180:	e0bfff15 	stw	r2,-4(fp)

  return active;
   40184:	e0bfff17 	ldw	r2,-4(fp)
   40188:	00000706 	br	401a8 <alt_irq_handler+0xac>
      }
      mask <<= 1;
   4018c:	e0bffc17 	ldw	r2,-16(fp)
   40190:	1085883a 	add	r2,r2,r2
   40194:	e0bffc15 	stw	r2,-16(fp)
      i++;
   40198:	e0bffd17 	ldw	r2,-12(fp)
   4019c:	10800044 	addi	r2,r2,1
   401a0:	e0bffd15 	stw	r2,-12(fp)

    } while (1);
   401a4:	003fe106 	br	4012c <__alt_data_end+0xfffd902c>

    active = alt_irq_pending ();
   401a8:	e0bffb15 	stw	r2,-20(fp)
    
  } while (active);
   401ac:	e0bffb17 	ldw	r2,-20(fp)
   401b0:	103fdb1e 	bne	r2,zero,40120 <__alt_data_end+0xfffd9020>

  /*
   * Notify the operating system that interrupt processing is complete.
   */ 

  ALT_OS_INT_EXIT();
   401b4:	0001883a 	nop
}
   401b8:	e037883a 	mov	sp,fp
   401bc:	dfc00117 	ldw	ra,4(sp)
   401c0:	df000017 	ldw	fp,0(sp)
   401c4:	dec00204 	addi	sp,sp,8
   401c8:	f800283a 	ret

000401cc <alt_instruction_exception_entry>:
 * that handler if it has been registered. Absent a handler, it will
 * break break or hang as discussed below.
 */
int 
alt_instruction_exception_entry (alt_u32 exception_pc)
{
   401cc:	defffb04 	addi	sp,sp,-20
   401d0:	dfc00415 	stw	ra,16(sp)
   401d4:	df000315 	stw	fp,12(sp)
   401d8:	df000304 	addi	fp,sp,12
   401dc:	e13fff15 	stw	r4,-4(fp)
 * NIOS2_EXCEPTION_CAUSE_NOT_PRESENT. Your handling routine should
 * check the validity of the cause argument before proceeding.
 */
#ifdef NIOS2_HAS_EXTRA_EXCEPTION_INFO
  /* Get exception cause & "badaddr" */
  NIOS2_READ_EXCEPTION(cause);
   401e0:	000531fa 	rdctl	r2,exception
   401e4:	e0bffd15 	stw	r2,-12(fp)
  cause = ( (cause & NIOS2_EXCEPTION_REG_CAUSE_MASK) >>
   401e8:	e0bffd17 	ldw	r2,-12(fp)
   401ec:	10801f0c 	andi	r2,r2,124
   401f0:	1004d0ba 	srli	r2,r2,2
   401f4:	e0bffd15 	stw	r2,-12(fp)
              NIOS2_EXCEPTION_REG_CAUSE_OFST );

  NIOS2_READ_BADADDR(badaddr);
   401f8:	0005333a 	rdctl	r2,badaddr
   401fc:	e0bffe15 	stw	r2,-8(fp)
#else
  cause = NIOS2_EXCEPTION_CAUSE_NOT_PRESENT;
  badaddr = 0;
#endif /* NIOS2_HAS_EXTRA_EXCEPTION_INFO */

  if(alt_instruction_exception_handler) {
   40200:	d0a6f917 	ldw	r2,-25628(gp)
   40204:	10000726 	beq	r2,zero,40224 <alt_instruction_exception_entry+0x58>
     * Call handler. Its return value indicates whether the exception-causing
     * instruction should be re-issued. The code that called us,
     * alt_eceptions_entry.S, will look at this value and adjust the ea
     * register as necessary
     */
    return alt_instruction_exception_handler(cause, exception_pc, badaddr);
   40208:	d0a6f917 	ldw	r2,-25628(gp)
   4020c:	e0fffd17 	ldw	r3,-12(fp)
   40210:	1809883a 	mov	r4,r3
   40214:	e17fff17 	ldw	r5,-4(fp)
   40218:	e1bffe17 	ldw	r6,-8(fp)
   4021c:	103ee83a 	callr	r2
   40220:	00000206 	br	4022c <alt_instruction_exception_entry+0x60>
   *    (a peripheral which negates its interrupt output before its
   *    interrupt handler has been executed will cause spurious interrupts)
   */
  else {
#ifdef NIOS2_HAS_DEBUG_STUB
    NIOS2_BREAK();
   40224:	003da03a 	break	0
      ;
#endif /* NIOS2_HAS_DEBUG_STUB */
  }

  /* We should not get here. Remove compiler warning. */
  return NIOS2_EXCEPTION_RETURN_REISSUE_INST;
   40228:	0005883a 	mov	r2,zero
}
   4022c:	e037883a 	mov	sp,fp
   40230:	dfc00117 	ldw	ra,4(sp)
   40234:	df000017 	ldw	fp,0(sp)
   40238:	dec00204 	addi	sp,sp,8
   4023c:	f800283a 	ret

Disassembly of section .text:

00040240 <_start>:

    /* Assume the data cache size is always a power of two. */
#if NIOS2_DCACHE_SIZE > 0x8000
    movhi r2, %hi(NIOS2_DCACHE_SIZE)
#else
    movui r2, NIOS2_DCACHE_SIZE
   40240:	00820014 	movui	r2,2048
#endif

0:
    initd 0(r2)
   40244:	10000033 	initd	0(r2)
#ifdef NIOS2_ECC_PRESENT
    addi r2, r2, -4
#else
    addi r2, r2, -NIOS2_DCACHE_LINE_SIZE
   40248:	10bff804 	addi	r2,r2,-32
#endif
    bgt r2, zero, 0b
   4024c:	00bffd16 	blt	zero,r2,40244 <__alt_data_end+0xfffd9144>

    /*
     * Now that the caches are initialized, set up the stack pointer and global pointer.
     * The values provided by the linker are assumed to be correctly aligned.
     */
    movhi sp, %hi(__alt_stack_pointer)
   40250:	06c001b4 	movhi	sp,6
    ori sp, sp, %lo(__alt_stack_pointer)
   40254:	dedc4014 	ori	sp,sp,28928
    movhi gp, %hi(_gp)
   40258:	068001b4 	movhi	gp,6
    ori gp, gp, %lo(_gp)
   4025c:	d6932d14 	ori	gp,gp,19636
 */
#ifndef ALT_SIM_OPTIMIZE
    /* Log that the BSS is about to be cleared. */
    ALT_LOG_PUTS(alt_log_msg_bss)

    movhi r2, %hi(__bss_start)
   40260:	00800174 	movhi	r2,5
    ori r2, r2, %lo(__bss_start)
   40264:	10ba1b14 	ori	r2,r2,59500

    movhi r3, %hi(__bss_end)
   40268:	00c00174 	movhi	r3,5
    ori r3, r3, %lo(__bss_end)
   4026c:	18fab314 	ori	r3,r3,60108

    beq r2, r3, 1f
   40270:	10c00326 	beq	r2,r3,40280 <_start+0x40>

0:
    stw zero, (r2)
   40274:	10000015 	stw	zero,0(r2)
    addi r2, r2, 4
   40278:	10800104 	addi	r2,r2,4
    bltu r2, r3, 0b
   4027c:	10fffd36 	bltu	r2,r3,40274 <__alt_data_end+0xfffd9174>
     * section aren't defined until alt_load() has been called).
     */
    mov   et, zero
#endif

    call alt_load
   40280:	0054eb80 	call	54eb8 <alt_load>

    /* Log that alt_main is about to be called. */
    ALT_LOG_PUTS(alt_log_msg_alt_main)

    /* Call the C entry point. It should never return. */
    call alt_main
   40284:	005505c0 	call	5505c <alt_main>

00040288 <alt_after_alt_main>:

    /* Wait in infinite loop in case alt_main does return. */
alt_after_alt_main:
    br alt_after_alt_main
   40288:	003fff06 	br	40288 <__alt_data_end+0xfffd9188>

0004028c <adv7513_video_out_format.constprop.3>:

// out video format
//
// format   - adv7513_output_format
// dvi		- adv7513_hdmi_dvi
static int adv7513_video_out_format(struct hdmi_encoder *ec, int format, int dvi)
   4028c:	defffd04 	addi	sp,sp,-12
   40290:	dc400115 	stw	r17,4(sp)

	//printf("adv7513_video_out_format()\n");

	// 0x16[7] <- format
	regv = (format & 0x01) << 7;
	if (reg_update_bits(ec, 0x16, 0x80, regv) != 0)
   40294:	01802004 	movi	r6,128

// out video format
//
// format   - adv7513_output_format
// dvi		- adv7513_hdmi_dvi
static int adv7513_video_out_format(struct hdmi_encoder *ec, int format, int dvi)
   40298:	2823883a 	mov	r17,r5

	//printf("adv7513_video_out_format()\n");

	// 0x16[7] <- format
	regv = (format & 0x01) << 7;
	if (reg_update_bits(ec, 0x16, 0x80, regv) != 0)
   4029c:	000f883a 	mov	r7,zero
   402a0:	01400584 	movi	r5,22

// out video format
//
// format   - adv7513_output_format
// dvi		- adv7513_hdmi_dvi
static int adv7513_video_out_format(struct hdmi_encoder *ec, int format, int dvi)
   402a4:	dc000015 	stw	r16,0(sp)
   402a8:	dfc00215 	stw	ra,8(sp)
   402ac:	2021883a 	mov	r16,r4

	//printf("adv7513_video_out_format()\n");

	// 0x16[7] <- format
	regv = (format & 0x01) << 7;
	if (reg_update_bits(ec, 0x16, 0x80, regv) != 0)
   402b0:	00457580 	call	45758 <reg_update_bits>
   402b4:	10000226 	beq	r2,zero,402c0 <adv7513_video_out_format.constprop.3+0x34>
		return -1;
   402b8:	00bfffc4 	movi	r2,-1
   402bc:	00001e06 	br	40338 <adv7513_video_out_format.constprop.3+0xac>

	// 0x18[7] <- enable
	// 0x18[6:5] <- scaling
	// 0x18[4:0] <- csc_a1[4:0]
	int regv = (enable ? 1 : 0) << 7;
	if (reg_update_bits(ec, 0x18, 0x80, regv) != 0)
   402c0:	8009883a 	mov	r4,r16
   402c4:	01400604 	movi	r5,24
   402c8:	01802004 	movi	r6,128
   402cc:	000f883a 	mov	r7,zero
   402d0:	00457580 	call	45758 <reg_update_bits>
   402d4:	103ff81e 	bne	r2,zero,402b8 <__alt_data_end+0xfffd91b8>
		return -1;
	}

	// 0xaf[7] <- hdcp (enable/disable)
	// 0xaf[1] <- dvi (section 4.2.2)
	if (reg_update_bits(ec, 0xaf, 0x82, (dvi & 0x01) << 1) != 0)
   402d8:	89c0004c 	andi	r7,r17,1
   402dc:	8009883a 	mov	r4,r16
   402e0:	01402bc4 	movi	r5,175
   402e4:	01802084 	movi	r6,130
   402e8:	39cf883a 	add	r7,r7,r7
   402ec:	00457580 	call	45758 <reg_update_bits>
   402f0:	103ff11e 	bne	r2,zero,402b8 <__alt_data_end+0xfffd91b8>
		return -1;

	// general control packet
	// 0x40[7] <- gc (section 4.2.3 && 4.3.3)
	if (dvi == ADV7513_MODE_HDMI) {
   402f4:	00800044 	movi	r2,1
		if (reg_update_bits(ec, 0x40, 0x80, (1 & 0x01) << 7) != 0)
   402f8:	8009883a 	mov	r4,r16
   402fc:	01401004 	movi	r5,64
   40300:	01802004 	movi	r6,128
	if (reg_update_bits(ec, 0xaf, 0x82, (dvi & 0x01) << 1) != 0)
		return -1;

	// general control packet
	// 0x40[7] <- gc (section 4.2.3 && 4.3.3)
	if (dvi == ADV7513_MODE_HDMI) {
   40304:	8880031e 	bne	r17,r2,40314 <adv7513_video_out_format.constprop.3+0x88>
		if (reg_update_bits(ec, 0x40, 0x80, (1 & 0x01) << 7) != 0)
   40308:	300f883a 	mov	r7,r6
   4030c:	00457580 	call	45758 <reg_update_bits>
   40310:	00000106 	br	40318 <adv7513_video_out_format.constprop.3+0x8c>
			return -1;
	} else {
		if (reg_clear_bits(ec, 0x40, 0x80) != 0)
   40314:	00458b80 	call	458b8 <reg_clear_bits>
   40318:	103fe71e 	bne	r2,zero,402b8 <__alt_data_end+0xfffd91b8>
			return -1;
	}

	// 0x4c[3:0] <- gc_depth (section 4.2.6)
	if (reg_update_bits(ec, 0x4c, 0x0f, 4 & 0x0f) != 0)
   4031c:	8009883a 	mov	r4,r16
   40320:	01401304 	movi	r5,76
   40324:	018003c4 	movi	r6,15
   40328:	01c00104 	movi	r7,4
   4032c:	00457580 	call	45758 <reg_update_bits>
   40330:	1004c03a 	cmpne	r2,r2,zero
   40334:	0085c83a 	sub	r2,zero,r2
	// 0x3c[5:0] <- 0x01 & 0x3f
	//if (reg_update_bits(ec, 0x3c, 0x3f, 0x01) != 0)
	//	return -1;

	return 0;
}
   40338:	dfc00217 	ldw	ra,8(sp)
   4033c:	dc400117 	ldw	r17,4(sp)
   40340:	dc000017 	ldw	r16,0(sp)
   40344:	dec00304 	addi	sp,sp,12
   40348:	f800283a 	ret

0004034c <adv7513_chip_identify>:
	{ 0x55, 0x02 },
};
#endif

int adv7513_chip_identify(struct hdmi_encoder *ec)
{
   4034c:	defffd04 	addi	sp,sp,-12
	bool r = 0;

	r = I2C_Read(I2C_SCL_BASE, I2C_SDA_BASE, ec->slave_addr, ADV7513_REG_CHIP_REVISION, &ec->chip_rev[0]);
   40350:	21800007 	ldb	r6,0(r4)
	{ 0x55, 0x02 },
};
#endif

int adv7513_chip_identify(struct hdmi_encoder *ec)
{
   40354:	dc000115 	stw	r16,4(sp)
	bool r = 0;

	r = I2C_Read(I2C_SCL_BASE, I2C_SDA_BASE, ec->slave_addr, ADV7513_REG_CHIP_REVISION, &ec->chip_rev[0]);
   40358:	20800804 	addi	r2,r4,32
	{ 0x55, 0x02 },
};
#endif

int adv7513_chip_identify(struct hdmi_encoder *ec)
{
   4035c:	2021883a 	mov	r16,r4
	bool r = 0;

	r = I2C_Read(I2C_SCL_BASE, I2C_SDA_BASE, ec->slave_addr, ADV7513_REG_CHIP_REVISION, &ec->chip_rev[0]);
   40360:	01400234 	movhi	r5,8
   40364:	01000234 	movhi	r4,8
   40368:	d8800015 	stw	r2,0(sp)
   4036c:	21041004 	addi	r4,r4,4160
   40370:	29440c04 	addi	r5,r5,4144
   40374:	000f883a 	mov	r7,zero
	{ 0x55, 0x02 },
};
#endif

int adv7513_chip_identify(struct hdmi_encoder *ec)
{
   40378:	dfc00215 	stw	ra,8(sp)
	bool r = 0;

	r = I2C_Read(I2C_SCL_BASE, I2C_SDA_BASE, ec->slave_addr, ADV7513_REG_CHIP_REVISION, &ec->chip_rev[0]);
   4037c:	0045cac0 	call	45cac <I2C_Read>
	if (!r)
   40380:	10001626 	beq	r2,zero,403dc <adv7513_chip_identify+0x90>
		return -1;

	r = I2C_Read(I2C_SCL_BASE, I2C_SDA_BASE, ec->slave_addr, ADV7513_REG_CHIP_ID_LOW, &ec->chip_id[0]);
   40384:	81800007 	ldb	r6,0(r16)
   40388:	80800704 	addi	r2,r16,28
   4038c:	01000234 	movhi	r4,8
   40390:	01400234 	movhi	r5,8
   40394:	d8800015 	stw	r2,0(sp)
   40398:	21041004 	addi	r4,r4,4160
   4039c:	29440c04 	addi	r5,r5,4144
   403a0:	01c03d84 	movi	r7,246
   403a4:	0045cac0 	call	45cac <I2C_Read>
	if (!r)
   403a8:	10000e26 	beq	r2,zero,403e4 <adv7513_chip_identify+0x98>
		return -2;

	r = I2C_Read(I2C_SCL_BASE, I2C_SDA_BASE, ec->slave_addr, ADV7513_REG_CHIP_ID_HIGH, &ec->chip_id[1]);
   403ac:	81800007 	ldb	r6,0(r16)
   403b0:	01000234 	movhi	r4,8
   403b4:	84000744 	addi	r16,r16,29
   403b8:	01400234 	movhi	r5,8
   403bc:	dc000015 	stw	r16,0(sp)
   403c0:	21041004 	addi	r4,r4,4160
   403c4:	29440c04 	addi	r5,r5,4144
   403c8:	01c03d44 	movi	r7,245
   403cc:	0045cac0 	call	45cac <I2C_Read>
	if (!r)
   403d0:	10000626 	beq	r2,zero,403ec <adv7513_chip_identify+0xa0>
		return -3;

	return 0;
   403d4:	0005883a 	mov	r2,zero
   403d8:	00000506 	br	403f0 <adv7513_chip_identify+0xa4>
{
	bool r = 0;

	r = I2C_Read(I2C_SCL_BASE, I2C_SDA_BASE, ec->slave_addr, ADV7513_REG_CHIP_REVISION, &ec->chip_rev[0]);
	if (!r)
		return -1;
   403dc:	00bfffc4 	movi	r2,-1
   403e0:	00000306 	br	403f0 <adv7513_chip_identify+0xa4>

	r = I2C_Read(I2C_SCL_BASE, I2C_SDA_BASE, ec->slave_addr, ADV7513_REG_CHIP_ID_LOW, &ec->chip_id[0]);
	if (!r)
		return -2;
   403e4:	00bfff84 	movi	r2,-2
   403e8:	00000106 	br	403f0 <adv7513_chip_identify+0xa4>

	r = I2C_Read(I2C_SCL_BASE, I2C_SDA_BASE, ec->slave_addr, ADV7513_REG_CHIP_ID_HIGH, &ec->chip_id[1]);
	if (!r)
		return -3;
   403ec:	00bfff44 	movi	r2,-3

	return 0;
}
   403f0:	dfc00217 	ldw	ra,8(sp)
   403f4:	dc000117 	ldw	r16,4(sp)
   403f8:	dec00304 	addi	sp,sp,12
   403fc:	f800283a 	ret

00040400 <adv7513_hpd_probe>:
int adv7513_hpd_probe(struct hdmi_encoder *ec)
{
	bool r = 0;
	alt_u8 regv = 0;

	ec->hpd_prev = ec->hpd_latest;
   40400:	20800317 	ldw	r2,12(r4)

	return 0;
}

int adv7513_hpd_probe(struct hdmi_encoder *ec)
{
   40404:	defffd04 	addi	sp,sp,-12
   40408:	dc000115 	stw	r16,4(sp)
   4040c:	dfc00215 	stw	ra,8(sp)
	bool r = 0;
	alt_u8 regv = 0;

	ec->hpd_prev = ec->hpd_latest;
   40410:	20800215 	stw	r2,8(r4)

	r = reg_read(ec, ADV7513_REG_STATUS, &regv);
   40414:	01401084 	movi	r5,66
   40418:	d80d883a 	mov	r6,sp

	return 0;
}

int adv7513_hpd_probe(struct hdmi_encoder *ec)
{
   4041c:	2021883a 	mov	r16,r4
	bool r = 0;
	alt_u8 regv = 0;
   40420:	d8000005 	stb	zero,0(sp)

	ec->hpd_prev = ec->hpd_latest;

	r = reg_read(ec, ADV7513_REG_STATUS, &regv);
   40424:	00456d40 	call	456d4 <reg_read>
	if (r != 0)
   40428:	10001a1e 	bne	r2,zero,40494 <adv7513_hpd_probe+0x94>
		return -1;

	ec->hpd_latest = regv & ((ADV7513_STATUS_HPD) | (ADV7513_STATUS_MONITOR_SENSE));
   4042c:	d8c00003 	ldbu	r3,0(sp)
	ec->hpd_event = ec->hpd_latest ^ ec->hpd_prev;
   40430:	80800217 	ldw	r2,8(r16)

	r = reg_read(ec, ADV7513_REG_STATUS, &regv);
	if (r != 0)
		return -1;

	ec->hpd_latest = regv & ((ADV7513_STATUS_HPD) | (ADV7513_STATUS_MONITOR_SENSE));
   40434:	1900180c 	andi	r4,r3,96
	ec->hpd_event = ec->hpd_latest ^ ec->hpd_prev;
   40438:	2084f03a 	xor	r2,r4,r2

	r = reg_read(ec, ADV7513_REG_STATUS, &regv);
	if (r != 0)
		return -1;

	ec->hpd_latest = regv & ((ADV7513_STATUS_HPD) | (ADV7513_STATUS_MONITOR_SENSE));
   4043c:	81000315 	stw	r4,12(r16)
	ec->hpd_event = ec->hpd_latest ^ ec->hpd_prev;
   40440:	80800415 	stw	r2,16(r16)

	ec->hpd = 0;

	if ((ec->hpd_event != 0) && ((ec->hpd_latest & ((ADV7513_STATUS_HPD) | (ADV7513_STATUS_MONITOR_SENSE))) == ((ADV7513_STATUS_HPD) | (ADV7513_STATUS_MONITOR_SENSE)))) {
   40444:	10000426 	beq	r2,zero,40458 <adv7513_hpd_probe+0x58>
   40448:	01401804 	movi	r5,96
   4044c:	2140021e 	bne	r4,r5,40458 <adv7513_hpd_probe+0x58>
		// if hot-plug state changed and both HPD and monitor-sense are asserted
		ec->hpd = 1;
   40450:	00800044 	movi	r2,1
   40454:	00000d06 	br	4048c <adv7513_hpd_probe+0x8c>
	} else {
		if ((ec->hpd_event & (ADV7513_STATUS_HPD)) && ((ec->hpd_latest & (ADV7513_STATUS_HPD)) == 0)) {
   40458:	1100100c 	andi	r4,r2,64
   4045c:	2000021e 	bne	r4,zero,40468 <adv7513_hpd_probe+0x68>
		return -1;

	ec->hpd_latest = regv & ((ADV7513_STATUS_HPD) | (ADV7513_STATUS_MONITOR_SENSE));
	ec->hpd_event = ec->hpd_latest ^ ec->hpd_prev;

	ec->hpd = 0;
   40460:	80000515 	stw	zero,20(r16)
   40464:	00000406 	br	40478 <adv7513_hpd_probe+0x78>

	if ((ec->hpd_event != 0) && ((ec->hpd_latest & ((ADV7513_STATUS_HPD) | (ADV7513_STATUS_MONITOR_SENSE))) == ((ADV7513_STATUS_HPD) | (ADV7513_STATUS_MONITOR_SENSE)))) {
		// if hot-plug state changed and both HPD and monitor-sense are asserted
		ec->hpd = 1;
	} else {
		if ((ec->hpd_event & (ADV7513_STATUS_HPD)) && ((ec->hpd_latest & (ADV7513_STATUS_HPD)) == 0)) {
   40468:	1900100c 	andi	r4,r3,64
   4046c:	203ffc1e 	bne	r4,zero,40460 <__alt_data_end+0xfffd9360>
			// if HPD state changed and HPD was de-asserted
			ec->hpd = -1;
   40470:	013fffc4 	movi	r4,-1
   40474:	81000515 	stw	r4,20(r16)
		}

		if ((ec->hpd_event & (ADV7513_STATUS_MONITOR_SENSE)) && ((ec->hpd_latest & (ADV7513_STATUS_MONITOR_SENSE)) == 0)) {
   40478:	1080080c 	andi	r2,r2,32
   4047c:	10000826 	beq	r2,zero,404a0 <adv7513_hpd_probe+0xa0>
   40480:	18c0080c 	andi	r3,r3,32
   40484:	1800051e 	bne	r3,zero,4049c <adv7513_hpd_probe+0x9c>
			// if monitor-sense state changed and monitor-sense was de-asserted
			ec->hpd = -1;
   40488:	00bfffc4 	movi	r2,-1
   4048c:	80800515 	stw	r2,20(r16)
   40490:	00000206 	br	4049c <adv7513_hpd_probe+0x9c>

	ec->hpd_prev = ec->hpd_latest;

	r = reg_read(ec, ADV7513_REG_STATUS, &regv);
	if (r != 0)
		return -1;
   40494:	00bfffc4 	movi	r2,-1
   40498:	00000106 	br	404a0 <adv7513_hpd_probe+0xa0>
	// 0xd6[7:6] <- (2 << 6) (HPD from HPD only) & 0xc0
	//r = reg_update_bits(ec, 0xd6, 0xc0 ,0x02 << 6);
	//if (r != 0)
	//	return -1;

	return 0;
   4049c:	0005883a 	mov	r2,zero
}
   404a0:	dfc00217 	ldw	ra,8(sp)
   404a4:	dc000117 	ldw	r16,4(sp)
   404a8:	dec00304 	addi	sp,sp,12
   404ac:	f800283a 	ret

000404b0 <adv7513_do_hpd_powerup>:

int adv7513_do_hpd_powerup(struct hdmi_encoder *ec)
{
   404b0:	defffe04 	addi	sp,sp,-8
	//printf("adv7513_do_hpd_powerup()\n");

	// power up the encoder
	if (reg_update_bits(ec, 0x41, 0x40, 0) != 0)
   404b4:	01401044 	movi	r5,65
   404b8:	01801004 	movi	r6,64
   404bc:	000f883a 	mov	r7,zero

	return 0;
}

int adv7513_do_hpd_powerup(struct hdmi_encoder *ec)
{
   404c0:	dc000015 	stw	r16,0(sp)
   404c4:	dfc00115 	stw	ra,4(sp)
   404c8:	2021883a 	mov	r16,r4
	//printf("adv7513_do_hpd_powerup()\n");

	// power up the encoder
	if (reg_update_bits(ec, 0x41, 0x40, 0) != 0)
   404cc:	00457580 	call	45758 <reg_update_bits>
   404d0:	10000226 	beq	r2,zero,404dc <adv7513_do_hpd_powerup+0x2c>
		return -1;
   404d4:	00bfffc4 	movi	r2,-1
   404d8:	00002b06 	br	40588 <adv7513_do_hpd_powerup+0xd8>

	//usleep(150000);

	// table 14 -- fixed registers must be set after power up
	if (reg_write(ec, 0x98, 0x03) != 0)
   404dc:	8009883a 	mov	r4,r16
   404e0:	01402604 	movi	r5,152
   404e4:	018000c4 	movi	r6,3
   404e8:	00457140 	call	45714 <reg_write>
   404ec:	103ff91e 	bne	r2,zero,404d4 <__alt_data_end+0xfffd93d4>
		return -1;
	if (reg_update_bits(ec, 0x9a, 0xe0, 0x7 << 5) != 0)
   404f0:	01803804 	movi	r6,224
   404f4:	8009883a 	mov	r4,r16
   404f8:	01402684 	movi	r5,154
   404fc:	300f883a 	mov	r7,r6
   40500:	00457580 	call	45758 <reg_update_bits>
   40504:	103ff31e 	bne	r2,zero,404d4 <__alt_data_end+0xfffd93d4>
		return -1;
	if (reg_write(ec, 0x9c, 0x30) != 0)
   40508:	8009883a 	mov	r4,r16
   4050c:	01402704 	movi	r5,156
   40510:	01800c04 	movi	r6,48
   40514:	00457140 	call	45714 <reg_write>
   40518:	103fee1e 	bne	r2,zero,404d4 <__alt_data_end+0xfffd93d4>
		return -1;
	if (reg_update_bits(ec, 0x9d, 0x03, 0x01) != 0)
   4051c:	8009883a 	mov	r4,r16
   40520:	01402744 	movi	r5,157
   40524:	018000c4 	movi	r6,3
   40528:	01c00044 	movi	r7,1
   4052c:	00457580 	call	45758 <reg_update_bits>
   40530:	103fe81e 	bne	r2,zero,404d4 <__alt_data_end+0xfffd93d4>
		return -1;
	if (reg_write(ec, 0xa2, 0xa4) != 0)
   40534:	8009883a 	mov	r4,r16
   40538:	01402884 	movi	r5,162
   4053c:	01802904 	movi	r6,164
   40540:	00457140 	call	45714 <reg_write>
   40544:	103fe31e 	bne	r2,zero,404d4 <__alt_data_end+0xfffd93d4>
		return -1;
	if (reg_write(ec, 0xa3, 0xa4) != 0)
   40548:	8009883a 	mov	r4,r16
   4054c:	014028c4 	movi	r5,163
   40550:	01802904 	movi	r6,164
   40554:	00457140 	call	45714 <reg_write>
   40558:	103fde1e 	bne	r2,zero,404d4 <__alt_data_end+0xfffd93d4>
		return -1;
	if (reg_write(ec, 0xe0, 0xd0) != 0)
   4055c:	8009883a 	mov	r4,r16
   40560:	01403804 	movi	r5,224
   40564:	01803404 	movi	r6,208
   40568:	00457140 	call	45714 <reg_write>
   4056c:	103fd91e 	bne	r2,zero,404d4 <__alt_data_end+0xfffd93d4>
	//if (reg_write(ec, 0xf9, 0x00) != 0)  // set to a non-conflicting i2c address (suggested addr: 0x00)
	//	return -1;

	// clear hpd interrupts
	// 0x96[7:6] <- 0xc0 & 0xc0
	if (reg_write(ec, 0x96, 0xff) != 0)
   40570:	8009883a 	mov	r4,r16
   40574:	01402584 	movi	r5,150
   40578:	01803fc4 	movi	r6,255
   4057c:	00457140 	call	45714 <reg_write>
   40580:	1004c03a 	cmpne	r2,r2,zero
   40584:	0085c83a 	sub	r2,zero,r2
		return -1;

	return 0;
}
   40588:	dfc00117 	ldw	ra,4(sp)
   4058c:	dc000017 	ldw	r16,0(sp)
   40590:	dec00204 	addi	sp,sp,8
   40594:	f800283a 	ret

00040598 <adv7513_audio_on>:




int adv7513_audio_on(struct hdmi_encoder *ec)
{
   40598:	defffe04 	addi	sp,sp,-8
	if (reg_write(ec, ADV7513_REG_AUDIO_CFG3, 0X70) != 0)
   4059c:	01400504 	movi	r5,20
   405a0:	01801c04 	movi	r6,112




int adv7513_audio_on(struct hdmi_encoder *ec)
{
   405a4:	dc000015 	stw	r16,0(sp)
   405a8:	dfc00115 	stw	ra,4(sp)
   405ac:	2021883a 	mov	r16,r4
	if (reg_write(ec, ADV7513_REG_AUDIO_CFG3, 0X70) != 0)
   405b0:	00457140 	call	45714 <reg_write>
   405b4:	10000226 	beq	r2,zero,405c0 <adv7513_audio_on+0x28>
		return -1;
   405b8:	00bfffc4 	movi	r2,-1
   405bc:	00000b06 	br	405ec <adv7513_audio_on+0x54>
	if (reg_write(ec, ADV7513_REG_I2C_FREQ_ID_CFG, 0X20) != 0)
   405c0:	8009883a 	mov	r4,r16
   405c4:	01400544 	movi	r5,21
   405c8:	01800804 	movi	r6,32
   405cc:	00457140 	call	45714 <reg_write>
   405d0:	103ff91e 	bne	r2,zero,405b8 <__alt_data_end+0xfffd94b8>
		return -1;
	if (reg_write(ec, ADV7513_REG_HDCP_HDMI_CFG, 0X16) != 0)
   405d4:	8009883a 	mov	r4,r16
   405d8:	01402bc4 	movi	r5,175
   405dc:	01800584 	movi	r6,22
   405e0:	00457140 	call	45714 <reg_write>
   405e4:	1004c03a 	cmpne	r2,r2,zero
   405e8:	0085c83a 	sub	r2,zero,r2
		return -1;
	return 0;
}
   405ec:	dfc00117 	ldw	ra,4(sp)
   405f0:	dc000017 	ldw	r16,0(sp)
   405f4:	dec00204 	addi	sp,sp,8
   405f8:	f800283a 	ret

000405fc <adv7513_audio_off>:

int adv7513_audio_off(struct hdmi_encoder *ec)
{
   405fc:	defffe04 	addi	sp,sp,-8
	if (reg_write(ec, ADV7513_REG_AUDIO_CFG3, 0X00) != 0)
   40600:	01400504 	movi	r5,20
   40604:	000d883a 	mov	r6,zero
		return -1;
	return 0;
}

int adv7513_audio_off(struct hdmi_encoder *ec)
{
   40608:	dc000015 	stw	r16,0(sp)
   4060c:	dfc00115 	stw	ra,4(sp)
   40610:	2021883a 	mov	r16,r4
	if (reg_write(ec, ADV7513_REG_AUDIO_CFG3, 0X00) != 0)
   40614:	00457140 	call	45714 <reg_write>
   40618:	10000226 	beq	r2,zero,40624 <adv7513_audio_off+0x28>
		return -1;
   4061c:	00bfffc4 	movi	r2,-1
   40620:	00000b06 	br	40650 <adv7513_audio_off+0x54>
	if (reg_write(ec, ADV7513_REG_I2C_FREQ_ID_CFG, 0X00) != 0)
   40624:	8009883a 	mov	r4,r16
   40628:	01400544 	movi	r5,21
   4062c:	000d883a 	mov	r6,zero
   40630:	00457140 	call	45714 <reg_write>
   40634:	103ff91e 	bne	r2,zero,4061c <__alt_data_end+0xfffd951c>
		return -1;
	if (reg_write(ec, ADV7513_REG_HDCP_HDMI_CFG, 0X14) != 0)
   40638:	8009883a 	mov	r4,r16
   4063c:	01402bc4 	movi	r5,175
   40640:	01800504 	movi	r6,20
   40644:	00457140 	call	45714 <reg_write>
   40648:	1004c03a 	cmpne	r2,r2,zero
   4064c:	0085c83a 	sub	r2,zero,r2
		return -1;
	return 0;
}
   40650:	dfc00117 	ldw	ra,4(sp)
   40654:	dc000017 	ldw	r16,0(sp)
   40658:	dec00204 	addi	sp,sp,8
   4065c:	f800283a 	ret

00040660 <adv7513_kick_up>:
// interrupt if the monitor is in sleep mode and the cable is connected before downloading
// the program to the fpga board. It is verified that kick-off the encoder chip facilitates
// the encoder to detect monitor-sense signal at the program initialization process
//
extern int adv7513_kick_up(struct hdmi_encoder *ec)
{
   40660:	deffff04 	addi	sp,sp,-4
	// power up the encoder
	if (reg_update_bits(ec, 0x41, 0x40, 0) != 0)
   40664:	01401044 	movi	r5,65
   40668:	01801004 	movi	r6,64
   4066c:	000f883a 	mov	r7,zero
// interrupt if the monitor is in sleep mode and the cable is connected before downloading
// the program to the fpga board. It is verified that kick-off the encoder chip facilitates
// the encoder to detect monitor-sense signal at the program initialization process
//
extern int adv7513_kick_up(struct hdmi_encoder *ec)
{
   40670:	dfc00015 	stw	ra,0(sp)
	// power up the encoder
	if (reg_update_bits(ec, 0x41, 0x40, 0) != 0)
   40674:	00457580 	call	45758 <reg_update_bits>
   40678:	1004c03a 	cmpne	r2,r2,zero
		return -1;

	return 0;
}
   4067c:	0085c83a 	sub	r2,zero,r2
   40680:	dfc00017 	ldw	ra,0(sp)
   40684:	dec00104 	addi	sp,sp,4
   40688:	f800283a 	ret

0004068c <adv7513_do_hpd_powerdown>:

int adv7513_do_hpd_powerdown(struct hdmi_encoder *ec)
{
	// power down the encoder
	if (reg_update_bits(ec, 0x41, 0x40, 0x40) != 0)
   4068c:	01801004 	movi	r6,64

	return 0;
}

int adv7513_do_hpd_powerdown(struct hdmi_encoder *ec)
{
   40690:	deffff04 	addi	sp,sp,-4
	// power down the encoder
	if (reg_update_bits(ec, 0x41, 0x40, 0x40) != 0)
   40694:	01401044 	movi	r5,65
   40698:	300f883a 	mov	r7,r6

	return 0;
}

int adv7513_do_hpd_powerdown(struct hdmi_encoder *ec)
{
   4069c:	dfc00015 	stw	ra,0(sp)
	// power down the encoder
	if (reg_update_bits(ec, 0x41, 0x40, 0x40) != 0)
   406a0:	00457580 	call	45758 <reg_update_bits>
   406a4:	1004c03a 	cmpne	r2,r2,zero
		return -1;

	return 0;
}
   406a8:	0085c83a 	sub	r2,zero,r2
   406ac:	dfc00017 	ldw	ra,0(sp)
   406b0:	dec00104 	addi	sp,sp,4
   406b4:	f800283a 	ret

000406b8 <adv7513_power_state>:

int adv7513_power_state(struct hdmi_encoder *ec, int *state)
{
   406b8:	defffd04 	addi	sp,sp,-12
   406bc:	dc000115 	stw	r16,4(sp)
	bool r = 0;
	alt_u8 regv = 0;

	r = reg_read(ec, 0x41, &regv);
   406c0:	d80d883a 	mov	r6,sp

	return 0;
}

int adv7513_power_state(struct hdmi_encoder *ec, int *state)
{
   406c4:	2821883a 	mov	r16,r5
	bool r = 0;
	alt_u8 regv = 0;

	r = reg_read(ec, 0x41, &regv);
   406c8:	01401044 	movi	r5,65

	return 0;
}

int adv7513_power_state(struct hdmi_encoder *ec, int *state)
{
   406cc:	dfc00215 	stw	ra,8(sp)
	bool r = 0;
	alt_u8 regv = 0;
   406d0:	d8000005 	stb	zero,0(sp)

	r = reg_read(ec, 0x41, &regv);
   406d4:	00456d40 	call	456d4 <reg_read>
	if (r != 0)
   406d8:	1000041e 	bne	r2,zero,406ec <adv7513_power_state+0x34>
		return -1;

	if ((regv & 0x40) == 1)
		*state = 0;
	else
		*state = 1;
   406dc:	00800044 	movi	r2,1
   406e0:	80800015 	stw	r2,0(r16)

	return 0;
   406e4:	0005883a 	mov	r2,zero
   406e8:	00000106 	br	406f0 <adv7513_power_state+0x38>
	bool r = 0;
	alt_u8 regv = 0;

	r = reg_read(ec, 0x41, &regv);
	if (r != 0)
		return -1;
   406ec:	00bfffc4 	movi	r2,-1
		*state = 0;
	else
		*state = 1;

	return 0;
}
   406f0:	dfc00217 	ldw	ra,8(sp)
   406f4:	dc000117 	ldw	r16,4(sp)
   406f8:	dec00304 	addi	sp,sp,12
   406fc:	f800283a 	ret

00040700 <adv7513_mode_state>:

int adv7513_mode_state(struct hdmi_encoder *ec, int *vic, const char **mode)
{
   40700:	defffc04 	addi	sp,sp,-16
   40704:	dc400215 	stw	r17,8(sp)
   40708:	dc000115 	stw	r16,4(sp)
   4070c:	2823883a 	mov	r17,r5
   40710:	3021883a 	mov	r16,r6
	};

	bool r = 0;
	alt_u8 regv = 0;

	r = reg_read(ec, 0x3d, &regv);
   40714:	01400f44 	movi	r5,61
   40718:	d80d883a 	mov	r6,sp

	return 0;
}

int adv7513_mode_state(struct hdmi_encoder *ec, int *vic, const char **mode)
{
   4071c:	dfc00315 	stw	ra,12(sp)
		"720(1440)x480i @239.76/240 Hz (4:3)",
		"720(1440)x480i @239.76/240 Hz (16:9)",
	};

	bool r = 0;
	alt_u8 regv = 0;
   40720:	d8000005 	stb	zero,0(sp)

	r = reg_read(ec, 0x3d, &regv);
   40724:	00456d40 	call	456d4 <reg_read>
	if (r != 0)
   40728:	10000c1e 	bne	r2,zero,4075c <adv7513_mode_state+0x5c>
		return -1;

	*vic = regv & 0x1f;
   4072c:	d8800003 	ldbu	r2,0(sp)

	if (*vic < 60) {
		*mode = vic_table[*vic];
   40730:	00c00174 	movhi	r3,5
   40734:	18de2804 	addi	r3,r3,30880

	r = reg_read(ec, 0x3d, &regv);
	if (r != 0)
		return -1;

	*vic = regv & 0x1f;
   40738:	108007cc 	andi	r2,r2,31
   4073c:	88800015 	stw	r2,0(r17)

	if (*vic < 60) {
		*mode = vic_table[*vic];
   40740:	1085883a 	add	r2,r2,r2
   40744:	1085883a 	add	r2,r2,r2
   40748:	1885883a 	add	r2,r3,r2
   4074c:	10800017 	ldw	r2,0(r2)
   40750:	80800015 	stw	r2,0(r16)
	} else {
		*mode = vic_table[0];
	}

	return 0;
   40754:	0005883a 	mov	r2,zero
   40758:	00000106 	br	40760 <adv7513_mode_state+0x60>
	bool r = 0;
	alt_u8 regv = 0;

	r = reg_read(ec, 0x3d, &regv);
	if (r != 0)
		return -1;
   4075c:	00bfffc4 	movi	r2,-1
	} else {
		*mode = vic_table[0];
	}

	return 0;
}
   40760:	dfc00317 	ldw	ra,12(sp)
   40764:	dc400217 	ldw	r17,8(sp)
   40768:	dc000117 	ldw	r16,4(sp)
   4076c:	dec00404 	addi	sp,sp,16
   40770:	f800283a 	ret

00040774 <adv7513_edid_read>:

int adv7513_edid_read(struct hdmi_encoder *ec, void *edid, int segment)
{
   40774:	defff904 	addi	sp,sp,-28
   40778:	dc400215 	stw	r17,8(sp)
	bool r = 0;
	alt_u8 *regv = (alt_u8 *)edid;
	int i;

	for (i = 0 + segment * 256; i < (segment + 1) * 256; ++i, ++regv) {
   4077c:	3022923a 	slli	r17,r6,8

	return 0;
}

int adv7513_edid_read(struct hdmi_encoder *ec, void *edid, int segment)
{
   40780:	dd000515 	stw	r20,20(sp)
   40784:	dcc00415 	stw	r19,16(sp)
   40788:	dc800315 	stw	r18,12(sp)
   4078c:	dc000115 	stw	r16,4(sp)
   40790:	dfc00615 	stw	ra,24(sp)
   40794:	2029883a 	mov	r20,r4
   40798:	2827883a 	mov	r19,r5
	bool r = 0;
	alt_u8 *regv = (alt_u8 *)edid;
	int i;

	for (i = 0 + segment * 256; i < (segment + 1) * 256; ++i, ++regv) {
   4079c:	8c804004 	addi	r18,r17,256
   407a0:	8821883a 	mov	r16,r17
   407a4:	8445c83a 	sub	r2,r16,r17
   407a8:	9885883a 	add	r2,r19,r2
   407ac:	84800b0e 	bge	r16,r18,407dc <adv7513_edid_read+0x68>
		r = I2C_Read(I2C_SCL_BASE, I2C_SDA_BASE, ec->edid_addr, i, regv);
   407b0:	a1800107 	ldb	r6,4(r20)
   407b4:	01000234 	movhi	r4,8
   407b8:	01400234 	movhi	r5,8
   407bc:	d8800015 	stw	r2,0(sp)
   407c0:	21041004 	addi	r4,r4,4160
   407c4:	29440c04 	addi	r5,r5,4144
   407c8:	81c03fcc 	andi	r7,r16,255
   407cc:	0045cac0 	call	45cac <I2C_Read>
		if (!r)
   407d0:	10000426 	beq	r2,zero,407e4 <adv7513_edid_read+0x70>
{
	bool r = 0;
	alt_u8 *regv = (alt_u8 *)edid;
	int i;

	for (i = 0 + segment * 256; i < (segment + 1) * 256; ++i, ++regv) {
   407d4:	84000044 	addi	r16,r16,1
   407d8:	003ff206 	br	407a4 <__alt_data_end+0xfffd96a4>
		r = I2C_Read(I2C_SCL_BASE, I2C_SDA_BASE, ec->edid_addr, i, regv);
		if (!r)
			return -1;
	}

	return 0;
   407dc:	0005883a 	mov	r2,zero
   407e0:	00000106 	br	407e8 <adv7513_edid_read+0x74>
	int i;

	for (i = 0 + segment * 256; i < (segment + 1) * 256; ++i, ++regv) {
		r = I2C_Read(I2C_SCL_BASE, I2C_SDA_BASE, ec->edid_addr, i, regv);
		if (!r)
			return -1;
   407e4:	00bfffc4 	movi	r2,-1
	}

	return 0;
}
   407e8:	dfc00617 	ldw	ra,24(sp)
   407ec:	dd000517 	ldw	r20,20(sp)
   407f0:	dcc00417 	ldw	r19,16(sp)
   407f4:	dc800317 	ldw	r18,12(sp)
   407f8:	dc400217 	ldw	r17,8(sp)
   407fc:	dc000117 	ldw	r16,4(sp)
   40800:	dec00704 	addi	sp,sp,28
   40804:	f800283a 	ret

00040808 <adv7513_regmap_dump>:

int adv7513_regmap_dump(struct hdmi_encoder *ec, void *data, int offset)
{
   40808:	defffa04 	addi	sp,sp,-24
   4080c:	dcc00415 	stw	r19,16(sp)
   40810:	dc800315 	stw	r18,12(sp)
   40814:	dc400215 	stw	r17,8(sp)
   40818:	dc000115 	stw	r16,4(sp)
   4081c:	dfc00515 	stw	ra,20(sp)
   40820:	2025883a 	mov	r18,r4
   40824:	2827883a 	mov	r19,r5
	bool r = 0;
	alt_u8 *regv = (alt_u8 *)data;
	int i;

	for (i = 0; i < 256; ++i, ++regv) {
   40828:	0021883a 	mov	r16,zero
   4082c:	04404004 	movi	r17,256
		r = I2C_Read(I2C_SCL_BASE, I2C_SDA_BASE, ec->slave_addr, i, regv);
   40830:	91800007 	ldb	r6,0(r18)
   40834:	9c05883a 	add	r2,r19,r16
   40838:	01000234 	movhi	r4,8
   4083c:	01400234 	movhi	r5,8
   40840:	d8800015 	stw	r2,0(sp)
   40844:	21041004 	addi	r4,r4,4160
   40848:	29440c04 	addi	r5,r5,4144
   4084c:	800f883a 	mov	r7,r16
   40850:	0045cac0 	call	45cac <I2C_Read>
		if (!r)
   40854:	10000426 	beq	r2,zero,40868 <adv7513_regmap_dump+0x60>
{
	bool r = 0;
	alt_u8 *regv = (alt_u8 *)data;
	int i;

	for (i = 0; i < 256; ++i, ++regv) {
   40858:	84000044 	addi	r16,r16,1
   4085c:	847ff41e 	bne	r16,r17,40830 <__alt_data_end+0xfffd9730>
		r = I2C_Read(I2C_SCL_BASE, I2C_SDA_BASE, ec->slave_addr, i, regv);
		if (!r)
			return -1;
	}

	return 0;
   40860:	0005883a 	mov	r2,zero
   40864:	00000106 	br	4086c <adv7513_regmap_dump+0x64>
	int i;

	for (i = 0; i < 256; ++i, ++regv) {
		r = I2C_Read(I2C_SCL_BASE, I2C_SDA_BASE, ec->slave_addr, i, regv);
		if (!r)
			return -1;
   40868:	00bfffc4 	movi	r2,-1
	}

	return 0;
}
   4086c:	dfc00517 	ldw	ra,20(sp)
   40870:	dcc00417 	ldw	r19,16(sp)
   40874:	dc800317 	ldw	r18,12(sp)
   40878:	dc400217 	ldw	r17,8(sp)
   4087c:	dc000117 	ldw	r16,4(sp)
   40880:	dec00604 	addi	sp,sp,24
   40884:	f800283a 	ret

00040888 <adv7513_chip_init>:
	return 0;
}
#endif

int adv7513_chip_init(struct hdmi_encoder *ec, int dvi)
{
   40888:	defffd04 	addi	sp,sp,-12
   4088c:	dc400115 	stw	r17,4(sp)
	int regv;

	//printf("adv7513_video_in_format()\n");

	// 0x15[3:0] <- id
	if (reg_update_bits(ec, 0x15, 0x0f, id) != 0)
   40890:	018003c4 	movi	r6,15
	return 0;
}
#endif

int adv7513_chip_init(struct hdmi_encoder *ec, int dvi)
{
   40894:	2823883a 	mov	r17,r5
	int regv;

	//printf("adv7513_video_in_format()\n");

	// 0x15[3:0] <- id
	if (reg_update_bits(ec, 0x15, 0x0f, id) != 0)
   40898:	000f883a 	mov	r7,zero
   4089c:	01400544 	movi	r5,21
	return 0;
}
#endif

int adv7513_chip_init(struct hdmi_encoder *ec, int dvi)
{
   408a0:	dc000015 	stw	r16,0(sp)
   408a4:	dfc00215 	stw	ra,8(sp)
   408a8:	2021883a 	mov	r16,r4
	int regv;

	//printf("adv7513_video_in_format()\n");

	// 0x15[3:0] <- id
	if (reg_update_bits(ec, 0x15, 0x0f, id) != 0)
   408ac:	00457580 	call	45758 <reg_update_bits>
   408b0:	10002c1e 	bne	r2,zero,40964 <adv7513_chip_init+0xdc>

	// 0x16[5:4] <- depth
	// 0x16[3:2] <- style
	// 0x16[0] <- color_space
	regv = ((depth & 0x03) << 4) | ((style & 0x03) << 2) | (color_space & 0x01);
	if (reg_update_bits(ec, 0x16, 0x3d, regv) != 0)
   408b4:	8009883a 	mov	r4,r16
   408b8:	01400584 	movi	r5,22
   408bc:	01800f44 	movi	r6,61
   408c0:	01c00c04 	movi	r7,48
   408c4:	00457580 	call	45758 <reg_update_bits>
   408c8:	1000261e 	bne	r2,zero,40964 <adv7513_chip_init+0xdc>
		return -1;

	// 0x17[1] <- aspect
	if (reg_update_bits(ec, 0x17, 0x02, (aspect & 0x01) << 1) != 0)
   408cc:	8009883a 	mov	r4,r16
   408d0:	014005c4 	movi	r5,23
   408d4:	01800084 	movi	r6,2
   408d8:	000f883a 	mov	r7,zero
   408dc:	00457580 	call	45758 <reg_update_bits>
   408e0:	1000201e 	bne	r2,zero,40964 <adv7513_chip_init+0xdc>
	// 0x15 0x16 0x17
	if (adv7513_video_in_format(ec, ADV7513_INPUT_ID_24BIT_RGB444_YCBCR444, ADV7513_INPUT_COLOR_DEPTH_8BIT, ADV7513_INPUT_COLOR_SPACE_RGB, ADV7513_INPUT_ASPECT_4V3, ADV7513_INPUT_INVALID) != 0)
		return -1;

	// 0x16 0x18 0xaf 0x40 0x4c 0x3c
	if (dvi != 0) {
   408e4:	88002326 	beq	r17,zero,40974 <adv7513_chip_init+0xec>
		if (adv7513_video_out_format(ec, ADV7513_OUTPUT_444, ADV7513_MODE_DVI) != 0)
   408e8:	8009883a 	mov	r4,r16
   408ec:	000b883a 	mov	r5,zero
   408f0:	004028c0 	call	4028c <adv7513_video_out_format.constprop.3>
   408f4:	1000921e 	bne	r2,zero,40b40 <adv7513_chip_init+0x2b8>
	int regv;

	//printf("adv7513_avi_infoframe()\n");

#if 1  // local development defaults
	avi->scan_info = 2;  		// scan
   408f8:	00800084 	movi	r2,2
   408fc:	80800915 	stw	r2,36(r16)
	avi->rgb_ycbcr = 0;			// rgb or ycbcr
	//avi->f7 = 0;				// reserved
	avi->active_fmt = 1;		// active format r3r0 valid
	avi->active_fmt_ar = 8;		// active format aspect ratio
   40900:	00c00204 	movi	r3,8

#if 1  // local development defaults
	avi->scan_info = 2;  		// scan
	avi->rgb_ycbcr = 0;			// rgb or ycbcr
	//avi->f7 = 0;				// reserved
	avi->active_fmt = 1;		// active format r3r0 valid
   40904:	00800044 	movi	r2,1
	//   0x55[6:5]
	//   0x56[5:4]

	// 0x44[4] avi infoframe enable 0)disable 1)enable
	// 0x44[3] audio infoframe enable 0)disable 1)enable
	if (reg_update_bits(ec, 0x44, 0x10, 1 << 4) != 0)
   40908:	01800404 	movi	r6,16

	//printf("adv7513_avi_infoframe()\n");

#if 1  // local development defaults
	avi->scan_info = 2;  		// scan
	avi->rgb_ycbcr = 0;			// rgb or ycbcr
   4090c:	80000c15 	stw	zero,48(r16)
	//avi->f7 = 0;				// reserved
	avi->active_fmt = 1;		// active format r3r0 valid
   40910:	80800b15 	stw	r2,44(r16)
	avi->active_fmt_ar = 8;		// active format aspect ratio
   40914:	80c00d15 	stw	r3,52(r16)
	avi->pict_ar = 1;			// picture aspect ratio
   40918:	80800e15 	stw	r2,56(r16)
	avi->colorimetry = 0;		// colorimetry
   4091c:	80000f15 	stw	zero,60(r16)
	avi->colorimetry_ext = 0;	// extended colorimetry
   40920:	80001215 	stw	zero,72(r16)
	avi->scaling = 0;			// non-uniform scaling
   40924:	80001015 	stw	zero,64(r16)
	avi->quant = 0;				// rgb quantization range
   40928:	80001115 	stw	zero,68(r16)
	avi->itc = 0;				// it content
   4092c:	80001315 	stw	zero,76(r16)
	avi->pr = 0;				// pixel repetition factor
   40930:	80001515 	stw	zero,84(r16)
	avi->vic = 1;				// video identification code
   40934:	80801415 	stw	r2,80(r16)
	avi->yq1yq0 = 0;			// ??
   40938:	80001615 	stw	zero,88(r16)

	avi->bar_info = 1;  		// bar fields valid
   4093c:	80800a15 	stw	r2,40(r16)
	avi->bar.top_e = 0;
   40940:	80001715 	stw	zero,92(r16)
	avi->bar.bottom_s = 0;
   40944:	80001815 	stw	zero,96(r16)
	avi->bar.left_e = 0;
   40948:	80001915 	stw	zero,100(r16)
	avi->bar.right_s = 0;
   4094c:	80001a15 	stw	zero,104(r16)
	//   0x55[6:5]
	//   0x56[5:4]

	// 0x44[4] avi infoframe enable 0)disable 1)enable
	// 0x44[3] audio infoframe enable 0)disable 1)enable
	if (reg_update_bits(ec, 0x44, 0x10, 1 << 4) != 0)
   40950:	8009883a 	mov	r4,r16
   40954:	01401104 	movi	r5,68
   40958:	300f883a 	mov	r7,r6
   4095c:	00457580 	call	45758 <reg_update_bits>
   40960:	10000726 	beq	r2,zero,40980 <adv7513_chip_init+0xf8>
	//		return -1;
	//}

	// 0x15 0x16 0x17
	if (adv7513_video_in_format(ec, ADV7513_INPUT_ID_24BIT_RGB444_YCBCR444, ADV7513_INPUT_COLOR_DEPTH_8BIT, ADV7513_INPUT_COLOR_SPACE_RGB, ADV7513_INPUT_ASPECT_4V3, ADV7513_INPUT_INVALID) != 0)
		return -1;
   40964:	00bfffc4 	movi	r2,-1
}
#endif

int adv7513_chip_init(struct hdmi_encoder *ec, int dvi)
{
	if (adv7513_video_init(ec, dvi) != 0)
   40968:	1004c03a 	cmpne	r2,r2,zero
   4096c:	0085c83a 	sub	r2,zero,r2
   40970:	00007406 	br	40b44 <adv7513_chip_init+0x2bc>
	// 0x16 0x18 0xaf 0x40 0x4c 0x3c
	if (dvi != 0) {
		if (adv7513_video_out_format(ec, ADV7513_OUTPUT_444, ADV7513_MODE_DVI) != 0)
			return -1;
	} else {
		if (adv7513_video_out_format(ec, ADV7513_OUTPUT_444, ADV7513_MODE_HDMI) != 0)
   40974:	8009883a 	mov	r4,r16
   40978:	01400044 	movi	r5,1
   4097c:	003fdc06 	br	408f0 <__alt_data_end+0xfffd97f0>

	// 0x4a[7] <- auto checksum
	// 0x4a[6] avi infoframe packet update 0)locked-by-packet_buffer 1)locked-by-i2c
	// 0x4a[5] audio infoframe packet update 0)locked-by-packet_buffer 1)locked-by-i2c
	// 0x4a[4] gc packet update 0)locked-by-packet_buffer 1)locked-by-i2c
	if (reg_update_bits(ec, 0x4a, 0xc0, 3 << 6) != 0)
   40980:	01803004 	movi	r6,192
   40984:	8009883a 	mov	r4,r16
   40988:	01401284 	movi	r5,74
   4098c:	300f883a 	mov	r7,r6
   40990:	00457580 	call	45758 <reg_update_bits>
   40994:	103ff31e 	bne	r2,zero,40964 <__alt_data_end+0xfffd9864>

	// 0x55[6:5] <- output format 0)rgb 1)ycbcr422 2)ycbcr444
	// 0x55[4]   <- active format indicator 0)no-data 1)valid (bar, scan, colorimetry, non-uniform-scaling, active-aspect-ratio)
	// 0x55[3:2] <- bar 0)invalid-bar 1)vertical 2)horizontal 3)both
	// 0x55[1:0] <- scan 0)no-data 1)tv 2)pc 3)none
	regv = ((avi->rgb_ycbcr & 0x03) << 5) | ((avi->active_fmt & 0x01) << 4) | ((avi->bar_info & 0x03) << 2) | ((avi->scan_info & 0x03) << 0);
   40998:	80800c17 	ldw	r2,48(r16)
	if (reg_update_bits(ec, 0x55, 0x70, regv) != 0)
   4099c:	8009883a 	mov	r4,r16
   409a0:	01401544 	movi	r5,85

	// 0x55[6:5] <- output format 0)rgb 1)ycbcr422 2)ycbcr444
	// 0x55[4]   <- active format indicator 0)no-data 1)valid (bar, scan, colorimetry, non-uniform-scaling, active-aspect-ratio)
	// 0x55[3:2] <- bar 0)invalid-bar 1)vertical 2)horizontal 3)both
	// 0x55[1:0] <- scan 0)no-data 1)tv 2)pc 3)none
	regv = ((avi->rgb_ycbcr & 0x03) << 5) | ((avi->active_fmt & 0x01) << 4) | ((avi->bar_info & 0x03) << 2) | ((avi->scan_info & 0x03) << 0);
   409a4:	108000cc 	andi	r2,r2,3
   409a8:	100e917a 	slli	r7,r2,5
   409ac:	80800b17 	ldw	r2,44(r16)
	if (reg_update_bits(ec, 0x55, 0x70, regv) != 0)
   409b0:	01801c04 	movi	r6,112

	// 0x55[6:5] <- output format 0)rgb 1)ycbcr422 2)ycbcr444
	// 0x55[4]   <- active format indicator 0)no-data 1)valid (bar, scan, colorimetry, non-uniform-scaling, active-aspect-ratio)
	// 0x55[3:2] <- bar 0)invalid-bar 1)vertical 2)horizontal 3)both
	// 0x55[1:0] <- scan 0)no-data 1)tv 2)pc 3)none
	regv = ((avi->rgb_ycbcr & 0x03) << 5) | ((avi->active_fmt & 0x01) << 4) | ((avi->bar_info & 0x03) << 2) | ((avi->scan_info & 0x03) << 0);
   409b4:	1080004c 	andi	r2,r2,1
   409b8:	1004913a 	slli	r2,r2,4
   409bc:	3884b03a 	or	r2,r7,r2
   409c0:	81c00917 	ldw	r7,36(r16)
   409c4:	39c000cc 	andi	r7,r7,3
   409c8:	11ceb03a 	or	r7,r2,r7
   409cc:	80800a17 	ldw	r2,40(r16)
   409d0:	108000cc 	andi	r2,r2,3
   409d4:	1085883a 	add	r2,r2,r2
   409d8:	1085883a 	add	r2,r2,r2
	if (reg_update_bits(ec, 0x55, 0x70, regv) != 0)
   409dc:	388eb03a 	or	r7,r7,r2
   409e0:	00457580 	call	45758 <reg_update_bits>
   409e4:	103fdf1e 	bne	r2,zero,40964 <__alt_data_end+0xfffd9864>
		return -1;

	// 0x56[7:6] <- colorimetry 0)no-data 1)ITU601 2)ITU709 3)extended <- 0x57[6:4]
	// 0x56[5:4] <- picture aspect ratio 0)no-data 1)4:3 2)16:9 3)none
	// 0x56[3:0] <- active aspect ratio 8)same as 0x56[5:4] 9)4:3 10)16:0 11)14:9
	regv = ((avi->colorimetry & 0x03) << 6) | ((avi->pict_ar & 0x03) << 4) | ((avi->active_fmt_ar & 0x0f) << 0);
   409e8:	81800f17 	ldw	r6,60(r16)
   409ec:	80800e17 	ldw	r2,56(r16)
	if (reg_write(ec, 0x56, regv) != 0)
   409f0:	8009883a 	mov	r4,r16
		return -1;

	// 0x56[7:6] <- colorimetry 0)no-data 1)ITU601 2)ITU709 3)extended <- 0x57[6:4]
	// 0x56[5:4] <- picture aspect ratio 0)no-data 1)4:3 2)16:9 3)none
	// 0x56[3:0] <- active aspect ratio 8)same as 0x56[5:4] 9)4:3 10)16:0 11)14:9
	regv = ((avi->colorimetry & 0x03) << 6) | ((avi->pict_ar & 0x03) << 4) | ((avi->active_fmt_ar & 0x0f) << 0);
   409f4:	300c91ba 	slli	r6,r6,6
   409f8:	108000cc 	andi	r2,r2,3
   409fc:	1004913a 	slli	r2,r2,4
   40a00:	31803fcc 	andi	r6,r6,255
	if (reg_write(ec, 0x56, regv) != 0)
   40a04:	01401584 	movi	r5,86
		return -1;

	// 0x56[7:6] <- colorimetry 0)no-data 1)ITU601 2)ITU709 3)extended <- 0x57[6:4]
	// 0x56[5:4] <- picture aspect ratio 0)no-data 1)4:3 2)16:9 3)none
	// 0x56[3:0] <- active aspect ratio 8)same as 0x56[5:4] 9)4:3 10)16:0 11)14:9
	regv = ((avi->colorimetry & 0x03) << 6) | ((avi->pict_ar & 0x03) << 4) | ((avi->active_fmt_ar & 0x0f) << 0);
   40a08:	3084b03a 	or	r2,r6,r2
   40a0c:	81800d17 	ldw	r6,52(r16)
   40a10:	318003cc 	andi	r6,r6,15
	if (reg_write(ec, 0x56, regv) != 0)
   40a14:	118cb03a 	or	r6,r2,r6
   40a18:	00457140 	call	45714 <reg_write>
   40a1c:	103fd11e 	bne	r2,zero,40964 <__alt_data_end+0xfffd9864>

	// 0x57[7] <- itc 0)none 1)available in 0x59[5:4]
	// 0x57[6:4] <- extended colorimetry 0)xvYCC601 1)xvYCC701 2)sYCC601 3)AdobeYCC601 4)AdobeRGB
	// 0x57[3:2] <- rgb quantization range 0)default 1)limited 2)full 11)reserved
	// 0x57[1:0] <- non-uniform picture scaling 0)unknown 1)h-scaling 2) v-scaling 3)h/v scaling
	regv = ((avi->itc & 0x01) << 7) | ((avi->colorimetry_ext & 0x07) << 4) | ((avi->quant & 0x03) << 2) | ((avi->scaling & 0x03) << 0);
   40a20:	80801317 	ldw	r2,76(r16)
	if (reg_write(ec, 0x57, regv) != 0)
   40a24:	8009883a 	mov	r4,r16
   40a28:	014015c4 	movi	r5,87

	// 0x57[7] <- itc 0)none 1)available in 0x59[5:4]
	// 0x57[6:4] <- extended colorimetry 0)xvYCC601 1)xvYCC701 2)sYCC601 3)AdobeYCC601 4)AdobeRGB
	// 0x57[3:2] <- rgb quantization range 0)default 1)limited 2)full 11)reserved
	// 0x57[1:0] <- non-uniform picture scaling 0)unknown 1)h-scaling 2) v-scaling 3)h/v scaling
	regv = ((avi->itc & 0x01) << 7) | ((avi->colorimetry_ext & 0x07) << 4) | ((avi->quant & 0x03) << 2) | ((avi->scaling & 0x03) << 0);
   40a2c:	100491fa 	slli	r2,r2,7
   40a30:	11803fcc 	andi	r6,r2,255
   40a34:	80801217 	ldw	r2,72(r16)
   40a38:	108001cc 	andi	r2,r2,7
   40a3c:	1004913a 	slli	r2,r2,4
   40a40:	3084b03a 	or	r2,r6,r2
   40a44:	81801017 	ldw	r6,64(r16)
   40a48:	318000cc 	andi	r6,r6,3
   40a4c:	118cb03a 	or	r6,r2,r6
   40a50:	80801117 	ldw	r2,68(r16)
   40a54:	108000cc 	andi	r2,r2,3
   40a58:	1085883a 	add	r2,r2,r2
   40a5c:	1085883a 	add	r2,r2,r2
	if (reg_write(ec, 0x57, regv) != 0)
   40a60:	308cb03a 	or	r6,r6,r2
   40a64:	00457140 	call	45714 <reg_write>
   40a68:	103fbe1e 	bne	r2,zero,40964 <__alt_data_end+0xfffd9864>
		return -1;

	// 0x59[7:4] <- extended colorimetry 0)xvYCC601 1)xvYCC701 2)sYCC601 3)AdobeYCC601 4)AdobeRGB
	regv = ((avi->yq1yq0 & 0x0f) << 4);
   40a6c:	81801617 	ldw	r6,88(r16)
	if (reg_write(ec, 0x59, regv) != 0)
   40a70:	8009883a 	mov	r4,r16
   40a74:	01401644 	movi	r5,89
	regv = ((avi->itc & 0x01) << 7) | ((avi->colorimetry_ext & 0x07) << 4) | ((avi->quant & 0x03) << 2) | ((avi->scaling & 0x03) << 0);
	if (reg_write(ec, 0x57, regv) != 0)
		return -1;

	// 0x59[7:4] <- extended colorimetry 0)xvYCC601 1)xvYCC701 2)sYCC601 3)AdobeYCC601 4)AdobeRGB
	regv = ((avi->yq1yq0 & 0x0f) << 4);
   40a78:	300c913a 	slli	r6,r6,4
	if (reg_write(ec, 0x59, regv) != 0)
   40a7c:	31803c0c 	andi	r6,r6,240
   40a80:	00457140 	call	45714 <reg_write>
   40a84:	103fb71e 	bne	r2,zero,40964 <__alt_data_end+0xfffd9864>
		return -1;

	// 0x5a[7:0] <- active line (bar)
	regv = avi->bar.top_e & 0xff;
	if (reg_write(ec, 0x5a, regv) != 0)
   40a88:	81801703 	ldbu	r6,92(r16)
   40a8c:	8009883a 	mov	r4,r16
   40a90:	01401684 	movi	r5,90
   40a94:	00457140 	call	45714 <reg_write>
   40a98:	103fb21e 	bne	r2,zero,40964 <__alt_data_end+0xfffd9864>
		return -1;

	// 0x5b[7:0] <- active line (bar)
	regv = (avi->bar.top_e >> 8) & 0xff;
	if (reg_write(ec, 0x5b, regv) != 0)
   40a9c:	81801743 	ldbu	r6,93(r16)
   40aa0:	8009883a 	mov	r4,r16
   40aa4:	014016c4 	movi	r5,91
   40aa8:	00457140 	call	45714 <reg_write>
   40aac:	103fad1e 	bne	r2,zero,40964 <__alt_data_end+0xfffd9864>
		return -1;

	// 0x5c[7:0] <- active line (bar)
	regv = avi->bar.bottom_s & 0xff;
	if (reg_write(ec, 0x5c, regv) != 0)
   40ab0:	81801803 	ldbu	r6,96(r16)
   40ab4:	8009883a 	mov	r4,r16
   40ab8:	01401704 	movi	r5,92
   40abc:	00457140 	call	45714 <reg_write>
   40ac0:	103fa81e 	bne	r2,zero,40964 <__alt_data_end+0xfffd9864>
		return -1;

	// 0x5d[7:0] <- active line (bar)
	regv = (avi->bar.bottom_s >> 8) & 0xff;
	if (reg_write(ec, 0x5d, regv) != 0)
   40ac4:	81801843 	ldbu	r6,97(r16)
   40ac8:	8009883a 	mov	r4,r16
   40acc:	01401744 	movi	r5,93
   40ad0:	00457140 	call	45714 <reg_write>
   40ad4:	103fa31e 	bne	r2,zero,40964 <__alt_data_end+0xfffd9864>
		return -1;

	// 0x5e[7:0] <- active line (bar)
	regv = avi->bar.left_e & 0xff;
	if (reg_write(ec, 0x5e, regv) != 0)
   40ad8:	81801903 	ldbu	r6,100(r16)
   40adc:	8009883a 	mov	r4,r16
   40ae0:	01401784 	movi	r5,94
   40ae4:	00457140 	call	45714 <reg_write>
   40ae8:	103f9e1e 	bne	r2,zero,40964 <__alt_data_end+0xfffd9864>
		return -1;

	// 0x5f[7:0] <- active line (bar)
	regv = (avi->bar.left_e >> 8) & 0xff;
	if (reg_write(ec, 0x5f, regv) != 0)
   40aec:	81801943 	ldbu	r6,101(r16)
   40af0:	8009883a 	mov	r4,r16
   40af4:	014017c4 	movi	r5,95
   40af8:	00457140 	call	45714 <reg_write>
   40afc:	103f991e 	bne	r2,zero,40964 <__alt_data_end+0xfffd9864>
		return -1;

	// 0x60[7:0] <- active line (bar)
	regv = avi->bar.right_s & 0xff;
	if (reg_write(ec, 0x60, regv) != 0)
   40b00:	81801a03 	ldbu	r6,104(r16)
   40b04:	8009883a 	mov	r4,r16
   40b08:	01401804 	movi	r5,96
   40b0c:	00457140 	call	45714 <reg_write>
   40b10:	103f941e 	bne	r2,zero,40964 <__alt_data_end+0xfffd9864>
		return -1;

	// 0x61[7:0] <- active line (bar)
	regv = (avi->bar.right_s >> 8) & 0xff;
	if (reg_write(ec, 0x61, regv) != 0)
   40b14:	81801a43 	ldbu	r6,105(r16)
   40b18:	8009883a 	mov	r4,r16
   40b1c:	01401844 	movi	r5,97
   40b20:	00457140 	call	45714 <reg_write>
   40b24:	103f8f1e 	bne	r2,zero,40964 <__alt_data_end+0xfffd9864>

	// 0x4a[7] <- auto checksum
	// 0x4a[6] avi infoframe packet update 0)locked-by-packet_buffer 1)locked-by-i2c
	// 0x4a[5] audio infoframe packet update 0)locked-by-packet_buffer 1)locked-by-i2c
	// 0x4a[4] gc packet update 0)locked-by-packet_buffer 1)locked-by-i2c
	if (reg_clear_bits(ec, 0x4a, 0x40) != 0)
   40b28:	8009883a 	mov	r4,r16
   40b2c:	01401284 	movi	r5,74
   40b30:	01801004 	movi	r6,64
   40b34:	00458b80 	call	458b8 <reg_clear_bits>
   40b38:	103f8b26 	beq	r2,zero,40968 <__alt_data_end+0xfffd9868>
   40b3c:	003f8906 	br	40964 <__alt_data_end+0xfffd9864>
#endif

int adv7513_chip_init(struct hdmi_encoder *ec, int dvi)
{
	if (adv7513_video_init(ec, dvi) != 0)
		return -1;
   40b40:	00bfffc4 	movi	r2,-1

	//if (adv7513_audio_init(ec) != 0)
	//	return -1;

	return 0;
}
   40b44:	dfc00217 	ldw	ra,8(sp)
   40b48:	dc400117 	ldw	r17,4(sp)
   40b4c:	dc000017 	ldw	r16,0(sp)
   40b50:	dec00304 	addi	sp,sp,12
   40b54:	f800283a 	ret

00040b58 <adv7513_chip_init_3d>:

int adv7513_chip_init_3d(struct hdmi_encoder *ec, int vic)
{
   40b58:	defff904 	addi	sp,sp,-28
   40b5c:	dcc00315 	stw	r19,12(sp)
	int aspect;

	//printf("adv7513_video_in_format_3d()\n");

	// 0x15[3:0] <- id
	if (reg_update_bits(ec, 0x15, 0x0f, id) != 0)
   40b60:	018003c4 	movi	r6,15

	return 0;
}

int adv7513_chip_init_3d(struct hdmi_encoder *ec, int vic)
{
   40b64:	2827883a 	mov	r19,r5
	int aspect;

	//printf("adv7513_video_in_format_3d()\n");

	// 0x15[3:0] <- id
	if (reg_update_bits(ec, 0x15, 0x0f, id) != 0)
   40b68:	000f883a 	mov	r7,zero
   40b6c:	01400544 	movi	r5,21

	return 0;
}

int adv7513_chip_init_3d(struct hdmi_encoder *ec, int vic)
{
   40b70:	dc000015 	stw	r16,0(sp)
   40b74:	dfc00615 	stw	ra,24(sp)
   40b78:	dd400515 	stw	r21,20(sp)
   40b7c:	dd000415 	stw	r20,16(sp)
   40b80:	dc800215 	stw	r18,8(sp)
   40b84:	dc400115 	stw	r17,4(sp)
   40b88:	2021883a 	mov	r16,r4
	int aspect;

	//printf("adv7513_video_in_format_3d()\n");

	// 0x15[3:0] <- id
	if (reg_update_bits(ec, 0x15, 0x0f, id) != 0)
   40b8c:	00457580 	call	45758 <reg_update_bits>
   40b90:	10003f1e 	bne	r2,zero,40c90 <adv7513_chip_init_3d+0x138>

	// 0x16[5:4] <- depth
	// 0x16[3:2] <- style
	// 0x16[0] <- color_space
	regv = ((depth & 0x03) << 4) | ((style & 0x03) << 2) | (color_space & 0x01);
	if (reg_update_bits(ec, 0x16, 0x3d, regv) != 0)
   40b94:	8009883a 	mov	r4,r16
   40b98:	01400584 	movi	r5,22
   40b9c:	01800f44 	movi	r6,61
   40ba0:	01c00c04 	movi	r7,48
   40ba4:	00457580 	call	45758 <reg_update_bits>
   40ba8:	1000391e 	bne	r2,zero,40c90 <adv7513_chip_init_3d+0x138>
		return -1;

	switch (vic) {
   40bac:	9c7fffc4 	addi	r17,r19,-1
   40bb0:	008005c4 	movi	r2,23
   40bb4:	14402136 	bltu	r2,r17,40c3c <adv7513_chip_init_3d+0xe4>
   40bb8:	880690ba 	slli	r3,r17,2
   40bbc:	00800134 	movhi	r2,4
   40bc0:	1082f404 	addi	r2,r2,3024
   40bc4:	1885883a 	add	r2,r3,r2
   40bc8:	10800017 	ldw	r2,0(r2)
   40bcc:	1000683a 	jmp	r2
   40bd0:	00040c38 	rdprs	zero,zero,4144
   40bd4:	00040c38 	rdprs	zero,zero,4144
   40bd8:	00040c30 	cmpltui	zero,zero,4144
   40bdc:	00040c30 	cmpltui	zero,zero,4144
   40be0:	00040c30 	cmpltui	zero,zero,4144
   40be4:	00040c38 	rdprs	zero,zero,4144
   40be8:	00040c30 	cmpltui	zero,zero,4144
   40bec:	00040c38 	rdprs	zero,zero,4144
   40bf0:	00040c30 	cmpltui	zero,zero,4144
   40bf4:	00040c38 	rdprs	zero,zero,4144
   40bf8:	00040c30 	cmpltui	zero,zero,4144
   40bfc:	00040c38 	rdprs	zero,zero,4144
   40c00:	00040c30 	cmpltui	zero,zero,4144
   40c04:	00040c38 	rdprs	zero,zero,4144
   40c08:	00040c30 	cmpltui	zero,zero,4144
   40c0c:	00040c30 	cmpltui	zero,zero,4144
   40c10:	00040c38 	rdprs	zero,zero,4144
   40c14:	00040c30 	cmpltui	zero,zero,4144
   40c18:	00040c30 	cmpltui	zero,zero,4144
   40c1c:	00040c30 	cmpltui	zero,zero,4144
   40c20:	00040c38 	rdprs	zero,zero,4144
   40c24:	00040c30 	cmpltui	zero,zero,4144
   40c28:	00040c38 	rdprs	zero,zero,4144
   40c2c:	00040c30 	cmpltui	zero,zero,4144
	case ADV7513_VIC_576p50_16_9:	// 720x576p 50Hz
	case ADV7513_VIC_720p50_16_9:	// 1280x720p 50Hz
	case ADV7513_VIC_1080i50_16_9:	// 1920x1080i 50Hz
	case ADV7513_VIC_576i50x2_16_9:	// 720(1440)x576i 50Hz
	case ADV7513_VIC_288p50x2_16_9:	// 720(1440)x288p 50Hz
		aspect = ADV7513_INPUT_ASPECT_16V9;
   40c30:	05000044 	movi	r20,1
   40c34:	00000106 	br	40c3c <adv7513_chip_init_3d+0xe4>
	case ADV7513_VIC_240p60x8_4_3:	// (2880)x240p 60Hz
	case ADV7513_VIC_480p60x2_4_3:	// 1440x480p 60Hz
	case ADV7513_VIC_576p50_4_3:	// 720x576p 50Hz
	case ADV7513_VIC_576i50x2_4_3:	// 720(1440)x576i 50Hz
	case ADV7513_VIC_288p50x2_4_3:	// 720(1440)x288p 50Hz
		aspect = ADV7513_INPUT_ASPECT_4V3;
   40c38:	0029883a 	mov	r20,zero
		aspect = ADV7513_INPUT_ASPECT_16V9;
		break;
	}

	// 0x17[1] <- aspect
	if (reg_update_bits(ec, 0x17, 0x02, (aspect & 0x01) << 1) != 0)
   40c3c:	054005c4 	movi	r21,23
   40c40:	04800084 	movi	r18,2
   40c44:	8009883a 	mov	r4,r16
   40c48:	a80b883a 	mov	r5,r21
   40c4c:	900d883a 	mov	r6,r18
   40c50:	a50f883a 	add	r7,r20,r20
   40c54:	00457580 	call	45758 <reg_update_bits>
   40c58:	10001126 	beq	r2,zero,40ca0 <adv7513_chip_init_3d+0x148>
   40c5c:	00000c06 	br	40c90 <adv7513_chip_init_3d+0x138>
		return -1;
	}

	// 0xaf[7] <- hdcp (enable/disable)
	// 0xaf[1] <- 0)dvi 1)hdmi (section 4.2.2)
	if (reg_update_bits(ec, 0xaf, 0x82, (1 & 0x01) << 1) != 0)
   40c60:	8009883a 	mov	r4,r16
   40c64:	01402bc4 	movi	r5,175
   40c68:	01802084 	movi	r6,130
   40c6c:	900f883a 	mov	r7,r18
   40c70:	00457580 	call	45758 <reg_update_bits>
   40c74:	1000061e 	bne	r2,zero,40c90 <adv7513_chip_init_3d+0x138>
		return -1;

	// general control packet
	// 0x40[7] <- gc (section 4.2.3 && 4.3.3)
	if (reg_update_bits(ec, 0x40, 0x80, (1 & 0x01) << 7) != 0)
   40c78:	01802004 	movi	r6,128
   40c7c:	8009883a 	mov	r4,r16
   40c80:	01401004 	movi	r5,64
   40c84:	300f883a 	mov	r7,r6
   40c88:	00457580 	call	45758 <reg_update_bits>
   40c8c:	10001226 	beq	r2,zero,40cd8 <adv7513_chip_init_3d+0x180>
	//		return -1;
	//}

	// 0x15 0x16 0x17
	if (adv7513_video_in_format_3d(ec, ADV7513_INPUT_ID_24BIT_RGB444_YCBCR444, ADV7513_INPUT_COLOR_DEPTH_8BIT, ADV7513_INPUT_COLOR_SPACE_RGB, ADV7513_INPUT_INVALID, vic) != 0)
		return -1;
   40c90:	00bfffc4 	movi	r2,-1
	return 0;
}

int adv7513_chip_init_3d(struct hdmi_encoder *ec, int vic)
{
	if (adv7513_video_init_3d(ec, vic) != 0)
   40c94:	1004c03a 	cmpne	r2,r2,zero
   40c98:	0085c83a 	sub	r2,zero,r2
   40c9c:	0000ca06 	br	40fc8 <adv7513_chip_init_3d+0x470>

	//printf("adv7513_video_out_format_3d()\n");

	// 0x16[7] <- format
	regv = (format & 0x01) << 7;
	if (reg_update_bits(ec, 0x16, 0x80, regv) != 0)
   40ca0:	8009883a 	mov	r4,r16
   40ca4:	01400584 	movi	r5,22
   40ca8:	01802004 	movi	r6,128
   40cac:	000f883a 	mov	r7,zero
   40cb0:	00457580 	call	45758 <reg_update_bits>
   40cb4:	103ff61e 	bne	r2,zero,40c90 <__alt_data_end+0xfffd9b90>

	// 0x18[7] <- enable
	// 0x18[6:5] <- scaling
	// 0x18[4:0] <- csc_a1[4:0]
	int regv = (enable ? 1 : 0) << 7;
	if (reg_update_bits(ec, 0x18, 0x80, regv) != 0)
   40cb8:	8009883a 	mov	r4,r16
   40cbc:	01400604 	movi	r5,24
   40cc0:	01802004 	movi	r6,128
   40cc4:	000f883a 	mov	r7,zero
   40cc8:	00457580 	call	45758 <reg_update_bits>
   40ccc:	103fe426 	beq	r2,zero,40c60 <__alt_data_end+0xfffd9b60>
}

int adv7513_chip_init_3d(struct hdmi_encoder *ec, int vic)
{
	if (adv7513_video_init_3d(ec, vic) != 0)
		return -1;
   40cd0:	00bfffc4 	movi	r2,-1
   40cd4:	0000bc06 	br	40fc8 <adv7513_chip_init_3d+0x470>
	// 0x40[7] <- gc (section 4.2.3 && 4.3.3)
	if (reg_update_bits(ec, 0x40, 0x80, (1 & 0x01) << 7) != 0)
		return -1;

	// 0x4c[3:0] <- gc_depth (section 4.2.6)
	if (reg_update_bits(ec, 0x4c, 0x0f, 4 & 0x0f) != 0)
   40cd8:	8009883a 	mov	r4,r16
   40cdc:	01401304 	movi	r5,76
   40ce0:	018003c4 	movi	r6,15
   40ce4:	01c00104 	movi	r7,4
   40ce8:	00457580 	call	45758 <reg_update_bits>
   40cec:	103fe81e 	bne	r2,zero,40c90 <__alt_data_end+0xfffd9b90>

	// pixel repetition
	// 0x3b[6:5] <- pr mode 0)auto 1)max 2)manual 3)manual
	// 0x3b[4:3] <- pr pll (x input) 0)x1 1)x2 2)x4 3)x4
	// 0x3b[2:1] <- pr pll (sent) 0)x1 1)x2 2)x4 3)x4
	if (reg_update_bits(ec, 0x3b, 0x7e, (2 << 5) | (0 << 3) | (0 << 1)) != 0)
   40cf0:	8009883a 	mov	r4,r16
   40cf4:	01400ec4 	movi	r5,59
   40cf8:	01801f84 	movi	r6,126
   40cfc:	01c01004 	movi	r7,64
   40d00:	00457580 	call	45758 <reg_update_bits>
   40d04:	103fe21e 	bne	r2,zero,40c90 <__alt_data_end+0xfffd9b90>
		return -1;

	// manual VIC
	// 0x3c[5:0] <- 0x01 & 0x3f
	if (reg_update_bits(ec, 0x3c, 0x3f, vic) != 0)
   40d08:	8009883a 	mov	r4,r16
   40d0c:	01400f04 	movi	r5,60
   40d10:	01800fc4 	movi	r6,63
   40d14:	980f883a 	mov	r7,r19
   40d18:	00457580 	call	45758 <reg_update_bits>
   40d1c:	103fdc1e 	bne	r2,zero,40c90 <__alt_data_end+0xfffd9b90>

#if 1  // local development defaults
	avi->scan_info = 2;  		// scan
	avi->rgb_ycbcr = 0;			// rgb or ycbcr
	//avi->f7 = 0;				// reserved
	avi->active_fmt = 1;		// active format r3r0 valid
   40d20:	00800044 	movi	r2,1
	avi->bar.top_e = 0;
	avi->bar.bottom_s = 0;
	avi->bar.left_e = 0;
	avi->bar.right_s = 0;

	avi->active_fmt_ar = 8;		// active format aspect ratio (same as pict_ar)
   40d24:	00c00204 	movi	r3,8
	int regv;

	//printf("adv7513_avi_infoframe_3d()\n");

#if 1  // local development defaults
	avi->scan_info = 2;  		// scan
   40d28:	84800915 	stw	r18,36(r16)
	avi->rgb_ycbcr = 0;			// rgb or ycbcr
   40d2c:	80000c15 	stw	zero,48(r16)
	//avi->f7 = 0;				// reserved
	avi->active_fmt = 1;		// active format r3r0 valid
   40d30:	80800b15 	stw	r2,44(r16)

	avi->colorimetry = 0;		// colorimetry
   40d34:	80000f15 	stw	zero,60(r16)
	avi->colorimetry_ext = 0;	// extended colorimetry
   40d38:	80001215 	stw	zero,72(r16)
	avi->scaling = 0;			// non-uniform scaling
   40d3c:	80001015 	stw	zero,64(r16)
	avi->quant = 0;				// rgb quantization range
   40d40:	80001115 	stw	zero,68(r16)
	avi->itc = 0;				// it content
   40d44:	80001315 	stw	zero,76(r16)
	avi->pr = 1;				// pixel repetition factor 0)no 1)2x 2)3x 3)4x ...
   40d48:	80801515 	stw	r2,84(r16)
	avi->vic = vic;				// video identification code
   40d4c:	84c01415 	stw	r19,80(r16)
	avi->yq1yq0 = 0;			// ??
   40d50:	80001615 	stw	zero,88(r16)

	avi->bar_info = 0;  		// bar fields valid
   40d54:	80000a15 	stw	zero,40(r16)
	avi->bar.top_e = 0;
   40d58:	80001715 	stw	zero,92(r16)
	avi->bar.bottom_s = 0;
   40d5c:	80001815 	stw	zero,96(r16)
	avi->bar.left_e = 0;
   40d60:	80001915 	stw	zero,100(r16)
	avi->bar.right_s = 0;
   40d64:	80001a15 	stw	zero,104(r16)

	avi->active_fmt_ar = 8;		// active format aspect ratio (same as pict_ar)
   40d68:	80c00d15 	stw	r3,52(r16)

	switch (vic) {
   40d6c:	ac402036 	bltu	r21,r17,40df0 <adv7513_chip_init_3d+0x298>
   40d70:	882290ba 	slli	r17,r17,2
   40d74:	00c00134 	movhi	r3,4
   40d78:	18c36204 	addi	r3,r3,3464
   40d7c:	88e3883a 	add	r17,r17,r3
   40d80:	88c00017 	ldw	r3,0(r17)
   40d84:	1800683a 	jmp	r3
   40d88:	00040dec 	andhi	zero,zero,4151
   40d8c:	00040dec 	andhi	zero,zero,4151
   40d90:	00040de8 	cmpgeui	zero,zero,4151
   40d94:	00040de8 	cmpgeui	zero,zero,4151
   40d98:	00040de8 	cmpgeui	zero,zero,4151
   40d9c:	00040dec 	andhi	zero,zero,4151
   40da0:	00040de8 	cmpgeui	zero,zero,4151
   40da4:	00040dec 	andhi	zero,zero,4151
   40da8:	00040de8 	cmpgeui	zero,zero,4151
   40dac:	00040dec 	andhi	zero,zero,4151
   40db0:	00040de8 	cmpgeui	zero,zero,4151
   40db4:	00040dec 	andhi	zero,zero,4151
   40db8:	00040de8 	cmpgeui	zero,zero,4151
   40dbc:	00040dec 	andhi	zero,zero,4151
   40dc0:	00040de8 	cmpgeui	zero,zero,4151
   40dc4:	00040de8 	cmpgeui	zero,zero,4151
   40dc8:	00040dec 	andhi	zero,zero,4151
   40dcc:	00040de8 	cmpgeui	zero,zero,4151
   40dd0:	00040de8 	cmpgeui	zero,zero,4151
   40dd4:	00040de8 	cmpgeui	zero,zero,4151
   40dd8:	00040dec 	andhi	zero,zero,4151
   40ddc:	00040de8 	cmpgeui	zero,zero,4151
   40de0:	00040dec 	andhi	zero,zero,4151
   40de4:	00040de8 	cmpgeui	zero,zero,4151
	case ADV7513_VIC_576p50_16_9:	// 720x576p 50Hz
	case ADV7513_VIC_720p50_16_9:	// 1280x720p 50Hz
	case ADV7513_VIC_1080i50_16_9:	// 1920x1080i 50Hz
	case ADV7513_VIC_576i50x2_16_9:	// 720(1440)x576i 50Hz
	case ADV7513_VIC_288p50x2_16_9:	// 720(1440)x288p 50Hz
		avi->pict_ar = 2;			// picture aspect ratio (16:9)
   40de8:	00800084 	movi	r2,2
   40dec:	80800e15 	stw	r2,56(r16)
	//   0x55[6:5]
	//   0x56[5:4]

	// 0x44[4] avi infoframe enable 0)disable 1)enable
	// 0x44[3] audio infoframe enable 0)disable 1)enable
	if (reg_update_bits(ec, 0x44, 0x10, 1 << 4) != 0)
   40df0:	01800404 	movi	r6,16
   40df4:	8009883a 	mov	r4,r16
   40df8:	01401104 	movi	r5,68
   40dfc:	300f883a 	mov	r7,r6
   40e00:	00457580 	call	45758 <reg_update_bits>
   40e04:	103fa21e 	bne	r2,zero,40c90 <__alt_data_end+0xfffd9b90>

	// 0x4a[7] <- auto checksum
	// 0x4a[6] avi infoframe packet update 0)locked-by-packet_buffer 1)locked-by-i2c
	// 0x4a[5] audio infoframe packet update 0)locked-by-packet_buffer 1)locked-by-i2c
	// 0x4a[4] gc packet update 0)locked-by-packet_buffer 1)locked-by-i2c
	if (reg_update_bits(ec, 0x4a, 0xc0, 3 << 6) != 0)
   40e08:	01803004 	movi	r6,192
   40e0c:	8009883a 	mov	r4,r16
   40e10:	01401284 	movi	r5,74
   40e14:	300f883a 	mov	r7,r6
   40e18:	00457580 	call	45758 <reg_update_bits>
   40e1c:	103f9c1e 	bne	r2,zero,40c90 <__alt_data_end+0xfffd9b90>

	// 0x55[6:5] <- output format 0)rgb 1)ycbcr422 2)ycbcr444
	// 0x55[4]   <- active format indicator 0)no-data 1)valid (bar, scan, colorimetry, non-uniform-scaling, active-aspect-ratio)
	// 0x55[3:2] <- bar 0)invalid-bar 1)vertical 2)horizontal 3)both
	// 0x55[1:0] <- scan 0)no-data 1)tv 2)pc 3)none
	regv = ((avi->rgb_ycbcr & 0x03) << 5) | ((avi->active_fmt & 0x01) << 4) | ((avi->bar_info & 0x03) << 2) | ((avi->scan_info & 0x03) << 0);
   40e20:	80800c17 	ldw	r2,48(r16)
	if (reg_update_bits(ec, 0x55, 0x70, regv) != 0)
   40e24:	8009883a 	mov	r4,r16
   40e28:	01401544 	movi	r5,85

	// 0x55[6:5] <- output format 0)rgb 1)ycbcr422 2)ycbcr444
	// 0x55[4]   <- active format indicator 0)no-data 1)valid (bar, scan, colorimetry, non-uniform-scaling, active-aspect-ratio)
	// 0x55[3:2] <- bar 0)invalid-bar 1)vertical 2)horizontal 3)both
	// 0x55[1:0] <- scan 0)no-data 1)tv 2)pc 3)none
	regv = ((avi->rgb_ycbcr & 0x03) << 5) | ((avi->active_fmt & 0x01) << 4) | ((avi->bar_info & 0x03) << 2) | ((avi->scan_info & 0x03) << 0);
   40e2c:	108000cc 	andi	r2,r2,3
   40e30:	100e917a 	slli	r7,r2,5
   40e34:	80800b17 	ldw	r2,44(r16)
	if (reg_update_bits(ec, 0x55, 0x70, regv) != 0)
   40e38:	01801c04 	movi	r6,112

	// 0x55[6:5] <- output format 0)rgb 1)ycbcr422 2)ycbcr444
	// 0x55[4]   <- active format indicator 0)no-data 1)valid (bar, scan, colorimetry, non-uniform-scaling, active-aspect-ratio)
	// 0x55[3:2] <- bar 0)invalid-bar 1)vertical 2)horizontal 3)both
	// 0x55[1:0] <- scan 0)no-data 1)tv 2)pc 3)none
	regv = ((avi->rgb_ycbcr & 0x03) << 5) | ((avi->active_fmt & 0x01) << 4) | ((avi->bar_info & 0x03) << 2) | ((avi->scan_info & 0x03) << 0);
   40e3c:	1080004c 	andi	r2,r2,1
   40e40:	1004913a 	slli	r2,r2,4
   40e44:	3884b03a 	or	r2,r7,r2
   40e48:	81c00917 	ldw	r7,36(r16)
   40e4c:	39c000cc 	andi	r7,r7,3
   40e50:	11ceb03a 	or	r7,r2,r7
   40e54:	80800a17 	ldw	r2,40(r16)
   40e58:	108000cc 	andi	r2,r2,3
   40e5c:	1085883a 	add	r2,r2,r2
   40e60:	1085883a 	add	r2,r2,r2
	if (reg_update_bits(ec, 0x55, 0x70, regv) != 0)
   40e64:	388eb03a 	or	r7,r7,r2
   40e68:	00457580 	call	45758 <reg_update_bits>
   40e6c:	103f881e 	bne	r2,zero,40c90 <__alt_data_end+0xfffd9b90>
		return -1;

	// 0x56[7:6] <- colorimetry 0)no-data 1)ITU601 2)ITU709 3)extended <- 0x57[6:4]
	// 0x56[5:4] <- picture aspect ratio 0)no-data 1)4:3 2)16:9 3)none
	// 0x56[3:0] <- active aspect ratio 8)same as 0x56[5:4] 9)4:3 10)16:0 11)14:9
	regv = ((avi->colorimetry & 0x03) << 6) | ((avi->pict_ar & 0x03) << 4) | ((avi->active_fmt_ar & 0x0f) << 0);
   40e70:	81800f17 	ldw	r6,60(r16)
   40e74:	80800e17 	ldw	r2,56(r16)
	if (reg_write(ec, 0x56, regv) != 0)
   40e78:	8009883a 	mov	r4,r16
		return -1;

	// 0x56[7:6] <- colorimetry 0)no-data 1)ITU601 2)ITU709 3)extended <- 0x57[6:4]
	// 0x56[5:4] <- picture aspect ratio 0)no-data 1)4:3 2)16:9 3)none
	// 0x56[3:0] <- active aspect ratio 8)same as 0x56[5:4] 9)4:3 10)16:0 11)14:9
	regv = ((avi->colorimetry & 0x03) << 6) | ((avi->pict_ar & 0x03) << 4) | ((avi->active_fmt_ar & 0x0f) << 0);
   40e7c:	300c91ba 	slli	r6,r6,6
   40e80:	108000cc 	andi	r2,r2,3
   40e84:	1004913a 	slli	r2,r2,4
   40e88:	31803fcc 	andi	r6,r6,255
	if (reg_write(ec, 0x56, regv) != 0)
   40e8c:	01401584 	movi	r5,86
		return -1;

	// 0x56[7:6] <- colorimetry 0)no-data 1)ITU601 2)ITU709 3)extended <- 0x57[6:4]
	// 0x56[5:4] <- picture aspect ratio 0)no-data 1)4:3 2)16:9 3)none
	// 0x56[3:0] <- active aspect ratio 8)same as 0x56[5:4] 9)4:3 10)16:0 11)14:9
	regv = ((avi->colorimetry & 0x03) << 6) | ((avi->pict_ar & 0x03) << 4) | ((avi->active_fmt_ar & 0x0f) << 0);
   40e90:	3084b03a 	or	r2,r6,r2
   40e94:	81800d17 	ldw	r6,52(r16)
   40e98:	318003cc 	andi	r6,r6,15
	if (reg_write(ec, 0x56, regv) != 0)
   40e9c:	118cb03a 	or	r6,r2,r6
   40ea0:	00457140 	call	45714 <reg_write>
   40ea4:	103f7a1e 	bne	r2,zero,40c90 <__alt_data_end+0xfffd9b90>

	// 0x57[7] <- itc 0)none 1)available in 0x59[5:4]
	// 0x57[6:4] <- extended colorimetry 0)xvYCC601 1)xvYCC701 2)sYCC601 3)AdobeYCC601 4)AdobeRGB
	// 0x57[3:2] <- rgb quantization range 0)default 1)limited 2)full 11)reserved
	// 0x57[1:0] <- non-uniform picture scaling 0)unknown 1)h-scaling 2) v-scaling 3)h/v scaling
	regv = ((avi->itc & 0x01) << 7) | ((avi->colorimetry_ext & 0x07) << 4) | ((avi->quant & 0x03) << 2) | ((avi->scaling & 0x03) << 0);
   40ea8:	80801317 	ldw	r2,76(r16)
	if (reg_write(ec, 0x57, regv) != 0)
   40eac:	8009883a 	mov	r4,r16
   40eb0:	014015c4 	movi	r5,87

	// 0x57[7] <- itc 0)none 1)available in 0x59[5:4]
	// 0x57[6:4] <- extended colorimetry 0)xvYCC601 1)xvYCC701 2)sYCC601 3)AdobeYCC601 4)AdobeRGB
	// 0x57[3:2] <- rgb quantization range 0)default 1)limited 2)full 11)reserved
	// 0x57[1:0] <- non-uniform picture scaling 0)unknown 1)h-scaling 2) v-scaling 3)h/v scaling
	regv = ((avi->itc & 0x01) << 7) | ((avi->colorimetry_ext & 0x07) << 4) | ((avi->quant & 0x03) << 2) | ((avi->scaling & 0x03) << 0);
   40eb4:	100491fa 	slli	r2,r2,7
   40eb8:	11803fcc 	andi	r6,r2,255
   40ebc:	80801217 	ldw	r2,72(r16)
   40ec0:	108001cc 	andi	r2,r2,7
   40ec4:	1004913a 	slli	r2,r2,4
   40ec8:	3084b03a 	or	r2,r6,r2
   40ecc:	81801017 	ldw	r6,64(r16)
   40ed0:	318000cc 	andi	r6,r6,3
   40ed4:	118cb03a 	or	r6,r2,r6
   40ed8:	80801117 	ldw	r2,68(r16)
   40edc:	108000cc 	andi	r2,r2,3
   40ee0:	1085883a 	add	r2,r2,r2
   40ee4:	1085883a 	add	r2,r2,r2
	if (reg_write(ec, 0x57, regv) != 0)
   40ee8:	308cb03a 	or	r6,r6,r2
   40eec:	00457140 	call	45714 <reg_write>
   40ef0:	103f671e 	bne	r2,zero,40c90 <__alt_data_end+0xfffd9b90>
		return -1;

	// 0x59[7:4] <- extended colorimetry 0)xvYCC601 1)xvYCC701 2)sYCC601 3)AdobeYCC601 4)AdobeRGB
	regv = ((avi->yq1yq0 & 0x0f) << 4);
   40ef4:	81801617 	ldw	r6,88(r16)
	if (reg_write(ec, 0x59, regv) != 0)
   40ef8:	8009883a 	mov	r4,r16
   40efc:	01401644 	movi	r5,89
	regv = ((avi->itc & 0x01) << 7) | ((avi->colorimetry_ext & 0x07) << 4) | ((avi->quant & 0x03) << 2) | ((avi->scaling & 0x03) << 0);
	if (reg_write(ec, 0x57, regv) != 0)
		return -1;

	// 0x59[7:4] <- extended colorimetry 0)xvYCC601 1)xvYCC701 2)sYCC601 3)AdobeYCC601 4)AdobeRGB
	regv = ((avi->yq1yq0 & 0x0f) << 4);
   40f00:	300c913a 	slli	r6,r6,4
	if (reg_write(ec, 0x59, regv) != 0)
   40f04:	31803c0c 	andi	r6,r6,240
   40f08:	00457140 	call	45714 <reg_write>
   40f0c:	103f601e 	bne	r2,zero,40c90 <__alt_data_end+0xfffd9b90>
		return -1;

	// 0x5a[7:0] <- active line (bar)
	regv = avi->bar.top_e & 0xff;
	if (reg_write(ec, 0x5a, regv) != 0)
   40f10:	81801703 	ldbu	r6,92(r16)
   40f14:	8009883a 	mov	r4,r16
   40f18:	01401684 	movi	r5,90
   40f1c:	00457140 	call	45714 <reg_write>
   40f20:	103f5b1e 	bne	r2,zero,40c90 <__alt_data_end+0xfffd9b90>
		return -1;

	// 0x5b[7:0] <- active line (bar)
	regv = (avi->bar.top_e >> 8) & 0xff;
	if (reg_write(ec, 0x5b, regv) != 0)
   40f24:	81801743 	ldbu	r6,93(r16)
   40f28:	8009883a 	mov	r4,r16
   40f2c:	014016c4 	movi	r5,91
   40f30:	00457140 	call	45714 <reg_write>
   40f34:	103f561e 	bne	r2,zero,40c90 <__alt_data_end+0xfffd9b90>
		return -1;

	// 0x5c[7:0] <- active line (bar)
	regv = avi->bar.bottom_s & 0xff;
	if (reg_write(ec, 0x5c, regv) != 0)
   40f38:	81801803 	ldbu	r6,96(r16)
   40f3c:	8009883a 	mov	r4,r16
   40f40:	01401704 	movi	r5,92
   40f44:	00457140 	call	45714 <reg_write>
   40f48:	103f511e 	bne	r2,zero,40c90 <__alt_data_end+0xfffd9b90>
		return -1;

	// 0x5d[7:0] <- active line (bar)
	regv = (avi->bar.bottom_s >> 8) & 0xff;
	if (reg_write(ec, 0x5d, regv) != 0)
   40f4c:	81801843 	ldbu	r6,97(r16)
   40f50:	8009883a 	mov	r4,r16
   40f54:	01401744 	movi	r5,93
   40f58:	00457140 	call	45714 <reg_write>
   40f5c:	103f4c1e 	bne	r2,zero,40c90 <__alt_data_end+0xfffd9b90>
		return -1;

	// 0x5e[7:0] <- active line (bar)
	regv = avi->bar.left_e & 0xff;
	if (reg_write(ec, 0x5e, regv) != 0)
   40f60:	81801903 	ldbu	r6,100(r16)
   40f64:	8009883a 	mov	r4,r16
   40f68:	01401784 	movi	r5,94
   40f6c:	00457140 	call	45714 <reg_write>
   40f70:	103f471e 	bne	r2,zero,40c90 <__alt_data_end+0xfffd9b90>
		return -1;

	// 0x5f[7:0] <- active line (bar)
	regv = (avi->bar.left_e >> 8) & 0xff;
	if (reg_write(ec, 0x5f, regv) != 0)
   40f74:	81801943 	ldbu	r6,101(r16)
   40f78:	8009883a 	mov	r4,r16
   40f7c:	014017c4 	movi	r5,95
   40f80:	00457140 	call	45714 <reg_write>
   40f84:	103f421e 	bne	r2,zero,40c90 <__alt_data_end+0xfffd9b90>
		return -1;

	// 0x60[7:0] <- active line (bar)
	regv = avi->bar.right_s & 0xff;
	if (reg_write(ec, 0x60, regv) != 0)
   40f88:	81801a03 	ldbu	r6,104(r16)
   40f8c:	8009883a 	mov	r4,r16
   40f90:	01401804 	movi	r5,96
   40f94:	00457140 	call	45714 <reg_write>
   40f98:	103f3d1e 	bne	r2,zero,40c90 <__alt_data_end+0xfffd9b90>
		return -1;

	// 0x61[7:0] <- active line (bar)
	regv = (avi->bar.right_s >> 8) & 0xff;
	if (reg_write(ec, 0x61, regv) != 0)
   40f9c:	81801a43 	ldbu	r6,105(r16)
   40fa0:	8009883a 	mov	r4,r16
   40fa4:	01401844 	movi	r5,97
   40fa8:	00457140 	call	45714 <reg_write>
   40fac:	103f381e 	bne	r2,zero,40c90 <__alt_data_end+0xfffd9b90>

	// 0x4a[7] <- auto checksum
	// 0x4a[6] avi infoframe packet update 0)locked-by-packet_buffer 1)locked-by-i2c
	// 0x4a[5] audio infoframe packet update 0)locked-by-packet_buffer 1)locked-by-i2c
	// 0x4a[4] gc packet update 0)locked-by-packet_buffer 1)locked-by-i2c
	if (reg_clear_bits(ec, 0x4a, 0x40) != 0)
   40fb0:	8009883a 	mov	r4,r16
   40fb4:	01401284 	movi	r5,74
   40fb8:	01801004 	movi	r6,64
   40fbc:	00458b80 	call	458b8 <reg_clear_bits>
   40fc0:	103f3426 	beq	r2,zero,40c94 <__alt_data_end+0xfffd9b94>
   40fc4:	003f3206 	br	40c90 <__alt_data_end+0xfffd9b90>

	//if (adv7513_audio_init(ec) != 0)
	//	return -1;

	return 0;
}
   40fc8:	dfc00617 	ldw	ra,24(sp)
   40fcc:	dd400517 	ldw	r21,20(sp)
   40fd0:	dd000417 	ldw	r20,16(sp)
   40fd4:	dcc00317 	ldw	r19,12(sp)
   40fd8:	dc800217 	ldw	r18,8(sp)
   40fdc:	dc400117 	ldw	r17,4(sp)
   40fe0:	dc000017 	ldw	r16,0(sp)
   40fe4:	dec00704 	addi	sp,sp,28
   40fe8:	f800283a 	ret

00040fec <eb_establish_timing>:
	int rb;			// reduced blanking
};

static inline void eb_establish_timing(struct eb_established_timing *et, int x, int y, int r, int valid)
{
	if (valid) {
   40fec:	d8800017 	ldw	r2,0(sp)
   40ff0:	10000626 	beq	r2,zero,4100c <eb_establish_timing+0x20>
		et->valid = 1;
   40ff4:	00800044 	movi	r2,1
   40ff8:	20800015 	stw	r2,0(r4)
		et->width = x;
   40ffc:	21400115 	stw	r5,4(r4)
		et->height = y;
   41000:	21800215 	stw	r6,8(r4)
		et->refresh = r;
   41004:	21c00315 	stw	r7,12(r4)
   41008:	00000406 	br	4101c <eb_establish_timing+0x30>
		et->interlaced = 0;
		et->rb = 0;
	} else {
		et->valid = 0;
   4100c:	20000015 	stw	zero,0(r4)
		et->width = 0;
   41010:	20000115 	stw	zero,4(r4)
		et->height = 0;
   41014:	20000215 	stw	zero,8(r4)
		et->refresh = 0;
   41018:	20000315 	stw	zero,12(r4)
		et->interlaced = 0;
   4101c:	20000415 	stw	zero,16(r4)
		et->rb = 0;
   41020:	20000515 	stw	zero,20(r4)
   41024:	f800283a 	ret

00041028 <edid_decode_cea>:
    return v;
}
#endif

int edid_decode_cea(struct base_edid *edid, const unsigned char *edid_bin, int ext_idx)
{
   41028:	deffe504 	addi	sp,sp,-108
   4102c:	dc001115 	stw	r16,68(sp)
	u8 *ext_bin = (u8 *)&edid_bin[128 * (ext_idx + 1)];
   41030:	34000044 	addi	r16,r6,1
   41034:	802091fa 	slli	r16,r16,7
    return v;
}
#endif

int edid_decode_cea(struct base_edid *edid, const unsigned char *edid_bin, int ext_idx)
{
   41038:	dfc01a15 	stw	ra,104(sp)
   4103c:	df001915 	stw	fp,100(sp)
   41040:	ddc01815 	stw	r23,96(sp)
   41044:	dd801715 	stw	r22,92(sp)
   41048:	dd401615 	stw	r21,88(sp)
   4104c:	dd001515 	stw	r20,84(sp)
   41050:	dcc01415 	stw	r19,80(sp)
   41054:	dc801315 	stw	r18,76(sp)
   41058:	dc401215 	stw	r17,72(sp)
	u8 *ext_bin = (u8 *)&edid_bin[128 * (ext_idx + 1)];
   4105c:	2c0b883a 	add	r5,r5,r16
	struct edid_cea *cea = &ext_data->cea_ext;

	c = &ext_bin[1];

	// version
	if (*c != 0x03)
   41060:	28c00043 	ldbu	r3,1(r5)
   41064:	008000c4 	movi	r2,3
   41068:	1882ec1e 	bne	r3,r2,41c1c <edid_decode_cea+0xbf4>
		return -1;	// todo: support v1 / v2

	ext_data->ext_tag = EDID_EXT_TAG_CEA;
   4106c:	35016f24 	muli	r20,r6,1468
   41070:	00c00084 	movi	r3,2
   41074:	2505883a 	add	r2,r4,r20
   41078:	10c60b15 	stw	r3,6188(r2)
	cea->rev = *c;
   4107c:	28c00043 	ldbu	r3,1(r5)
   41080:	10c60c15 	stw	r3,6192(r2)

	// obtain offset to detail timing descriptor
	c = &ext_bin[2];
	if (*c > 4)
   41084:	28800083 	ldbu	r2,2(r5)
   41088:	00c00104 	movi	r3,4
   4108c:	1880022e 	bgeu	r3,r2,41098 <edid_decode_cea+0x70>
		dtd = &ext_bin[*c];
   41090:	28af883a 	add	r23,r5,r2
   41094:	00000106 	br	4109c <edid_decode_cea+0x74>
#endif

int edid_decode_cea(struct base_edid *edid, const unsigned char *edid_bin, int ext_idx)
{
	u8 *ext_bin = (u8 *)&edid_bin[128 * (ext_idx + 1)];
	u8 *c, *hv, *dtd = 0;
   41098:	002f883a 	mov	r23,zero
	// obtain offset to detail timing descriptor
	c = &ext_bin[2];
	if (*c > 4)
		dtd = &ext_bin[*c];

	cea->off_dtd = c[0];
   4109c:	2525883a 	add	r18,r4,r20
   410a0:	90861115 	stw	r2,6212(r18)
	cea->nr_dtd = c[1] & 0x0f;
   410a4:	288000c3 	ldbu	r2,3(r5)
			case CEA_DBE_VIDEO_HDMI:
				cea->dbe_tags[cea->nr_dbcs] = CEA_DBE_VIDEO_HDMI;
				break;
			case CEA_DBE_COLORIMETRY:
				cea->dbe_tags[cea->nr_dbcs] = CEA_DBE_COLORIMETRY;
				cea->db_colorimetry.xvYCC = (int)(c[2] & 0x03);
   410a8:	90c6f404 	addi	r3,r18,7120
				cea->db_colorimetry.metadata = (int)(c[3] & 0x07);
   410ac:	9186f504 	addi	r6,r18,7124
	c = &ext_bin[2];
	if (*c > 4)
		dtd = &ext_bin[*c];

	cea->off_dtd = c[0];
	cea->nr_dtd = c[1] & 0x0f;
   410b0:	108003cc 	andi	r2,r2,15
   410b4:	90861215 	stw	r2,6216(r18)

	cea->flags.underscan = ((c[1] & 0x80) > 0) ? 1 : 0;
   410b8:	288000c3 	ldbu	r2,3(r5)
			case CEA_DBE_VIDEO_HDMI:
				cea->dbe_tags[cea->nr_dbcs] = CEA_DBE_VIDEO_HDMI;
				break;
			case CEA_DBE_COLORIMETRY:
				cea->dbe_tags[cea->nr_dbcs] = CEA_DBE_COLORIMETRY;
				cea->db_colorimetry.xvYCC = (int)(c[2] & 0x03);
   410bc:	d8c00215 	stw	r3,8(sp)

		case CEA_DB_EXTENDED:
			switch (c[1]) {
			case CEA_DBE_VIDEO_CAP:
				cea->dbe_tags[cea->nr_dbcs] = CEA_DBE_VIDEO_CAP;
				cea->db_vcdb.quant_range_sel = (c[2] & 0x40) ? 1 : 0;
   410c0:	90c6f604 	addi	r3,r18,7128
		dtd = &ext_bin[*c];

	cea->off_dtd = c[0];
	cea->nr_dtd = c[1] & 0x0f;

	cea->flags.underscan = ((c[1] & 0x80) > 0) ? 1 : 0;
   410c4:	1004d1fa 	srli	r2,r2,7
				cea->dbe_tags[cea->nr_dbcs] = CEA_DBE_VIDEO_HDMI;
				break;
			case CEA_DBE_COLORIMETRY:
				cea->dbe_tags[cea->nr_dbcs] = CEA_DBE_COLORIMETRY;
				cea->db_colorimetry.xvYCC = (int)(c[2] & 0x03);
				cea->db_colorimetry.metadata = (int)(c[3] & 0x07);
   410c8:	d9800315 	stw	r6,12(sp)

		case CEA_DB_EXTENDED:
			switch (c[1]) {
			case CEA_DBE_VIDEO_CAP:
				cea->dbe_tags[cea->nr_dbcs] = CEA_DBE_VIDEO_CAP;
				cea->db_vcdb.quant_range_sel = (c[2] & 0x40) ? 1 : 0;
   410cc:	d8c00415 	stw	r3,16(sp)
		dtd = &ext_bin[*c];

	cea->off_dtd = c[0];
	cea->nr_dtd = c[1] & 0x0f;

	cea->flags.underscan = ((c[1] & 0x80) > 0) ? 1 : 0;
   410d0:	90860d15 	stw	r2,6196(r18)
	cea->flags.audio = ((c[1] & 0x40) > 0) ? 1 : 0;
   410d4:	288000c3 	ldbu	r2,3(r5)
		case CEA_DB_EXTENDED:
			switch (c[1]) {
			case CEA_DBE_VIDEO_CAP:
				cea->dbe_tags[cea->nr_dbcs] = CEA_DBE_VIDEO_CAP;
				cea->db_vcdb.quant_range_sel = (c[2] & 0x40) ? 1 : 0;
				cea->db_vcdb.pt_scan_behavior = (int)((c[2] >> 4) & 0x03);
   410d8:	9186f704 	addi	r6,r18,7132
				cea->db_vcdb.it_scan_behavior = (int)((c[2] >> 2) & 0x03);
   410dc:	90c6f804 	addi	r3,r18,7136

	cea->off_dtd = c[0];
	cea->nr_dtd = c[1] & 0x0f;

	cea->flags.underscan = ((c[1] & 0x80) > 0) ? 1 : 0;
	cea->flags.audio = ((c[1] & 0x40) > 0) ? 1 : 0;
   410e0:	1080100c 	andi	r2,r2,64
   410e4:	1004c03a 	cmpne	r2,r2,zero
   410e8:	90860e15 	stw	r2,6200(r18)
	cea->flags.ycbcr444 = ((c[1] & 0x20) > 0) ? 1 : 0;
   410ec:	288000c3 	ldbu	r2,3(r5)
		case CEA_DB_EXTENDED:
			switch (c[1]) {
			case CEA_DBE_VIDEO_CAP:
				cea->dbe_tags[cea->nr_dbcs] = CEA_DBE_VIDEO_CAP;
				cea->db_vcdb.quant_range_sel = (c[2] & 0x40) ? 1 : 0;
				cea->db_vcdb.pt_scan_behavior = (int)((c[2] >> 4) & 0x03);
   410f0:	d9800515 	stw	r6,20(sp)
				cea->db_vcdb.it_scan_behavior = (int)((c[2] >> 2) & 0x03);
   410f4:	d8c00615 	stw	r3,24(sp)
	cea->off_dtd = c[0];
	cea->nr_dtd = c[1] & 0x0f;

	cea->flags.underscan = ((c[1] & 0x80) > 0) ? 1 : 0;
	cea->flags.audio = ((c[1] & 0x40) > 0) ? 1 : 0;
	cea->flags.ycbcr444 = ((c[1] & 0x20) > 0) ? 1 : 0;
   410f8:	1080080c 	andi	r2,r2,32
   410fc:	1004c03a 	cmpne	r2,r2,zero
   41100:	90860f15 	stw	r2,6204(r18)
	cea->flags.ycbcr422 = ((c[1] & 0x10) > 0) ? 1 : 0;
   41104:	288000c3 	ldbu	r2,3(r5)
			case CEA_DBE_VIDEO_CAP:
				cea->dbe_tags[cea->nr_dbcs] = CEA_DBE_VIDEO_CAP;
				cea->db_vcdb.quant_range_sel = (c[2] & 0x40) ? 1 : 0;
				cea->db_vcdb.pt_scan_behavior = (int)((c[2] >> 4) & 0x03);
				cea->db_vcdb.it_scan_behavior = (int)((c[2] >> 2) & 0x03);
				cea->db_vcdb.ce_scan_behavior = (int)(c[2] & 0x03);
   41108:	9186f904 	addi	r6,r18,7140
			c += (*c & 0x1f) + 1;
			break;

		case CEA_DB_SPEAKER:
			cea->dbc_tags[cea->nr_dbcs++] = CEA_DB_SPEAKER;
			cea->db_speaker.designation = (int)(c[1] & 0x7f);
   4110c:	90c6a704 	addi	r3,r18,6812
	cea->nr_dtd = c[1] & 0x0f;

	cea->flags.underscan = ((c[1] & 0x80) > 0) ? 1 : 0;
	cea->flags.audio = ((c[1] & 0x40) > 0) ? 1 : 0;
	cea->flags.ycbcr444 = ((c[1] & 0x20) > 0) ? 1 : 0;
	cea->flags.ycbcr422 = ((c[1] & 0x10) > 0) ? 1 : 0;
   41110:	1080040c 	andi	r2,r2,16
   41114:	1004c03a 	cmpne	r2,r2,zero
   41118:	90861015 	stw	r2,6208(r18)
   4111c:	a0867504 	addi	r2,r20,6612
   41120:	2085883a 	add	r2,r4,r2
   41124:	d8800015 	stw	r2,0(sp)
   41128:	a0863404 	addi	r2,r20,6352

	// data block collection
	c = &ext_bin[4];

	cea->nr_dbcs = 0;
   4112c:	94c61304 	addi	r19,r18,6220
   41130:	2085883a 	add	r2,r4,r2
			case CEA_DBE_VIDEO_CAP:
				cea->dbe_tags[cea->nr_dbcs] = CEA_DBE_VIDEO_CAP;
				cea->db_vcdb.quant_range_sel = (c[2] & 0x40) ? 1 : 0;
				cea->db_vcdb.pt_scan_behavior = (int)((c[2] >> 4) & 0x03);
				cea->db_vcdb.it_scan_behavior = (int)((c[2] >> 2) & 0x03);
				cea->db_vcdb.ce_scan_behavior = (int)(c[2] & 0x03);
   41134:	d9800715 	stw	r6,28(sp)
			c += (*c & 0x1f) + 1;
			break;

		case CEA_DB_SPEAKER:
			cea->dbc_tags[cea->nr_dbcs++] = CEA_DB_SPEAKER;
			cea->db_speaker.designation = (int)(c[1] & 0x7f);
   41138:	d8c00815 	stw	r3,32(sp)
				cea->db_vsdb_hdmi.ieee_reg_id = 0;
				c += (*c & 0x1f) + 1;
				break;
			}

			cea->db_vsdb_hdmi.ext_len = (int)(*c & 0x1f);
   4113c:	9186a804 	addi	r6,r18,6816
			cea->db_vsdb_hdmi.ieee_reg_id = (c[3] << 16) | (c[2] << 8) | c[1];

			cea->db_vsdb_hdmi.addr_a = (int)(c[4] >> 4);
   41140:	90c6aa04 	addi	r3,r18,6824
   41144:	202b883a 	mov	r21,r4
	cea->flags.audio = ((c[1] & 0x40) > 0) ? 1 : 0;
	cea->flags.ycbcr444 = ((c[1] & 0x20) > 0) ? 1 : 0;
	cea->flags.ycbcr422 = ((c[1] & 0x10) > 0) ? 1 : 0;

	// data block collection
	c = &ext_bin[4];
   41148:	2c000104 	addi	r16,r5,4

	cea->nr_dbcs = 0;
   4114c:	98000015 	stw	zero,0(r19)
   41150:	d8800115 	stw	r2,4(sp)
			case CEA_DBE_AUDIO_HDMI:
				cea->dbe_tags[cea->nr_dbcs] = CEA_DBE_AUDIO_HDMI;
				break;
			}

			cea->dbc_tags[cea->nr_dbcs++] = CEA_DB_EXTENDED;
   41154:	9023883a 	mov	r17,r18

		case CEA_DB_VENDOR:
			cea->dbc_tags[cea->nr_dbcs++] = CEA_DB_VENDOR;

			if ((c[1] != 0x03) || (c[2] != 0x0c) || (c[3] != 0x00)) {
				cea->db_vsdb_hdmi.ieee_reg_id = 0;
   41158:	9706a904 	addi	fp,r18,6820
				c += (*c & 0x1f) + 1;
				break;
			}

			cea->db_vsdb_hdmi.ext_len = (int)(*c & 0x1f);
   4115c:	d9800915 	stw	r6,36(sp)
			cea->db_vsdb_hdmi.ieee_reg_id = (c[3] << 16) | (c[2] << 8) | c[1];

			cea->db_vsdb_hdmi.addr_a = (int)(c[4] >> 4);
   41160:	d8c00a15 	stw	r3,40(sp)
			cea->db_vsdb_hdmi.addr_b = (int)(c[4] & 0x0f);
   41164:	9286ab04 	addi	r10,r18,6828
			cea->db_vsdb_hdmi.addr_c = (int)(c[5] >> 4);
   41168:	92c6ac04 	addi	r11,r18,6832
			cea->db_vsdb_hdmi.addr_d = (int)(c[5] & 0x0f);
   4116c:	9306ad04 	addi	r12,r18,6836
   41170:	9206ae04 	addi	r8,r18,6840
   41174:	9246b104 	addi	r9,r18,6852

	// data block collection
	c = &ext_bin[4];

	cea->nr_dbcs = 0;
	while (c < dtd) {
   41178:	85c1d72e 	bgeu	r16,r23,418d8 <edid_decode_cea+0x8b0>
		switch (*c >> 5) {
   4117c:	80800003 	ldbu	r2,0(r16)
   41180:	00c00184 	movi	r3,6
   41184:	1004d17a 	srli	r2,r2,5
   41188:	10bfffc4 	addi	r2,r2,-1
   4118c:	10803fcc 	andi	r2,r2,255
   41190:	1881d136 	bltu	r3,r2,418d8 <edid_decode_cea+0x8b0>
   41194:	100490ba 	slli	r2,r2,2
   41198:	01800134 	movhi	r6,4
   4119c:	31846b04 	addi	r6,r6,4524
   411a0:	1185883a 	add	r2,r2,r6
   411a4:	10800017 	ldw	r2,0(r2)
   411a8:	1000683a 	jmp	r2
   411ac:	000411c8 	cmpgei	zero,zero,4167
   411b0:	000412bc 	xorhi	zero,zero,4170
   411b4:	0004131c 	xori	zero,zero,4172
   411b8:	000416fc 	xorhi	zero,zero,4187
   411bc:	00041728 	cmpgeui	zero,zero,4188
   411c0:	000418d8 	cmpnei	zero,zero,4195
   411c4:	00041740 	call	4174 <__reset-0x3be8c>
		case CEA_DB_AUDIO:
			cea->dbc_tags[cea->nr_dbcs++] = CEA_DB_AUDIO;
   411c8:	98800017 	ldw	r2,0(r19)
			cea->db_audio.nr_sad = (int)(*c & 0x1f) / 3;
   411cc:	014000c4 	movi	r5,3

	cea->nr_dbcs = 0;
	while (c < dtd) {
		switch (*c >> 5) {
		case CEA_DB_AUDIO:
			cea->dbc_tags[cea->nr_dbcs++] = CEA_DB_AUDIO;
   411d0:	10c00044 	addi	r3,r2,1
   411d4:	98c00015 	stw	r3,0(r19)
   411d8:	8885883a 	add	r2,r17,r2
   411dc:	00c00044 	movi	r3,1
   411e0:	10c61405 	stb	r3,6224(r2)
			cea->db_audio.nr_sad = (int)(*c & 0x1f) / 3;
   411e4:	81000003 	ldbu	r4,0(r16)
   411e8:	88c67404 	addi	r3,r17,6608
   411ec:	d8c01015 	stw	r3,64(sp)
   411f0:	210007cc 	andi	r4,r4,31
   411f4:	da000e15 	stw	r8,56(sp)
   411f8:	da400f15 	stw	r9,60(sp)
   411fc:	da800b15 	stw	r10,44(sp)
   41200:	dac00c15 	stw	r11,48(sp)
   41204:	db000d15 	stw	r12,52(sp)
   41208:	0046d040 	call	46d04 <__divsi3>
   4120c:	d8c01017 	ldw	r3,64(sp)
			for (i = 0; i < cea->db_audio.nr_sad; ++i) {
   41210:	d9000017 	ldw	r4,0(sp)
   41214:	818000c4 	addi	r6,r16,3
	cea->nr_dbcs = 0;
	while (c < dtd) {
		switch (*c >> 5) {
		case CEA_DB_AUDIO:
			cea->dbc_tags[cea->nr_dbcs++] = CEA_DB_AUDIO;
			cea->db_audio.nr_sad = (int)(*c & 0x1f) / 3;
   41218:	18800015 	stw	r2,0(r3)
			for (i = 0; i < cea->db_audio.nr_sad; ++i) {
   4121c:	da000e17 	ldw	r8,56(sp)
   41220:	da400f17 	ldw	r9,60(sp)
   41224:	da800b17 	ldw	r10,44(sp)
   41228:	dac00c17 	ldw	r11,48(sp)
   4122c:	db000d17 	ldw	r12,52(sp)
	cea->nr_dbcs = 0;
	while (c < dtd) {
		switch (*c >> 5) {
		case CEA_DB_AUDIO:
			cea->dbc_tags[cea->nr_dbcs++] = CEA_DB_AUDIO;
			cea->db_audio.nr_sad = (int)(*c & 0x1f) / 3;
   41230:	180b883a 	mov	r5,r3
   41234:	81c00044 	addi	r7,r16,1
   41238:	83800084 	addi	r14,r16,2
			for (i = 0; i < cea->db_audio.nr_sad; ++i) {
   4123c:	001b883a 	mov	r13,zero
				u8 *sad_bin = &c[1+3*i];
				cea->db_audio.sad[i].format = (int)((*sad_bin >> 3) & 0xf);
				cea->db_audio.sad[i].channels = (int)(*sad_bin & 0x7) + 1;
				cea->db_audio.sad[i].freq = (int)(sad_bin[1] & 0x7f);

				if (cea->db_audio.sad[i].format == CEA_SAD_FMT_LPCM) {
   41240:	03c00044 	movi	r15,1
					cea->db_audio.sad[i].resolution = (int)(sad_bin[2] & 0x07);
				} else if (cea->db_audio.sad[i].format != 0) {
					if (cea->db_audio.sad[i].format <= CEA_SAD_FMT_ATRAC) {
   41244:	07c00204 	movi	ra,8
	while (c < dtd) {
		switch (*c >> 5) {
		case CEA_DB_AUDIO:
			cea->dbc_tags[cea->nr_dbcs++] = CEA_DB_AUDIO;
			cea->db_audio.nr_sad = (int)(*c & 0x1f) / 3;
			for (i = 0; i < cea->db_audio.nr_sad; ++i) {
   41248:	28800017 	ldw	r2,0(r5)
   4124c:	68819d0e 	bge	r13,r2,418c4 <edid_decode_cea+0x89c>
				u8 *sad_bin = &c[1+3*i];
				cea->db_audio.sad[i].format = (int)((*sad_bin >> 3) & 0xf);
   41250:	38800003 	ldbu	r2,0(r7)
   41254:	1004d0fa 	srli	r2,r2,3
   41258:	108003cc 	andi	r2,r2,15
   4125c:	20800015 	stw	r2,0(r4)
				cea->db_audio.sad[i].channels = (int)(*sad_bin & 0x7) + 1;
   41260:	38c00003 	ldbu	r3,0(r7)
   41264:	18c001cc 	andi	r3,r3,7
   41268:	18c00044 	addi	r3,r3,1
   4126c:	20c00115 	stw	r3,4(r4)
				cea->db_audio.sad[i].freq = (int)(sad_bin[1] & 0x7f);
   41270:	70c00003 	ldbu	r3,0(r14)
   41274:	18c01fcc 	andi	r3,r3,127
   41278:	20c00215 	stw	r3,8(r4)

				if (cea->db_audio.sad[i].format == CEA_SAD_FMT_LPCM) {
   4127c:	13c0041e 	bne	r2,r15,41290 <edid_decode_cea+0x268>
					cea->db_audio.sad[i].resolution = (int)(sad_bin[2] & 0x07);
   41280:	30800003 	ldbu	r2,0(r6)
   41284:	108001cc 	andi	r2,r2,7
   41288:	20800315 	stw	r2,12(r4)
   4128c:	00000506 	br	412a4 <edid_decode_cea+0x27c>
				} else if (cea->db_audio.sad[i].format != 0) {
   41290:	10000426 	beq	r2,zero,412a4 <edid_decode_cea+0x27c>
					if (cea->db_audio.sad[i].format <= CEA_SAD_FMT_ATRAC) {
   41294:	f8800316 	blt	ra,r2,412a4 <edid_decode_cea+0x27c>
						cea->db_audio.sad[i].bitrate = (int)sad_bin[2] * 8;
   41298:	30800003 	ldbu	r2,0(r6)
   4129c:	100490fa 	slli	r2,r2,3
   412a0:	20800415 	stw	r2,16(r4)
	while (c < dtd) {
		switch (*c >> 5) {
		case CEA_DB_AUDIO:
			cea->dbc_tags[cea->nr_dbcs++] = CEA_DB_AUDIO;
			cea->db_audio.nr_sad = (int)(*c & 0x1f) / 3;
			for (i = 0; i < cea->db_audio.nr_sad; ++i) {
   412a4:	6b400044 	addi	r13,r13,1
   412a8:	318000c4 	addi	r6,r6,3
   412ac:	39c000c4 	addi	r7,r7,3
   412b0:	21000504 	addi	r4,r4,20
   412b4:	738000c4 	addi	r14,r14,3
   412b8:	003fe306 	br	41248 <__alt_data_end+0xfffda148>
			}
			c += (*c & 0x1f) + 1;
			break;

		case CEA_DB_VIDEO:
			cea->dbc_tags[cea->nr_dbcs++] = CEA_DB_VIDEO;
   412bc:	98800017 	ldw	r2,0(r19)
			cea->db_video.nr_svd = (int)(*c & 0x1f);
			for (i = 0; i < cea->db_video.nr_svd; ++i) {
   412c0:	d9000117 	ldw	r4,4(sp)
			}
			c += (*c & 0x1f) + 1;
			break;

		case CEA_DB_VIDEO:
			cea->dbc_tags[cea->nr_dbcs++] = CEA_DB_VIDEO;
   412c4:	10c00044 	addi	r3,r2,1
   412c8:	98c00015 	stw	r3,0(r19)
   412cc:	8885883a 	add	r2,r17,r2
   412d0:	00c00084 	movi	r3,2
   412d4:	10c61405 	stb	r3,6224(r2)
			cea->db_video.nr_svd = (int)(*c & 0x1f);
   412d8:	80800003 	ldbu	r2,0(r16)
   412dc:	88c63304 	addi	r3,r17,6348
   412e0:	108007cc 	andi	r2,r2,31
   412e4:	18800015 	stw	r2,0(r3)
			for (i = 0; i < cea->db_video.nr_svd; ++i) {
   412e8:	8005883a 	mov	r2,r16
   412ec:	19400017 	ldw	r5,0(r3)
   412f0:	140dc83a 	sub	r6,r2,r16
   412f4:	10800044 	addi	r2,r2,1
   412f8:	3141720e 	bge	r6,r5,418c4 <edid_decode_cea+0x89c>
				cea->db_video.svd[i].native = c[1 + i] & 0x80 ? 1 : 0;
   412fc:	11400007 	ldb	r5,0(r2)
   41300:	21000204 	addi	r4,r4,8
   41304:	280ad7fa 	srli	r5,r5,31
   41308:	217ffe15 	stw	r5,-8(r4)
				cea->db_video.svd[i].vic = (int)(c[1 + i] & 0x7f);
   4130c:	11400003 	ldbu	r5,0(r2)
   41310:	29401fcc 	andi	r5,r5,127
   41314:	217fff15 	stw	r5,-4(r4)
   41318:	003ff406 	br	412ec <__alt_data_end+0xfffda1ec>
			}
			c += (*c & 0x1f) + 1;
			break;

		case CEA_DB_VENDOR:
			cea->dbc_tags[cea->nr_dbcs++] = CEA_DB_VENDOR;
   4131c:	98800017 	ldw	r2,0(r19)
   41320:	10c00044 	addi	r3,r2,1
   41324:	98c00015 	stw	r3,0(r19)
   41328:	8885883a 	add	r2,r17,r2
   4132c:	00c000c4 	movi	r3,3
   41330:	10c61405 	stb	r3,6224(r2)

			if ((c[1] != 0x03) || (c[2] != 0x0c) || (c[3] != 0x00)) {
   41334:	80c00043 	ldbu	r3,1(r16)
   41338:	008000c4 	movi	r2,3
   4133c:	1880051e 	bne	r3,r2,41354 <edid_decode_cea+0x32c>
   41340:	80c00083 	ldbu	r3,2(r16)
   41344:	00800304 	movi	r2,12
   41348:	1880021e 	bne	r3,r2,41354 <edid_decode_cea+0x32c>
   4134c:	808000c3 	ldbu	r2,3(r16)
   41350:	10000226 	beq	r2,zero,4135c <edid_decode_cea+0x334>
				cea->db_vsdb_hdmi.ieee_reg_id = 0;
   41354:	e0000015 	stw	zero,0(fp)
   41358:	00015a06 	br	418c4 <edid_decode_cea+0x89c>
				c += (*c & 0x1f) + 1;
				break;
			}

			cea->db_vsdb_hdmi.ext_len = (int)(*c & 0x1f);
   4135c:	80800003 	ldbu	r2,0(r16)
   41360:	d8c00917 	ldw	r3,36(sp)
			cea->db_vsdb_hdmi.ieee_reg_id = (c[3] << 16) | (c[2] << 8) | c[1];

			cea->db_vsdb_hdmi.addr_a = (int)(c[4] >> 4);
   41364:	d9800a17 	ldw	r6,40(sp)
				cea->db_vsdb_hdmi.ieee_reg_id = 0;
				c += (*c & 0x1f) + 1;
				break;
			}

			cea->db_vsdb_hdmi.ext_len = (int)(*c & 0x1f);
   41368:	108007cc 	andi	r2,r2,31
   4136c:	18800015 	stw	r2,0(r3)
			cea->db_vsdb_hdmi.ieee_reg_id = (c[3] << 16) | (c[2] << 8) | c[1];
   41370:	808000c3 	ldbu	r2,3(r16)
			cea->db_vsdb_hdmi.addr_a = (int)(c[4] >> 4);
			cea->db_vsdb_hdmi.addr_b = (int)(c[4] & 0x0f);
			cea->db_vsdb_hdmi.addr_c = (int)(c[5] >> 4);
			cea->db_vsdb_hdmi.addr_d = (int)(c[5] & 0x0f);

			if ((*c & 0x1f) >= 6) {
   41374:	01c00144 	movi	r7,5
   41378:	8946af04 	addi	r5,r17,6844
				c += (*c & 0x1f) + 1;
				break;
			}

			cea->db_vsdb_hdmi.ext_len = (int)(*c & 0x1f);
			cea->db_vsdb_hdmi.ieee_reg_id = (c[3] << 16) | (c[2] << 8) | c[1];
   4137c:	1006943a 	slli	r3,r2,16
   41380:	80800083 	ldbu	r2,2(r16)
   41384:	8906b204 	addi	r4,r17,6856
   41388:	1004923a 	slli	r2,r2,8
   4138c:	1884b03a 	or	r2,r3,r2
   41390:	80c00043 	ldbu	r3,1(r16)
   41394:	10c4b03a 	or	r2,r2,r3
   41398:	e0800015 	stw	r2,0(fp)

			cea->db_vsdb_hdmi.addr_a = (int)(c[4] >> 4);
   4139c:	80800103 	ldbu	r2,4(r16)
   413a0:	88c6b304 	addi	r3,r17,6860
   413a4:	1004d13a 	srli	r2,r2,4
   413a8:	30800015 	stw	r2,0(r6)
			cea->db_vsdb_hdmi.addr_b = (int)(c[4] & 0x0f);
   413ac:	80800103 	ldbu	r2,4(r16)
   413b0:	8986b004 	addi	r6,r17,6848
   413b4:	108003cc 	andi	r2,r2,15
   413b8:	50800015 	stw	r2,0(r10)
			cea->db_vsdb_hdmi.addr_c = (int)(c[5] >> 4);
   413bc:	80800143 	ldbu	r2,5(r16)
   413c0:	1004d13a 	srli	r2,r2,4
   413c4:	58800015 	stw	r2,0(r11)
			cea->db_vsdb_hdmi.addr_d = (int)(c[5] & 0x0f);
   413c8:	80800143 	ldbu	r2,5(r16)
   413cc:	108003cc 	andi	r2,r2,15
   413d0:	60800015 	stw	r2,0(r12)

			if ((*c & 0x1f) >= 6) {
   413d4:	80800003 	ldbu	r2,0(r16)
   413d8:	108007cc 	andi	r2,r2,31
   413dc:	3880172e 	bgeu	r7,r2,4143c <edid_decode_cea+0x414>
				cea->db_vsdb_hdmi.ai = (c[6] & 0x80) ? 1 : 0;
   413e0:	80800187 	ldb	r2,6(r16)
   413e4:	1004d7fa 	srli	r2,r2,31
   413e8:	40800015 	stw	r2,0(r8)
				cea->db_vsdb_hdmi.bpp48 = (c[6] & 0x40) ? 1 : 0;
   413ec:	80800183 	ldbu	r2,6(r16)
   413f0:	1004d1ba 	srli	r2,r2,6
   413f4:	1080004c 	andi	r2,r2,1
   413f8:	48800015 	stw	r2,0(r9)
				cea->db_vsdb_hdmi.bpp36 = (c[6] & 0x20) ? 1 : 0;
   413fc:	80800183 	ldbu	r2,6(r16)
   41400:	11c4d83a 	srl	r2,r2,r7
   41404:	1080004c 	andi	r2,r2,1
   41408:	30800015 	stw	r2,0(r6)
				cea->db_vsdb_hdmi.bpp30 = (c[6] & 0x10) ? 1 : 0;
   4140c:	80800183 	ldbu	r2,6(r16)
   41410:	1004d13a 	srli	r2,r2,4
   41414:	1080004c 	andi	r2,r2,1
   41418:	28800015 	stw	r2,0(r5)
				cea->db_vsdb_hdmi.ycbcr444 = (c[6] & 0x08) ? 1 : 0;
   4141c:	80800183 	ldbu	r2,6(r16)
   41420:	1004d0fa 	srli	r2,r2,3
   41424:	1080004c 	andi	r2,r2,1
   41428:	20800015 	stw	r2,0(r4)
				cea->db_vsdb_hdmi.dvi_dual = (c[6] & 0x01) ? 1 : 0;
   4142c:	80800183 	ldbu	r2,6(r16)
   41430:	1080004c 	andi	r2,r2,1
   41434:	18800015 	stw	r2,0(r3)
   41438:	00000606 	br	41454 <edid_decode_cea+0x42c>
			} else {
				cea->db_vsdb_hdmi.ai = 0;
   4143c:	40000015 	stw	zero,0(r8)
				cea->db_vsdb_hdmi.bpp48 = 0;
   41440:	48000015 	stw	zero,0(r9)
				cea->db_vsdb_hdmi.bpp36 = 0;
   41444:	30000015 	stw	zero,0(r6)
				cea->db_vsdb_hdmi.bpp30 = 0;
   41448:	28000015 	stw	zero,0(r5)
				cea->db_vsdb_hdmi.ycbcr444 = 0;
   4144c:	20000015 	stw	zero,0(r4)
				cea->db_vsdb_hdmi.dvi_dual = 0;
   41450:	18000015 	stw	zero,0(r3)
			}

			if ((*c & 0x1f) >= 7) {
   41454:	80800003 	ldbu	r2,0(r16)
   41458:	00c00184 	movi	r3,6
   4145c:	108007cc 	andi	r2,r2,31
   41460:	1880042e 	bgeu	r3,r2,41474 <edid_decode_cea+0x44c>
				cea->db_vsdb_hdmi.max_tmds_clk = c[7] * 5;
   41464:	808001c3 	ldbu	r2,7(r16)
   41468:	10800164 	muli	r2,r2,5
   4146c:	8886b715 	stw	r2,6876(r17)
   41470:	00000106 	br	41478 <edid_decode_cea+0x450>
			} else {
				cea->db_vsdb_hdmi.max_tmds_clk = 0;
   41474:	8806b715 	stw	zero,6876(r17)
			}

			cea->db_vsdb_hdmi.p_latency = 0;
   41478:	8946b404 	addi	r5,r17,6864
   4147c:	28000015 	stw	zero,0(r5)
			cea->db_vsdb_hdmi.i_latency = 0;
   41480:	8806b515 	stw	zero,6868(r17)
			cea->db_vsdb_hdmi.hdmi_video = 0;
   41484:	8806b615 	stw	zero,6872(r17)

			cea->db_vsdb_hdmi.vid_latency_p = 0;
   41488:	8906b804 	addi	r4,r17,6880
   4148c:	20000015 	stw	zero,0(r4)
			cea->db_vsdb_hdmi.aud_latency_p = 0;
   41490:	88c6b904 	addi	r3,r17,6884
   41494:	18000015 	stw	zero,0(r3)
			cea->db_vsdb_hdmi.vid_latency_i = 0;
   41498:	8806ba15 	stw	zero,6888(r17)
			cea->db_vsdb_hdmi.aud_latency_i = 0;
   4149c:	8806bb15 	stw	zero,6892(r17)

			if ((*c & 0x1f) >= 8) {
   414a0:	80800003 	ldbu	r2,0(r16)
   414a4:	018001c4 	movi	r6,7
   414a8:	108007cc 	andi	r2,r2,31
   414ac:	3080232e 	bgeu	r6,r2,4153c <edid_decode_cea+0x514>
				u8 c8 = c[8];
   414b0:	80800203 	ldbu	r2,8(r16)
				hv = &c[9];
				if (c8 & 0x80) {
   414b4:	11803fcc 	andi	r6,r2,255
   414b8:	3180201c 	xori	r6,r6,128
   414bc:	31bfe004 	addi	r6,r6,-128
   414c0:	30000216 	blt	r6,zero,414cc <edid_decode_cea+0x4a4>
			cea->db_vsdb_hdmi.vid_latency_i = 0;
			cea->db_vsdb_hdmi.aud_latency_i = 0;

			if ((*c & 0x1f) >= 8) {
				u8 c8 = c[8];
				hv = &c[9];
   414c4:	85800244 	addi	r22,r16,9
   414c8:	00000b06 	br	414f8 <edid_decode_cea+0x4d0>
				if (c8 & 0x80) {
					cea->db_vsdb_hdmi.p_latency = 1;
   414cc:	01800044 	movi	r6,1
   414d0:	29800015 	stw	r6,0(r5)
					cea->db_vsdb_hdmi.vid_latency_p = (hv[0] - 1) * 2;  // (ms)
   414d4:	81400243 	ldbu	r5,9(r16)
					cea->db_vsdb_hdmi.aud_latency_p = (hv[1] - 1) * 2;  // (ms)
					hv += 2;
   414d8:	858002c4 	addi	r22,r16,11
			if ((*c & 0x1f) >= 8) {
				u8 c8 = c[8];
				hv = &c[9];
				if (c8 & 0x80) {
					cea->db_vsdb_hdmi.p_latency = 1;
					cea->db_vsdb_hdmi.vid_latency_p = (hv[0] - 1) * 2;  // (ms)
   414dc:	297fffc4 	addi	r5,r5,-1
   414e0:	294b883a 	add	r5,r5,r5
   414e4:	21400015 	stw	r5,0(r4)
					cea->db_vsdb_hdmi.aud_latency_p = (hv[1] - 1) * 2;  // (ms)
   414e8:	81000283 	ldbu	r4,10(r16)
   414ec:	213fffc4 	addi	r4,r4,-1
   414f0:	2109883a 	add	r4,r4,r4
   414f4:	19000015 	stw	r4,0(r3)
					hv += 2;
				}
				if (c8 & 0x40) {
   414f8:	10c0100c 	andi	r3,r2,64
   414fc:	18000b26 	beq	r3,zero,4152c <edid_decode_cea+0x504>
					cea->db_vsdb_hdmi.i_latency = 1;
   41500:	00c00044 	movi	r3,1
   41504:	88c6b515 	stw	r3,6868(r17)
					cea->db_vsdb_hdmi.vid_latency_i = (hv[0] - 1) * 2;  // (ms)
   41508:	b0c00003 	ldbu	r3,0(r22)
					cea->db_vsdb_hdmi.aud_latency_i = (hv[1] - 1) * 2;  // (ms)
					hv += 2;
   4150c:	b5800084 	addi	r22,r22,2
					cea->db_vsdb_hdmi.aud_latency_p = (hv[1] - 1) * 2;  // (ms)
					hv += 2;
				}
				if (c8 & 0x40) {
					cea->db_vsdb_hdmi.i_latency = 1;
					cea->db_vsdb_hdmi.vid_latency_i = (hv[0] - 1) * 2;  // (ms)
   41510:	18ffffc4 	addi	r3,r3,-1
   41514:	18c7883a 	add	r3,r3,r3
   41518:	88c6ba15 	stw	r3,6888(r17)
					cea->db_vsdb_hdmi.aud_latency_i = (hv[1] - 1) * 2;  // (ms)
   4151c:	b0ffffc3 	ldbu	r3,-1(r22)
   41520:	18ffffc4 	addi	r3,r3,-1
   41524:	18c7883a 	add	r3,r3,r3
   41528:	88c6bb15 	stw	r3,6892(r17)
					hv += 2;
				}
				if (c8 & 0x20) {
   4152c:	1080080c 	andi	r2,r2,32
   41530:	10000226 	beq	r2,zero,4153c <edid_decode_cea+0x514>
					cea->db_vsdb_hdmi.hdmi_video = 1;
   41534:	00800044 	movi	r2,1
   41538:	8886b615 	stw	r2,6872(r17)
				}
			}

			if (cea->db_vsdb_hdmi.hdmi_video > 0) {
   4153c:	8886b617 	ldw	r2,6872(r17)
   41540:	89c6bc04 	addi	r7,r17,6896
   41544:	8986bd04 	addi	r6,r17,6900
   41548:	8946be04 	addi	r5,r17,6904
   4154c:	8906bf04 	addi	r4,r17,6908
   41550:	88c6c004 	addi	r3,r17,6912
   41554:	0080120e 	bge	zero,r2,415a0 <edid_decode_cea+0x578>
				cea->db_vsdb_hdmi.present_3d = hv[0] & 0x80 ? 1 : 0;
   41558:	b0800007 	ldb	r2,0(r22)
   4155c:	1004d7fa 	srli	r2,r2,31
   41560:	38800015 	stw	r2,0(r7)
				cea->db_vsdb_hdmi.multi_3d = (hv[0] >> 5) & 0x03;
   41564:	b0800003 	ldbu	r2,0(r22)
   41568:	1004d17a 	srli	r2,r2,5
   4156c:	108000cc 	andi	r2,r2,3
   41570:	30800015 	stw	r2,0(r6)
				cea->db_vsdb_hdmi.image_size = (hv[0] >> 3) & 0x03;
   41574:	b0800003 	ldbu	r2,0(r22)
   41578:	1004d0fa 	srli	r2,r2,3
   4157c:	108000cc 	andi	r2,r2,3
   41580:	28800015 	stw	r2,0(r5)
				cea->db_vsdb_hdmi.hdmi_xx_len = hv[1] >> 5;
   41584:	b0800043 	ldbu	r2,1(r22)
   41588:	1004d17a 	srli	r2,r2,5
   4158c:	20800015 	stw	r2,0(r4)
				cea->db_vsdb_hdmi.hdmi_3d_len = hv[1] & 0x1f;
   41590:	b0800043 	ldbu	r2,1(r22)
   41594:	108007cc 	andi	r2,r2,31
   41598:	18800015 	stw	r2,0(r3)
   4159c:	00000506 	br	415b4 <edid_decode_cea+0x58c>
			} else {
				cea->db_vsdb_hdmi.present_3d = 0;
   415a0:	38000015 	stw	zero,0(r7)
				cea->db_vsdb_hdmi.multi_3d = 0;
   415a4:	30000015 	stw	zero,0(r6)
				cea->db_vsdb_hdmi.image_size = 0;
   415a8:	28000015 	stw	zero,0(r5)
				cea->db_vsdb_hdmi.hdmi_xx_len = 0;
   415ac:	20000015 	stw	zero,0(r4)
				cea->db_vsdb_hdmi.hdmi_3d_len = 0;
   415b0:	18000015 	stw	zero,0(r3)
			}

			if (cea->db_vsdb_hdmi.hdmi_3d_len > 0) {
   415b4:	8946c004 	addi	r5,r17,6912
   415b8:	28800017 	ldw	r2,0(r5)
   415bc:	8906c104 	addi	r4,r17,6916
   415c0:	88c6c204 	addi	r3,r17,6920
   415c4:	00804a0e 	bge	zero,r2,416f0 <edid_decode_cea+0x6c8>
				u8 *d = &hv[2 + cea->db_vsdb_hdmi.hdmi_xx_len];  // data pointer starting from 3D_Structure_ALL_15...8
   415c8:	8886bf17 	ldw	r2,6908(r17)
				u8 *vic = 0;	// data pointer starting from 2D_VIC_Order_1 + 3D_Structure_1
				int vic_l = 0;  // remaining 3D size starting from 2D_VIC_Order_1 + 3D_Structure_1

				if (cea->db_vsdb_hdmi.multi_3d == 2) {
   415cc:	8986bd17 	ldw	r6,6900(r17)
   415d0:	01c00084 	movi	r7,2
				cea->db_vsdb_hdmi.hdmi_xx_len = 0;
				cea->db_vsdb_hdmi.hdmi_3d_len = 0;
			}

			if (cea->db_vsdb_hdmi.hdmi_3d_len > 0) {
				u8 *d = &hv[2 + cea->db_vsdb_hdmi.hdmi_xx_len];  // data pointer starting from 3D_Structure_ALL_15...8
   415d4:	10800084 	addi	r2,r2,2
   415d8:	b085883a 	add	r2,r22,r2
				u8 *vic = 0;	// data pointer starting from 2D_VIC_Order_1 + 3D_Structure_1
				int vic_l = 0;  // remaining 3D size starting from 2D_VIC_Order_1 + 3D_Structure_1

				if (cea->db_vsdb_hdmi.multi_3d == 2) {
   415dc:	31c00e1e 	bne	r6,r7,41618 <edid_decode_cea+0x5f0>
					cea->db_vsdb_hdmi.struct_all_3d = (d[0] << 8) | d[1];
   415e0:	11c00003 	ldbu	r7,0(r2)
   415e4:	11800043 	ldbu	r6,1(r2)
					cea->db_vsdb_hdmi.mask_3d = (d[2] << 8) | d[3];
					vic = &d[4];
   415e8:	10800104 	addi	r2,r2,4
				u8 *d = &hv[2 + cea->db_vsdb_hdmi.hdmi_xx_len];  // data pointer starting from 3D_Structure_ALL_15...8
				u8 *vic = 0;	// data pointer starting from 2D_VIC_Order_1 + 3D_Structure_1
				int vic_l = 0;  // remaining 3D size starting from 2D_VIC_Order_1 + 3D_Structure_1

				if (cea->db_vsdb_hdmi.multi_3d == 2) {
					cea->db_vsdb_hdmi.struct_all_3d = (d[0] << 8) | d[1];
   415ec:	380e923a 	slli	r7,r7,8
   415f0:	398cb03a 	or	r6,r7,r6
   415f4:	21800015 	stw	r6,0(r4)
					cea->db_vsdb_hdmi.mask_3d = (d[2] << 8) | d[3];
   415f8:	11bfff83 	ldbu	r6,-2(r2)
   415fc:	113fffc3 	ldbu	r4,-1(r2)
   41600:	300c923a 	slli	r6,r6,8
   41604:	3108b03a 	or	r4,r6,r4
   41608:	19000015 	stw	r4,0(r3)
					vic = &d[4];
					vic_l = cea->db_vsdb_hdmi.hdmi_3d_len - 4;
   4160c:	28c00017 	ldw	r3,0(r5)
   41610:	18ffff04 	addi	r3,r3,-4
   41614:	00001006 	br	41658 <edid_decode_cea+0x630>
				} else if (cea->db_vsdb_hdmi.multi_3d == 1) {
   41618:	01c00044 	movi	r7,1
   4161c:	31c00a1e 	bne	r6,r7,41648 <edid_decode_cea+0x620>
					cea->db_vsdb_hdmi.struct_all_3d = (d[0] << 8) | d[1];
   41620:	11c00003 	ldbu	r7,0(r2)
   41624:	11800043 	ldbu	r6,1(r2)
					cea->db_vsdb_hdmi.mask_3d = 0;
					vic = &d[2];
   41628:	10800084 	addi	r2,r2,2
					cea->db_vsdb_hdmi.struct_all_3d = (d[0] << 8) | d[1];
					cea->db_vsdb_hdmi.mask_3d = (d[2] << 8) | d[3];
					vic = &d[4];
					vic_l = cea->db_vsdb_hdmi.hdmi_3d_len - 4;
				} else if (cea->db_vsdb_hdmi.multi_3d == 1) {
					cea->db_vsdb_hdmi.struct_all_3d = (d[0] << 8) | d[1];
   4162c:	380e923a 	slli	r7,r7,8
   41630:	398cb03a 	or	r6,r7,r6
   41634:	21800015 	stw	r6,0(r4)
					cea->db_vsdb_hdmi.mask_3d = 0;
   41638:	18000015 	stw	zero,0(r3)
					vic = &d[2];
					vic_l = cea->db_vsdb_hdmi.hdmi_3d_len - 2;
   4163c:	28c00017 	ldw	r3,0(r5)
   41640:	18ffff84 	addi	r3,r3,-2
   41644:	00000406 	br	41658 <edid_decode_cea+0x630>
				} else {
					cea->db_vsdb_hdmi.struct_all_3d = 0;
   41648:	20000015 	stw	zero,0(r4)
					cea->db_vsdb_hdmi.mask_3d = 0;
   4164c:	18000015 	stw	zero,0(r3)
				cea->db_vsdb_hdmi.hdmi_3d_len = 0;
			}

			if (cea->db_vsdb_hdmi.hdmi_3d_len > 0) {
				u8 *d = &hv[2 + cea->db_vsdb_hdmi.hdmi_xx_len];  // data pointer starting from 3D_Structure_ALL_15...8
				u8 *vic = 0;	// data pointer starting from 2D_VIC_Order_1 + 3D_Structure_1
   41650:	0005883a 	mov	r2,zero
				int vic_l = 0;  // remaining 3D size starting from 2D_VIC_Order_1 + 3D_Structure_1
   41654:	0007883a 	mov	r3,zero
				} else {
					cea->db_vsdb_hdmi.struct_all_3d = 0;
					cea->db_vsdb_hdmi.mask_3d = 0;
				}

				cea->db_vsdb_hdmi.nr_vic_3d = 0;
   41658:	8946c304 	addi	r5,r17,6924
   4165c:	28000015 	stw	zero,0(r5)
				while (vic_l > 0) {
					cea->db_vsdb_hdmi.vic_3d[cea->db_vsdb_hdmi.nr_vic_3d].vic_2d = vic[0] >> 4;
					cea->db_vsdb_hdmi.vic_3d[cea->db_vsdb_hdmi.nr_vic_3d].struct_3d = vic[0] & 0x0f;
					if (cea->db_vsdb_hdmi.vic_3d[cea->db_vsdb_hdmi.nr_vic_3d].struct_3d >= 0x08) {
   41660:	018001c4 	movi	r6,7
					cea->db_vsdb_hdmi.struct_all_3d = 0;
					cea->db_vsdb_hdmi.mask_3d = 0;
				}

				cea->db_vsdb_hdmi.nr_vic_3d = 0;
				while (vic_l > 0) {
   41664:	00c0970e 	bge	zero,r3,418c4 <edid_decode_cea+0x89c>
					cea->db_vsdb_hdmi.vic_3d[cea->db_vsdb_hdmi.nr_vic_3d].vic_2d = vic[0] >> 4;
   41668:	29000017 	ldw	r4,0(r5)
   4166c:	11c00003 	ldbu	r7,0(r2)
   41670:	21000324 	muli	r4,r4,12
   41674:	380ed13a 	srli	r7,r7,4
   41678:	2509883a 	add	r4,r4,r20
   4167c:	a909883a 	add	r4,r21,r4
   41680:	21c6c415 	stw	r7,6928(r4)
					cea->db_vsdb_hdmi.vic_3d[cea->db_vsdb_hdmi.nr_vic_3d].struct_3d = vic[0] & 0x0f;
   41684:	29000017 	ldw	r4,0(r5)
   41688:	11c00003 	ldbu	r7,0(r2)
   4168c:	21000324 	muli	r4,r4,12
   41690:	39c003cc 	andi	r7,r7,15
   41694:	2509883a 	add	r4,r4,r20
   41698:	a909883a 	add	r4,r21,r4
   4169c:	21c6c515 	stw	r7,6932(r4)
					if (cea->db_vsdb_hdmi.vic_3d[cea->db_vsdb_hdmi.nr_vic_3d].struct_3d >= 0x08) {
   416a0:	29000017 	ldw	r4,0(r5)
   416a4:	21000324 	muli	r4,r4,12
   416a8:	2509883a 	add	r4,r4,r20
   416ac:	a909883a 	add	r4,r21,r4
   416b0:	21c6c517 	ldw	r7,6932(r4)
   416b4:	2106c604 	addi	r4,r4,6936
   416b8:	31c0060e 	bge	r6,r7,416d4 <edid_decode_cea+0x6ac>
						cea->db_vsdb_hdmi.vic_3d[cea->db_vsdb_hdmi.nr_vic_3d].detail_3d = vic[1] >> 4;
   416bc:	11c00043 	ldbu	r7,1(r2)
						vic += 2;
						vic_l -= 2;
   416c0:	18ffff84 	addi	r3,r3,-2
				while (vic_l > 0) {
					cea->db_vsdb_hdmi.vic_3d[cea->db_vsdb_hdmi.nr_vic_3d].vic_2d = vic[0] >> 4;
					cea->db_vsdb_hdmi.vic_3d[cea->db_vsdb_hdmi.nr_vic_3d].struct_3d = vic[0] & 0x0f;
					if (cea->db_vsdb_hdmi.vic_3d[cea->db_vsdb_hdmi.nr_vic_3d].struct_3d >= 0x08) {
						cea->db_vsdb_hdmi.vic_3d[cea->db_vsdb_hdmi.nr_vic_3d].detail_3d = vic[1] >> 4;
						vic += 2;
   416c4:	10800084 	addi	r2,r2,2
				cea->db_vsdb_hdmi.nr_vic_3d = 0;
				while (vic_l > 0) {
					cea->db_vsdb_hdmi.vic_3d[cea->db_vsdb_hdmi.nr_vic_3d].vic_2d = vic[0] >> 4;
					cea->db_vsdb_hdmi.vic_3d[cea->db_vsdb_hdmi.nr_vic_3d].struct_3d = vic[0] & 0x0f;
					if (cea->db_vsdb_hdmi.vic_3d[cea->db_vsdb_hdmi.nr_vic_3d].struct_3d >= 0x08) {
						cea->db_vsdb_hdmi.vic_3d[cea->db_vsdb_hdmi.nr_vic_3d].detail_3d = vic[1] >> 4;
   416c8:	380ed13a 	srli	r7,r7,4
   416cc:	21c00015 	stw	r7,0(r4)
   416d0:	00000306 	br	416e0 <edid_decode_cea+0x6b8>
						vic += 2;
						vic_l -= 2;
					} else {
						cea->db_vsdb_hdmi.vic_3d[cea->db_vsdb_hdmi.nr_vic_3d].detail_3d = 0;
   416d4:	20000015 	stw	zero,0(r4)
						++vic;
   416d8:	10800044 	addi	r2,r2,1
						--vic_l;
   416dc:	18ffffc4 	addi	r3,r3,-1
					}
					++cea->db_vsdb_hdmi.nr_vic_3d;
   416e0:	29000017 	ldw	r4,0(r5)
   416e4:	21000044 	addi	r4,r4,1
   416e8:	29000015 	stw	r4,0(r5)
   416ec:	003fdd06 	br	41664 <__alt_data_end+0xfffda564>
				}
			} else {
				cea->db_vsdb_hdmi.struct_all_3d = 0;
   416f0:	20000015 	stw	zero,0(r4)
				cea->db_vsdb_hdmi.mask_3d = 0;
   416f4:	18000015 	stw	zero,0(r3)
   416f8:	00007206 	br	418c4 <edid_decode_cea+0x89c>

			c += (*c & 0x1f) + 1;
			break;

		case CEA_DB_SPEAKER:
			cea->dbc_tags[cea->nr_dbcs++] = CEA_DB_SPEAKER;
   416fc:	98800017 	ldw	r2,0(r19)
   41700:	10c00044 	addi	r3,r2,1
   41704:	98c00015 	stw	r3,0(r19)
   41708:	8885883a 	add	r2,r17,r2
   4170c:	00c00104 	movi	r3,4
   41710:	10c61405 	stb	r3,6224(r2)
			cea->db_speaker.designation = (int)(c[1] & 0x7f);
   41714:	80800043 	ldbu	r2,1(r16)
   41718:	d8c00817 	ldw	r3,32(sp)
   4171c:	10801fcc 	andi	r2,r2,127
   41720:	18800015 	stw	r2,0(r3)
   41724:	00006706 	br	418c4 <edid_decode_cea+0x89c>
			c += (*c & 0x1f) + 1;
			break;

		case CEA_DB_DTC:
			cea->dbc_tags[cea->nr_dbcs++] = CEA_DB_DTC;
   41728:	98800017 	ldw	r2,0(r19)
   4172c:	10c00044 	addi	r3,r2,1
   41730:	98c00015 	stw	r3,0(r19)
   41734:	8885883a 	add	r2,r17,r2
   41738:	00c00144 	movi	r3,5
   4173c:	00006006 	br	418c0 <edid_decode_cea+0x898>
			c += (*c & 0x1f) + 1;
			break;

		case CEA_DB_EXTENDED:
			switch (c[1]) {
   41740:	80800043 	ldbu	r2,1(r16)
   41744:	00c00484 	movi	r3,18
   41748:	18805836 	bltu	r3,r2,418ac <edid_decode_cea+0x884>
   4174c:	100490ba 	slli	r2,r2,2
   41750:	01800134 	movhi	r6,4
   41754:	3185d904 	addi	r6,r6,5988
   41758:	1185883a 	add	r2,r2,r6
   4175c:	10800017 	ldw	r2,0(r2)
   41760:	1000683a 	jmp	r2
   41764:	000417b0 	cmpltui	zero,zero,4190
   41768:	00041808 	cmpgei	zero,zero,4192
   4176c:	00041818 	cmpnei	zero,zero,4192
   41770:	00041828 	cmpgeui	zero,zero,4192
   41774:	00041838 	rdprs	zero,zero,4192
   41778:	00041848 	cmpgei	zero,zero,4193
   4177c:	000418ac 	andhi	zero,zero,4194
   41780:	000418ac 	andhi	zero,zero,4194
   41784:	000418ac 	andhi	zero,zero,4194
   41788:	000418ac 	andhi	zero,zero,4194
   4178c:	000418ac 	andhi	zero,zero,4194
   41790:	000418ac 	andhi	zero,zero,4194
   41794:	000418ac 	andhi	zero,zero,4194
   41798:	000418ac 	andhi	zero,zero,4194
   4179c:	000418ac 	andhi	zero,zero,4194
   417a0:	000418ac 	andhi	zero,zero,4194
   417a4:	0004187c 	xorhi	zero,zero,4193
   417a8:	0004188c 	andi	zero,zero,4194
   417ac:	0004189c 	xori	zero,zero,4194
			case CEA_DBE_VIDEO_CAP:
				cea->dbe_tags[cea->nr_dbcs] = CEA_DBE_VIDEO_CAP;
   417b0:	98800017 	ldw	r2,0(r19)
				cea->db_vcdb.quant_range_sel = (c[2] & 0x40) ? 1 : 0;
   417b4:	d8c00417 	ldw	r3,16(sp)
				cea->db_vcdb.pt_scan_behavior = (int)((c[2] >> 4) & 0x03);
   417b8:	d9800517 	ldw	r6,20(sp)
			break;

		case CEA_DB_EXTENDED:
			switch (c[1]) {
			case CEA_DBE_VIDEO_CAP:
				cea->dbe_tags[cea->nr_dbcs] = CEA_DBE_VIDEO_CAP;
   417bc:	8885883a 	add	r2,r17,r2
   417c0:	10062385 	stb	zero,6286(r2)
				cea->db_vcdb.quant_range_sel = (c[2] & 0x40) ? 1 : 0;
   417c4:	80800083 	ldbu	r2,2(r16)
   417c8:	1004d1ba 	srli	r2,r2,6
   417cc:	1080004c 	andi	r2,r2,1
   417d0:	18800015 	stw	r2,0(r3)
				cea->db_vcdb.pt_scan_behavior = (int)((c[2] >> 4) & 0x03);
   417d4:	80800083 	ldbu	r2,2(r16)
				cea->db_vcdb.it_scan_behavior = (int)((c[2] >> 2) & 0x03);
   417d8:	d8c00617 	ldw	r3,24(sp)
		case CEA_DB_EXTENDED:
			switch (c[1]) {
			case CEA_DBE_VIDEO_CAP:
				cea->dbe_tags[cea->nr_dbcs] = CEA_DBE_VIDEO_CAP;
				cea->db_vcdb.quant_range_sel = (c[2] & 0x40) ? 1 : 0;
				cea->db_vcdb.pt_scan_behavior = (int)((c[2] >> 4) & 0x03);
   417dc:	1004d13a 	srli	r2,r2,4
   417e0:	108000cc 	andi	r2,r2,3
   417e4:	30800015 	stw	r2,0(r6)
				cea->db_vcdb.it_scan_behavior = (int)((c[2] >> 2) & 0x03);
   417e8:	80800083 	ldbu	r2,2(r16)
				cea->db_vcdb.ce_scan_behavior = (int)(c[2] & 0x03);
   417ec:	d9800717 	ldw	r6,28(sp)
			switch (c[1]) {
			case CEA_DBE_VIDEO_CAP:
				cea->dbe_tags[cea->nr_dbcs] = CEA_DBE_VIDEO_CAP;
				cea->db_vcdb.quant_range_sel = (c[2] & 0x40) ? 1 : 0;
				cea->db_vcdb.pt_scan_behavior = (int)((c[2] >> 4) & 0x03);
				cea->db_vcdb.it_scan_behavior = (int)((c[2] >> 2) & 0x03);
   417f0:	1004d0ba 	srli	r2,r2,2
   417f4:	108000cc 	andi	r2,r2,3
   417f8:	18800015 	stw	r2,0(r3)
				cea->db_vcdb.ce_scan_behavior = (int)(c[2] & 0x03);
   417fc:	80800083 	ldbu	r2,2(r16)
   41800:	108000cc 	andi	r2,r2,3
   41804:	00001b06 	br	41874 <edid_decode_cea+0x84c>
				break;
			case CEA_DBE_VIDEO_VENDOR:
				cea->dbe_tags[cea->nr_dbcs] = CEA_DBE_VIDEO_VENDOR;
   41808:	98800017 	ldw	r2,0(r19)
   4180c:	00c00044 	movi	r3,1
   41810:	8885883a 	add	r2,r17,r2
   41814:	00002406 	br	418a8 <edid_decode_cea+0x880>
				break;
			case CEA_DBE_VIDEO_DDI:
				cea->dbe_tags[cea->nr_dbcs] = CEA_DBE_VIDEO_DDI;
   41818:	98800017 	ldw	r2,0(r19)
   4181c:	00c00084 	movi	r3,2
   41820:	8885883a 	add	r2,r17,r2
   41824:	00002006 	br	418a8 <edid_decode_cea+0x880>
				break;
			case CEA_DBE_VIDEO_VESA:
				cea->dbe_tags[cea->nr_dbcs] = CEA_DBE_VIDEO_VESA;
   41828:	98800017 	ldw	r2,0(r19)
   4182c:	00c000c4 	movi	r3,3
   41830:	8885883a 	add	r2,r17,r2
   41834:	00001c06 	br	418a8 <edid_decode_cea+0x880>
				break;
			case CEA_DBE_VIDEO_HDMI:
				cea->dbe_tags[cea->nr_dbcs] = CEA_DBE_VIDEO_HDMI;
   41838:	98800017 	ldw	r2,0(r19)
   4183c:	00c00104 	movi	r3,4
   41840:	8885883a 	add	r2,r17,r2
   41844:	00001806 	br	418a8 <edid_decode_cea+0x880>
				break;
			case CEA_DBE_COLORIMETRY:
				cea->dbe_tags[cea->nr_dbcs] = CEA_DBE_COLORIMETRY;
   41848:	98800017 	ldw	r2,0(r19)
   4184c:	00c00144 	movi	r3,5
				cea->db_colorimetry.xvYCC = (int)(c[2] & 0x03);
				cea->db_colorimetry.metadata = (int)(c[3] & 0x07);
   41850:	d9800317 	ldw	r6,12(sp)
				break;
			case CEA_DBE_VIDEO_HDMI:
				cea->dbe_tags[cea->nr_dbcs] = CEA_DBE_VIDEO_HDMI;
				break;
			case CEA_DBE_COLORIMETRY:
				cea->dbe_tags[cea->nr_dbcs] = CEA_DBE_COLORIMETRY;
   41854:	8885883a 	add	r2,r17,r2
   41858:	10c62385 	stb	r3,6286(r2)
				cea->db_colorimetry.xvYCC = (int)(c[2] & 0x03);
   4185c:	80800083 	ldbu	r2,2(r16)
   41860:	d8c00217 	ldw	r3,8(sp)
   41864:	108000cc 	andi	r2,r2,3
   41868:	18800015 	stw	r2,0(r3)
				cea->db_colorimetry.metadata = (int)(c[3] & 0x07);
   4186c:	808000c3 	ldbu	r2,3(r16)
   41870:	108001cc 	andi	r2,r2,7
   41874:	30800015 	stw	r2,0(r6)
				break;
   41878:	00000c06 	br	418ac <edid_decode_cea+0x884>
			case CEA_DBE_AUDIO_MISC:
				cea->dbe_tags[cea->nr_dbcs] = CEA_DBE_AUDIO_MISC;
   4187c:	98800017 	ldw	r2,0(r19)
   41880:	00c00404 	movi	r3,16
   41884:	8885883a 	add	r2,r17,r2
   41888:	00000706 	br	418a8 <edid_decode_cea+0x880>
				break;
			case CEA_DBE_AUDIO_VENDOR:
				cea->dbe_tags[cea->nr_dbcs] = CEA_DBE_AUDIO_VENDOR;
   4188c:	98800017 	ldw	r2,0(r19)
   41890:	00c00444 	movi	r3,17
   41894:	8885883a 	add	r2,r17,r2
   41898:	00000306 	br	418a8 <edid_decode_cea+0x880>
				break;
			case CEA_DBE_AUDIO_HDMI:
				cea->dbe_tags[cea->nr_dbcs] = CEA_DBE_AUDIO_HDMI;
   4189c:	98800017 	ldw	r2,0(r19)
   418a0:	00c00484 	movi	r3,18
   418a4:	8885883a 	add	r2,r17,r2
   418a8:	10c62385 	stb	r3,6286(r2)
				break;
			}

			cea->dbc_tags[cea->nr_dbcs++] = CEA_DB_EXTENDED;
   418ac:	98800017 	ldw	r2,0(r19)
   418b0:	10c00044 	addi	r3,r2,1
   418b4:	98c00015 	stw	r3,0(r19)
   418b8:	8885883a 	add	r2,r17,r2
   418bc:	00c001c4 	movi	r3,7
   418c0:	10c61405 	stb	r3,6224(r2)

			c += (*c & 0x1f) + 1;
   418c4:	80800003 	ldbu	r2,0(r16)
   418c8:	108007cc 	andi	r2,r2,31
   418cc:	10800044 	addi	r2,r2,1
   418d0:	80a1883a 	add	r16,r16,r2
			break;
   418d4:	003e2806 	br	41178 <__alt_data_end+0xfffda078>
			break;
		}
	}

	// detail timing descriptor
	if (dtd == 0)
   418d8:	b800b026 	beq	r23,zero,41b9c <edid_decode_cea+0xb74>
   418dc:	9005883a 	mov	r2,r18
   418e0:	a1470904 	addi	r5,r20,7204
   418e4:	a1070804 	addi	r4,r20,7200
		return 0;

	for (i = 0; i < (int)cea->nr_dtd; ++i) {
   418e8:	17c61204 	addi	ra,r2,6216
   418ec:	a94b883a 	add	r5,r21,r5
   418f0:	b9c00444 	addi	r7,r23,17
   418f4:	b807883a 	mov	r3,r23
   418f8:	a909883a 	add	r4,r21,r4
   418fc:	bd000044 	addi	r20,r23,1
   41900:	ba800104 	addi	r10,r23,4
   41904:	bcc00084 	addi	r19,r23,2
   41908:	ba4001c4 	addi	r9,r23,7
   4190c:	bc400144 	addi	r17,r23,5
   41910:	bc0000c4 	addi	r16,r23,3
   41914:	bbc00184 	addi	r15,r23,6
   41918:	ba0002c4 	addi	r8,r23,11
   4191c:	bb800204 	addi	r14,r23,8
   41920:	bac00284 	addi	r11,r23,10
   41924:	bc800244 	addi	r18,r23,9
   41928:	bb000384 	addi	r12,r23,14
   4192c:	bd400304 	addi	r21,r23,12
			break;
		}
	}

	// detail timing descriptor
	if (dtd == 0)
   41930:	001b883a 	mov	r13,zero
		return 0;

	for (i = 0; i < (int)cea->nr_dtd; ++i) {
   41934:	dfc00015 	stw	ra,0(sp)
        cea->detailed_timing[i].border_tb = (int)c[16];

        cea->detailed_timing[i].interlaced = (c[17] & 0x80) ? 1 : 0;

        cea->detailed_timing[i].stereo = STEREO_NONE;
		if ((c[17] & 0x61) == 0x20)
   41938:	05800804 	movi	r22,32
			cea->detailed_timing[i].stereo |= STEREO_FIELD_SEQUENTIAL_RIGHT_SYNC;
   4193c:	05c00084 	movi	r23,2
			cea->detailed_timing[i].stereo |= STEREO_FIELD_SEQUENTIAL_LEFT_SYNC;
		if ((c[17] & 0x61) == 0x21)
			cea->detailed_timing[i].stereo |= STEREO_2WAY_INTERLEAVE_RIGHT_EVEN;
		if ((c[17] & 0x61) == 0x41)
			cea->detailed_timing[i].stereo |= STEREO_2WAY_INTERLEAVE_LEFT_EVEN;
		if ((c[17] & 0x61) == 0x60)
   41940:	07001804 	movi	fp,96
   41944:	00009206 	br	41b90 <edid_decode_cea+0xb68>
		return 0;

	for (i = 0; i < (int)cea->nr_dtd; ++i) {
		c = &dtd[18 * i];

        cea->detailed_timing[i].pixel_clock = (((int)c[1] << 8) | (int)c[0]) * 10000;
   41948:	a7c00003 	ldbu	ra,0(r20)
   4194c:	19800003 	ldbu	r6,0(r3)
   41950:	f83e923a 	slli	ra,ra,8
   41954:	f98cb03a 	or	r6,ra,r6
   41958:	3189c424 	muli	r6,r6,10000
   4195c:	1186fa15 	stw	r6,7144(r2)
        cea->detailed_timing[i].width = (((int)c[4] << 4) & 0xf00) | (int)c[2];
   41960:	51800003 	ldbu	r6,0(r10)
   41964:	9fc00003 	ldbu	ra,0(r19)
   41968:	300c913a 	slli	r6,r6,4
   4196c:	3183c00c 	andi	r6,r6,3840
   41970:	37ccb03a 	or	r6,r6,ra
   41974:	1186fb15 	stw	r6,7148(r2)
        cea->detailed_timing[i].height = (((int)c[7] << 4) & 0xf00) | (int)c[5];
   41978:	49800003 	ldbu	r6,0(r9)
   4197c:	8fc00003 	ldbu	ra,0(r17)
   41980:	300c913a 	slli	r6,r6,4
   41984:	3183c00c 	andi	r6,r6,3840
   41988:	37ccb03a 	or	r6,r6,ra
   4198c:	1186fc15 	stw	r6,7152(r2)
        cea->detailed_timing[i].h_blank = (((int)c[4] << 8) & 0xf00) | (int)c[3];
   41990:	51800003 	ldbu	r6,0(r10)
   41994:	87c00003 	ldbu	ra,0(r16)
   41998:	300c923a 	slli	r6,r6,8
   4199c:	3183c00c 	andi	r6,r6,3840
   419a0:	37ccb03a 	or	r6,r6,ra
   419a4:	1186fd15 	stw	r6,7156(r2)
        cea->detailed_timing[i].v_blank = (((int)c[7] << 8) & 0xf00) | (int)c[6];
   419a8:	49800003 	ldbu	r6,0(r9)
   419ac:	7fc00003 	ldbu	ra,0(r15)
   419b0:	300c923a 	slli	r6,r6,8
   419b4:	3183c00c 	andi	r6,r6,3840
   419b8:	37ccb03a 	or	r6,r6,ra
   419bc:	1186fe15 	stw	r6,7160(r2)
        cea->detailed_timing[i].h_fp = (((int)c[11] << 2) & 0x300) | (int)c[8];
   419c0:	41800003 	ldbu	r6,0(r8)
   419c4:	77c00003 	ldbu	ra,0(r14)
   419c8:	318d883a 	add	r6,r6,r6
   419cc:	318d883a 	add	r6,r6,r6
   419d0:	3180c00c 	andi	r6,r6,768
   419d4:	37ccb03a 	or	r6,r6,ra
   419d8:	1186ff15 	stw	r6,7164(r2)
        cea->detailed_timing[i].v_fp = (((int)c[11] << 2) & 0x30) | ((int)c[10] >> 4);
   419dc:	41800003 	ldbu	r6,0(r8)
   419e0:	5fc00003 	ldbu	ra,0(r11)
   419e4:	318d883a 	add	r6,r6,r6
   419e8:	f83ed13a 	srli	ra,ra,4
   419ec:	318d883a 	add	r6,r6,r6
   419f0:	31800c0c 	andi	r6,r6,48
   419f4:	37ccb03a 	or	r6,r6,ra
   419f8:	11870015 	stw	r6,7168(r2)
        cea->detailed_timing[i].h_sync = (((int)c[11] << 4) & 0x300) | (int)c[9];
   419fc:	41800003 	ldbu	r6,0(r8)
   41a00:	97c00003 	ldbu	ra,0(r18)
   41a04:	300c913a 	slli	r6,r6,4
   41a08:	3180c00c 	andi	r6,r6,768
   41a0c:	37ccb03a 	or	r6,r6,ra
   41a10:	11870115 	stw	r6,7172(r2)
        cea->detailed_timing[i].v_sync = (((int)c[11] << 4) & 0x30) | ((int)c[10] & 0x0f);
   41a14:	47c00003 	ldbu	ra,0(r8)
   41a18:	59800003 	ldbu	r6,0(r11)
   41a1c:	f83e913a 	slli	ra,ra,4
   41a20:	318003cc 	andi	r6,r6,15
   41a24:	ffc00c0c 	andi	ra,ra,48
   41a28:	f98cb03a 	or	r6,ra,r6
   41a2c:	11870215 	stw	r6,7176(r2)
        cea->detailed_timing[i].h_size = (((int)c[14] << 4) & 0xf00) | (int)c[12];
   41a30:	61800003 	ldbu	r6,0(r12)
   41a34:	afc00003 	ldbu	ra,0(r21)
   41a38:	300c913a 	slli	r6,r6,4
   41a3c:	3183c00c 	andi	r6,r6,3840
   41a40:	37ccb03a 	or	r6,r6,ra
   41a44:	11870315 	stw	r6,7180(r2)
        cea->detailed_timing[i].v_size = (((int)c[14] << 8) & 0xf00) | (int)c[13];
   41a48:	61800003 	ldbu	r6,0(r12)
   41a4c:	1fc00343 	ldbu	ra,13(r3)
   41a50:	300c923a 	slli	r6,r6,8
   41a54:	3183c00c 	andi	r6,r6,3840
   41a58:	37ccb03a 	or	r6,r6,ra
   41a5c:	11870415 	stw	r6,7184(r2)
        cea->detailed_timing[i].border_lr = (int)c[15];
   41a60:	198003c3 	ldbu	r6,15(r3)
   41a64:	11870515 	stw	r6,7188(r2)
        cea->detailed_timing[i].border_tb = (int)c[16];
   41a68:	19800403 	ldbu	r6,16(r3)
   41a6c:	11870615 	stw	r6,7192(r2)

        cea->detailed_timing[i].interlaced = (c[17] & 0x80) ? 1 : 0;
   41a70:	39800007 	ldb	r6,0(r7)
   41a74:	300cd7fa 	srli	r6,r6,31
   41a78:	11870715 	stw	r6,7196(r2)

        cea->detailed_timing[i].stereo = STEREO_NONE;
   41a7c:	20000015 	stw	zero,0(r4)
		if ((c[17] & 0x61) == 0x20)
   41a80:	39800003 	ldbu	r6,0(r7)
   41a84:	3180184c 	andi	r6,r6,97
   41a88:	3580011e 	bne	r6,r22,41a90 <edid_decode_cea+0xa68>
			cea->detailed_timing[i].stereo |= STEREO_FIELD_SEQUENTIAL_RIGHT_SYNC;
   41a8c:	25c00015 	stw	r23,0(r4)
		if ((c[17] & 0x61) == 0x40)
   41a90:	39800003 	ldbu	r6,0(r7)
   41a94:	07c01004 	movi	ra,64
   41a98:	3180184c 	andi	r6,r6,97
   41a9c:	37c0031e 	bne	r6,ra,41aac <edid_decode_cea+0xa84>
			cea->detailed_timing[i].stereo |= STEREO_FIELD_SEQUENTIAL_LEFT_SYNC;
   41aa0:	21800017 	ldw	r6,0(r4)
   41aa4:	31800114 	ori	r6,r6,4
   41aa8:	21800015 	stw	r6,0(r4)
		if ((c[17] & 0x61) == 0x21)
   41aac:	39800003 	ldbu	r6,0(r7)
   41ab0:	07c00844 	movi	ra,33
   41ab4:	3180184c 	andi	r6,r6,97
   41ab8:	37c0031e 	bne	r6,ra,41ac8 <edid_decode_cea+0xaa0>
			cea->detailed_timing[i].stereo |= STEREO_2WAY_INTERLEAVE_RIGHT_EVEN;
   41abc:	21800017 	ldw	r6,0(r4)
   41ac0:	31800214 	ori	r6,r6,8
   41ac4:	21800015 	stw	r6,0(r4)
		if ((c[17] & 0x61) == 0x41)
   41ac8:	39800003 	ldbu	r6,0(r7)
   41acc:	07c01044 	movi	ra,65
   41ad0:	3180184c 	andi	r6,r6,97
   41ad4:	37c0031e 	bne	r6,ra,41ae4 <edid_decode_cea+0xabc>
			cea->detailed_timing[i].stereo |= STEREO_2WAY_INTERLEAVE_LEFT_EVEN;
   41ad8:	21800017 	ldw	r6,0(r4)
   41adc:	31800414 	ori	r6,r6,16
   41ae0:	21800015 	stw	r6,0(r4)
		if ((c[17] & 0x61) == 0x60)
   41ae4:	39800003 	ldbu	r6,0(r7)
   41ae8:	3180184c 	andi	r6,r6,97
   41aec:	3700031e 	bne	r6,fp,41afc <edid_decode_cea+0xad4>
			cea->detailed_timing[i].stereo |= STEREO_4WAY_INTERLEAVE;
   41af0:	21800017 	ldw	r6,0(r4)
   41af4:	31800814 	ori	r6,r6,32
   41af8:	21800015 	stw	r6,0(r4)
		if ((c[17] & 0x61) == 0x61)
   41afc:	39800003 	ldbu	r6,0(r7)
   41b00:	07c01844 	movi	ra,97
   41b04:	3180184c 	andi	r6,r6,97
   41b08:	37c0031e 	bne	r6,ra,41b18 <edid_decode_cea+0xaf0>
			cea->detailed_timing[i].stereo |= STEREO_SIDE_BY_SIDE_INTERLEAVE;
   41b0c:	21800017 	ldw	r6,0(r4)
   41b10:	31801014 	ori	r6,r6,64
   41b14:	21800015 	stw	r6,0(r4)

		cea->detailed_timing[i].sync = 0;
   41b18:	28000015 	stw	zero,0(r5)
        if (c[17] & 0x10) {
   41b1c:	39800003 	ldbu	r6,0(r7)
   41b20:	37c0040c 	andi	ra,r6,16
   41b24:	f8002826 	beq	ra,zero,41bc8 <edid_decode_cea+0xba0>
            if (c[17] & 0x08) {
   41b28:	3180020c 	andi	r6,r6,8
   41b2c:	30001d1e 	bne	r6,zero,41ba4 <edid_decode_cea+0xb7c>
            	if (c[17] & 0x04)
                	cea->detailed_timing[i].sync |= D_SEPERATE_VSYNC_P;
            	else
            		cea->detailed_timing[i].sync |= D_SEPERATE_VSYNC_N;
            } else {
            	cea->detailed_timing[i].sync |= D_COMPOSITE_SYNC;
   41b30:	2d800015 	stw	r22,0(r5)
            	if (c[17] & 0x04)
   41b34:	39800003 	ldbu	r6,0(r7)
   41b38:	3180010c 	andi	r6,r6,4
   41b3c:	30000126 	beq	r6,zero,41b44 <edid_decode_cea+0xb1c>
                	cea->detailed_timing[i].sync |= D_COMPOSITE_SERRATION;
   41b40:	2f000015 	stw	fp,0(r5)

	// detail timing descriptor
	if (dtd == 0)
		return 0;

	for (i = 0; i < (int)cea->nr_dtd; ++i) {
   41b44:	6b400044 	addi	r13,r13,1
   41b48:	29401004 	addi	r5,r5,64
   41b4c:	10801004 	addi	r2,r2,64
   41b50:	39c00484 	addi	r7,r7,18
   41b54:	18c00484 	addi	r3,r3,18
   41b58:	21001004 	addi	r4,r4,64
   41b5c:	a5000484 	addi	r20,r20,18
   41b60:	52800484 	addi	r10,r10,18
   41b64:	9cc00484 	addi	r19,r19,18
   41b68:	4a400484 	addi	r9,r9,18
   41b6c:	8c400484 	addi	r17,r17,18
   41b70:	84000484 	addi	r16,r16,18
   41b74:	7bc00484 	addi	r15,r15,18
   41b78:	42000484 	addi	r8,r8,18
   41b7c:	73800484 	addi	r14,r14,18
   41b80:	5ac00484 	addi	r11,r11,18
   41b84:	94800484 	addi	r18,r18,18
   41b88:	63000484 	addi	r12,r12,18
   41b8c:	ad400484 	addi	r21,r21,18
   41b90:	dfc00017 	ldw	ra,0(sp)
   41b94:	f9800017 	ldw	r6,0(ra)
   41b98:	69bf6b16 	blt	r13,r6,41948 <__alt_data_end+0xfffda848>
		}
	}

	// detail timing descriptor
	if (dtd == 0)
		return 0;
   41b9c:	0005883a 	mov	r2,zero
   41ba0:	00001f06 	br	41c20 <edid_decode_cea+0xbf8>
			cea->detailed_timing[i].stereo |= STEREO_SIDE_BY_SIDE_INTERLEAVE;

		cea->detailed_timing[i].sync = 0;
        if (c[17] & 0x10) {
            if (c[17] & 0x08) {
            	cea->detailed_timing[i].sync |= D_SEPERATE_SYNC;
   41ba4:	01802004 	movi	r6,128
   41ba8:	29800015 	stw	r6,0(r5)
            	if (c[17] & 0x04)
   41bac:	39800003 	ldbu	r6,0(r7)
   41bb0:	3180010c 	andi	r6,r6,4
   41bb4:	30000226 	beq	r6,zero,41bc0 <edid_decode_cea+0xb98>
                	cea->detailed_timing[i].sync |= D_SEPERATE_VSYNC_P;
   41bb8:	07c0a004 	movi	ra,640
   41bbc:	00001206 	br	41c08 <edid_decode_cea+0xbe0>
            	else
            		cea->detailed_timing[i].sync |= D_SEPERATE_VSYNC_N;
   41bc0:	01806004 	movi	r6,384
   41bc4:	00001306 	br	41c14 <edid_decode_cea+0xbec>
            	cea->detailed_timing[i].sync |= D_COMPOSITE_SYNC;
            	if (c[17] & 0x04)
                	cea->detailed_timing[i].sync |= D_COMPOSITE_SERRATION;
            }
        } else {
        	if (c[17] & 0x80) {
   41bc8:	31803fcc 	andi	r6,r6,255
   41bcc:	3180201c 	xori	r6,r6,128
   41bd0:	31bfe004 	addi	r6,r6,-128
   41bd4:	30000e0e 	bge	r6,zero,41c10 <edid_decode_cea+0xbe8>
        		cea->detailed_timing[i].sync |= A_BIPOLAR_COMPOSITE_SYNC;
   41bd8:	2dc00015 	stw	r23,0(r5)
        		if (c[17] & 0x40) {
   41bdc:	39800003 	ldbu	r6,0(r7)
   41be0:	3180100c 	andi	r6,r6,64
   41be4:	303fd726 	beq	r6,zero,41b44 <__alt_data_end+0xfffdaa44>
            		cea->detailed_timing[i].sync |= A_BIPOLAR_SERRATION;
   41be8:	07c00184 	movi	ra,6
   41bec:	2fc00015 	stw	ra,0(r5)
            		if (c[17] & 0x20)
   41bf0:	39800003 	ldbu	r6,0(r7)
   41bf4:	3180080c 	andi	r6,r6,32
   41bf8:	30000226 	beq	r6,zero,41c04 <edid_decode_cea+0xbdc>
                		cea->detailed_timing[i].sync |= A_BIPOLAR_SERRATION_SYNC_RGB;
   41bfc:	01800584 	movi	r6,22
   41c00:	00000406 	br	41c14 <edid_decode_cea+0xbec>
            		else
                		cea->detailed_timing[i].sync |= A_BIPOLAR_SERRATION_SYNC_G;
   41c04:	07c00384 	movi	ra,14
   41c08:	2fc00015 	stw	ra,0(r5)
   41c0c:	003fcd06 	br	41b44 <__alt_data_end+0xfffdaa44>
        		}
        	} else {
        		cea->detailed_timing[i].sync |= A_COMPOSITE_SYNC;
   41c10:	01800044 	movi	r6,1
   41c14:	29800015 	stw	r6,0(r5)
   41c18:	003fca06 	br	41b44 <__alt_data_end+0xfffdaa44>

	c = &ext_bin[1];

	// version
	if (*c != 0x03)
		return -1;	// todo: support v1 / v2
   41c1c:	00bfffc4 	movi	r2,-1
        	}
        }
	}

	return 0;
}
   41c20:	dfc01a17 	ldw	ra,104(sp)
   41c24:	df001917 	ldw	fp,100(sp)
   41c28:	ddc01817 	ldw	r23,96(sp)
   41c2c:	dd801717 	ldw	r22,92(sp)
   41c30:	dd401617 	ldw	r21,88(sp)
   41c34:	dd001517 	ldw	r20,84(sp)
   41c38:	dcc01417 	ldw	r19,80(sp)
   41c3c:	dc801317 	ldw	r18,76(sp)
   41c40:	dc401217 	ldw	r17,72(sp)
   41c44:	dc001117 	ldw	r16,68(sp)
   41c48:	dec01b04 	addi	sp,sp,108
   41c4c:	f800283a 	ret

00041c50 <edid_print_cea>:

void edid_print_cea(struct base_edid *edid, int ext_idx)
{
   41c50:	deffee04 	addi	sp,sp,-72
   41c54:	dc400915 	stw	r17,36(sp)
	int i, t;

	struct ext_data *ext_data = &edid->ext_data[ext_idx];
	struct edid_cea *cea = &ext_data->cea_ext;

	printf("\n[%02d] extension block -- CEA-Extension Revision-%02d ...\n\n", ext_idx, cea->rev);
   41c58:	2c416f24 	muli	r17,r5,1468

	return 0;
}

void edid_print_cea(struct base_edid *edid, int ext_idx)
{
   41c5c:	dfc01115 	stw	ra,68(sp)
   41c60:	dc800a15 	stw	r18,40(sp)
   41c64:	dc000815 	stw	r16,32(sp)
   41c68:	df001015 	stw	fp,64(sp)
	int i, t;

	struct ext_data *ext_data = &edid->ext_data[ext_idx];
	struct edid_cea *cea = &ext_data->cea_ext;

	printf("\n[%02d] extension block -- CEA-Extension Revision-%02d ...\n\n", ext_idx, cea->rev);
   41c6c:	2461883a 	add	r16,r4,r17

	return 0;
}

void edid_print_cea(struct base_edid *edid, int ext_idx)
{
   41c70:	ddc00f15 	stw	r23,60(sp)
   41c74:	dd800e15 	stw	r22,56(sp)
   41c78:	dd400d15 	stw	r21,52(sp)
   41c7c:	dd000c15 	stw	r20,48(sp)
   41c80:	dcc00b15 	stw	r19,44(sp)
	int i, t;

	struct ext_data *ext_data = &edid->ext_data[ext_idx];
	struct edid_cea *cea = &ext_data->cea_ext;

	printf("\n[%02d] extension block -- CEA-Extension Revision-%02d ...\n\n", ext_idx, cea->rev);
   41c84:	81860c17 	ldw	r6,6192(r16)

	return 0;
}

void edid_print_cea(struct base_edid *edid, int ext_idx)
{
   41c88:	2025883a 	mov	r18,r4
	int i, t;

	struct ext_data *ext_data = &edid->ext_data[ext_idx];
	struct edid_cea *cea = &ext_data->cea_ext;

	printf("\n[%02d] extension block -- CEA-Extension Revision-%02d ...\n\n", ext_idx, cea->rev);
   41c8c:	01000174 	movhi	r4,5
   41c90:	211e6904 	addi	r4,r4,31140
   41c94:	0048fb80 	call	48fb8 <printf>

	printf("  number of DBCs (data block collections)      : %d\n", cea->nr_dbcs);
   41c98:	81461317 	ldw	r5,6220(r16)
   41c9c:	01000174 	movhi	r4,5
   41ca0:	211e7904 	addi	r4,r4,31204
   41ca4:	0048fb80 	call	48fb8 <printf>
	printf("  number of DTDs (detailed timing descriptors) : %d\n", cea->nr_dtd);
   41ca8:	81461217 	ldw	r5,6216(r16)
   41cac:	01000174 	movhi	r4,5
   41cb0:	211e8704 	addi	r4,r4,31260
   41cb4:	0048fb80 	call	48fb8 <printf>
	printf("  offset to DTD                                : %d\n", cea->off_dtd);
   41cb8:	81461117 	ldw	r5,6212(r16)
   41cbc:	01000174 	movhi	r4,5
   41cc0:	211e9504 	addi	r4,r4,31316
   41cc4:	0048fb80 	call	48fb8 <printf>
	printf("  monitor underscans IT formats                : %s\n", cea->flags.underscan ? "yes" : "no");
   41cc8:	80860d17 	ldw	r2,6196(r16)
   41ccc:	1000031e 	bne	r2,zero,41cdc <edid_print_cea+0x8c>
   41cd0:	01400174 	movhi	r5,5
   41cd4:	295e6504 	addi	r5,r5,31124
   41cd8:	00000206 	br	41ce4 <edid_print_cea+0x94>
   41cdc:	01400174 	movhi	r5,5
   41ce0:	295e6404 	addi	r5,r5,31120
   41ce4:	01000174 	movhi	r4,5
   41ce8:	211ea304 	addi	r4,r4,31372
   41cec:	0048fb80 	call	48fb8 <printf>
	printf("  supports audio                               : %s\n", cea->flags.audio ? "yes" : "no");
   41cf0:	9445883a 	add	r2,r18,r17
   41cf4:	10860e17 	ldw	r2,6200(r2)
   41cf8:	1000031e 	bne	r2,zero,41d08 <edid_print_cea+0xb8>
   41cfc:	01400174 	movhi	r5,5
   41d00:	295e6504 	addi	r5,r5,31124
   41d04:	00000206 	br	41d10 <edid_print_cea+0xc0>
   41d08:	01400174 	movhi	r5,5
   41d0c:	295e6404 	addi	r5,r5,31120
   41d10:	01000174 	movhi	r4,5
   41d14:	211eb104 	addi	r4,r4,31428
   41d18:	0048fb80 	call	48fb8 <printf>
	printf("  supports YCbCr 4:4:4 in addition to RGB      : %s\n", cea->flags.ycbcr444 ? "yes" : "no");
   41d1c:	9445883a 	add	r2,r18,r17
   41d20:	10860f17 	ldw	r2,6204(r2)
   41d24:	1000031e 	bne	r2,zero,41d34 <edid_print_cea+0xe4>
   41d28:	01400174 	movhi	r5,5
   41d2c:	295e6504 	addi	r5,r5,31124
   41d30:	00000206 	br	41d3c <edid_print_cea+0xec>
   41d34:	01400174 	movhi	r5,5
   41d38:	295e6404 	addi	r5,r5,31120
   41d3c:	01000174 	movhi	r4,5
   41d40:	211ebf04 	addi	r4,r4,31484
   41d44:	0048fb80 	call	48fb8 <printf>
	printf("  supports YCbCr 4:2:2 in addition to RGB      : %s\n", cea->flags.ycbcr422 ? "yes" : "no");
   41d48:	9445883a 	add	r2,r18,r17
   41d4c:	10861017 	ldw	r2,6208(r2)
   41d50:	1000031e 	bne	r2,zero,41d60 <edid_print_cea+0x110>
   41d54:	01400174 	movhi	r5,5
   41d58:	295e6504 	addi	r5,r5,31124
   41d5c:	00000206 	br	41d68 <edid_print_cea+0x118>
   41d60:	01400174 	movhi	r5,5
   41d64:	295e6404 	addi	r5,r5,31120
   41d68:	01000174 	movhi	r4,5
   41d6c:	211ecd04 	addi	r4,r4,31540
   41d70:	0048fb80 	call	48fb8 <printf>

	printf("\n  data block collections\n  ---------------------------------\n");
   41d74:	01000174 	movhi	r4,5
   41d78:	211edb04 	addi	r4,r4,31596
   41d7c:	00490cc0 	call	490cc <puts>
   41d80:	88867504 	addi	r2,r17,6612
   41d84:	9085883a 	add	r2,r18,r2
   41d88:	d8800415 	stw	r2,16(sp)
   41d8c:	88863404 	addi	r2,r17,6352
   41d90:	9085883a 	add	r2,r18,r2
   41d94:	d8800515 	stw	r2,20(sp)
   41d98:	8886c504 	addi	r2,r17,6932
   41d9c:	9085883a 	add	r2,r18,r2
   41da0:	9461883a 	add	r16,r18,r17
   41da4:	d8800615 	stw	r2,24(sp)
   41da8:	00b9dc84 	movi	r2,-6286
   41dac:	8cc62384 	addi	r19,r17,6286
   41db0:	1405c83a 	sub	r2,r2,r16
   41db4:	94e7883a 	add	r19,r18,r19
   41db8:	d8800715 	stw	r2,28(sp)

	// data block collection
	for (t = 0; t < cea->nr_dbcs; ++t) {
   41dbc:	85c61304 	addi	r23,r16,6220
   41dc0:	d8c00717 	ldw	r3,28(sp)
   41dc4:	b8800017 	ldw	r2,0(r23)
   41dc8:	1ccb883a 	add	r5,r3,r19
   41dcc:	2882a70e 	bge	r5,r2,4286c <edid_print_cea+0xc1c>

		switch (cea->dbc_tags[t]) {
   41dd0:	99bff083 	ldbu	r6,-62(r19)
   41dd4:	00c00184 	movi	r3,6
   41dd8:	30bfffc4 	addi	r2,r6,-1
   41ddc:	10803fcc 	andi	r2,r2,255
   41de0:	18829c36 	bltu	r3,r2,42854 <edid_print_cea+0xc04>
   41de4:	100490ba 	slli	r2,r2,2
   41de8:	00c00134 	movhi	r3,4
   41dec:	18c77f04 	addi	r3,r3,7676
   41df0:	10c5883a 	add	r2,r2,r3
   41df4:	10800017 	ldw	r2,0(r2)
   41df8:	1000683a 	jmp	r2
   41dfc:	00041e18 	cmpnei	zero,zero,4216
   41e00:	00041f34 	movhi	zero,4220
   41e04:	00041ff4 	movhi	zero,4223
   41e08:	000424e0 	cmpeqi	zero,zero,4243
   41e0c:	00042620 	cmpeqi	zero,zero,4248
   41e10:	00042854 	movui	zero,4257
   41e14:	0004262c 	andhi	zero,zero,4248
		case CEA_DB_AUDIO:
			printf("\n  [%02d] audio data block ...\n", t);
   41e18:	01000174 	movhi	r4,5
   41e1c:	211eeb04 	addi	r4,r4,31660
   41e20:	0048fb80 	call	48fb8 <printf>
			printf("       number of SADs (short audio descriptor) : %d\n", cea->db_audio.nr_sad);
   41e24:	85067404 	addi	r20,r16,6608
   41e28:	a1400017 	ldw	r5,0(r20)
   41e2c:	01000174 	movhi	r4,5
   41e30:	211ef304 	addi	r4,r4,31692
   41e34:	0048fb80 	call	48fb8 <printf>

			for (i = 0; i < cea->db_audio.nr_sad; ++i) {
   41e38:	df000417 	ldw	fp,16(sp)
					"DST",
					"WMA Pro",
					"unknown (15)",
				};

				printf("       %02d) format      : %s\n", i, sad_format[cea->db_audio.sad[i].format]);
   41e3c:	058001b4 	movhi	r22,6
		switch (cea->dbc_tags[t]) {
		case CEA_DB_AUDIO:
			printf("\n  [%02d] audio data block ...\n", t);
			printf("       number of SADs (short audio descriptor) : %d\n", cea->db_audio.nr_sad);

			for (i = 0; i < cea->db_audio.nr_sad; ++i) {
   41e40:	002b883a 	mov	r21,zero
					"DST",
					"WMA Pro",
					"unknown (15)",
				};

				printf("       %02d) format      : %s\n", i, sad_format[cea->db_audio.sad[i].format]);
   41e44:	b5a8dd04 	addi	r22,r22,-23692
		switch (cea->dbc_tags[t]) {
		case CEA_DB_AUDIO:
			printf("\n  [%02d] audio data block ...\n", t);
			printf("       number of SADs (short audio descriptor) : %d\n", cea->db_audio.nr_sad);

			for (i = 0; i < cea->db_audio.nr_sad; ++i) {
   41e48:	a0800017 	ldw	r2,0(r20)
   41e4c:	a882850e 	bge	r21,r2,42864 <edid_print_cea+0xc14>
					"DST",
					"WMA Pro",
					"unknown (15)",
				};

				printf("       %02d) format      : %s\n", i, sad_format[cea->db_audio.sad[i].format]);
   41e50:	e0800017 	ldw	r2,0(fp)
   41e54:	01000174 	movhi	r4,5
   41e58:	211f0104 	addi	r4,r4,31748
   41e5c:	1085883a 	add	r2,r2,r2
   41e60:	1085883a 	add	r2,r2,r2
   41e64:	b085883a 	add	r2,r22,r2
   41e68:	11800017 	ldw	r6,0(r2)
   41e6c:	a80b883a 	mov	r5,r21
   41e70:	0048fb80 	call	48fb8 <printf>
				printf("           channels    : %d\n", cea->db_audio.sad[i].channels);
   41e74:	e1400117 	ldw	r5,4(fp)
   41e78:	01000174 	movhi	r4,5
   41e7c:	211f0904 	addi	r4,r4,31780
   41e80:	0048fb80 	call	48fb8 <printf>
				printf("           frequency   : 192K)%d 176.4k)%d 96k)%d 88.2k)%d 48k)%d 44.1k)%d 32k)%d\n",
					cea->db_audio.sad[i].freq & CEA_SAD_SF_192K ? 1 : 0,
   41e84:	e0800217 	ldw	r2,8(fp)
					"unknown (15)",
				};

				printf("       %02d) format      : %s\n", i, sad_format[cea->db_audio.sad[i].format]);
				printf("           channels    : %d\n", cea->db_audio.sad[i].channels);
				printf("           frequency   : 192K)%d 176.4k)%d 96k)%d 88.2k)%d 48k)%d 44.1k)%d 32k)%d\n",
   41e88:	01000174 	movhi	r4,5
   41e8c:	211f1104 	addi	r4,r4,31812
   41e90:	1006d0fa 	srli	r3,r2,3
   41e94:	100ad1ba 	srli	r5,r2,6
   41e98:	100cd17a 	srli	r6,r2,5
   41e9c:	18c0004c 	andi	r3,r3,1
   41ea0:	d8c00015 	stw	r3,0(sp)
   41ea4:	1006d0ba 	srli	r3,r2,2
   41ea8:	100ed13a 	srli	r7,r2,4
   41eac:	2940004c 	andi	r5,r5,1
   41eb0:	18c0004c 	andi	r3,r3,1
   41eb4:	d8c00115 	stw	r3,4(sp)
   41eb8:	1006d07a 	srli	r3,r2,1
					cea->db_audio.sad[i].freq & CEA_SAD_SF_176P4K ? 1 : 0,
					cea->db_audio.sad[i].freq & CEA_SAD_SF_96K ? 1 : 0,
					cea->db_audio.sad[i].freq & CEA_SAD_SF_88P2K ? 1 : 0,
					cea->db_audio.sad[i].freq & CEA_SAD_SF_48K ? 1 : 0,
					cea->db_audio.sad[i].freq & CEA_SAD_SF_44P1K ? 1 : 0,
					cea->db_audio.sad[i].freq & CEA_SAD_SF_32K ? 1 : 0);
   41ebc:	1080004c 	andi	r2,r2,1
					"unknown (15)",
				};

				printf("       %02d) format      : %s\n", i, sad_format[cea->db_audio.sad[i].format]);
				printf("           channels    : %d\n", cea->db_audio.sad[i].channels);
				printf("           frequency   : 192K)%d 176.4k)%d 96k)%d 88.2k)%d 48k)%d 44.1k)%d 32k)%d\n",
   41ec0:	d8800315 	stw	r2,12(sp)
   41ec4:	18c0004c 	andi	r3,r3,1
   41ec8:	d8c00215 	stw	r3,8(sp)
   41ecc:	3180004c 	andi	r6,r6,1
   41ed0:	39c0004c 	andi	r7,r7,1
   41ed4:	0048fb80 	call	48fb8 <printf>
					cea->db_audio.sad[i].freq & CEA_SAD_SF_88P2K ? 1 : 0,
					cea->db_audio.sad[i].freq & CEA_SAD_SF_48K ? 1 : 0,
					cea->db_audio.sad[i].freq & CEA_SAD_SF_44P1K ? 1 : 0,
					cea->db_audio.sad[i].freq & CEA_SAD_SF_32K ? 1 : 0);

				switch (cea->db_audio.sad[i].format) {
   41ed8:	e0800017 	ldw	r2,0(fp)
   41edc:	00c00044 	movi	r3,1
   41ee0:	10c00826 	beq	r2,r3,41f04 <edid_print_cea+0x2b4>
   41ee4:	0080100e 	bge	zero,r2,41f28 <edid_print_cea+0x2d8>
   41ee8:	00c00204 	movi	r3,8
   41eec:	18800e16 	blt	r3,r2,41f28 <edid_print_cea+0x2d8>
				case CEA_SAD_FMT_MP3:
				case CEA_SAD_FMT_MPEG2:
				case CEA_SAD_FMT_AAC:
				case CEA_SAD_FMT_DTS:
				case CEA_SAD_FMT_ATRAC:
					printf("           bitrate max : %d (kHz)\n", cea->db_audio.sad[i].bitrate);
   41ef0:	e1400417 	ldw	r5,16(fp)
   41ef4:	01000174 	movhi	r4,5
   41ef8:	211f3404 	addi	r4,r4,31952
   41efc:	0048fb80 	call	48fb8 <printf>
					break;
   41f00:	00000906 	br	41f28 <edid_print_cea+0x2d8>
					cea->db_audio.sad[i].freq & CEA_SAD_SF_32K ? 1 : 0);

				switch (cea->db_audio.sad[i].format) {
				case CEA_SAD_FMT_LPCM:
					printf("           resolution  : 24-bit)%d 20-bit)%d 16-bit)%d\n",
						cea->db_audio.sad[i].resolution & 0x04 ? 1 : 0,
   41f04:	e1c00317 	ldw	r7,12(fp)
					cea->db_audio.sad[i].freq & CEA_SAD_SF_44P1K ? 1 : 0,
					cea->db_audio.sad[i].freq & CEA_SAD_SF_32K ? 1 : 0);

				switch (cea->db_audio.sad[i].format) {
				case CEA_SAD_FMT_LPCM:
					printf("           resolution  : 24-bit)%d 20-bit)%d 16-bit)%d\n",
   41f08:	01000174 	movhi	r4,5
   41f0c:	211f2604 	addi	r4,r4,31896
   41f10:	380ad0ba 	srli	r5,r7,2
   41f14:	380cd07a 	srli	r6,r7,1
   41f18:	39c0004c 	andi	r7,r7,1
   41f1c:	2940004c 	andi	r5,r5,1
   41f20:	3180004c 	andi	r6,r6,1
   41f24:	0048fb80 	call	48fb8 <printf>
		switch (cea->dbc_tags[t]) {
		case CEA_DB_AUDIO:
			printf("\n  [%02d] audio data block ...\n", t);
			printf("       number of SADs (short audio descriptor) : %d\n", cea->db_audio.nr_sad);

			for (i = 0; i < cea->db_audio.nr_sad; ++i) {
   41f28:	ad400044 	addi	r21,r21,1
   41f2c:	e7000504 	addi	fp,fp,20
   41f30:	003fc506 	br	41e48 <__alt_data_end+0xfffdad48>
				"720x480p       @239.76/240 Hz (16:9)",
				"720(1440)x480i @239.76/240 Hz (4:3)",
				"720(1440)x480i @239.76/240 Hz (16:9)",
			};

			printf("\n  [%02d] video data block ...\n", t);
   41f34:	01000174 	movhi	r4,5
   41f38:	211f3d04 	addi	r4,r4,31988
   41f3c:	0048fb80 	call	48fb8 <printf>
			printf("       number of SVDs (short video descriptor) : %d\n", cea->db_video.nr_svd);
   41f40:	85063304 	addi	r20,r16,6348
   41f44:	a1400017 	ldw	r5,0(r20)
   41f48:	01000174 	movhi	r4,5
   41f4c:	211f4504 	addi	r4,r4,32020
   41f50:	0048fb80 	call	48fb8 <printf>

			for (i = 0; i < cea->db_video.nr_svd; ++i) {
   41f54:	df000517 	ldw	fp,20(sp)
				if (cea->db_video.svd[i].vic < 60)
					printf("       %02d) VIC-%02d %s %s\n", i, cea->db_video.svd[i].vic, vic_table[cea->db_video.svd[i].vic], cea->db_video.svd[i].native ? "(native)" : " ");
   41f58:	054001b4 	movhi	r21,6
			};

			printf("\n  [%02d] video data block ...\n", t);
			printf("       number of SVDs (short video descriptor) : %d\n", cea->db_video.nr_svd);

			for (i = 0; i < cea->db_video.nr_svd; ++i) {
   41f5c:	002d883a 	mov	r22,zero
				if (cea->db_video.svd[i].vic < 60)
					printf("       %02d) VIC-%02d %s %s\n", i, cea->db_video.svd[i].vic, vic_table[cea->db_video.svd[i].vic], cea->db_video.svd[i].native ? "(native)" : " ");
   41f60:	ad68a104 	addi	r21,r21,-23932
			};

			printf("\n  [%02d] video data block ...\n", t);
			printf("       number of SVDs (short video descriptor) : %d\n", cea->db_video.nr_svd);

			for (i = 0; i < cea->db_video.nr_svd; ++i) {
   41f64:	a0800017 	ldw	r2,0(r20)
   41f68:	b0823e0e 	bge	r22,r2,42864 <edid_print_cea+0xc14>
				if (cea->db_video.svd[i].vic < 60)
   41f6c:	e1800117 	ldw	r6,4(fp)
   41f70:	00800ec4 	movi	r2,59
   41f74:	11801116 	blt	r2,r6,41fbc <edid_print_cea+0x36c>
					printf("       %02d) VIC-%02d %s %s\n", i, cea->db_video.svd[i].vic, vic_table[cea->db_video.svd[i].vic], cea->db_video.svd[i].native ? "(native)" : " ");
   41f78:	3185883a 	add	r2,r6,r6
   41f7c:	1085883a 	add	r2,r2,r2
   41f80:	a885883a 	add	r2,r21,r2
   41f84:	11c00017 	ldw	r7,0(r2)
   41f88:	e0800017 	ldw	r2,0(fp)
   41f8c:	1000031e 	bne	r2,zero,41f9c <edid_print_cea+0x34c>
   41f90:	008001b4 	movhi	r2,6
   41f94:	10a8f904 	addi	r2,r2,-23580
   41f98:	00000206 	br	41fa4 <edid_print_cea+0x354>
   41f9c:	00800174 	movhi	r2,5
   41fa0:	109e6604 	addi	r2,r2,31128
   41fa4:	01000174 	movhi	r4,5
   41fa8:	d8800015 	stw	r2,0(sp)
   41fac:	211f5304 	addi	r4,r4,32076
   41fb0:	b00b883a 	mov	r5,r22
   41fb4:	0048fb80 	call	48fb8 <printf>
   41fb8:	00000b06 	br	41fe8 <edid_print_cea+0x398>
				else
					printf("       %02d) VIC-%02d unknown %s\n", i, cea->db_video.svd[i].vic, cea->db_video.svd[i].native ? "(native)" : " ");
   41fbc:	e0800017 	ldw	r2,0(fp)
   41fc0:	1000031e 	bne	r2,zero,41fd0 <edid_print_cea+0x380>
   41fc4:	01c001b4 	movhi	r7,6
   41fc8:	39e8f904 	addi	r7,r7,-23580
   41fcc:	00000206 	br	41fd8 <edid_print_cea+0x388>
   41fd0:	01c00174 	movhi	r7,5
   41fd4:	39de6604 	addi	r7,r7,31128
   41fd8:	01000174 	movhi	r4,5
   41fdc:	211f5b04 	addi	r4,r4,32108
   41fe0:	b00b883a 	mov	r5,r22
   41fe4:	0048fb80 	call	48fb8 <printf>
			};

			printf("\n  [%02d] video data block ...\n", t);
			printf("       number of SVDs (short video descriptor) : %d\n", cea->db_video.nr_svd);

			for (i = 0; i < cea->db_video.nr_svd; ++i) {
   41fe8:	b5800044 	addi	r22,r22,1
   41fec:	e7000204 	addi	fp,fp,8
   41ff0:	003fdc06 	br	41f64 <__alt_data_end+0xfffdae64>
					printf("       %02d) VIC-%02d unknown %s\n", i, cea->db_video.svd[i].vic, cea->db_video.svd[i].native ? "(native)" : " ");
			}
			break;
		}
		case CEA_DB_VENDOR:
			if (cea->db_vsdb_hdmi.ieee_reg_id != 0x000c03) {
   41ff4:	80c6a917 	ldw	r3,6820(r16)
   41ff8:	008300c4 	movi	r2,3075
   41ffc:	18800326 	beq	r3,r2,4200c <edid_print_cea+0x3bc>
				printf("\n  [%02d] VSDB vendor specific data block ...\n", t);
   42000:	01000174 	movhi	r4,5
   42004:	211f6404 	addi	r4,r4,32144
   42008:	0001f606 	br	427e4 <edid_print_cea+0xb94>
				break;
			}

			printf("\n  [%02d] HDMI VSDB vendor specific data block ...\n", t);
   4200c:	01000174 	movhi	r4,5
   42010:	211f7004 	addi	r4,r4,32192
   42014:	0048fb80 	call	48fb8 <printf>
			printf("       source physical address         : %d.%d.%d.%d\n",
   42018:	8086ad17 	ldw	r2,6836(r16)
   4201c:	01000174 	movhi	r4,5
   42020:	211f7d04 	addi	r4,r4,32244
   42024:	d8800015 	stw	r2,0(sp)
   42028:	8146aa17 	ldw	r5,6824(r16)
   4202c:	8186ab17 	ldw	r6,6828(r16)
   42030:	81c6ac17 	ldw	r7,6832(r16)
   42034:	0048fb80 	call	48fb8 <printf>
				cea->db_vsdb_hdmi.addr_a, cea->db_vsdb_hdmi.addr_b,
				cea->db_vsdb_hdmi.addr_c, cea->db_vsdb_hdmi.addr_d);

			if (cea->db_vsdb_hdmi.ext_len >= 6) {
   42038:	8086a817 	ldw	r2,6816(r16)
   4203c:	00c00144 	movi	r3,5
   42040:	18803c0e 	bge	r3,r2,42134 <edid_print_cea+0x4e4>
				printf("       support ACP ISRC1 ISRC2 packets : %s\n", cea->db_vsdb_hdmi.ai ? "yes" : "no");
   42044:	8086ae17 	ldw	r2,6840(r16)
   42048:	1000031e 	bne	r2,zero,42058 <edid_print_cea+0x408>
   4204c:	01400174 	movhi	r5,5
   42050:	295e6504 	addi	r5,r5,31124
   42054:	00000206 	br	42060 <edid_print_cea+0x410>
   42058:	01400174 	movhi	r5,5
   4205c:	295e6404 	addi	r5,r5,31120
   42060:	01000174 	movhi	r4,5
   42064:	211f8b04 	addi	r4,r4,32300
   42068:	0048fb80 	call	48fb8 <printf>
				printf("       support 48 bpp                  : %s\n", cea->db_vsdb_hdmi.bpp48 ? "yes" : "no");
   4206c:	8086b117 	ldw	r2,6852(r16)
   42070:	1000031e 	bne	r2,zero,42080 <edid_print_cea+0x430>
   42074:	01400174 	movhi	r5,5
   42078:	295e6504 	addi	r5,r5,31124
   4207c:	00000206 	br	42088 <edid_print_cea+0x438>
   42080:	01400174 	movhi	r5,5
   42084:	295e6404 	addi	r5,r5,31120
   42088:	01000174 	movhi	r4,5
   4208c:	211f9704 	addi	r4,r4,32348
   42090:	0048fb80 	call	48fb8 <printf>
				printf("       support 36 bpp                  : %s\n", cea->db_vsdb_hdmi.bpp36 ? "yes" : "no");
   42094:	8086b017 	ldw	r2,6848(r16)
   42098:	1000031e 	bne	r2,zero,420a8 <edid_print_cea+0x458>
   4209c:	01400174 	movhi	r5,5
   420a0:	295e6504 	addi	r5,r5,31124
   420a4:	00000206 	br	420b0 <edid_print_cea+0x460>
   420a8:	01400174 	movhi	r5,5
   420ac:	295e6404 	addi	r5,r5,31120
   420b0:	01000174 	movhi	r4,5
   420b4:	211fa304 	addi	r4,r4,32396
   420b8:	0048fb80 	call	48fb8 <printf>
				printf("       support 30 bpp                  : %s\n", cea->db_vsdb_hdmi.bpp30 ? "yes" : "no");
   420bc:	8086af17 	ldw	r2,6844(r16)
   420c0:	1000031e 	bne	r2,zero,420d0 <edid_print_cea+0x480>
   420c4:	01400174 	movhi	r5,5
   420c8:	295e6504 	addi	r5,r5,31124
   420cc:	00000206 	br	420d8 <edid_print_cea+0x488>
   420d0:	01400174 	movhi	r5,5
   420d4:	295e6404 	addi	r5,r5,31120
   420d8:	01000174 	movhi	r4,5
   420dc:	211faf04 	addi	r4,r4,32444
   420e0:	0048fb80 	call	48fb8 <printf>
				printf("       support YCbCr 4:4:4 deep color  : %s\n", cea->db_vsdb_hdmi.ycbcr444 ? "yes" : "no");
   420e4:	8086b217 	ldw	r2,6856(r16)
   420e8:	1000031e 	bne	r2,zero,420f8 <edid_print_cea+0x4a8>
   420ec:	01400174 	movhi	r5,5
   420f0:	295e6504 	addi	r5,r5,31124
   420f4:	00000206 	br	42100 <edid_print_cea+0x4b0>
   420f8:	01400174 	movhi	r5,5
   420fc:	295e6404 	addi	r5,r5,31120
   42100:	01000174 	movhi	r4,5
   42104:	211fbb04 	addi	r4,r4,32492
   42108:	0048fb80 	call	48fb8 <printf>
				printf("       support DVI dual-link           : %s\n", cea->db_vsdb_hdmi.dvi_dual ? "yes" : "no");
   4210c:	8086b317 	ldw	r2,6860(r16)
   42110:	1000031e 	bne	r2,zero,42120 <edid_print_cea+0x4d0>
   42114:	01400174 	movhi	r5,5
   42118:	295e6504 	addi	r5,r5,31124
   4211c:	00000206 	br	42128 <edid_print_cea+0x4d8>
   42120:	01400174 	movhi	r5,5
   42124:	295e6404 	addi	r5,r5,31120
   42128:	01000174 	movhi	r4,5
   4212c:	211fc704 	addi	r4,r4,32540
   42130:	0048fb80 	call	48fb8 <printf>
			}

			if (cea->db_vsdb_hdmi.ext_len >= 7) {
   42134:	8086a817 	ldw	r2,6816(r16)
   42138:	00c00184 	movi	r3,6
   4213c:	1880040e 	bge	r3,r2,42150 <edid_print_cea+0x500>
				printf("       max TMDS clock                  : %d (MHz)\n", cea->db_vsdb_hdmi.max_tmds_clk);
   42140:	8146b717 	ldw	r5,6876(r16)
   42144:	01000174 	movhi	r4,5
   42148:	211fd304 	addi	r4,r4,32588
   4214c:	0048fb80 	call	48fb8 <printf>
			}

			if (cea->db_vsdb_hdmi.p_latency != 0) {
   42150:	8086b417 	ldw	r2,6864(r16)
   42154:	10000826 	beq	r2,zero,42178 <edid_print_cea+0x528>
				printf("       video latency (progressive)     : %d (ms)\n", cea->db_vsdb_hdmi.vid_latency_p);
   42158:	8146b817 	ldw	r5,6880(r16)
   4215c:	01000174 	movhi	r4,5
   42160:	211fe004 	addi	r4,r4,32640
   42164:	0048fb80 	call	48fb8 <printf>
				printf("       audio latency (progressive)     : %d (ms)\n", cea->db_vsdb_hdmi.aud_latency_p);
   42168:	8146b917 	ldw	r5,6884(r16)
   4216c:	01000174 	movhi	r4,5
   42170:	211fed04 	addi	r4,r4,32692
   42174:	0048fb80 	call	48fb8 <printf>
			}

			if (cea->db_vsdb_hdmi.i_latency != 0) {
   42178:	8086b517 	ldw	r2,6868(r16)
   4217c:	10000826 	beq	r2,zero,421a0 <edid_print_cea+0x550>
				printf("       video latency (interlaced)      : %d (ms)\n", cea->db_vsdb_hdmi.vid_latency_i);
   42180:	8146ba17 	ldw	r5,6888(r16)
   42184:	01000174 	movhi	r4,5
   42188:	211ffa04 	addi	r4,r4,32744
   4218c:	0048fb80 	call	48fb8 <printf>
				printf("       audio latency (interlaced)      : %d (ms)\n", cea->db_vsdb_hdmi.aud_latency_i);
   42190:	8146bb17 	ldw	r5,6892(r16)
   42194:	010001b4 	movhi	r4,6
   42198:	21200704 	addi	r4,r4,-32740
   4219c:	0048fb80 	call	48fb8 <printf>
			}

			printf("       HDMI video fields               : %s\n", cea->db_vsdb_hdmi.hdmi_video ? "yes" : "no");
   421a0:	8086b617 	ldw	r2,6872(r16)
   421a4:	1000031e 	bne	r2,zero,421b4 <edid_print_cea+0x564>
   421a8:	01400174 	movhi	r5,5
   421ac:	295e6504 	addi	r5,r5,31124
   421b0:	00000206 	br	421bc <edid_print_cea+0x56c>
   421b4:	01400174 	movhi	r5,5
   421b8:	295e6404 	addi	r5,r5,31120
   421bc:	010001b4 	movhi	r4,6
   421c0:	21201404 	addi	r4,r4,-32688
   421c4:	0048fb80 	call	48fb8 <printf>
			printf("       HDMI 3D video fields            : %s\n", cea->db_vsdb_hdmi.present_3d ? "yes" : "no");
   421c8:	8086bc17 	ldw	r2,6896(r16)
   421cc:	1000031e 	bne	r2,zero,421dc <edid_print_cea+0x58c>
   421d0:	01400174 	movhi	r5,5
   421d4:	295e6504 	addi	r5,r5,31124
   421d8:	00000206 	br	421e4 <edid_print_cea+0x594>
   421dc:	01400174 	movhi	r5,5
   421e0:	295e6404 	addi	r5,r5,31120
   421e4:	010001b4 	movhi	r4,6
   421e8:	21202004 	addi	r4,r4,-32640
   421ec:	0048fb80 	call	48fb8 <printf>

			if (cea->db_vsdb_hdmi.hdmi_video != 0) {
   421f0:	8086b617 	ldw	r2,6872(r16)
   421f4:	10019b26 	beq	r2,zero,42864 <edid_print_cea+0xc14>
				switch (cea->db_vsdb_hdmi.multi_3d) {
   421f8:	8086bd17 	ldw	r2,6900(r16)
   421fc:	00c00044 	movi	r3,1
   42200:	10c00c26 	beq	r2,r3,42234 <edid_print_cea+0x5e4>
   42204:	18800416 	blt	r3,r2,42218 <edid_print_cea+0x5c8>
   42208:	1000101e 	bne	r2,zero,4224c <edid_print_cea+0x5fc>
				case 0:
					printf("         3D-Multi_present              : 2b00 (no 3D_Structure_ALL_15..0, no 3D_MASK_15..0)\n");
   4220c:	010001b4 	movhi	r4,6
   42210:	21202c04 	addi	r4,r4,-32592
   42214:	00000c06 	br	42248 <edid_print_cea+0x5f8>

			printf("       HDMI video fields               : %s\n", cea->db_vsdb_hdmi.hdmi_video ? "yes" : "no");
			printf("       HDMI 3D video fields            : %s\n", cea->db_vsdb_hdmi.present_3d ? "yes" : "no");

			if (cea->db_vsdb_hdmi.hdmi_video != 0) {
				switch (cea->db_vsdb_hdmi.multi_3d) {
   42218:	00c00084 	movi	r3,2
   4221c:	10c00826 	beq	r2,r3,42240 <edid_print_cea+0x5f0>
   42220:	00c000c4 	movi	r3,3
   42224:	10c0091e 	bne	r2,r3,4224c <edid_print_cea+0x5fc>
					break;
				case 2:
					printf("         3D-Multi_present              : 2b10 (with 3D_Structure_ALL_15..0, with 3D_MASK_15..0)\n");
					break;
				case 3:
					printf("         3D-Multi_present              : 2b11 (no 3D_Structure_ALL_15..0, no 3D_MASK_15..0)\n");
   42228:	010001b4 	movhi	r4,6
   4222c:	21207304 	addi	r4,r4,-32308
   42230:	00000506 	br	42248 <edid_print_cea+0x5f8>
				switch (cea->db_vsdb_hdmi.multi_3d) {
				case 0:
					printf("         3D-Multi_present              : 2b00 (no 3D_Structure_ALL_15..0, no 3D_MASK_15..0)\n");
					break;
				case 1:
					printf("         3D-Multi_present              : 2b01 (with 3D_Structure_ALL_15..0, no 3D_MASK_15..0)\n");
   42234:	010001b4 	movhi	r4,6
   42238:	21204304 	addi	r4,r4,-32500
   4223c:	00000206 	br	42248 <edid_print_cea+0x5f8>
					break;
				case 2:
					printf("         3D-Multi_present              : 2b10 (with 3D_Structure_ALL_15..0, with 3D_MASK_15..0)\n");
   42240:	010001b4 	movhi	r4,6
   42244:	21205b04 	addi	r4,r4,-32404
					break;
				case 3:
					printf("         3D-Multi_present              : 2b11 (no 3D_Structure_ALL_15..0, no 3D_MASK_15..0)\n");
   42248:	00490cc0 	call	490cc <puts>
					break;
				}

				if ((cea->db_vsdb_hdmi.multi_3d == 1) || (cea->db_vsdb_hdmi.multi_3d == 2)) {
   4224c:	8086bd17 	ldw	r2,6900(r16)
   42250:	00c00044 	movi	r3,1
   42254:	10bfffc4 	addi	r2,r2,-1
   42258:	18801e36 	bltu	r3,r2,422d4 <edid_print_cea+0x684>
					if (cea->db_vsdb_hdmi.struct_all_3d == 0) {
   4225c:	8506c104 	addi	r20,r16,6916
   42260:	a0800017 	ldw	r2,0(r20)
   42264:	1000041e 	bne	r2,zero,42278 <edid_print_cea+0x628>
						printf("         3D_Structure_ALL              : none\n");
   42268:	010001b4 	movhi	r4,6
   4226c:	21208a04 	addi	r4,r4,-32216
   42270:	00490cc0 	call	490cc <puts>
   42274:	00001706 	br	422d4 <edid_print_cea+0x684>
					} else {
						printf("         3D_Structure_ALL              : ");
   42278:	010001b4 	movhi	r4,6
   4227c:	21209604 	addi	r4,r4,-32168
   42280:	0048fb80 	call	48fb8 <printf>
						if (cea->db_vsdb_hdmi.struct_all_3d & 0x01)
   42284:	a0800017 	ldw	r2,0(r20)
   42288:	1080004c 	andi	r2,r2,1
   4228c:	10000326 	beq	r2,zero,4229c <edid_print_cea+0x64c>
							printf("frame_packing ");
   42290:	010001b4 	movhi	r4,6
   42294:	2120a104 	addi	r4,r4,-32124
   42298:	0048fb80 	call	48fb8 <printf>
						if (cea->db_vsdb_hdmi.struct_all_3d & 0x40)
   4229c:	8086c117 	ldw	r2,6916(r16)
   422a0:	1080100c 	andi	r2,r2,64
   422a4:	10000326 	beq	r2,zero,422b4 <edid_print_cea+0x664>
							printf("top-and-bottom ");
   422a8:	010001b4 	movhi	r4,6
   422ac:	2120a504 	addi	r4,r4,-32108
   422b0:	0048fb80 	call	48fb8 <printf>
						if (cea->db_vsdb_hdmi.struct_all_3d & 0x100)
   422b4:	8086c117 	ldw	r2,6916(r16)
   422b8:	1080400c 	andi	r2,r2,256
   422bc:	10000326 	beq	r2,zero,422cc <edid_print_cea+0x67c>
							printf("side-by-side(half h_subsampling)");
   422c0:	010001b4 	movhi	r4,6
   422c4:	2120a904 	addi	r4,r4,-32092
   422c8:	0048fb80 	call	48fb8 <printf>
						printf("\n");
   422cc:	01000284 	movi	r4,10
   422d0:	0048ffc0 	call	48ffc <putchar>
					}
				}

				if (cea->db_vsdb_hdmi.multi_3d == 2) {
   422d4:	80c6bd17 	ldw	r3,6900(r16)
   422d8:	00800084 	movi	r2,2
   422dc:	1880041e 	bne	r3,r2,422f0 <edid_print_cea+0x6a0>
					printf("         3D_MASK                       : 0x%04x\n", cea->db_vsdb_hdmi.mask_3d);
   422e0:	8146c217 	ldw	r5,6920(r16)
   422e4:	010001b4 	movhi	r4,6
   422e8:	2120b204 	addi	r4,r4,-32056
   422ec:	0048fb80 	call	48fb8 <printf>
				}

				switch (cea->db_vsdb_hdmi.image_size) {
   422f0:	8086be17 	ldw	r2,6904(r16)
   422f4:	00c00044 	movi	r3,1
   422f8:	10c00c26 	beq	r2,r3,4232c <edid_print_cea+0x6dc>
   422fc:	18800416 	blt	r3,r2,42310 <edid_print_cea+0x6c0>
   42300:	1000101e 	bne	r2,zero,42344 <edid_print_cea+0x6f4>
				case 0:
					printf("         image size extra properties   : none\n");
   42304:	010001b4 	movhi	r4,6
   42308:	2120bf04 	addi	r4,r4,-32004
   4230c:	00000c06 	br	42340 <edid_print_cea+0x6f0>

				if (cea->db_vsdb_hdmi.multi_3d == 2) {
					printf("         3D_MASK                       : 0x%04x\n", cea->db_vsdb_hdmi.mask_3d);
				}

				switch (cea->db_vsdb_hdmi.image_size) {
   42310:	00c00084 	movi	r3,2
   42314:	10c00826 	beq	r2,r3,42338 <edid_print_cea+0x6e8>
   42318:	00c000c4 	movi	r3,3
   4231c:	10c0091e 	bne	r2,r3,42344 <edid_print_cea+0x6f4>
					break;
				case 2:
					printf("         image size extra properties   : size correct (1cm nearest rounded)\n");
					break;
				case 3:
					printf("         image size extra properties   : size correct (div by 5cm nearest rounded)\n");
   42320:	010001b4 	movhi	r4,6
   42324:	2120ef04 	addi	r4,r4,-31812
   42328:	00000506 	br	42340 <edid_print_cea+0x6f0>
				switch (cea->db_vsdb_hdmi.image_size) {
				case 0:
					printf("         image size extra properties   : none\n");
					break;
				case 1:
					printf("         image size extra properties   : exact aspect ratio only\n");
   4232c:	010001b4 	movhi	r4,6
   42330:	2120cb04 	addi	r4,r4,-31956
   42334:	00000206 	br	42340 <edid_print_cea+0x6f0>
					break;
				case 2:
					printf("         image size extra properties   : size correct (1cm nearest rounded)\n");
   42338:	010001b4 	movhi	r4,6
   4233c:	2120dc04 	addi	r4,r4,-31888
					break;
				case 3:
					printf("         image size extra properties   : size correct (div by 5cm nearest rounded)\n");
   42340:	00490cc0 	call	490cc <puts>
				printf("       video latency (interlaced)      : %d (ms)\n", cea->db_vsdb_hdmi.vid_latency_i);
				printf("       audio latency (interlaced)      : %d (ms)\n", cea->db_vsdb_hdmi.aud_latency_i);
			}

			printf("       HDMI video fields               : %s\n", cea->db_vsdb_hdmi.hdmi_video ? "yes" : "no");
			printf("       HDMI 3D video fields            : %s\n", cea->db_vsdb_hdmi.present_3d ? "yes" : "no");
   42344:	dd000617 	ldw	r20,24(sp)
   42348:	002b883a 	mov	r21,zero
				case 3:
					printf("         image size extra properties   : size correct (div by 5cm nearest rounded)\n");
					break;
				}

				for (i = 0; i < cea->db_vsdb_hdmi.nr_vic_3d; ++ i) {
   4234c:	8706c304 	addi	fp,r16,6924
   42350:	e0800017 	ldw	r2,0(fp)
   42354:	a881430e 	bge	r21,r2,42864 <edid_print_cea+0xc14>

					printf("         [%02d] 2D_VIC_Order)%02d ", i, cea->db_vsdb_hdmi.vic_3d[i].vic_2d);
   42358:	a1bfff17 	ldw	r6,-4(r20)
   4235c:	010001b4 	movhi	r4,6
   42360:	21210404 	addi	r4,r4,-31728
   42364:	a80b883a 	mov	r5,r21
   42368:	0048fb80 	call	48fb8 <printf>

					switch (cea->db_vsdb_hdmi.vic_3d[i].struct_3d) {
   4236c:	a0800017 	ldw	r2,0(r20)
   42370:	05800204 	movi	r22,8
   42374:	b0802736 	bltu	r22,r2,42414 <edid_print_cea+0x7c4>
   42378:	100490ba 	slli	r2,r2,2
   4237c:	00c00134 	movhi	r3,4
   42380:	18c8e404 	addi	r3,r3,9104
   42384:	10c5883a 	add	r2,r2,r3
   42388:	10800017 	ldw	r2,0(r2)
   4238c:	1000683a 	jmp	r2
   42390:	000423b4 	movhi	zero,4238
   42394:	000423c0 	call	423c <__reset-0x3bdc4>
   42398:	000423cc 	andi	zero,zero,4239
   4239c:	000423d8 	cmpnei	zero,zero,4239
   423a0:	000423e4 	muli	zero,zero,4239
   423a4:	000423f0 	cmpltui	zero,zero,4239
   423a8:	000423fc 	xorhi	zero,zero,4239
   423ac:	00042414 	movui	zero,4240
   423b0:	00042408 	cmpgei	zero,zero,4240
					case 0:
						printf("3D_Structure)frame_packing ");
   423b4:	010001b4 	movhi	r4,6
   423b8:	21210d04 	addi	r4,r4,-31692
   423bc:	00001706 	br	4241c <edid_print_cea+0x7cc>
						break;
					case 1:
						printf("3D_Structure)field_alternative ");
   423c0:	010001b4 	movhi	r4,6
   423c4:	21211404 	addi	r4,r4,-31664
   423c8:	00001406 	br	4241c <edid_print_cea+0x7cc>
						break;
					case 2:
						printf("3D_Structure)line_alternative ");
   423cc:	010001b4 	movhi	r4,6
   423d0:	21211c04 	addi	r4,r4,-31632
   423d4:	00001106 	br	4241c <edid_print_cea+0x7cc>
						break;
					case 3:
						printf("3D_Structure)side-by-side(full) ");
   423d8:	010001b4 	movhi	r4,6
   423dc:	21212404 	addi	r4,r4,-31600
   423e0:	00000e06 	br	4241c <edid_print_cea+0x7cc>
						break;
					case 4:
						printf("3D_Structure)L+depth ");
   423e4:	010001b4 	movhi	r4,6
   423e8:	21212d04 	addi	r4,r4,-31564
   423ec:	00000b06 	br	4241c <edid_print_cea+0x7cc>
						break;
					case 5:
						printf("3D_Structure)L+depth+graphics+graphics_depth ");
   423f0:	010001b4 	movhi	r4,6
   423f4:	21213304 	addi	r4,r4,-31540
   423f8:	00000806 	br	4241c <edid_print_cea+0x7cc>
						break;
					case 6:
						printf("3D_Structure)top-and-bottom ");
   423fc:	010001b4 	movhi	r4,6
   42400:	21213f04 	addi	r4,r4,-31492
   42404:	00000506 	br	4241c <edid_print_cea+0x7cc>
						break;
					case 8:
						printf("3D_Structure)side-by-side(half) ");
   42408:	010001b4 	movhi	r4,6
   4240c:	21214704 	addi	r4,r4,-31460
   42410:	00000206 	br	4241c <edid_print_cea+0x7cc>
						break;
					default:
						printf("3D_Structure)unknown ");
   42414:	010001b4 	movhi	r4,6
   42418:	21215004 	addi	r4,r4,-31424
   4241c:	0048fb80 	call	48fb8 <printf>
						break;
					}

					if (cea->db_vsdb_hdmi.vic_3d[i].struct_3d == 0x08) {
   42420:	a0800017 	ldw	r2,0(r20)
   42424:	1580291e 	bne	r2,r22,424cc <edid_print_cea+0x87c>
						switch (cea->db_vsdb_hdmi.vic_3d[i].detail_3d) {
   42428:	a0800117 	ldw	r2,4(r20)
   4242c:	00c00284 	movi	r3,10
   42430:	18802636 	bltu	r3,r2,424cc <edid_print_cea+0x87c>
   42434:	100490ba 	slli	r2,r2,2
   42438:	00c00134 	movhi	r3,4
   4243c:	18c91304 	addi	r3,r3,9292
   42440:	10c5883a 	add	r2,r2,r3
   42444:	10800017 	ldw	r2,0(r2)
   42448:	1000683a 	jmp	r2
   4244c:	00042478 	rdprs	zero,zero,4241
   42450:	00042484 	movi	zero,4242
   42454:	000424cc 	andi	zero,zero,4243
   42458:	000424cc 	andi	zero,zero,4243
   4245c:	000424cc 	andi	zero,zero,4243
   42460:	000424cc 	andi	zero,zero,4243
   42464:	00042490 	cmplti	zero,zero,4242
   42468:	0004249c 	xori	zero,zero,4242
   4246c:	000424a8 	cmpgeui	zero,zero,4242
   42470:	000424b4 	movhi	zero,4242
   42474:	000424c0 	call	424c <__reset-0x3bdb4>
						case 0:
							printf("3D_Detail)h_sub_sampling+four_quincunx_matrix");
   42478:	010001b4 	movhi	r4,6
   4247c:	21215604 	addi	r4,r4,-31400
   42480:	00001106 	br	424c8 <edid_print_cea+0x878>
							break;
						case 1:
							printf("3D_Detail)h_sub_sampling");
   42484:	010001b4 	movhi	r4,6
   42488:	21216204 	addi	r4,r4,-31352
   4248c:	00000e06 	br	424c8 <edid_print_cea+0x878>
							break;
						case 6:
							printf("3D_Detail)all_4_sub_sampling_position");
   42490:	010001b4 	movhi	r4,6
   42494:	21216904 	addi	r4,r4,-31324
   42498:	00000b06 	br	424c8 <edid_print_cea+0x878>
							break;
						case 7:
							printf("3D_Detail)odd_left+odd_right");
   4249c:	010001b4 	movhi	r4,6
   424a0:	21217304 	addi	r4,r4,-31284
   424a4:	00000806 	br	424c8 <edid_print_cea+0x878>
							break;
						case 8:
							printf("3D_Detail)odd_left+even_right");
   424a8:	010001b4 	movhi	r4,6
   424ac:	21217b04 	addi	r4,r4,-31252
   424b0:	00000506 	br	424c8 <edid_print_cea+0x878>
							break;
						case 9:
							printf("3D_Detail)even_left+odd_right");
   424b4:	010001b4 	movhi	r4,6
   424b8:	21218304 	addi	r4,r4,-31220
   424bc:	00000206 	br	424c8 <edid_print_cea+0x878>
							break;
						case 10:
							printf("3D_Detail)even_left+even_right");
   424c0:	010001b4 	movhi	r4,6
   424c4:	21218b04 	addi	r4,r4,-31188
   424c8:	0048fb80 	call	48fb8 <printf>
							break;
						}
					}

					printf("\n");
   424cc:	01000284 	movi	r4,10
   424d0:	0048ffc0 	call	48ffc <putchar>
				case 3:
					printf("         image size extra properties   : size correct (div by 5cm nearest rounded)\n");
					break;
				}

				for (i = 0; i < cea->db_vsdb_hdmi.nr_vic_3d; ++ i) {
   424d4:	ad400044 	addi	r21,r21,1
   424d8:	a5000304 	addi	r20,r20,12
   424dc:	003f9c06 	br	42350 <__alt_data_end+0xfffdb250>
			}

			break;

		case CEA_DB_SPEAKER:
			printf("\n  [%02d] speaker allocation data block ...\n", t);
   424e0:	010001b4 	movhi	r4,6
   424e4:	21219304 	addi	r4,r4,-31156
   424e8:	0048fb80 	call	48fb8 <printf>

			printf("       RLC/RRC : %s\n", cea->db_speaker.designation & CEA_SPK_RLC_RRC ? "yes" : "no");
   424ec:	8086a717 	ldw	r2,6812(r16)
   424f0:	1080100c 	andi	r2,r2,64
   424f4:	1000031e 	bne	r2,zero,42504 <edid_print_cea+0x8b4>
   424f8:	01400174 	movhi	r5,5
   424fc:	295e6504 	addi	r5,r5,31124
   42500:	00000206 	br	4250c <edid_print_cea+0x8bc>
   42504:	01400174 	movhi	r5,5
   42508:	295e6404 	addi	r5,r5,31120
   4250c:	010001b4 	movhi	r4,6
   42510:	21219f04 	addi	r4,r4,-31108
   42514:	0048fb80 	call	48fb8 <printf>
			printf("       FLC/FRC : %s\n", cea->db_speaker.designation & CEA_SPK_FLC_FRC ? "yes" : "no");
   42518:	8086a717 	ldw	r2,6812(r16)
   4251c:	1080080c 	andi	r2,r2,32
   42520:	1000031e 	bne	r2,zero,42530 <edid_print_cea+0x8e0>
   42524:	01400174 	movhi	r5,5
   42528:	295e6504 	addi	r5,r5,31124
   4252c:	00000206 	br	42538 <edid_print_cea+0x8e8>
   42530:	01400174 	movhi	r5,5
   42534:	295e6404 	addi	r5,r5,31120
   42538:	010001b4 	movhi	r4,6
   4253c:	2121a504 	addi	r4,r4,-31084
   42540:	0048fb80 	call	48fb8 <printf>
			printf("       RC      : %s\n", cea->db_speaker.designation & CEA_SPK_RC ? "yes" : "no");
   42544:	8086a717 	ldw	r2,6812(r16)
   42548:	1080040c 	andi	r2,r2,16
   4254c:	1000031e 	bne	r2,zero,4255c <edid_print_cea+0x90c>
   42550:	01400174 	movhi	r5,5
   42554:	295e6504 	addi	r5,r5,31124
   42558:	00000206 	br	42564 <edid_print_cea+0x914>
   4255c:	01400174 	movhi	r5,5
   42560:	295e6404 	addi	r5,r5,31120
   42564:	010001b4 	movhi	r4,6
   42568:	2121ab04 	addi	r4,r4,-31060
   4256c:	0048fb80 	call	48fb8 <printf>
			printf("       RL/RR   : %s\n", cea->db_speaker.designation & CEA_SPK_RL_RR ? "yes" : "no");
   42570:	8086a717 	ldw	r2,6812(r16)
   42574:	1080020c 	andi	r2,r2,8
   42578:	1000031e 	bne	r2,zero,42588 <edid_print_cea+0x938>
   4257c:	01400174 	movhi	r5,5
   42580:	295e6504 	addi	r5,r5,31124
   42584:	00000206 	br	42590 <edid_print_cea+0x940>
   42588:	01400174 	movhi	r5,5
   4258c:	295e6404 	addi	r5,r5,31120
   42590:	010001b4 	movhi	r4,6
   42594:	2121b104 	addi	r4,r4,-31036
   42598:	0048fb80 	call	48fb8 <printf>
			printf("       FC      : %s\n", cea->db_speaker.designation & CEA_SPK_FC ? "yes" : "no");
   4259c:	8086a717 	ldw	r2,6812(r16)
   425a0:	1080010c 	andi	r2,r2,4
   425a4:	1000031e 	bne	r2,zero,425b4 <edid_print_cea+0x964>
   425a8:	01400174 	movhi	r5,5
   425ac:	295e6504 	addi	r5,r5,31124
   425b0:	00000206 	br	425bc <edid_print_cea+0x96c>
   425b4:	01400174 	movhi	r5,5
   425b8:	295e6404 	addi	r5,r5,31120
   425bc:	010001b4 	movhi	r4,6
   425c0:	2121b704 	addi	r4,r4,-31012
   425c4:	0048fb80 	call	48fb8 <printf>
			printf("       LFE     : %s\n", cea->db_speaker.designation & CEA_SPK_LFE ? "yes" : "no");
   425c8:	8086a717 	ldw	r2,6812(r16)
   425cc:	1080008c 	andi	r2,r2,2
   425d0:	1000031e 	bne	r2,zero,425e0 <edid_print_cea+0x990>
   425d4:	01400174 	movhi	r5,5
   425d8:	295e6504 	addi	r5,r5,31124
   425dc:	00000206 	br	425e8 <edid_print_cea+0x998>
   425e0:	01400174 	movhi	r5,5
   425e4:	295e6404 	addi	r5,r5,31120
   425e8:	010001b4 	movhi	r4,6
   425ec:	2121bd04 	addi	r4,r4,-30988
   425f0:	0048fb80 	call	48fb8 <printf>
			printf("       FL/FR   : %s\n", cea->db_speaker.designation & CEA_SPK_FL_FR ? "yes" : "no");
   425f4:	8086a717 	ldw	r2,6812(r16)
   425f8:	1080004c 	andi	r2,r2,1
   425fc:	1000031e 	bne	r2,zero,4260c <edid_print_cea+0x9bc>
   42600:	01400174 	movhi	r5,5
   42604:	295e6504 	addi	r5,r5,31124
   42608:	00000206 	br	42614 <edid_print_cea+0x9c4>
   4260c:	01400174 	movhi	r5,5
   42610:	295e6404 	addi	r5,r5,31120
   42614:	010001b4 	movhi	r4,6
   42618:	2121c304 	addi	r4,r4,-30964
   4261c:	00007106 	br	427e4 <edid_print_cea+0xb94>

			break;

		case CEA_DB_DTC:
			printf("\n  [%02d] VESA DTC data block ... (todo)\n", t);
   42620:	010001b4 	movhi	r4,6
   42624:	2121c904 	addi	r4,r4,-30940
   42628:	00006e06 	br	427e4 <edid_print_cea+0xb94>
			break;

		case CEA_DB_EXTENDED:
			switch (cea->dbe_tags[t]) {
   4262c:	98800003 	ldbu	r2,0(r19)
   42630:	00c00484 	movi	r3,18
   42634:	18808b36 	bltu	r3,r2,42864 <edid_print_cea+0xc14>
   42638:	100490ba 	slli	r2,r2,2
   4263c:	00c00134 	movhi	r3,4
   42640:	18c99404 	addi	r3,r3,9808
   42644:	10c5883a 	add	r2,r2,r3
   42648:	10800017 	ldw	r2,0(r2)
   4264c:	1000683a 	jmp	r2
   42650:	0004269c 	xori	zero,zero,4250
   42654:	000427d0 	cmplti	zero,zero,4255
   42658:	000427dc 	xori	zero,zero,4255
   4265c:	000427ec 	andhi	zero,zero,4255
   42660:	000427f8 	rdprs	zero,zero,4255
   42664:	00042804 	movi	zero,4256
   42668:	00042864 	muli	zero,zero,4257
   4266c:	00042864 	muli	zero,zero,4257
   42670:	00042864 	muli	zero,zero,4257
   42674:	00042864 	muli	zero,zero,4257
   42678:	00042864 	muli	zero,zero,4257
   4267c:	00042864 	muli	zero,zero,4257
   42680:	00042864 	muli	zero,zero,4257
   42684:	00042864 	muli	zero,zero,4257
   42688:	00042864 	muli	zero,zero,4257
   4268c:	00042864 	muli	zero,zero,4257
   42690:	00042830 	cmpltui	zero,zero,4256
   42694:	0004283c 	xorhi	zero,zero,4256
   42698:	00042848 	cmpgei	zero,zero,4257
			case CEA_DBE_VIDEO_CAP:
				printf("\n  [%02d] video capability data block (ext) ...\n", t);
   4269c:	010001b4 	movhi	r4,6
   426a0:	2121d404 	addi	r4,r4,-30896
   426a4:	0048fb80 	call	48fb8 <printf>

				printf("       quantization range selectable : %s\n", cea->db_vcdb.quant_range_sel ? "yes" : "no");
   426a8:	8086f617 	ldw	r2,7128(r16)
   426ac:	1000031e 	bne	r2,zero,426bc <edid_print_cea+0xa6c>
   426b0:	01400174 	movhi	r5,5
   426b4:	295e6504 	addi	r5,r5,31124
   426b8:	00000206 	br	426c4 <edid_print_cea+0xa74>
   426bc:	01400174 	movhi	r5,5
   426c0:	295e6404 	addi	r5,r5,31120
   426c4:	010001b4 	movhi	r4,6
   426c8:	2121e104 	addi	r4,r4,-30844
   426cc:	0048fb80 	call	48fb8 <printf>

				switch (cea->db_vcdb.pt_scan_behavior) {
   426d0:	8086f717 	ldw	r2,7132(r16)
   426d4:	00c00044 	movi	r3,1
   426d8:	10c00c26 	beq	r2,r3,4270c <edid_print_cea+0xabc>
   426dc:	18800416 	blt	r3,r2,426f0 <edid_print_cea+0xaa0>
   426e0:	1000101e 	bne	r2,zero,42724 <edid_print_cea+0xad4>
				case 0:
					printf("       PT scan behavior              : none\n");
   426e4:	010001b4 	movhi	r4,6
   426e8:	2121ec04 	addi	r4,r4,-30800
   426ec:	00000c06 	br	42720 <edid_print_cea+0xad0>
			case CEA_DBE_VIDEO_CAP:
				printf("\n  [%02d] video capability data block (ext) ...\n", t);

				printf("       quantization range selectable : %s\n", cea->db_vcdb.quant_range_sel ? "yes" : "no");

				switch (cea->db_vcdb.pt_scan_behavior) {
   426f0:	00c00084 	movi	r3,2
   426f4:	10c00826 	beq	r2,r3,42718 <edid_print_cea+0xac8>
   426f8:	00c000c4 	movi	r3,3
   426fc:	10c0091e 	bne	r2,r3,42724 <edid_print_cea+0xad4>
					break;
				case 2:
					printf("       PT scan behavior              : underscanned always\n");
					break;
				case 3:
					printf("       PT scan behavior              : supports both over/under-scan\n");
   42700:	010001b4 	movhi	r4,6
   42704:	21221504 	addi	r4,r4,-30636
   42708:	00000506 	br	42720 <edid_print_cea+0xad0>
				switch (cea->db_vcdb.pt_scan_behavior) {
				case 0:
					printf("       PT scan behavior              : none\n");
					break;
				case 1:
					printf("       PT scan behavior              : overscanned always\n");
   4270c:	010001b4 	movhi	r4,6
   42710:	2121f704 	addi	r4,r4,-30756
   42714:	00000206 	br	42720 <edid_print_cea+0xad0>
					break;
				case 2:
					printf("       PT scan behavior              : underscanned always\n");
   42718:	010001b4 	movhi	r4,6
   4271c:	21220604 	addi	r4,r4,-30696
					break;
				case 3:
					printf("       PT scan behavior              : supports both over/under-scan\n");
   42720:	00490cc0 	call	490cc <puts>
					break;
				}

				switch (cea->db_vcdb.it_scan_behavior) {
   42724:	8086f817 	ldw	r2,7136(r16)
   42728:	00c00044 	movi	r3,1
   4272c:	10c00c26 	beq	r2,r3,42760 <edid_print_cea+0xb10>
   42730:	18800416 	blt	r3,r2,42744 <edid_print_cea+0xaf4>
   42734:	1000101e 	bne	r2,zero,42778 <edid_print_cea+0xb28>
				case 0:
					printf("       IT scan behavior              : none\n");
   42738:	010001b4 	movhi	r4,6
   4273c:	21222704 	addi	r4,r4,-30564
   42740:	00000c06 	br	42774 <edid_print_cea+0xb24>
				case 3:
					printf("       PT scan behavior              : supports both over/under-scan\n");
					break;
				}

				switch (cea->db_vcdb.it_scan_behavior) {
   42744:	00c00084 	movi	r3,2
   42748:	10c00826 	beq	r2,r3,4276c <edid_print_cea+0xb1c>
   4274c:	00c000c4 	movi	r3,3
   42750:	10c0091e 	bne	r2,r3,42778 <edid_print_cea+0xb28>
					break;
				case 2:
					printf("       IT scan behavior              : underscanned always\n");
					break;
				case 3:
					printf("       IT scan behavior              : supports both over/under-scan\n");
   42754:	010001b4 	movhi	r4,6
   42758:	21225004 	addi	r4,r4,-30400
   4275c:	00000506 	br	42774 <edid_print_cea+0xb24>
				switch (cea->db_vcdb.it_scan_behavior) {
				case 0:
					printf("       IT scan behavior              : none\n");
					break;
				case 1:
					printf("       IT scan behavior              : overscanned always\n");
   42760:	010001b4 	movhi	r4,6
   42764:	21223204 	addi	r4,r4,-30520
   42768:	00000206 	br	42774 <edid_print_cea+0xb24>
					break;
				case 2:
					printf("       IT scan behavior              : underscanned always\n");
   4276c:	010001b4 	movhi	r4,6
   42770:	21224104 	addi	r4,r4,-30460
					break;
				case 3:
					printf("       IT scan behavior              : supports both over/under-scan\n");
   42774:	00490cc0 	call	490cc <puts>
					break;
				}

				switch (cea->db_vcdb.ce_scan_behavior) {
   42778:	8086f917 	ldw	r2,7140(r16)
   4277c:	00c00044 	movi	r3,1
   42780:	10c00c26 	beq	r2,r3,427b4 <edid_print_cea+0xb64>
   42784:	18800416 	blt	r3,r2,42798 <edid_print_cea+0xb48>
   42788:	1000361e 	bne	r2,zero,42864 <edid_print_cea+0xc14>
				case 0:
					printf("       CE scan behavior              : none\n");
   4278c:	010001b4 	movhi	r4,6
   42790:	21226204 	addi	r4,r4,-30328
   42794:	00000c06 	br	427c8 <edid_print_cea+0xb78>
				case 3:
					printf("       IT scan behavior              : supports both over/under-scan\n");
					break;
				}

				switch (cea->db_vcdb.ce_scan_behavior) {
   42798:	00c00084 	movi	r3,2
   4279c:	10c00826 	beq	r2,r3,427c0 <edid_print_cea+0xb70>
   427a0:	00c000c4 	movi	r3,3
   427a4:	10c02f1e 	bne	r2,r3,42864 <edid_print_cea+0xc14>
					break;
				case 2:
					printf("       CE scan behavior              : underscanned always\n");
					break;
				case 3:
					printf("       CE scan behavior              : supports both over/under-scan\n");
   427a8:	010001b4 	movhi	r4,6
   427ac:	21228b04 	addi	r4,r4,-30164
   427b0:	00000506 	br	427c8 <edid_print_cea+0xb78>
				switch (cea->db_vcdb.ce_scan_behavior) {
				case 0:
					printf("       CE scan behavior              : none\n");
					break;
				case 1:
					printf("       CE scan behavior              : overscanned always\n");
   427b4:	010001b4 	movhi	r4,6
   427b8:	21226d04 	addi	r4,r4,-30284
   427bc:	00000206 	br	427c8 <edid_print_cea+0xb78>
					break;
				case 2:
					printf("       CE scan behavior              : underscanned always\n");
   427c0:	010001b4 	movhi	r4,6
   427c4:	21227c04 	addi	r4,r4,-30224
					break;
				case 3:
					printf("       CE scan behavior              : supports both over/under-scan\n");
   427c8:	00490cc0 	call	490cc <puts>
					break;
   427cc:	00002506 	br	42864 <edid_print_cea+0xc14>
				}
				break;
			case CEA_DBE_VIDEO_VENDOR:
				printf("\n  [%02d] vendor-specific video data block (ext) ... (todo)\n", t);
   427d0:	010001b4 	movhi	r4,6
   427d4:	21229d04 	addi	r4,r4,-30092
   427d8:	00000206 	br	427e4 <edid_print_cea+0xb94>
				break;
			case CEA_DBE_VIDEO_DDI:
				printf("\n  [%02d] VESA video display device information data block (ext) ... (todo)\n", t);
   427dc:	010001b4 	movhi	r4,6
   427e0:	2122ad04 	addi	r4,r4,-30028
   427e4:	0048fb80 	call	48fb8 <printf>
				break;
   427e8:	00001e06 	br	42864 <edid_print_cea+0xc14>
			case CEA_DBE_VIDEO_VESA:
				printf("\n  [%02d] VESA video data block (ext) ... (todo)\n", t);
   427ec:	010001b4 	movhi	r4,6
   427f0:	2122c104 	addi	r4,r4,-29948
   427f4:	003ffb06 	br	427e4 <__alt_data_end+0xfffdb6e4>
				break;
			case CEA_DBE_VIDEO_HDMI:
				printf("\n  [%02d] HDMI video data block (ext) ... (todo)\n", t);
   427f8:	010001b4 	movhi	r4,6
   427fc:	2122ce04 	addi	r4,r4,-29896
   42800:	003ff806 	br	427e4 <__alt_data_end+0xfffdb6e4>
				break;
			case CEA_DBE_COLORIMETRY:
				printf("\n  [%02d] colorimetry data block (ext) ... (todo)\n", t);
   42804:	010001b4 	movhi	r4,6
   42808:	2122db04 	addi	r4,r4,-29844
   4280c:	0048fb80 	call	48fb8 <printf>
				cea->db_colorimetry.xvYCC = (int)(c[2] & 0x03);
   42810:	0007883a 	mov	r3,zero
   42814:	18800083 	ldbu	r2,2(r3)
   42818:	108000cc 	andi	r2,r2,3
   4281c:	8086f415 	stw	r2,7120(r16)
				cea->db_colorimetry.metadata = (int)(c[3] & 0x07);
   42820:	188000c3 	ldbu	r2,3(r3)
   42824:	108001cc 	andi	r2,r2,7
   42828:	8086f515 	stw	r2,7124(r16)
				break;
   4282c:	00000d06 	br	42864 <edid_print_cea+0xc14>
			case CEA_DBE_AUDIO_MISC:
				printf("\n  [%02d] CEA misc audio fields (ext) ... (todo)\n", t);
   42830:	010001b4 	movhi	r4,6
   42834:	2122e804 	addi	r4,r4,-29792
   42838:	003fea06 	br	427e4 <__alt_data_end+0xfffdb6e4>
				break;
			case CEA_DBE_AUDIO_VENDOR:
				printf("\n  [%02d] vendor-specific audio data block (ext) ... (todo)\n", t);
   4283c:	010001b4 	movhi	r4,6
   42840:	2122f504 	addi	r4,r4,-29740
   42844:	003fe706 	br	427e4 <__alt_data_end+0xfffdb6e4>
				break;
			case CEA_DBE_AUDIO_HDMI:
				printf("\n  [%02d] HDMI audio data block (ext) ... (todo)\n", t);
   42848:	010001b4 	movhi	r4,6
   4284c:	21230504 	addi	r4,r4,-29676
   42850:	003fe406 	br	427e4 <__alt_data_end+0xfffdb6e4>
			}

			break;

		default:
			printf("\n  [%02d] unknown data block (%d).\n", t, cea->dbc_tags[t]);
   42854:	010001b4 	movhi	r4,6
   42858:	21231204 	addi	r4,r4,-29624
   4285c:	31803fcc 	andi	r6,r6,255
   42860:	0048fb80 	call	48fb8 <printf>
   42864:	9cc00044 	addi	r19,r19,1
   42868:	003d5506 	br	41dc0 <__alt_data_end+0xfffdacc0>
			break;
		}
	}

	if (cea->nr_dtd != 0)
   4286c:	80861217 	ldw	r2,6216(r16)
   42870:	10000326 	beq	r2,zero,42880 <edid_print_cea+0xc30>
		printf("\n  detailed timing descriptors\n  ---------------------------------\n");
   42874:	010001b4 	movhi	r4,6
   42878:	21231b04 	addi	r4,r4,-29588
   4287c:	00490cc0 	call	490cc <puts>
   42880:	8c070904 	addi	r16,r17,7204
   42884:	8cc70804 	addi	r19,r17,7200
   42888:	8d06fd04 	addi	r20,r17,7156

	// detail timing descriptor
	for (i = 0; i < (int)cea->nr_dtd; ++i) {
   4288c:	9463883a 	add	r17,r18,r17
   42890:	9421883a 	add	r16,r18,r16
   42894:	94e7883a 	add	r19,r18,r19
   42898:	9529883a 	add	r20,r18,r20
		case CEA_DB_EXTENDED:
			switch (cea->dbe_tags[t]) {
			case CEA_DBE_VIDEO_CAP:
				printf("\n  [%02d] video capability data block (ext) ...\n", t);

				printf("       quantization range selectable : %s\n", cea->db_vcdb.quant_range_sel ? "yes" : "no");
   4289c:	002b883a 	mov	r21,zero

	if (cea->nr_dtd != 0)
		printf("\n  detailed timing descriptors\n  ---------------------------------\n");

	// detail timing descriptor
	for (i = 0; i < (int)cea->nr_dtd; ++i) {
   428a0:	8c461204 	addi	r17,r17,6216
   428a4:	88800017 	ldw	r2,0(r17)
   428a8:	a880c60e 	bge	r21,r2,42bc4 <edid_print_cea+0xf74>

		printf("\n  [%d] DTD -- detailed timing descriptor\n", i);
   428ac:	010001b4 	movhi	r4,6
   428b0:	21232c04 	addi	r4,r4,-29520
   428b4:	a80b883a 	mov	r5,r21
   428b8:	0048fb80 	call	48fb8 <printf>

		printf("      pixel clock   : %d (Hz)\n", cea->detailed_timing[i].pixel_clock);
   428bc:	817ff117 	ldw	r5,-60(r16)
   428c0:	010001b4 	movhi	r4,6
   428c4:	21233704 	addi	r4,r4,-29476
   428c8:	0048fb80 	call	48fb8 <printf>
		printf("      h addressible : %d (pixels)\n", cea->detailed_timing[i].width);
   428cc:	817ff217 	ldw	r5,-56(r16)
   428d0:	010001b4 	movhi	r4,6
   428d4:	21233f04 	addi	r4,r4,-29444
   428d8:	0048fb80 	call	48fb8 <printf>
		printf("        blank       : %d (pixels)\n", cea->detailed_timing[i].h_blank);
   428dc:	a1400017 	ldw	r5,0(r20)
   428e0:	010001b4 	movhi	r4,6
   428e4:	21234804 	addi	r4,r4,-29408
   428e8:	0048fb80 	call	48fb8 <printf>
		printf("        fp          : %d (pixels)\n", cea->detailed_timing[i].h_fp);
   428ec:	817ff617 	ldw	r5,-40(r16)
   428f0:	010001b4 	movhi	r4,6
   428f4:	21235104 	addi	r4,r4,-29372
   428f8:	0048fb80 	call	48fb8 <printf>
		printf("        sync        : %d (pixels)\n", cea->detailed_timing[i].h_sync);
   428fc:	817ff817 	ldw	r5,-32(r16)
   42900:	010001b4 	movhi	r4,6
   42904:	21235a04 	addi	r4,r4,-29336
   42908:	0048fb80 	call	48fb8 <printf>
		printf("        bp          : %d (pixels)\n", cea->detailed_timing[i].h_blank - cea->detailed_timing[i].h_fp - cea->detailed_timing[i].h_sync);
   4290c:	817ff617 	ldw	r5,-40(r16)
   42910:	a0800017 	ldw	r2,0(r20)
   42914:	010001b4 	movhi	r4,6
   42918:	21236304 	addi	r4,r4,-29300
   4291c:	1145c83a 	sub	r2,r2,r5
   42920:	817ff817 	ldw	r5,-32(r16)
   42924:	114bc83a 	sub	r5,r2,r5
   42928:	0048fb80 	call	48fb8 <printf>
		printf("        size        : %d (mm)\n", cea->detailed_timing[i].h_size);
   4292c:	817ffa17 	ldw	r5,-24(r16)
   42930:	010001b4 	movhi	r4,6
   42934:	21236c04 	addi	r4,r4,-29264
   42938:	0048fb80 	call	48fb8 <printf>
		printf("      v addressible : %d (lines)\n", cea->detailed_timing[i].height);
   4293c:	817ff317 	ldw	r5,-52(r16)
   42940:	010001b4 	movhi	r4,6
   42944:	21237404 	addi	r4,r4,-29232
   42948:	0048fb80 	call	48fb8 <printf>
		printf("        blank       : %d (lines)\n", cea->detailed_timing[i].v_blank);
   4294c:	817ff517 	ldw	r5,-44(r16)
   42950:	010001b4 	movhi	r4,6
   42954:	21237d04 	addi	r4,r4,-29196
   42958:	0048fb80 	call	48fb8 <printf>
		printf("        fp          : %d (lines)\n", cea->detailed_timing[i].v_fp);
   4295c:	817ff717 	ldw	r5,-36(r16)
   42960:	010001b4 	movhi	r4,6
   42964:	21238604 	addi	r4,r4,-29160
   42968:	0048fb80 	call	48fb8 <printf>
		printf("        sync        : %d (lines)\n", cea->detailed_timing[i].v_sync);
   4296c:	817ff917 	ldw	r5,-28(r16)
   42970:	010001b4 	movhi	r4,6
   42974:	21238f04 	addi	r4,r4,-29124
   42978:	0048fb80 	call	48fb8 <printf>
		printf("        bp          : %d (lines)\n", cea->detailed_timing[i].v_blank - cea->detailed_timing[i].v_fp - cea->detailed_timing[i].v_sync);
   4297c:	817ff717 	ldw	r5,-36(r16)
   42980:	80bff517 	ldw	r2,-44(r16)
   42984:	010001b4 	movhi	r4,6
   42988:	21239804 	addi	r4,r4,-29088
   4298c:	1145c83a 	sub	r2,r2,r5
   42990:	817ff917 	ldw	r5,-28(r16)
   42994:	114bc83a 	sub	r5,r2,r5
   42998:	0048fb80 	call	48fb8 <printf>
		printf("        size        : %d (mm)\n", cea->detailed_timing[i].v_size);
   4299c:	817ffb17 	ldw	r5,-20(r16)
   429a0:	010001b4 	movhi	r4,6
   429a4:	21236c04 	addi	r4,r4,-29264
   429a8:	0048fb80 	call	48fb8 <printf>
		printf("      border (L&R)  : %d (pixels)\n", cea->detailed_timing[i].border_lr);
   429ac:	817ffc17 	ldw	r5,-16(r16)
   429b0:	010001b4 	movhi	r4,6
   429b4:	2123a104 	addi	r4,r4,-29052
   429b8:	0048fb80 	call	48fb8 <printf>
		printf("      border (T&B)  : %d (lines)\n", cea->detailed_timing[i].border_tb);
   429bc:	817ffd17 	ldw	r5,-12(r16)
   429c0:	010001b4 	movhi	r4,6
   429c4:	2123aa04 	addi	r4,r4,-29016
   429c8:	0048fb80 	call	48fb8 <printf>
		printf("      interlaced    : %d\n", cea->detailed_timing[i].interlaced);
   429cc:	817ffe17 	ldw	r5,-8(r16)
   429d0:	010001b4 	movhi	r4,6
   429d4:	2123b304 	addi	r4,r4,-28980
   429d8:	0048fb80 	call	48fb8 <printf>

		if (cea->detailed_timing[i].stereo == STEREO_NONE) {
   429dc:	98800017 	ldw	r2,0(r19)
   429e0:	1000041e 	bne	r2,zero,429f4 <edid_print_cea+0xda4>
			printf("      stereo        : none\n");
   429e4:	010001b4 	movhi	r4,6
   429e8:	2123ba04 	addi	r4,r4,-28952
   429ec:	00490cc0 	call	490cc <puts>
   429f0:	00002906 	br	42a98 <edid_print_cea+0xe48>
		} else {
    		printf("      stereo        : ");
   429f4:	010001b4 	movhi	r4,6
   429f8:	2123c104 	addi	r4,r4,-28924
   429fc:	0048fb80 	call	48fb8 <printf>

    		if (cea->detailed_timing[i].stereo & STEREO_FIELD_SEQUENTIAL_RIGHT_SYNC)
   42a00:	98800017 	ldw	r2,0(r19)
   42a04:	1080008c 	andi	r2,r2,2
   42a08:	10000326 	beq	r2,zero,42a18 <edid_print_cea+0xdc8>
        		printf("field_seq_right ");
   42a0c:	010001b4 	movhi	r4,6
   42a10:	2123c704 	addi	r4,r4,-28900
   42a14:	0048fb80 	call	48fb8 <printf>
    		if (cea->detailed_timing[i].stereo & STEREO_FIELD_SEQUENTIAL_LEFT_SYNC)
   42a18:	98800017 	ldw	r2,0(r19)
   42a1c:	1080010c 	andi	r2,r2,4
   42a20:	10000326 	beq	r2,zero,42a30 <edid_print_cea+0xde0>
        		printf("field_seq_left ");
   42a24:	010001b4 	movhi	r4,6
   42a28:	2123cc04 	addi	r4,r4,-28880
   42a2c:	0048fb80 	call	48fb8 <printf>
    		if (cea->detailed_timing[i].stereo & STEREO_2WAY_INTERLEAVE_RIGHT_EVEN)
   42a30:	98800017 	ldw	r2,0(r19)
   42a34:	1080020c 	andi	r2,r2,8
   42a38:	10000326 	beq	r2,zero,42a48 <edid_print_cea+0xdf8>
        		printf("2way_interleave_right ");
   42a3c:	010001b4 	movhi	r4,6
   42a40:	2123d004 	addi	r4,r4,-28864
   42a44:	0048fb80 	call	48fb8 <printf>
    		if (cea->detailed_timing[i].stereo & STEREO_2WAY_INTERLEAVE_LEFT_EVEN)
   42a48:	98800017 	ldw	r2,0(r19)
   42a4c:	1080040c 	andi	r2,r2,16
   42a50:	10000326 	beq	r2,zero,42a60 <edid_print_cea+0xe10>
        		printf("2way_interleave_left ");
   42a54:	010001b4 	movhi	r4,6
   42a58:	2123d604 	addi	r4,r4,-28840
   42a5c:	0048fb80 	call	48fb8 <printf>
    		if (cea->detailed_timing[i].stereo & STEREO_4WAY_INTERLEAVE)
   42a60:	98800017 	ldw	r2,0(r19)
   42a64:	1080080c 	andi	r2,r2,32
   42a68:	10000326 	beq	r2,zero,42a78 <edid_print_cea+0xe28>
        		printf("4way_interleave ");
   42a6c:	010001b4 	movhi	r4,6
   42a70:	2123dc04 	addi	r4,r4,-28816
   42a74:	0048fb80 	call	48fb8 <printf>
    		if (cea->detailed_timing[i].stereo & STEREO_SIDE_BY_SIDE_INTERLEAVE)
   42a78:	98800017 	ldw	r2,0(r19)
   42a7c:	1080100c 	andi	r2,r2,64
   42a80:	10000326 	beq	r2,zero,42a90 <edid_print_cea+0xe40>
        		printf("side-by-side ");
   42a84:	010001b4 	movhi	r4,6
   42a88:	2123e104 	addi	r4,r4,-28796
   42a8c:	0048fb80 	call	48fb8 <printf>

    		printf("\n");
   42a90:	01000284 	movi	r4,10
   42a94:	0048ffc0 	call	48ffc <putchar>
		}

		if (cea->detailed_timing[i].sync & A_COMPOSITE_SYNC) {
   42a98:	80800017 	ldw	r2,0(r16)
   42a9c:	10c0004c 	andi	r3,r2,1
   42aa0:	18002126 	beq	r3,zero,42b28 <edid_print_cea+0xed8>

			printf("      analog sync   : composite");
   42aa4:	010001b4 	movhi	r4,6
   42aa8:	2123e504 	addi	r4,r4,-28780
   42aac:	0048fb80 	call	48fb8 <printf>

    		if (cea->detailed_timing[i].sync & A_COMPOSITE_SYNC)
   42ab0:	80800017 	ldw	r2,0(r16)
   42ab4:	1080004c 	andi	r2,r2,1
   42ab8:	10000326 	beq	r2,zero,42ac8 <edid_print_cea+0xe78>
        		printf(" bipolar");
   42abc:	010001b4 	movhi	r4,6
   42ac0:	2123ed04 	addi	r4,r4,-28748
   42ac4:	0048fb80 	call	48fb8 <printf>

    		if (cea->detailed_timing[i].sync & A_BIPOLAR_SERRATION) {
   42ac8:	80800017 	ldw	r2,0(r16)
   42acc:	1080010c 	andi	r2,r2,4
   42ad0:	10000f26 	beq	r2,zero,42b10 <edid_print_cea+0xec0>
        		printf(" with_serrations");
   42ad4:	010001b4 	movhi	r4,6
   42ad8:	2123f004 	addi	r4,r4,-28736
   42adc:	0048fb80 	call	48fb8 <printf>
    			if (cea->detailed_timing[i].sync & A_BIPOLAR_SERRATION_SYNC_G)
   42ae0:	80800017 	ldw	r2,0(r16)
   42ae4:	1080020c 	andi	r2,r2,8
   42ae8:	10000326 	beq	r2,zero,42af8 <edid_print_cea+0xea8>
					printf(" syn_on_green");
   42aec:	010001b4 	movhi	r4,6
   42af0:	2123f504 	addi	r4,r4,-28716
   42af4:	0048fb80 	call	48fb8 <printf>
				if (cea->detailed_timing[i].sync & A_BIPOLAR_SERRATION_SYNC_RGB)
   42af8:	80800017 	ldw	r2,0(r16)
   42afc:	1080040c 	andi	r2,r2,16
   42b00:	10000626 	beq	r2,zero,42b1c <edid_print_cea+0xecc>
					printf(" syn_on_rgb");
   42b04:	010001b4 	movhi	r4,6
   42b08:	2123f904 	addi	r4,r4,-28700
   42b0c:	00000206 	br	42b18 <edid_print_cea+0xec8>
    		} else {
        		printf(" without_serrations");
   42b10:	010001b4 	movhi	r4,6
   42b14:	2123fc04 	addi	r4,r4,-28688
   42b18:	0048fb80 	call	48fb8 <printf>
    		}

			printf("\n");
   42b1c:	01000284 	movi	r4,10
   42b20:	0048ffc0 	call	48ffc <putchar>
   42b24:	00002206 	br	42bb0 <edid_print_cea+0xf60>

		} else if (cea->detailed_timing[i].sync & D_COMPOSITE_SYNC) {
   42b28:	10c0080c 	andi	r3,r2,32
   42b2c:	18000926 	beq	r3,zero,42b54 <edid_print_cea+0xf04>

			printf("      digital sync  : composite");
   42b30:	010001b4 	movhi	r4,6
   42b34:	21240104 	addi	r4,r4,-28668
   42b38:	0048fb80 	call	48fb8 <printf>

    		if (cea->detailed_timing[i].sync & D_COMPOSITE_SERRATION)
   42b3c:	80800017 	ldw	r2,0(r16)
   42b40:	1080100c 	andi	r2,r2,64
   42b44:	103ff226 	beq	r2,zero,42b10 <__alt_data_end+0xfffdba10>
        		printf(" with_serrations");
   42b48:	010001b4 	movhi	r4,6
   42b4c:	2123f004 	addi	r4,r4,-28736
   42b50:	003ff106 	br	42b18 <__alt_data_end+0xfffdba18>
    		else
    			printf(" without_serrations");

    		printf("\n");

		} else if (cea->detailed_timing[i].sync & D_SEPERATE_SYNC) {
   42b54:	1080200c 	andi	r2,r2,128
   42b58:	10001526 	beq	r2,zero,42bb0 <edid_print_cea+0xf60>

			printf("      digital sync  : seperate");
   42b5c:	010001b4 	movhi	r4,6
   42b60:	21240904 	addi	r4,r4,-28636
   42b64:	0048fb80 	call	48fb8 <printf>

			if (cea->detailed_timing[i].sync & D_SEPERATE_VSYNC_N)
   42b68:	80800017 	ldw	r2,0(r16)
   42b6c:	1080400c 	andi	r2,r2,256
   42b70:	10000326 	beq	r2,zero,42b80 <edid_print_cea+0xf30>
				printf(" vsync_n");
   42b74:	010001b4 	movhi	r4,6
   42b78:	21241104 	addi	r4,r4,-28604
   42b7c:	00000206 	br	42b88 <edid_print_cea+0xf38>
			else
				printf(" vsync_p");
   42b80:	010001b4 	movhi	r4,6
   42b84:	21241404 	addi	r4,r4,-28592
   42b88:	0048fb80 	call	48fb8 <printf>

			if (cea->detailed_timing[i].sync & D_SEPERATE_HSYNC_N)
   42b8c:	80800017 	ldw	r2,0(r16)
   42b90:	1081000c 	andi	r2,r2,1024
   42b94:	10000326 	beq	r2,zero,42ba4 <edid_print_cea+0xf54>
				printf(" hsync_n");
   42b98:	010001b4 	movhi	r4,6
   42b9c:	21241704 	addi	r4,r4,-28580
   42ba0:	003fdd06 	br	42b18 <__alt_data_end+0xfffdba18>
			else
				printf(" hsync_p");
   42ba4:	010001b4 	movhi	r4,6
   42ba8:	21241a04 	addi	r4,r4,-28568
   42bac:	003fda06 	br	42b18 <__alt_data_end+0xfffdba18>

	if (cea->nr_dtd != 0)
		printf("\n  detailed timing descriptors\n  ---------------------------------\n");

	// detail timing descriptor
	for (i = 0; i < (int)cea->nr_dtd; ++i) {
   42bb0:	ad400044 	addi	r21,r21,1
   42bb4:	84001004 	addi	r16,r16,64
   42bb8:	9cc01004 	addi	r19,r19,64
   42bbc:	a5001004 	addi	r20,r20,64
   42bc0:	003f3806 	br	428a4 <__alt_data_end+0xfffdb7a4>
				printf(" hsync_p");

    		printf("\n");
		}
	}
}
   42bc4:	dfc01117 	ldw	ra,68(sp)
   42bc8:	df001017 	ldw	fp,64(sp)
   42bcc:	ddc00f17 	ldw	r23,60(sp)
   42bd0:	dd800e17 	ldw	r22,56(sp)
   42bd4:	dd400d17 	ldw	r21,52(sp)
   42bd8:	dd000c17 	ldw	r20,48(sp)
   42bdc:	dcc00b17 	ldw	r19,44(sp)
   42be0:	dc800a17 	ldw	r18,40(sp)
   42be4:	dc400917 	ldw	r17,36(sp)
   42be8:	dc000817 	ldw	r16,32(sp)
   42bec:	dec01204 	addi	sp,sp,72
   42bf0:	f800283a 	ret

00042bf4 <edid_decode_extensions>:

int edid_decode_extensions(struct base_edid *edid, const unsigned char *edid_bin)
{
   42bf4:	defffb04 	addi	sp,sp,-20
   42bf8:	dc800215 	stw	r18,8(sp)
   42bfc:	dc400115 	stw	r17,4(sp)
   42c00:	dfc00415 	stw	ra,16(sp)
   42c04:	dcc00315 	stw	r19,12(sp)
   42c08:	dc000015 	stw	r16,0(sp)
	const u8 *c = edid_bin;
	int i, nr_ext;

	nr_ext = (int)c[0x7e];
   42c0c:	2c001f83 	ldbu	r16,126(r5)
		}
	}
}

int edid_decode_extensions(struct base_edid *edid, const unsigned char *edid_bin)
{
   42c10:	2025883a 	mov	r18,r4
   42c14:	2823883a 	mov	r17,r5
   42c18:	0400010e 	bge	zero,r16,42c20 <edid_decode_extensions+0x2c>
   42c1c:	04000044 	movi	r16,1
	// for simplicity, we now support only storing 8 extension data in the edid struct
	if (nr_ext > 1)
		nr_ext = 1;
#endif

	for (i = 0; i < nr_ext; ++i) {
   42c20:	0005883a 	mov	r2,zero

		c = &edid_bin[128 + 128 * i];

		switch (c[0]) {
   42c24:	04c00084 	movi	r19,2
	// for simplicity, we now support only storing 8 extension data in the edid struct
	if (nr_ext > 1)
		nr_ext = 1;
#endif

	for (i = 0; i < nr_ext; ++i) {
   42c28:	1400090e 	bge	r2,r16,42c50 <edid_decode_extensions+0x5c>

		c = &edid_bin[128 + 128 * i];

		switch (c[0]) {
   42c2c:	88802003 	ldbu	r2,128(r17)
   42c30:	14c0051e 	bne	r2,r19,42c48 <edid_decode_extensions+0x54>
		case 0x01:  // 0x01 (LCD Timings)
			// todo ...
			break;

		case EDID_EXT_TAG_CEA:  // 0x02 CEA-EXT (CEA-861 Series Extension)
			if (edid_decode_cea(edid, edid_bin, i) != 0)
   42c34:	9009883a 	mov	r4,r18
   42c38:	880b883a 	mov	r5,r17
   42c3c:	000d883a 	mov	r6,zero
   42c40:	00410280 	call	41028 <edid_decode_cea>
   42c44:	1000041e 	bne	r2,zero,42c58 <edid_decode_extensions+0x64>
   42c48:	00800044 	movi	r2,1
   42c4c:	003ff606 	br	42c28 <__alt_data_end+0xfffdbb28>
		case 0xff:  // 0xff (define by display manufacturer)
			break;
		}
	}

	return 0;
   42c50:	0005883a 	mov	r2,zero
   42c54:	00000106 	br	42c5c <edid_decode_extensions+0x68>
			// todo ...
			break;

		case EDID_EXT_TAG_CEA:  // 0x02 CEA-EXT (CEA-861 Series Extension)
			if (edid_decode_cea(edid, edid_bin, i) != 0)
				return -1;
   42c58:	00bfffc4 	movi	r2,-1
			break;
		}
	}

	return 0;
}
   42c5c:	dfc00417 	ldw	ra,16(sp)
   42c60:	dcc00317 	ldw	r19,12(sp)
   42c64:	dc800217 	ldw	r18,8(sp)
   42c68:	dc400117 	ldw	r17,4(sp)
   42c6c:	dc000017 	ldw	r16,0(sp)
   42c70:	dec00504 	addi	sp,sp,20
   42c74:	f800283a 	ret

00042c78 <edid_decode_v14>:

int edid_decode_v14(struct base_edid *edid, const unsigned char *edid_bin)
{
   42c78:	defff104 	addi	sp,sp,-60
   42c7c:	df000d15 	stw	fp,52(sp)
   42c80:	dc000515 	stw	r16,20(sp)
   42c84:	2839883a 	mov	fp,r5
   42c88:	2021883a 	mov	r16,r4
	const u8 *c = edid_bin;
    u8 checksum = 0;
    int i = 0, s = 0;

    // header
    if (memcmp(c, header, 8) != 0)
   42c8c:	01800204 	movi	r6,8
   42c90:	2809883a 	mov	r4,r5
   42c94:	d1600004 	addi	r5,gp,-32768

	return 0;
}

int edid_decode_v14(struct base_edid *edid, const unsigned char *edid_bin)
{
   42c98:	dfc00e15 	stw	ra,56(sp)
   42c9c:	ddc00c15 	stw	r23,48(sp)
   42ca0:	dd800b15 	stw	r22,44(sp)
   42ca4:	dd400a15 	stw	r21,40(sp)
   42ca8:	dd000915 	stw	r20,36(sp)
   42cac:	dcc00815 	stw	r19,32(sp)
   42cb0:	dc800715 	stw	r18,28(sp)
   42cb4:	dc400615 	stw	r17,24(sp)
	const u8 *c = edid_bin;
    u8 checksum = 0;
    int i = 0, s = 0;

    // header
    if (memcmp(c, header, 8) != 0)
   42cb8:	0048cb40 	call	48cb4 <memcmp>
   42cbc:	10070d1e 	bne	r2,zero,448f4 <edid_decode_v14+0x1c7c>
   42cc0:	e007883a 	mov	r3,fp
   42cc4:	e1001fc4 	addi	r4,fp,127
        return -1;

    // checksum
    for (s = 0; s < 127; ++s)
        checksum += c[s];
   42cc8:	19400003 	ldbu	r5,0(r3)
   42ccc:	18c00044 	addi	r3,r3,1
   42cd0:	1145883a 	add	r2,r2,r5
    // header
    if (memcmp(c, header, 8) != 0)
        return -1;

    // checksum
    for (s = 0; s < 127; ++s)
   42cd4:	193ffc1e 	bne	r3,r4,42cc8 <__alt_data_end+0xfffdbbc8>
        checksum += c[s];

    if ((u8)(checksum + c[127]) != 0x00)
   42cd8:	e0c01fc3 	ldbu	r3,127(fp)
   42cdc:	10c5883a 	add	r2,r2,r3
   42ce0:	10803fcc 	andi	r2,r2,255
   42ce4:	1007031e 	bne	r2,zero,448f4 <edid_decode_v14+0x1c7c>
    	return -1;

    edid->checksum = c[127];
   42ce8:	18c03fcc 	andi	r3,r3,255
   42cec:	80c60a15 	stw	r3,6184(r16)

    // vid/pid
    c = &edid_bin[8];

    edid->id_mfg[0] = 0x40 + ((c[0] >> 2) & 0x1f);
   42cf0:	e0800203 	ldbu	r2,8(fp)

	edid->mfg_week = 0;
	edid->mfg_year = 0;
	edid->model_year = 0;

    if ((c[0] >= 0x01) && (c[0] <= 0x36))
   42cf4:	01000d44 	movi	r4,53
    edid->checksum = c[127];

    // vid/pid
    c = &edid_bin[8];

    edid->id_mfg[0] = 0x40 + ((c[0] >> 2) & 0x1f);
   42cf8:	1004d0ba 	srli	r2,r2,2
   42cfc:	108007cc 	andi	r2,r2,31
   42d00:	10801004 	addi	r2,r2,64
   42d04:	80800005 	stb	r2,0(r16)
    edid->id_mfg[1] = 0x40 + (((c[0] << 3) | (c[1] >> 5)) & 0x1f);
   42d08:	e0800203 	ldbu	r2,8(fp)
   42d0c:	100690fa 	slli	r3,r2,3
   42d10:	e0800243 	ldbu	r2,9(fp)
   42d14:	1004d17a 	srli	r2,r2,5
   42d18:	1884b03a 	or	r2,r3,r2
   42d1c:	108007cc 	andi	r2,r2,31
   42d20:	10801004 	addi	r2,r2,64
   42d24:	80800045 	stb	r2,1(r16)
    edid->id_mfg[2] = 0x40 + (c[1] & 0x1f);
   42d28:	e0800243 	ldbu	r2,9(fp)
    edid->id_mfg[3] = 0;
   42d2c:	800000c5 	stb	zero,3(r16)
    // vid/pid
    c = &edid_bin[8];

    edid->id_mfg[0] = 0x40 + ((c[0] >> 2) & 0x1f);
    edid->id_mfg[1] = 0x40 + (((c[0] << 3) | (c[1] >> 5)) & 0x1f);
    edid->id_mfg[2] = 0x40 + (c[1] & 0x1f);
   42d30:	108007cc 	andi	r2,r2,31
   42d34:	10801004 	addi	r2,r2,64
   42d38:	80800085 	stb	r2,2(r16)
    edid->id_mfg[3] = 0;

    c = &edid_bin[0x0a];
    edid->id_prod = (c[1] << 8) | c[0];
   42d3c:	e08002c3 	ldbu	r2,11(fp)
   42d40:	1006923a 	slli	r3,r2,8
   42d44:	e0800283 	ldbu	r2,10(fp)
   42d48:	1884b03a 	or	r2,r3,r2
   42d4c:	80800115 	stw	r2,4(r16)

    c = &edid_bin[0x0c];
    edid->id_sn = (c[3] << 24) | (c[2] << 16) | (c[1] << 8) | c[0];
   42d50:	e08003c3 	ldbu	r2,15(fp)
   42d54:	1006963a 	slli	r3,r2,24
   42d58:	e0800383 	ldbu	r2,14(fp)
   42d5c:	1004943a 	slli	r2,r2,16
   42d60:	1884b03a 	or	r2,r3,r2
   42d64:	e0c00303 	ldbu	r3,12(fp)
   42d68:	10c6b03a 	or	r3,r2,r3
   42d6c:	e0800343 	ldbu	r2,13(fp)

    c = &edid_bin[0x10];

	edid->mfg_week = 0;
   42d70:	80000315 	stw	zero,12(r16)
	edid->mfg_year = 0;
   42d74:	80000415 	stw	zero,16(r16)

    c = &edid_bin[0x0a];
    edid->id_prod = (c[1] << 8) | c[0];

    c = &edid_bin[0x0c];
    edid->id_sn = (c[3] << 24) | (c[2] << 16) | (c[1] << 8) | c[0];
   42d78:	1004923a 	slli	r2,r2,8

    c = &edid_bin[0x10];

	edid->mfg_week = 0;
	edid->mfg_year = 0;
	edid->model_year = 0;
   42d7c:	80000515 	stw	zero,20(r16)

    c = &edid_bin[0x0a];
    edid->id_prod = (c[1] << 8) | c[0];

    c = &edid_bin[0x0c];
    edid->id_sn = (c[3] << 24) | (c[2] << 16) | (c[1] << 8) | c[0];
   42d80:	1884b03a 	or	r2,r3,r2
   42d84:	80800215 	stw	r2,8(r16)

	edid->mfg_week = 0;
	edid->mfg_year = 0;
	edid->model_year = 0;

    if ((c[0] >= 0x01) && (c[0] <= 0x36))
   42d88:	e0800403 	ldbu	r2,16(fp)
   42d8c:	10ffffc4 	addi	r3,r2,-1
   42d90:	18c03fcc 	andi	r3,r3,255
   42d94:	20c00236 	bltu	r4,r3,42da0 <edid_decode_v14+0x128>
    	edid->mfg_week = c[0];
   42d98:	10803fcc 	andi	r2,r2,255
   42d9c:	80800315 	stw	r2,12(r16)

    if (c[0] == 0xff)
   42da0:	e0c00403 	ldbu	r3,16(fp)
   42da4:	00803fc4 	movi	r2,255
   42da8:	1880041e 	bne	r3,r2,42dbc <edid_decode_v14+0x144>
    	edid->model_year = 1990 + c[1];
   42dac:	e0800443 	ldbu	r2,17(fp)
   42db0:	1081f184 	addi	r2,r2,1990
   42db4:	80800515 	stw	r2,20(r16)
   42db8:	00000306 	br	42dc8 <edid_decode_v14+0x150>
    else
    	edid->mfg_year = 1990 + c[1];
   42dbc:	e0800443 	ldbu	r2,17(fp)
   42dc0:	1081f184 	addi	r2,r2,1990
   42dc4:	80800415 	stw	r2,16(r16)

    // edid version
    c = &edid_bin[0x12];

    edid->ver_mj = c[0];
   42dc8:	e0800483 	ldbu	r2,18(fp)
   42dcc:	80800615 	stw	r2,24(r16)
    edid->ver_mn = c[1];
   42dd0:	e08004c3 	ldbu	r2,19(fp)
   42dd4:	80800715 	stw	r2,28(r16)

    // basic display parameters & features
    c = &edid_bin[0x14];

    if (*c & 0x80) {
   42dd8:	e0800507 	ldb	r2,20(fp)
   42ddc:	1000410e 	bge	r2,zero,42ee4 <edid_decode_v14+0x26c>
        edid->input.digital_if = 1;
   42de0:	00c00044 	movi	r3,1
   42de4:	80c00815 	stw	r3,32(r16)

        switch ((*c >> 4) & 0x7) {
   42de8:	e0800503 	ldbu	r2,20(fp)
   42dec:	01400144 	movi	r5,5
   42df0:	1004d13a 	srli	r2,r2,4
   42df4:	108001cc 	andi	r2,r2,7
   42df8:	10bfffc4 	addi	r2,r2,-1
   42dfc:	10803fcc 	andi	r2,r2,255
   42e00:	28801936 	bltu	r5,r2,42e68 <edid_decode_v14+0x1f0>
   42e04:	100490ba 	slli	r2,r2,2
   42e08:	01000134 	movhi	r4,4
   42e0c:	210b8704 	addi	r4,r4,11804
   42e10:	1105883a 	add	r2,r2,r4
   42e14:	10800017 	ldw	r2,0(r2)
   42e18:	1000683a 	jmp	r2
   42e1c:	00042e34 	movhi	zero,4280
   42e20:	00042e3c 	xorhi	zero,zero,4280
   42e24:	00042e44 	movi	zero,4281
   42e28:	00042e50 	cmplti	zero,zero,4281
   42e2c:	00042e58 	cmpnei	zero,zero,4281
   42e30:	00042e60 	cmpeqi	zero,zero,4281
        case 1:
            edid->input.digital.depth = VID_6BITS;
   42e34:	80c00915 	stw	r3,36(r16)
            break;
   42e38:	00000c06 	br	42e6c <edid_decode_v14+0x1f4>
        case 2:
            edid->input.digital.depth = VID_8BITS;
   42e3c:	00800084 	movi	r2,2
   42e40:	00000106 	br	42e48 <edid_decode_v14+0x1d0>
            break;
        case 3:
            edid->input.digital.depth = VID_10BITS;
   42e44:	008000c4 	movi	r2,3
   42e48:	80800915 	stw	r2,36(r16)
            break;
   42e4c:	00000706 	br	42e6c <edid_decode_v14+0x1f4>
        case 4:
            edid->input.digital.depth = VID_12BITS;
   42e50:	00800104 	movi	r2,4
   42e54:	003ffc06 	br	42e48 <__alt_data_end+0xfffdbd48>
            break;
        case 5:
            edid->input.digital.depth = VID_14BITS;
   42e58:	81400915 	stw	r5,36(r16)
            break;
   42e5c:	00000306 	br	42e6c <edid_decode_v14+0x1f4>
        case 6:
            edid->input.digital.depth = VID_16BITS;
   42e60:	00800184 	movi	r2,6
   42e64:	003ff806 	br	42e48 <__alt_data_end+0xfffdbd48>
            break;
        case 0:
        default:
            edid->input.digital.depth = VID_NOT_DEFINED;
   42e68:	80000915 	stw	zero,36(r16)
            break;
        }

        switch (*c & 0xf) {
   42e6c:	e0800503 	ldbu	r2,20(fp)
   42e70:	01000104 	movi	r4,4
   42e74:	108003cc 	andi	r2,r2,15
   42e78:	10bfffc4 	addi	r2,r2,-1
   42e7c:	10803fcc 	andi	r2,r2,255
   42e80:	20801636 	bltu	r4,r2,42edc <edid_decode_v14+0x264>
   42e84:	100490ba 	slli	r2,r2,2
   42e88:	00c00134 	movhi	r3,4
   42e8c:	18cba704 	addi	r3,r3,11932
   42e90:	10c5883a 	add	r2,r2,r3
   42e94:	10800017 	ldw	r2,0(r2)
   42e98:	1000683a 	jmp	r2
   42e9c:	00042eb0 	cmpltui	zero,zero,4282
   42ea0:	00042eb8 	rdprs	zero,zero,4282
   42ea4:	00042ec4 	movi	zero,4283
   42ea8:	00042ecc 	andi	zero,zero,4283
   42eac:	00042ed4 	movui	zero,4283
        case 1:
            edid->input.digital.interface = VII_DVI;
   42eb0:	00800044 	movi	r2,1
   42eb4:	00000106 	br	42ebc <edid_decode_v14+0x244>
            break;
        case 2:
            edid->input.digital.interface = VII_HDMI_A;
   42eb8:	00800084 	movi	r2,2
   42ebc:	80800a15 	stw	r2,40(r16)
            break;
   42ec0:	00003506 	br	42f98 <edid_decode_v14+0x320>
        case 3:
            edid->input.digital.interface = VII_HDMI_B;
   42ec4:	008000c4 	movi	r2,3
   42ec8:	003ffc06 	br	42ebc <__alt_data_end+0xfffdbdbc>
            break;
        case 4:
            edid->input.digital.interface = VII_MDDI;
   42ecc:	81000a15 	stw	r4,40(r16)
            break;
   42ed0:	00003106 	br	42f98 <edid_decode_v14+0x320>
        case 5:
            edid->input.digital.interface = VII_DISPLAYPORT;
   42ed4:	00800144 	movi	r2,5
   42ed8:	003ff806 	br	42ebc <__alt_data_end+0xfffdbdbc>
            break;
        case 0:
        default:
            edid->input.digital.interface = VII_NOT_DEFINED;
   42edc:	80000a15 	stw	zero,40(r16)
            break;
   42ee0:	00002d06 	br	42f98 <edid_decode_v14+0x320>
        }

    } else {

        edid->input.digital_if = 0;
   42ee4:	80000815 	stw	zero,32(r16)

        switch ((*c >> 5) & 0x3) {
   42ee8:	e0800503 	ldbu	r2,20(fp)
   42eec:	00c00084 	movi	r3,2
   42ef0:	1004d17a 	srli	r2,r2,5
   42ef4:	108000cc 	andi	r2,r2,3
   42ef8:	10c00626 	beq	r2,r3,42f14 <edid_decode_v14+0x29c>
   42efc:	00c000c4 	movi	r3,3
   42f00:	10c00426 	beq	r2,r3,42f14 <edid_decode_v14+0x29c>
   42f04:	00c00044 	movi	r3,1
   42f08:	10c00226 	beq	r2,r3,42f14 <edid_decode_v14+0x29c>
        case 0:
            edid->input.analog.level = VIL_0P700_0P300_1P000;
   42f0c:	80000915 	stw	zero,36(r16)
            break;
   42f10:	00000106 	br	42f18 <edid_decode_v14+0x2a0>
            break;
        case 2:
            edid->input.analog.level = VIL_1P000_0P400_1P400;
            break;
        case 3:
            edid->input.analog.level = VIL_0P700_0P000_0P700;
   42f14:	80800915 	stw	r2,36(r16)
            break;
        }

        if (*c & 0x10)
   42f18:	e0800503 	ldbu	r2,20(fp)
   42f1c:	1080040c 	andi	r2,r2,16
   42f20:	10000326 	beq	r2,zero,42f30 <edid_decode_v14+0x2b8>
            edid->input.analog.setup = VIS_BLANK_TO_BLACK_PEDESTAL;
   42f24:	00800044 	movi	r2,1
   42f28:	80800a15 	stw	r2,40(r16)
   42f2c:	00000106 	br	42f34 <edid_decode_v14+0x2bc>
        else
            edid->input.analog.setup = VIS_BLANK_LEVEL_EQ_BLACK_LEVEL;
   42f30:	80000a15 	stw	zero,40(r16)

        edid->input.analog.sync_type = 0;
   42f34:	80000b15 	stw	zero,44(r16)
        if (*c & 0x08)
   42f38:	e0800503 	ldbu	r2,20(fp)
   42f3c:	1080020c 	andi	r2,r2,8
   42f40:	10000226 	beq	r2,zero,42f4c <edid_decode_v14+0x2d4>
        	edid->input.analog.sync_type |= VIS_SEPERATE_H_V_SYNC;
   42f44:	00800044 	movi	r2,1
   42f48:	80800b15 	stw	r2,44(r16)
        if (*c & 0x04)
   42f4c:	e0800503 	ldbu	r2,20(fp)
   42f50:	1080010c 	andi	r2,r2,4
   42f54:	10000326 	beq	r2,zero,42f64 <edid_decode_v14+0x2ec>
        	edid->input.analog.sync_type |= VIS_COMPOSITE_H_SYNC;
   42f58:	80800b17 	ldw	r2,44(r16)
   42f5c:	10800094 	ori	r2,r2,2
   42f60:	80800b15 	stw	r2,44(r16)
        if (*c & 0x02)
   42f64:	e0800503 	ldbu	r2,20(fp)
   42f68:	1080008c 	andi	r2,r2,2
   42f6c:	10000326 	beq	r2,zero,42f7c <edid_decode_v14+0x304>
        	edid->input.analog.sync_type |= VIS_COMPOSITE_G_VIDEO;
   42f70:	80800b17 	ldw	r2,44(r16)
   42f74:	10800114 	ori	r2,r2,4
   42f78:	80800b15 	stw	r2,44(r16)

        if (*c & 0x01)
   42f7c:	e0800503 	ldbu	r2,20(fp)
   42f80:	1080004c 	andi	r2,r2,1
   42f84:	10000326 	beq	r2,zero,42f94 <edid_decode_v14+0x31c>
        	edid->input.analog.serrations = VISR_VSYNC;
   42f88:	00800044 	movi	r2,1
   42f8c:	80800c15 	stw	r2,48(r16)
   42f90:	00000106 	br	42f98 <edid_decode_v14+0x320>
        else
        	edid->input.analog.serrations = 0;
   42f94:	80000c15 	stw	zero,48(r16)
    }

    c = &edid_bin[0x15];

    edid->screen.size_defined = 0;
   42f98:	80000d15 	stw	zero,52(r16)
    edid->screen.size.horizontal = 0;
    edid->screen.size.vertical = 0;
    edid->screen.aspect_defined = 0;
   42f9c:	80000e15 	stw	zero,56(r16)
    edid->screen.aspect.landscape = 0.0f;
   42fa0:	80000f15 	stw	zero,60(r16)
    edid->screen.aspect.portrait = 0.0f;
   42fa4:	80001015 	stw	zero,64(r16)

    if (c[0] != 0) {
   42fa8:	e0800543 	ldbu	r2,21(fp)
   42fac:	10001426 	beq	r2,zero,43000 <edid_decode_v14+0x388>
        if (c[1] != 0) {
   42fb0:	e0c00583 	ldbu	r3,22(fp)
   42fb4:	00800044 	movi	r2,1
   42fb8:	18000526 	beq	r3,zero,42fd0 <edid_decode_v14+0x358>
        	edid->screen.size_defined = 1;
   42fbc:	80800d15 	stw	r2,52(r16)
        	edid->screen.size.horizontal = c[0];
   42fc0:	e0800543 	ldbu	r2,21(fp)
   42fc4:	80800f15 	stw	r2,60(r16)
        	edid->screen.size.vertical = c[1];
   42fc8:	e0800583 	ldbu	r2,22(fp)
   42fcc:	00001806 	br	43030 <edid_decode_v14+0x3b8>
        } else {
        	edid->screen.aspect_defined = 1;
   42fd0:	80800e15 	stw	r2,56(r16)
        	edid->screen.aspect.landscape = ((float)c[0] + 99.0f) * 0.01f;
   42fd4:	e1000543 	ldbu	r4,21(fp)
   42fd8:	0047b180 	call	47b18 <__floatunsisf>
   42fdc:	1009883a 	mov	r4,r2
   42fe0:	0150b1b4 	movhi	r5,17094
   42fe4:	0046dc40 	call	46dc4 <__addsf3>
   42fe8:	014f0934 	movhi	r5,15396
   42fec:	1009883a 	mov	r4,r2
   42ff0:	2975c284 	addi	r5,r5,-10486
   42ff4:	00476f40 	call	476f4 <__mulsf3>
   42ff8:	80800f15 	stw	r2,60(r16)
   42ffc:	00000d06 	br	43034 <edid_decode_v14+0x3bc>
        }
    } else if (c[1] != 0) {
   43000:	e0800583 	ldbu	r2,22(fp)
   43004:	10000b26 	beq	r2,zero,43034 <edid_decode_v14+0x3bc>
    	edid->screen.aspect_defined = 2;
   43008:	00800084 	movi	r2,2
   4300c:	80800e15 	stw	r2,56(r16)
    	edid->screen.aspect.portrait = 100.0f / ((float)c[1] + 99.0f);
   43010:	e1000583 	ldbu	r4,22(fp)
   43014:	0047b180 	call	47b18 <__floatunsisf>
   43018:	1009883a 	mov	r4,r2
   4301c:	0150b1b4 	movhi	r5,17094
   43020:	0046dc40 	call	46dc4 <__addsf3>
   43024:	0110b234 	movhi	r4,17096
   43028:	100b883a 	mov	r5,r2
   4302c:	00472a40 	call	472a4 <__divsf3>
   43030:	80801015 	stw	r2,64(r16)
    }

    // gamma
    c = &edid_bin[0x17];

    if (*c < 0xff)
   43034:	e10005c3 	ldbu	r4,23(fp)
   43038:	00803fc4 	movi	r2,255
   4303c:	20800926 	beq	r4,r2,43064 <edid_decode_v14+0x3ec>
        edid->gamma = ((float)(*c) + 100.0f) / 100.0f;
   43040:	0047b180 	call	47b18 <__floatunsisf>
   43044:	1009883a 	mov	r4,r2
   43048:	0150b234 	movhi	r5,17096
   4304c:	0046dc40 	call	46dc4 <__addsf3>
   43050:	1009883a 	mov	r4,r2
   43054:	0150b234 	movhi	r5,17096
   43058:	00472a40 	call	472a4 <__divsf3>
   4305c:	80801115 	stw	r2,68(r16)
   43060:	00000106 	br	43068 <edid_decode_v14+0x3f0>
    else
        edid->gamma = 0.0f;  // defined in an extension block
   43064:	80001115 	stw	zero,68(r16)

    // feature
    c = &edid_bin[0x18];

    edid->feature = 0;
   43068:	80001215 	stw	zero,72(r16)
    if (*c & 0x80)
   4306c:	e0800607 	ldb	r2,24(fp)
   43070:	1000020e 	bge	r2,zero,4307c <edid_decode_v14+0x404>
    	edid->feature |= FS_PM_STANDBY;
   43074:	00800044 	movi	r2,1
   43078:	80801215 	stw	r2,72(r16)
    if (*c & 0x40)
   4307c:	e0800603 	ldbu	r2,24(fp)
   43080:	1080100c 	andi	r2,r2,64
   43084:	10000326 	beq	r2,zero,43094 <edid_decode_v14+0x41c>
    	edid->feature |= FS_PM_SUSPEND;
   43088:	80801217 	ldw	r2,72(r16)
   4308c:	10800094 	ori	r2,r2,2
   43090:	80801215 	stw	r2,72(r16)
    if (*c & 0x20)
   43094:	e0800603 	ldbu	r2,24(fp)
   43098:	1080080c 	andi	r2,r2,32
   4309c:	10000326 	beq	r2,zero,430ac <edid_decode_v14+0x434>
    	edid->feature |= FS_PM_ACTIVE_OFF;
   430a0:	80801217 	ldw	r2,72(r16)
   430a4:	10800114 	ori	r2,r2,4
   430a8:	80801215 	stw	r2,72(r16)

    if (edid->input.digital_if) {
   430ac:	80800817 	ldw	r2,32(r16)
   430b0:	10001526 	beq	r2,zero,43108 <edid_decode_v14+0x490>
        switch ((*c >> 3) & 0x03) {
   430b4:	e0800603 	ldbu	r2,24(fp)
   430b8:	00c00084 	movi	r3,2
   430bc:	1004d0fa 	srli	r2,r2,3
   430c0:	108000cc 	andi	r2,r2,3
   430c4:	10c00a26 	beq	r2,r3,430f0 <edid_decode_v14+0x478>
   430c8:	00c000c4 	movi	r3,3
   430cc:	10c00b26 	beq	r2,r3,430fc <edid_decode_v14+0x484>
   430d0:	00c00044 	movi	r3,1
   430d4:	10c00326 	beq	r2,r3,430e4 <edid_decode_v14+0x46c>
        case 0:
        	edid->feature |= FS_CEF_RGB444;
   430d8:	80801217 	ldw	r2,72(r16)
   430dc:	10801014 	ori	r2,r2,64
   430e0:	00001906 	br	43148 <edid_decode_v14+0x4d0>
            break;
        case 1:
        	edid->feature |= (FS_CEF_RGB444 | FS_CEF_YCBCR444);
   430e4:	80801217 	ldw	r2,72(r16)
   430e8:	10803014 	ori	r2,r2,192
   430ec:	00001606 	br	43148 <edid_decode_v14+0x4d0>
            break;
        case 2:
        	edid->feature |= (FS_CEF_RGB444 | FS_CEF_YCBCR422);
   430f0:	80801217 	ldw	r2,72(r16)
   430f4:	10805014 	ori	r2,r2,320
   430f8:	00001306 	br	43148 <edid_decode_v14+0x4d0>
            break;
        case 3:
