
DECA_GSensor_Nios.elf:     file format elf32-littlenios2
DECA_GSensor_Nios.elf
architecture: nios2:r1, flags 0x00000112:
EXEC_P, HAS_SYMS, D_PAGED
start address 0x01020240

Program Header:
    LOAD off    0x00001000 vaddr 0x01020000 paddr 0x01020000 align 2**12
         filesz 0x00000020 memsz 0x00000020 flags r-x
    LOAD off    0x00001020 vaddr 0x01020020 paddr 0x01020020 align 2**12
         filesz 0x000141b8 memsz 0x000141b8 flags r-x
    LOAD off    0x000151d8 vaddr 0x010341d8 paddr 0x01035cc4 align 2**12
         filesz 0x00001aec memsz 0x00001aec flags rw-
    LOAD off    0x000177b0 vaddr 0x010377b0 paddr 0x010377b0 align 2**12
         filesz 0x00000000 memsz 0x00000160 flags rw-

Sections:
Idx Name          Size      VMA       LMA       File off  Algn
  0 .entry        00000020  01020000  01020000  00001000  2**5
                  CONTENTS, ALLOC, LOAD, READONLY, CODE
  1 .exceptions   00000220  01020020  01020020  00001020  2**2
                  CONTENTS, ALLOC, LOAD, READONLY, CODE
  2 .text         00013948  01020240  01020240  00001240  2**2
                  CONTENTS, ALLOC, LOAD, READONLY, CODE
  3 .rodata       00000650  01033b88  01033b88  00014b88  2**2
                  CONTENTS, ALLOC, LOAD, READONLY, DATA
  4 .rwdata       00001aec  010341d8  01035cc4  000151d8  2**2
                  CONTENTS, ALLOC, LOAD, DATA, SMALL_DATA
  5 .bss          00000160  010377b0  010377b0  000177b0  2**2
                  ALLOC, SMALL_DATA
  6 .onchip_memory2 00000000  01037910  01037910  00016cc4  2**0
                  CONTENTS
  7 .comment      00000023  00000000  00000000  00016cc4  2**0
                  CONTENTS, READONLY
  8 .debug_aranges 00000e30  00000000  00000000  00016ce8  2**3
                  CONTENTS, READONLY, DEBUGGING
  9 .debug_info   00027f88  00000000  00000000  00017b18  2**0
                  CONTENTS, READONLY, DEBUGGING
 10 .debug_abbrev 00009f01  00000000  00000000  0003faa0  2**0
                  CONTENTS, READONLY, DEBUGGING
 11 .debug_line   0000cb3c  00000000  00000000  000499a1  2**0
                  CONTENTS, READONLY, DEBUGGING
 12 .debug_frame  0000259c  00000000  00000000  000564e0  2**2
                  CONTENTS, READONLY, DEBUGGING
 13 .debug_str    000039d2  00000000  00000000  00058a7c  2**0
                  CONTENTS, READONLY, DEBUGGING
 14 .debug_loc    0001b8e7  00000000  00000000  0005c44e  2**0
                  CONTENTS, READONLY, DEBUGGING
 15 .debug_alt_sim_info 00000060  00000000  00000000  00077d38  2**2
                  CONTENTS, READONLY, DEBUGGING
 16 .debug_ranges 00001560  00000000  00000000  00077d98  2**3
                  CONTENTS, READONLY, DEBUGGING
 17 .thread_model 00000003  00000000  00000000  0007c940  2**0
                  CONTENTS, READONLY
 18 .cpu          0000000a  00000000  00000000  0007c943  2**0
                  CONTENTS, READONLY
 19 .qsys         00000001  00000000  00000000  0007c94d  2**0
                  CONTENTS, READONLY
 20 .simulation_enabled 00000001  00000000  00000000  0007c94e  2**0
                  CONTENTS, READONLY
 21 .sysid_hash   00000004  00000000  00000000  0007c94f  2**0
                  CONTENTS, READONLY
 22 .sysid_base   00000004  00000000  00000000  0007c953  2**0
                  CONTENTS, READONLY
 23 .sysid_time   00000004  00000000  00000000  0007c957  2**0
                  CONTENTS, READONLY
 24 .stderr_dev   00000009  00000000  00000000  0007c95b  2**0
                  CONTENTS, READONLY
 25 .stdin_dev    00000009  00000000  00000000  0007c964  2**0
                  CONTENTS, READONLY
 26 .stdout_dev   00000009  00000000  00000000  0007c96d  2**0
                  CONTENTS, READONLY
 27 .sopc_system_name 00000009  00000000  00000000  0007c976  2**0
                  CONTENTS, READONLY
 28 .quartus_project_dir 00000025  00000000  00000000  0007c97f  2**0
                  CONTENTS, READONLY
 29 .jdi          00003eee  00000000  00000000  0007c9a4  2**0
                  CONTENTS, READONLY
 30 .sopcinfo     00068951  00000000  00000000  00080892  2**0
                  CONTENTS, READONLY
SYMBOL TABLE:
01020000 l    d  .entry	00000000 .entry
01020020 l    d  .exceptions	00000000 .exceptions
01020240 l    d  .text	00000000 .text
01033b88 l    d  .rodata	00000000 .rodata
010341d8 l    d  .rwdata	00000000 .rwdata
010377b0 l    d  .bss	00000000 .bss
01037910 l    d  .onchip_memory2	00000000 .onchip_memory2
00000000 l    d  .comment	00000000 .comment
00000000 l    d  .debug_aranges	00000000 .debug_aranges
00000000 l    d  .debug_info	00000000 .debug_info
00000000 l    d  .debug_abbrev	00000000 .debug_abbrev
00000000 l    d  .debug_line	00000000 .debug_line
00000000 l    d  .debug_frame	00000000 .debug_frame
00000000 l    d  .debug_str	00000000 .debug_str
00000000 l    d  .debug_loc	00000000 .debug_loc
00000000 l    d  .debug_alt_sim_info	00000000 .debug_alt_sim_info
00000000 l    d  .debug_ranges	00000000 .debug_ranges
00000000 l    df *ABS*	00000000 ../DECA_GSensor_Nios_bsp//obj/HAL/src/crt0.o
01020288 l       .text	00000000 alt_after_alt_main
00000000 l    df *ABS*	00000000 alt_irq_handler.c
00000000 l    df *ABS*	00000000 alt_instruction_exception_entry.c
00000000 l    df *ABS*	00000000 I2C_core.c
00000000 l    df *ABS*	00000000 debug.c
00000000 l    df *ABS*	00000000 main.c
00000000 l    df *ABS*	00000000 lib2-divmod.c
010217d4 l     F .text	0000006c udivmodsi4
00000000 l    df *ABS*	00000000 divdf3.c
00000000 l    df *ABS*	00000000 muldf3.c
00000000 l    df *ABS*	00000000 fixdfsi.c
00000000 l    df *ABS*	00000000 floatsidf.c
00000000 l    df *ABS*	00000000 extendsfdf2.c
00000000 l    df *ABS*	00000000 truncdfsf2.c
00000000 l    df *ABS*	00000000 libgcc2.c
00000000 l    df *ABS*	00000000 libgcc2.c
00000000 l    df *ABS*	00000000 printf.c
00000000 l    df *ABS*	00000000 puts.c
00000000 l    df *ABS*	00000000 sprintf.c
00000000 l    df *ABS*	00000000 strlen.c
00000000 l    df *ABS*	00000000 vfprintf.c
01033fe6 l     O .rodata	00000010 zeroes.4166
01033ff6 l     O .rodata	00000010 blanks.4165
00000000 l    df *ABS*	00000000 vfprintf.c
01034006 l     O .rodata	00000010 zeroes.4181
01034016 l     O .rodata	00000010 blanks.4180
00000000 l    df *ABS*	00000000 vsnprintf.c
00000000 l    df *ABS*	00000000 wsetup.c
00000000 l    df *ABS*	00000000 dtoa.c
010271f4 l     F .text	00000200 quorem
00000000 l    df *ABS*	00000000 fflush.c
00000000 l    df *ABS*	00000000 findfp.c
01028d74 l     F .text	00000008 __fp_lock
01028d7c l     F .text	00000008 __fp_unlock
01028d90 l     F .text	000001a0 __sinit.part.1
00000000 l    df *ABS*	00000000 mallocr.c
00000000 l    df *ABS*	00000000 fvwrite.c
00000000 l    df *ABS*	00000000 fwalk.c
00000000 l    df *ABS*	00000000 impure.c
010341d8 l     O .rwdata	00000424 impure_data
00000000 l    df *ABS*	00000000 locale.c
0103461c l     O .rwdata	00000020 lc_ctype_charset
010345fc l     O .rwdata	00000020 lc_message_charset
0103463c l     O .rwdata	00000038 lconv
00000000 l    df *ABS*	00000000 makebuf.c
00000000 l    df *ABS*	00000000 mallocr.c
00000000 l    df *ABS*	00000000 memchr.c
00000000 l    df *ABS*	00000000 memcpy.c
00000000 l    df *ABS*	00000000 memmove.c
00000000 l    df *ABS*	00000000 memset.c
00000000 l    df *ABS*	00000000 mprec.c
01034048 l     O .rodata	0000000c p05.2678
00000000 l    df *ABS*	00000000 mallocr.c
00000000 l    df *ABS*	00000000 s_fpclassify.c
00000000 l    df *ABS*	00000000 sbrkr.c
00000000 l    df *ABS*	00000000 stdio.c
00000000 l    df *ABS*	00000000 strcmp.c
00000000 l    df *ABS*	00000000 vfprintf.c
0103416c l     O .rodata	00000010 zeroes.4110
0103417c l     O .rodata	00000010 blanks.4109
00000000 l    df *ABS*	00000000 vfprintf.c
0102d420 l     F .text	000000fc __sprint_r.part.0
0103419c l     O .rodata	00000010 blanks.4125
0103418c l     O .rodata	00000010 zeroes.4126
00000000 l    df *ABS*	00000000 writer.c
00000000 l    df *ABS*	00000000 closer.c
00000000 l    df *ABS*	00000000 mallocr.c
00000000 l    df *ABS*	00000000 fclose.c
00000000 l    df *ABS*	00000000 fputwc.c
00000000 l    df *ABS*	00000000 fstatr.c
00000000 l    df *ABS*	00000000 int_errno.c
00000000 l    df *ABS*	00000000 isattyr.c
00000000 l    df *ABS*	00000000 lseekr.c
00000000 l    df *ABS*	00000000 readr.c
00000000 l    df *ABS*	00000000 wbuf.c
00000000 l    df *ABS*	00000000 wcrtomb.c
00000000 l    df *ABS*	00000000 wctomb_r.c
00000000 l    df *ABS*	00000000 libgcc2.c
00000000 l    df *ABS*	00000000 libgcc2.c
00000000 l    df *ABS*	00000000 adddf3.c
00000000 l    df *ABS*	00000000 eqdf2.c
00000000 l    df *ABS*	00000000 gedf2.c
00000000 l    df *ABS*	00000000 ledf2.c
00000000 l    df *ABS*	00000000 subdf3.c
00000000 l    df *ABS*	00000000 floatunsidf.c
00000000 l    df *ABS*	00000000 alt_close.c
01031190 l     F .text	00000050 alt_get_errno
00000000 l    df *ABS*	00000000 alt_dev.c
010312b0 l     F .text	0000002c alt_dev_null_write
00000000 l    df *ABS*	00000000 alt_errno.c
00000000 l    df *ABS*	00000000 alt_fstat.c
010312dc l     F .text	00000050 alt_get_errno
00000000 l    df *ABS*	00000000 alt_isatty.c
010313dc l     F .text	00000050 alt_get_errno
00000000 l    df *ABS*	00000000 alt_load.c
010314d0 l     F .text	00000064 alt_load_section
00000000 l    df *ABS*	00000000 alt_lseek.c
010315b4 l     F .text	00000050 alt_get_errno
00000000 l    df *ABS*	00000000 alt_main.c
00000000 l    df *ABS*	00000000 alt_malloc_lock.c
00000000 l    df *ABS*	00000000 alt_read.c
01031790 l     F .text	00000050 alt_get_errno
00000000 l    df *ABS*	00000000 alt_release_fd.c
00000000 l    df *ABS*	00000000 alt_sbrk.c
01035cb4 l     O .rwdata	00000004 heap_end
00000000 l    df *ABS*	00000000 alt_usleep.c
00000000 l    df *ABS*	00000000 alt_write.c
01031a1c l     F .text	00000050 alt_get_errno
00000000 l    df *ABS*	00000000 alt_sys_init.c
01031b64 l     F .text	00000038 alt_dev_reg
01034c24 l     O .rwdata	00001060 jtag_uart
00000000 l    df *ABS*	00000000 altera_avalon_jtag_uart_fd.c
00000000 l    df *ABS*	00000000 altera_avalon_jtag_uart_init.c
01031e54 l     F .text	00000204 altera_avalon_jtag_uart_irq
01032058 l     F .text	000000a8 altera_avalon_jtag_uart_timeout
00000000 l    df *ABS*	00000000 altera_avalon_jtag_uart_ioctl.c
00000000 l    df *ABS*	00000000 altera_avalon_jtag_uart_read.c
00000000 l    df *ABS*	00000000 altera_avalon_jtag_uart_write.c
00000000 l    df *ABS*	00000000 altera_avalon_timer_sc.c
01032678 l     F .text	00000074 alt_avalon_timer_sc_irq
00000000 l    df *ABS*	00000000 alt_alarm_start.c
00000000 l    df *ABS*	00000000 alt_busy_sleep.c
00000000 l    df *ABS*	00000000 alt_dcache_flush_all.c
00000000 l    df *ABS*	00000000 alt_dev_llist_insert.c
01032a50 l     F .text	00000050 alt_get_errno
00000000 l    df *ABS*	00000000 alt_do_ctors.c
00000000 l    df *ABS*	00000000 alt_do_dtors.c
00000000 l    df *ABS*	00000000 alt_icache_flush_all.c
00000000 l    df *ABS*	00000000 alt_iic.c
00000000 l    df *ABS*	00000000 alt_iic_isr_register.c
00000000 l    df *ABS*	00000000 alt_io_redirect.c
01032efc l     F .text	000000c0 alt_open_fd
00000000 l    df *ABS*	00000000 alt_irq_vars.c
00000000 l    df *ABS*	00000000 alt_open.c
01033034 l     F .text	00000050 alt_get_errno
01033084 l     F .text	000000cc alt_file_locked
00000000 l    df *ABS*	00000000 alt_tick.c
00000000 l    df *ABS*	00000000 altera_nios2_gen2_irq.c
00000000 l    df *ABS*	00000000 alt_find_dev.c
00000000 l    df *ABS*	00000000 alt_find_file.c
00000000 l    df *ABS*	00000000 alt_get_fd.c
00000000 l    df *ABS*	00000000 alt_icache_flush.c
00000000 l    df *ABS*	00000000 atexit.c
00000000 l    df *ABS*	00000000 exit.c
00000000 l    df *ABS*	00000000 memcmp.c
00000000 l    df *ABS*	00000000 __atexit.c
00000000 l    df *ABS*	00000000 __call_atexit.c
00000000 l    df *ABS*	00000000 alt_exit.c
010377e4 g     O .bss	00000004 alt_instruction_exception_handler
0102b830 g     F .text	00000074 _mprec_log10
0102b91c g     F .text	0000008c __any_on
0102ed70 g     F .text	00000054 _isatty_r
01034054 g     O .rodata	00000028 __mprec_tinytens
010316d8 g     F .text	00000078 alt_main
01022dbc g     F .text	000000b8 _puts_r
01037810 g     O .bss	00000100 alt_irq
0102edc4 g     F .text	0000005c _lseek_r
01020600 g     F .text	00000060 ACK_check
01035cc4 g       *ABS*	00000000 __flash_rwdata_start
01020574 g     F .text	0000008c ACK_single_check
010305d8 g     F .text	00000084 .hidden __eqdf2
01037910 g       *ABS*	00000000 __alt_heap_start
01022d80 g     F .text	0000003c printf
0102efec g     F .text	0000009c _wcrtomb_r
0102c0e8 g     F .text	0000005c __sseek
010290c4 g     F .text	00000010 __sinit
0102ee7c g     F .text	00000154 __swbuf_r
01029b3c g     F .text	0000007c _setlocale_r
01028f30 g     F .text	00000064 __sfmoreglue
01031770 g     F .text	00000020 __malloc_unlock
0102a79c g     F .text	0000015c memmove
01020660 g     F .text	000001fc OC_I2C_Write
010290ac g     F .text	00000018 _cleanup
0102aa1c g     F .text	000000a8 _Balloc
0103065c g     F .text	000000e0 .hidden __gtdf2
01033444 g     F .text	00000020 altera_nios2_gen2_irq_init
00000000  w      *UND*	00000000 __errno
01020000 g     F .entry	0000001c __reset
01020020 g       *ABS*	00000000 __flash_exceptions_start
0102ed18 g     F .text	00000058 _fstat_r
010377c8 g     O .bss	00000004 errno
0102c064 g     F .text	00000008 __seofread
0102c3b8 g     F .text	00001068 ___svfiprintf_internal_r
010377d0 g     O .bss	00000004 alt_argv
0103dc84 g       *ABS*	00000000 _gp
010319ec g     F .text	00000030 usleep
01034aa4 g     O .rwdata	00000180 alt_fd_list
01033464 g     F .text	00000090 alt_find_dev
0102a664 g     F .text	00000138 memcpy
01020394 g     F .text	0000014c oc_i2c_init_ex
01028d84 g     F .text	0000000c _cleanup_r
01022978 g     F .text	000000d0 .hidden __floatsidf
01032fbc g     F .text	00000078 alt_io_redirect
0103073c g     F .text	000000e0 .hidden __ltdf2
01033b88 g       *ABS*	00000000 __DTOR_END__
01022e74 g     F .text	00000014 puts
01033748 g     F .text	0000009c alt_exception_cause_generated_bad_addr
0102bf48 g     F .text	00000074 __fpclassifyd
0102b78c g     F .text	000000a4 __ratio
0102e890 g     F .text	00000024 __vfiprintf_internal
01032254 g     F .text	0000020c altera_avalon_jtag_uart_read
00000000  w      *UND*	00000000 malloc
01022d54 g     F .text	0000002c _printf_r
010218f0 g     F .text	00000008 .hidden __udivsi3
0103142c g     F .text	000000a4 isatty
010340a4 g     O .rodata	000000c8 __mprec_tens
01029bb8 g     F .text	0000000c __locale_charset
01027084 g     F .text	00000040 vsnprintf
010336bc g     F .text	0000008c alt_icache_flush
010377c4 g     O .bss	00000004 __malloc_top_pad
01035c8c g     O .rwdata	00000004 __mb_cur_max
01029be8 g     F .text	0000000c _localeconv_r
0102ae1c g     F .text	0000003c __i2b
01029528 g     F .text	000004a4 __sfvwrite_r
0102bfbc g     F .text	00000054 _sbrk_r
01021110 g     F .text	00000090 myprintf_dword_array
0102ee20 g     F .text	0000005c _read_r
01035cac g     O .rwdata	00000004 alt_max_fd
0102ea28 g     F .text	00000100 _fclose_r
01028d44 g     F .text	00000030 fflush
010377c0 g     O .bss	00000004 __malloc_max_sbrked_mem
01022a48 g     F .text	00000110 .hidden __extendsfdf2
0102fd3c g     F .text	0000089c .hidden __adddf3
0102b534 g     F .text	0000011c __b2d
0102f7ac g     F .text	00000590 .hidden __umoddi3
01031604 g     F .text	000000d4 lseek
01035c84 g     O .rwdata	00000004 _global_impure_ptr
010211a0 g     F .text	000000f8 LIS2DH12_wr_reg
0102b9a8 g     F .text	000005a0 _realloc_r
01037910 g       *ABS*	00000000 __bss_end
01032e0c g     F .text	000000f0 alt_iic_isr_register
01033340 g     F .text	00000104 alt_tick
0102f1ec g     F .text	000005c0 .hidden __udivdi3
0102eb3c g     F .text	00000184 _fputwc_r
0103407c g     O .rodata	00000028 __mprec_bigtens
0102ac00 g     F .text	00000104 __s2b
010310ec g     F .text	000000a4 .hidden __floatunsidf
0102b2dc g     F .text	00000060 __mcmp
010290e4 g     F .text	00000018 __fp_lock_all
01032dc0 g     F .text	0000004c alt_ic_irq_enabled
01020bc4 g     F .text	000001d8 OC_I2CL_Write
010332a8 g     F .text	00000098 alt_alarm_stop
010377d8 g     O .bss	00000004 alt_irq_active
0102085c g     F .text	00000064 ACK_judge_for_read
010200fc g     F .exceptions	000000d0 alt_irq_handler
01034a7c g     O .rwdata	00000028 alt_dev_null
0102028c g     F .text	00000058 Write32_Data
01032a0c g     F .text	00000044 alt_dcache_flush_all
0102ad04 g     F .text	00000068 __hi0bits
010228f0 g     F .text	00000088 .hidden __fixdfsi
01035cc4 g       *ABS*	00000000 __ram_rwdata_end
01035ca4 g     O .rwdata	00000008 alt_dev_list
01031a6c g     F .text	000000f8 write
010341d8 g       *ABS*	00000000 __ram_rodata_end
0103132c g     F .text	000000b0 fstat
0103073c g     F .text	000000e0 .hidden __ledf2
0102101c g     F .text	0000006c myprintf
0102b054 g     F .text	00000140 __pow5mult
0102d534 g     F .text	0000135c ___vfiprintf_internal_r
010377b8 g     O .bss	00000004 __nlocale_changed
010218f8 g     F .text	00000008 .hidden __umodsi3
01037910 g       *ABS*	00000000 end
01031d90 g     F .text	000000c4 altera_avalon_jtag_uart_init
010201cc g     F .exceptions	00000074 alt_instruction_exception_entry
01033b88 g       *ABS*	00000000 __CTOR_LIST__
0103d4c0 g       *ABS*	00000000 __alt_stack_pointer
010326ec g     F .text	00000088 alt_avalon_timer_sc_init
01022cf0 g     F .text	00000064 .hidden __clzsi2
01032460 g     F .text	00000218 altera_avalon_jtag_uart_write
010290d4 g     F .text	00000004 __sfp_lock_acquire
0102a57c g     F .text	000000e8 memchr
01024f74 g     F .text	00001ffc ___vfprintf_internal_r
01022e88 g     F .text	00000058 _sprintf_r
01029238 g     F .text	000002f0 _free_r
01029bc4 g     F .text	00000010 __locale_mb_cur_max
010339c0 g     F .text	00000194 __call_exitprocs
010377b4 g     O .bss	00000004 __mlocale_changed
01035c90 g     O .rwdata	00000004 __malloc_sbrk_base
01020240 g     F .text	0000004c _start
010377dc g     O .bss	00000004 _alt_tick_rate
0102b194 g     F .text	00000148 __lshift
010377e0 g     O .bss	00000004 _alt_nticks
010317e0 g     F .text	000000fc read
01031bd0 g     F .text	0000005c alt_sys_init
0102c1f0 g     F .text	000001c8 __ssprint_r
010338ac g     F .text	00000114 __register_exitproc
0102ae58 g     F .text	000001fc __multiply
01032100 g     F .text	00000068 altera_avalon_jtag_uart_close
010341d8 g       *ABS*	00000000 __ram_rwdata_start
01033b88 g       *ABS*	00000000 __ram_rodata_start
010377e8 g     O .bss	00000028 __malloc_current_mallinfo
0102b650 g     F .text	0000013c __d2b
01031c2c g     F .text	00000060 altera_avalon_jtag_uart_read_fd
01033608 g     F .text	000000b4 alt_get_fd
010328b4 g     F .text	00000158 alt_busy_sleep
0102e910 g     F .text	00000054 _close_r
01033830 g     F .text	0000007c memcmp
01031cec g     F .text	00000050 altera_avalon_jtag_uart_close_fd
01037910 g       *ABS*	00000000 __alt_stack_base
01031d3c g     F .text	00000054 altera_avalon_jtag_uart_ioctl_fd
010270c4 g     F .text	00000130 __swsetup_r
0102033c g     F .text	00000058 oc_i2c_init
01021900 g     F .text	000008cc .hidden __divdf3
01028f94 g     F .text	00000118 __sfp
0102b8a4 g     F .text	00000078 __copybits
01034674 g     O .rwdata	00000408 __malloc_av_
010290e0 g     F .text	00000004 __sinit_lock_release
01026f94 g     F .text	000000f0 _vsnprintf_r
010221cc g     F .text	00000724 .hidden __muldf3
0102c010 g     F .text	00000054 __sread
010334f4 g     F .text	00000114 alt_find_file
01032aa0 g     F .text	000000a4 alt_dev_llist_insert
01031750 g     F .text	00000020 __malloc_lock
0103193c g     F .text	000000b0 sbrk
01022fe4 g     F .text	00001f90 ___svfprintf_internal_r
01028b1c g     F .text	00000228 _fflush_r
0102e964 g     F .text	000000c4 _calloc_r
010377b0 g       *ABS*	00000000 __bss_start
0102a8f8 g     F .text	00000124 memset
0102137c g     F .text	00000458 main
010377d4 g     O .bss	00000004 alt_envp
010377bc g     O .bss	00000004 __malloc_max_total_mem
01031c8c g     F .text	00000060 altera_avalon_jtag_uart_write_fd
0102efd0 g     F .text	0000001c __swbuf
0102c144 g     F .text	00000008 __sclose
0103d4c0 g       *ABS*	00000000 __alt_heap_limit
0102eb28 g     F .text	00000014 fclose
01022b58 g     F .text	00000198 .hidden __truncdfsf2
010273f4 g     F .text	00001728 _dtoa_r
01029dd4 g     F .text	000007a8 _malloc_r
0102f160 g     F .text	00000030 __ascii_wctomb
01035cb0 g     O .rwdata	00000004 alt_errno
010299cc g     F .text	000000b8 _fwalk
01021840 g     F .text	00000054 .hidden __divsi3
010204e0 g     F .text	00000094 oc_i2c_uninit
01029114 g     F .text	00000124 _malloc_trim_r
01033b88 g       *ABS*	00000000 __CTOR_END__
0102c14c g     F .text	000000a4 strcmp
01033b88 g       *ABS*	00000000 __flash_rodata_start
01033b88 g       *ABS*	00000000 __DTOR_LIST__
010305d8 g     F .text	00000084 .hidden __nedf2
01031b9c g     F .text	00000034 alt_irq_init
010318dc g     F .text	00000060 alt_release_fd
01022ee0 g     F .text	0000006c sprintf
01033ea0 g     O .rodata	00000100 .hidden __clz_tab
01020fec g     F .text	00000030 debug_output
010377b0 g     O .bss	00000004 _PathLocale
010337e4 g     F .text	00000014 atexit
0102e8b4 g     F .text	0000005c _write_r
01029bf4 g     F .text	0000001c setlocale
01035c88 g     O .rwdata	00000004 _impure_ptr
010377cc g     O .bss	00000004 alt_argc
01021298 g     F .text	000000e4 LIS2DH12_Init
01032ba0 g     F .text	0000005c _do_dtors
01029be0 g     F .text	00000008 __locale_cjk_lang
01020020 g       .exceptions	00000000 alt_irq_entry
0102b4d4 g     F .text	00000060 __ulp
010290fc g     F .text	00000018 __fp_unlock_all
01035c9c g     O .rwdata	00000008 alt_fs_list
01021088 g     F .text	00000088 myprintf_hex_array
010202e4 g     F .text	00000058 Read32_Data
010208c0 g     F .text	000001cc OC_I2C_Read
01020020 g       *ABS*	00000000 __ram_exceptions_start
01029c10 g     F .text	0000000c localeconv
01020000 g       *ABS*	00000000 __alt_mem_onchip_memory2
01032c2c g     F .text	00000050 alt_ic_isr_register
01035cc4 g       *ABS*	00000000 _edata
01037910 g       *ABS*	00000000 _end
01020240 g       *ABS*	00000000 __ram_exceptions_end
01032168 g     F .text	000000ec altera_avalon_jtag_uart_ioctl
01032d1c g     F .text	000000a4 alt_ic_irq_disable
0102c06c g     F .text	0000007c __swrite
01035c94 g     O .rwdata	00000004 __malloc_trim_threshold
01020a8c g     F .text	00000138 OC_I2C_Read_Continue
01029bd4 g     F .text	0000000c __locale_msgcharset
010337f8 g     F .text	00000038 exit
01029a84 g     F .text	000000b8 _fwalk_reent
0102b33c g     F .text	00000198 __mdiff
01021894 g     F .text	0000005c .hidden __modsi3
0103d4c0 g       *ABS*	00000000 __alt_data_end
01020020 g     F .exceptions	00000000 alt_exception
010290d8 g     F .text	00000004 __sfp_lock_release
01020d9c g     F .text	00000250 OC_I2CL_Read
01033b54 g     F .text	00000034 _exit
01032774 g     F .text	00000140 alt_alarm_start
01029c1c g     F .text	000001b8 __smakebuf_r
01022f4c g     F .text	00000098 strlen
01033150 g     F .text	00000158 open
0103065c g     F .text	000000e0 .hidden __gedf2
01035c98 g     O .rwdata	00000004 __wctomb
0102d51c g     F .text	00000018 __sprint_r
01032bfc g     F .text	00000030 alt_icache_flush_all
01035cb8 g     O .rwdata	00000004 alt_priority_mask
01032c7c g     F .text	000000a0 alt_ic_irq_enable
01026f70 g     F .text	00000024 __vfprintf_internal
0102f190 g     F .text	0000005c _wctomb_r
0103081c g     F .text	000008d0 .hidden __subdf3
0102ad6c g     F .text	000000b0 __lo0bits
01035cbc g     O .rwdata	00000008 alt_alarm_list
01032b44 g     F .text	0000005c _do_ctors
0102f088 g     F .text	000000d8 wcrtomb
010311e0 g     F .text	000000d0 close
01031534 g     F .text	00000080 alt_load
0102ecc0 g     F .text	00000058 fputwc
00000000  w      *UND*	00000000 free
010290dc g     F .text	00000004 __sinit_lock_acquire
0102aaec g     F .text	00000114 __multadd
0102aac4 g     F .text	00000028 _Bfree



Disassembly of section .entry:

01020000 <__reset>:
#if NIOS2_ICACHE_SIZE > 0 && defined(ALT_ALLOW_CODE_AT_RESET) && (!defined(ALT_SIM_OPTIMIZE) || defined(NIOS2_ECC_PRESENT))
    /* Assume the instruction cache size is always a power of two. */
#if NIOS2_ICACHE_SIZE > 0x8000
    movhi r2, %hi(NIOS2_ICACHE_SIZE)
#else
    movui r2, NIOS2_ICACHE_SIZE
 1020000:	00840014 	movui	r2,4096
#endif

0:
    initi r2
 1020004:	1001483a 	initi	r2
    addi r2, r2, -NIOS2_ICACHE_LINE_SIZE
 1020008:	10bff804 	addi	r2,r2,-32
    bgt r2, zero, 0b
 102000c:	00bffd16 	blt	zero,r2,1020004 <_gp+0xfffe2380>
 * Jump to the _start entry point in the .text section if reset code
 * is allowed or if optimizing for RTL simulation.
 */
#if defined(ALT_ALLOW_CODE_AT_RESET) || defined(ALT_SIM_OPTIMIZE)
    /* Jump to the _start entry point in the .text section. */
    movhi r1, %hi(_start)
 1020010:	004040b4 	movhi	at,258
    ori r1, r1, %lo(_start)
 1020014:	08409014 	ori	at,at,576
    jmp r1
 1020018:	0800683a 	jmp	at
 102001c:	00000000 	call	0 <__reset-0x1020000>

Disassembly of section .exceptions:

01020020 <alt_exception>:

#else /* ALT_EXCEPTION_STACK disabled */
        /* 
         * Reserve space on normal stack for registers about to be pushed.
         */
        addi  sp, sp, -76
 1020020:	deffed04 	addi	sp,sp,-76
         * documentation for details).
         *
         * Leave a gap in the stack frame at 4(sp) for the muldiv handler to
         * store zero into.
         */
        stw   ra,  0(sp)
 1020024:	dfc00015 	stw	ra,0(sp)
        stw   r1,   8(sp)
 1020028:	d8400215 	stw	at,8(sp)
        stw   r2,  12(sp)
 102002c:	d8800315 	stw	r2,12(sp)
        stw   r3,  16(sp)
 1020030:	d8c00415 	stw	r3,16(sp)
        stw   r4,  20(sp)
 1020034:	d9000515 	stw	r4,20(sp)
        stw   r5,  24(sp)
 1020038:	d9400615 	stw	r5,24(sp)
        stw   r6,  28(sp)
 102003c:	d9800715 	stw	r6,28(sp)
        stw   r7,  32(sp)
 1020040:	d9c00815 	stw	r7,32(sp)
        rdctl r5, estatus   /* Read early to avoid usage stall */
 1020044:	000b307a 	rdctl	r5,estatus
        stw   r8,  36(sp)
 1020048:	da000915 	stw	r8,36(sp)
        stw   r9,  40(sp)
 102004c:	da400a15 	stw	r9,40(sp)
        stw   r10, 44(sp)
 1020050:	da800b15 	stw	r10,44(sp)
        stw   r11, 48(sp)
 1020054:	dac00c15 	stw	r11,48(sp)
        stw   r12, 52(sp)
 1020058:	db000d15 	stw	r12,52(sp)
        stw   r13, 56(sp)
 102005c:	db400e15 	stw	r13,56(sp)
        stw   r14, 60(sp)
 1020060:	db800f15 	stw	r14,60(sp)
        stw   r15, 64(sp)
 1020064:	dbc01015 	stw	r15,64(sp)
        /*
         * ea-4 contains the address of the instruction being executed
         * when the exception occured. For interrupt exceptions, we will
         * will be re-issue the isntruction. Store it in 72(sp)
         */
        stw   r5,  68(sp)  /* estatus */
 1020068:	d9401115 	stw	r5,68(sp)
        addi  r15, ea, -4  /* instruction that caused exception */
 102006c:	ebffff04 	addi	r15,ea,-4
        stw   r15,  72(sp)
 1020070:	dbc01215 	stw	r15,72(sp)
#else
        /*
         * Test to see if the exception was a software exception or caused 
         * by an external interrupt, and vector accordingly.
         */
        rdctl r4, ipending
 1020074:	0009313a 	rdctl	r4,ipending
        andi  r2, r5, 1
 1020078:	2880004c 	andi	r2,r5,1
        beq   r2, zero, .Lnot_irq
 102007c:	10000326 	beq	r2,zero,102008c <alt_exception+0x6c>
        beq   r4, zero, .Lnot_irq
 1020080:	20000226 	beq	r4,zero,102008c <alt_exception+0x6c>
        /*
         * Now that all necessary registers have been preserved, call 
         * alt_irq_handler() to process the interrupts.
         */

        call alt_irq_handler
 1020084:	10200fc0 	call	10200fc <alt_irq_handler>

        .section .exceptions.irqreturn, "xa"

        br    .Lexception_exit
 1020088:	00000706 	br	10200a8 <alt_exception+0x88>
         * upon completion, so we write ea (address of instruction *after*
         * the one where the exception occured) into 72(sp). The actual
         * instruction that caused the exception is written in r2, which these
         * handlers will utilize.
         */
        stw   ea,  72(sp)  /* Don't re-issue */
 102008c:	df401215 	stw	ea,72(sp)
        ldhu.n  r2, 0(r4)
        ldhu.n  r3, 2(r4)
        slli.n  r3, r3, 16
        or.n    r2, r2, r3 /* Instruction that caused exception */
#else
        ldw   r2, -4(ea)   /* Instruction that caused exception */
 1020090:	e8bfff17 	ldw	r2,-4(ea)
         * debugger is present) or go into an infinite loop since the
         * handling behavior is undefined; in that case we will not return here.
         */

        /* Load exception-causing address as first argument (r4) */
        addi   r4, ea, -4
 1020094:	e93fff04 	addi	r4,ea,-4

        /* Call the instruction-exception entry */
        call   alt_instruction_exception_entry
 1020098:	10201cc0 	call	10201cc <alt_instruction_exception_entry>
         * instruction
         *
         * Return code was 0: Skip. The instruction after the exception is
         * already stored in 72(sp).
         */
        bne   r2, r0, .Lexception_exit
 102009c:	1000021e 	bne	r2,zero,10200a8 <alt_exception+0x88>

        /*
         * Otherwise, modify 72(sp) to re-issue the instruction that caused the
         * exception.
         */
        addi  r15, ea, -4  /* instruction that caused exception */
 10200a0:	ebffff04 	addi	r15,ea,-4
        stw   r15,  72(sp)
 10200a4:	dbc01215 	stw	r15,72(sp)
        /* 
         * Restore the saved registers, so that all general purpose registers 
         * have been restored to their state at the time the interrupt occured.
         */

        ldw   r5,  68(sp)
 10200a8:	d9401117 	ldw	r5,68(sp)
        ldw   ea,  72(sp)  /* This becomes the PC once eret is executed */
 10200ac:	df401217 	ldw	ea,72(sp)
        ldw   ra,   0(sp)
 10200b0:	dfc00017 	ldw	ra,0(sp)

        wrctl estatus, r5
 10200b4:	2801707a 	wrctl	estatus,r5

        ldw   r1,   8(sp)
 10200b8:	d8400217 	ldw	at,8(sp)
        ldw   r2,  12(sp)
 10200bc:	d8800317 	ldw	r2,12(sp)
        ldw   r3,  16(sp)
 10200c0:	d8c00417 	ldw	r3,16(sp)
        ldw   r4,  20(sp)
 10200c4:	d9000517 	ldw	r4,20(sp)
        ldw   r5,  24(sp)
 10200c8:	d9400617 	ldw	r5,24(sp)
        ldw   r6,  28(sp)
 10200cc:	d9800717 	ldw	r6,28(sp)
        ldw   r7,  32(sp)
 10200d0:	d9c00817 	ldw	r7,32(sp)

#if defined(ALT_EXCEPTION_STACK) && defined(ALT_STACK_CHECK)
        ldw   et, %gprel(alt_exception_old_stack_limit)(gp)
#endif

        ldw   r8,  36(sp)
 10200d4:	da000917 	ldw	r8,36(sp)
        ldw   r9,  40(sp)
 10200d8:	da400a17 	ldw	r9,40(sp)
        ldw   r10, 44(sp)
 10200dc:	da800b17 	ldw	r10,44(sp)
        ldw   r11, 48(sp)
 10200e0:	dac00c17 	ldw	r11,48(sp)
        ldw   r12, 52(sp)
 10200e4:	db000d17 	ldw	r12,52(sp)
        ldw   r13, 56(sp)
 10200e8:	db400e17 	ldw	r13,56(sp)
        ldw   r14, 60(sp)
 10200ec:	db800f17 	ldw	r14,60(sp)
        ldw   r15, 64(sp)
 10200f0:	dbc01017 	ldw	r15,64(sp)
        stw   et, %gprel(alt_stack_limit_value)(gp)
        stw   zero, %gprel(alt_exception_old_stack_limit)(gp)
#endif /* ALT_STACK_CHECK */
        ldw   sp,  76(sp)
#else /* ALT_EXCEPTION_STACK disabled */
        addi  sp, sp, 76
 10200f4:	dec01304 	addi	sp,sp,76

        /*
         * Return to the interrupted instruction.
         */

        eret
 10200f8:	ef80083a 	eret

010200fc <alt_irq_handler>:
 * instruction is present if the macro ALT_CI_INTERRUPT_VECTOR defined.
 */

void alt_irq_handler (void) __attribute__ ((section (".exceptions")));
void alt_irq_handler (void)
{
 10200fc:	defff904 	addi	sp,sp,-28
 1020100:	dfc00615 	stw	ra,24(sp)
 1020104:	df000515 	stw	fp,20(sp)
 1020108:	df000504 	addi	fp,sp,20
  
  /*
   * Notify the operating system that we are at interrupt level.
   */ 
  
  ALT_OS_INT_ENTER();
 102010c:	0001883a 	nop
#ifndef NIOS2_EIC_PRESENT
static ALT_INLINE alt_u32 ALT_ALWAYS_INLINE alt_irq_pending (void)
{
  alt_u32 active;

  NIOS2_READ_IPENDING (active);
 1020110:	0005313a 	rdctl	r2,ipending
 1020114:	e0bffe15 	stw	r2,-8(fp)

  return active;
 1020118:	e0bffe17 	ldw	r2,-8(fp)
   * Consider the case where the high priority interupt is asserted during
   * the interrupt entry sequence for a lower priority interrupt to see why
   * this is the case.
   */

  active = alt_irq_pending ();
 102011c:	e0bffb15 	stw	r2,-20(fp)

  do
  {
    i = 0;
 1020120:	e03ffd15 	stw	zero,-12(fp)
    mask = 1;
 1020124:	00800044 	movi	r2,1
 1020128:	e0bffc15 	stw	r2,-16(fp)
     * called to clear the interrupt condition.
     */

    do
    {
      if (active & mask)
 102012c:	e0fffb17 	ldw	r3,-20(fp)
 1020130:	e0bffc17 	ldw	r2,-16(fp)
 1020134:	1884703a 	and	r2,r3,r2
 1020138:	10001426 	beq	r2,zero,102018c <alt_irq_handler+0x90>
      { 
#ifdef ALT_ENHANCED_INTERRUPT_API_PRESENT
        alt_irq[i].handler(alt_irq[i].context); 
 102013c:	008040f4 	movhi	r2,259
 1020140:	109e0404 	addi	r2,r2,30736
 1020144:	e0fffd17 	ldw	r3,-12(fp)
 1020148:	180690fa 	slli	r3,r3,3
 102014c:	10c5883a 	add	r2,r2,r3
 1020150:	10c00017 	ldw	r3,0(r2)
 1020154:	008040f4 	movhi	r2,259
 1020158:	109e0404 	addi	r2,r2,30736
 102015c:	e13ffd17 	ldw	r4,-12(fp)
 1020160:	200890fa 	slli	r4,r4,3
 1020164:	1105883a 	add	r2,r2,r4
 1020168:	10800104 	addi	r2,r2,4
 102016c:	10800017 	ldw	r2,0(r2)
 1020170:	1009883a 	mov	r4,r2
 1020174:	183ee83a 	callr	r3
#else
        alt_irq[i].handler(alt_irq[i].context, i); 
#endif
        break;
 1020178:	0001883a 	nop
#ifndef NIOS2_EIC_PRESENT
static ALT_INLINE alt_u32 ALT_ALWAYS_INLINE alt_irq_pending (void)
{
  alt_u32 active;

  NIOS2_READ_IPENDING (active);
 102017c:	0005313a 	rdctl	r2,ipending
 1020180:	e0bfff15 	stw	r2,-4(fp)

  return active;
 1020184:	e0bfff17 	ldw	r2,-4(fp)
 1020188:	00000706 	br	10201a8 <alt_irq_handler+0xac>
      }
      mask <<= 1;
 102018c:	e0bffc17 	ldw	r2,-16(fp)
 1020190:	1085883a 	add	r2,r2,r2
 1020194:	e0bffc15 	stw	r2,-16(fp)
      i++;
 1020198:	e0bffd17 	ldw	r2,-12(fp)
 102019c:	10800044 	addi	r2,r2,1
 10201a0:	e0bffd15 	stw	r2,-12(fp)

    } while (1);
 10201a4:	003fe106 	br	102012c <_gp+0xfffe24a8>

    active = alt_irq_pending ();
 10201a8:	e0bffb15 	stw	r2,-20(fp)
    
  } while (active);
 10201ac:	e0bffb17 	ldw	r2,-20(fp)
 10201b0:	103fdb1e 	bne	r2,zero,1020120 <_gp+0xfffe249c>

  /*
   * Notify the operating system that interrupt processing is complete.
   */ 

  ALT_OS_INT_EXIT();
 10201b4:	0001883a 	nop
}
 10201b8:	e037883a 	mov	sp,fp
 10201bc:	dfc00117 	ldw	ra,4(sp)
 10201c0:	df000017 	ldw	fp,0(sp)
 10201c4:	dec00204 	addi	sp,sp,8
 10201c8:	f800283a 	ret

010201cc <alt_instruction_exception_entry>:
 * that handler if it has been registered. Absent a handler, it will
 * break break or hang as discussed below.
 */
int 
alt_instruction_exception_entry (alt_u32 exception_pc)
{
 10201cc:	defffb04 	addi	sp,sp,-20
 10201d0:	dfc00415 	stw	ra,16(sp)
 10201d4:	df000315 	stw	fp,12(sp)
 10201d8:	df000304 	addi	fp,sp,12
 10201dc:	e13fff15 	stw	r4,-4(fp)
 * NIOS2_EXCEPTION_CAUSE_NOT_PRESENT. Your handling routine should
 * check the validity of the cause argument before proceeding.
 */
#ifdef NIOS2_HAS_EXTRA_EXCEPTION_INFO
  /* Get exception cause & "badaddr" */
  NIOS2_READ_EXCEPTION(cause);
 10201e0:	000531fa 	rdctl	r2,exception
 10201e4:	e0bffd15 	stw	r2,-12(fp)
  cause = ( (cause & NIOS2_EXCEPTION_REG_CAUSE_MASK) >>
 10201e8:	e0bffd17 	ldw	r2,-12(fp)
 10201ec:	10801f0c 	andi	r2,r2,124
 10201f0:	1004d0ba 	srli	r2,r2,2
 10201f4:	e0bffd15 	stw	r2,-12(fp)
              NIOS2_EXCEPTION_REG_CAUSE_OFST );

  NIOS2_READ_BADADDR(badaddr);
 10201f8:	0005333a 	rdctl	r2,badaddr
 10201fc:	e0bffe15 	stw	r2,-8(fp)
#else
  cause = NIOS2_EXCEPTION_CAUSE_NOT_PRESENT;
  badaddr = 0;
#endif /* NIOS2_HAS_EXTRA_EXCEPTION_INFO */

  if(alt_instruction_exception_handler) {
 1020200:	d0a6d817 	ldw	r2,-25760(gp)
 1020204:	10000726 	beq	r2,zero,1020224 <alt_instruction_exception_entry+0x58>
     * Call handler. Its return value indicates whether the exception-causing
     * instruction should be re-issued. The code that called us,
     * alt_eceptions_entry.S, will look at this value and adjust the ea
     * register as necessary
     */
    return alt_instruction_exception_handler(cause, exception_pc, badaddr);
 1020208:	d0a6d817 	ldw	r2,-25760(gp)
 102020c:	e0fffd17 	ldw	r3,-12(fp)
 1020210:	1809883a 	mov	r4,r3
 1020214:	e17fff17 	ldw	r5,-4(fp)
 1020218:	e1bffe17 	ldw	r6,-8(fp)
 102021c:	103ee83a 	callr	r2
 1020220:	00000206 	br	102022c <alt_instruction_exception_entry+0x60>
   *    (a peripheral which negates its interrupt output before its
   *    interrupt handler has been executed will cause spurious interrupts)
   */
  else {
#ifdef NIOS2_HAS_DEBUG_STUB
    NIOS2_BREAK();
 1020224:	003da03a 	break	0
      ;
#endif /* NIOS2_HAS_DEBUG_STUB */
  }

  /* We should not get here. Remove compiler warning. */
  return NIOS2_EXCEPTION_RETURN_REISSUE_INST;
 1020228:	0005883a 	mov	r2,zero
}
 102022c:	e037883a 	mov	sp,fp
 1020230:	dfc00117 	ldw	ra,4(sp)
 1020234:	df000017 	ldw	fp,0(sp)
 1020238:	dec00204 	addi	sp,sp,8
 102023c:	f800283a 	ret

Disassembly of section .text:

01020240 <_start>:

    /* Assume the data cache size is always a power of two. */
#if NIOS2_DCACHE_SIZE > 0x8000
    movhi r2, %hi(NIOS2_DCACHE_SIZE)
#else
    movui r2, NIOS2_DCACHE_SIZE
 1020240:	00820014 	movui	r2,2048
#endif

0:
    initd 0(r2)
 1020244:	10000033 	initd	0(r2)
#ifdef NIOS2_ECC_PRESENT
    addi r2, r2, -4
#else
    addi r2, r2, -NIOS2_DCACHE_LINE_SIZE
 1020248:	10bff804 	addi	r2,r2,-32
#endif
    bgt r2, zero, 0b
 102024c:	00bffd16 	blt	zero,r2,1020244 <_gp+0xfffe25c0>

    /*
     * Now that the caches are initialized, set up the stack pointer and global pointer.
     * The values provided by the linker are assumed to be correctly aligned.
     */
    movhi sp, %hi(__alt_stack_pointer)
 1020250:	06c040f4 	movhi	sp,259
    ori sp, sp, %lo(__alt_stack_pointer)
 1020254:	def53014 	ori	sp,sp,54464
    movhi gp, %hi(_gp)
 1020258:	068040f4 	movhi	gp,259
    ori gp, gp, %lo(_gp)
 102025c:	d6b72114 	ori	gp,gp,56452
 */
#ifndef ALT_SIM_OPTIMIZE
    /* Log that the BSS is about to be cleared. */
    ALT_LOG_PUTS(alt_log_msg_bss)

    movhi r2, %hi(__bss_start)
 1020260:	008040f4 	movhi	r2,259
    ori r2, r2, %lo(__bss_start)
 1020264:	109dec14 	ori	r2,r2,30640

    movhi r3, %hi(__bss_end)
 1020268:	00c040f4 	movhi	r3,259
    ori r3, r3, %lo(__bss_end)
 102026c:	18de4414 	ori	r3,r3,30992

    beq r2, r3, 1f
 1020270:	10c00326 	beq	r2,r3,1020280 <_start+0x40>

0:
    stw zero, (r2)
 1020274:	10000015 	stw	zero,0(r2)
    addi r2, r2, 4
 1020278:	10800104 	addi	r2,r2,4
    bltu r2, r3, 0b
 102027c:	10fffd36 	bltu	r2,r3,1020274 <_gp+0xfffe25f0>
     * section aren't defined until alt_load() has been called).
     */
    mov   et, zero
#endif

    call alt_load
 1020280:	10315340 	call	1031534 <alt_load>

    /* Log that alt_main is about to be called. */
    ALT_LOG_PUTS(alt_log_msg_alt_main)

    /* Call the C entry point. It should never return. */
    call alt_main
 1020284:	10316d80 	call	10316d8 <alt_main>

01020288 <alt_after_alt_main>:

    /* Wait in infinite loop in case alt_main does return. */
alt_after_alt_main:
    br alt_after_alt_main
 1020288:	003fff06 	br	1020288 <_gp+0xfffe2604>

0102028c <Write32_Data>:
#define SLEEP_TIME 15  //us
#define ACK_SLEEP_TIME 15  //us
#define TRUE 1
#define FALSE 0

bool Write32_Data(alt_32 base_address, alt_32 offset_address, alt_32 Data){
 102028c:	defffb04 	addi	sp,sp,-20
 1020290:	df000415 	stw	fp,16(sp)
 1020294:	df000404 	addi	fp,sp,16
 1020298:	e13ffd15 	stw	r4,-12(fp)
 102029c:	e17ffe15 	stw	r5,-8(fp)
 10202a0:	e1bfff15 	stw	r6,-4(fp)
	bool bPass;
    IOWR(base_address, offset_address,Data);
 10202a4:	e0bffe17 	ldw	r2,-8(fp)
 10202a8:	1085883a 	add	r2,r2,r2
 10202ac:	1085883a 	add	r2,r2,r2
 10202b0:	1007883a 	mov	r3,r2
 10202b4:	e0bffd17 	ldw	r2,-12(fp)
 10202b8:	1885883a 	add	r2,r3,r2
 10202bc:	1007883a 	mov	r3,r2
 10202c0:	e0bfff17 	ldw	r2,-4(fp)
 10202c4:	18800035 	stwio	r2,0(r3)
    bPass=TRUE;
 10202c8:	00800044 	movi	r2,1
 10202cc:	e0bffc15 	stw	r2,-16(fp)
    return bPass;
 10202d0:	e0bffc17 	ldw	r2,-16(fp)
}
 10202d4:	e037883a 	mov	sp,fp
 10202d8:	df000017 	ldw	fp,0(sp)
 10202dc:	dec00104 	addi	sp,sp,4
 10202e0:	f800283a 	ret

010202e4 <Read32_Data>:



bool  Read32_Data(alt_32 base_address, alt_32 offset_address, alt_32 *pData32){
 10202e4:	defffb04 	addi	sp,sp,-20
 10202e8:	df000415 	stw	fp,16(sp)
 10202ec:	df000404 	addi	fp,sp,16
 10202f0:	e13ffd15 	stw	r4,-12(fp)
 10202f4:	e17ffe15 	stw	r5,-8(fp)
 10202f8:	e1bfff15 	stw	r6,-4(fp)
	bool bPass;
	*pData32 =IORD(base_address ,offset_address  );
 10202fc:	e0bffe17 	ldw	r2,-8(fp)
 1020300:	1085883a 	add	r2,r2,r2
 1020304:	1085883a 	add	r2,r2,r2
 1020308:	1007883a 	mov	r3,r2
 102030c:	e0bffd17 	ldw	r2,-12(fp)
 1020310:	1885883a 	add	r2,r3,r2
 1020314:	10c00037 	ldwio	r3,0(r2)
 1020318:	e0bfff17 	ldw	r2,-4(fp)
 102031c:	10c00015 	stw	r3,0(r2)
	bPass=TRUE;
 1020320:	00800044 	movi	r2,1
 1020324:	e0bffc15 	stw	r2,-16(fp)
    return bPass;
 1020328:	e0bffc17 	ldw	r2,-16(fp)
}
 102032c:	e037883a 	mov	sp,fp
 1020330:	df000017 	ldw	fp,0(sp)
 1020334:	dec00104 	addi	sp,sp,4
 1020338:	f800283a 	ret

0102033c <oc_i2c_init>:

bool oc_i2c_init(alt_32 i2c_base){
 102033c:	defffa04 	addi	sp,sp,-24
 1020340:	dfc00515 	stw	ra,20(sp)
 1020344:	df000415 	stw	fp,16(sp)
 1020348:	df000404 	addi	fp,sp,16
 102034c:	e13fff15 	stw	r4,-4(fp)
	bool bSuccess;
	const alt_32 ref_clk = 50*1000*1000; // 50MHz
 1020350:	0080bef4 	movhi	r2,763
 1020354:	10bc2004 	addi	r2,r2,-3968
 1020358:	e0bffc15 	stw	r2,-16(fp)
	const alt_32 i2c_clk = 400*1000; // 400KHz
 102035c:	008001b4 	movhi	r2,6
 1020360:	1086a004 	addi	r2,r2,6784
 1020364:	e0bffd15 	stw	r2,-12(fp)

	bSuccess = oc_i2c_init_ex(i2c_base, ref_clk, i2c_clk);
 1020368:	e13fff17 	ldw	r4,-4(fp)
 102036c:	e17ffc17 	ldw	r5,-16(fp)
 1020370:	e1bffd17 	ldw	r6,-12(fp)
 1020374:	10203940 	call	1020394 <oc_i2c_init_ex>
 1020378:	e0bffe15 	stw	r2,-8(fp)

	return bSuccess;
 102037c:	e0bffe17 	ldw	r2,-8(fp)
}
 1020380:	e037883a 	mov	sp,fp
 1020384:	dfc00117 	ldw	ra,4(sp)
 1020388:	df000017 	ldw	fp,0(sp)
 102038c:	dec00204 	addi	sp,sp,8
 1020390:	f800283a 	ret

01020394 <oc_i2c_init_ex>:

bool  oc_i2c_init_ex(alt_32 i2c_base, alt_32 ref_clk, alt_32 i2c_clk)
{
 1020394:	defff604 	addi	sp,sp,-40
 1020398:	dfc00915 	stw	ra,36(sp)
 102039c:	df000815 	stw	fp,32(sp)
 10203a0:	df000804 	addi	fp,sp,32
 10203a4:	e13ffd15 	stw	r4,-12(fp)
 10203a8:	e17ffe15 	stw	r5,-8(fp)
 10203ac:	e1bfff15 	stw	r6,-4(fp)
	bool bSuccess=TRUE;
 10203b0:	00800044 	movi	r2,1
 10203b4:	e0bff815 	stw	r2,-32(fp)
	alt_32 read_data;
	alt_32 prescale;
	alt_u8 prescale_high;
	alt_u8 prescale_low;
	const alt_u8 ControlValue = 0x80;
 10203b8:	00bfe004 	movi	r2,-128
 10203bc:	e0bff905 	stb	r2,-28(fp)

    // I2c sysclock =50M hz
	// i2c scl max 400k
	//scl =sysclock/(prescale*5)
	prescale = (ref_clk/(5*i2c_clk))-1;
 10203c0:	e0bfff17 	ldw	r2,-4(fp)
 10203c4:	10800164 	muli	r2,r2,5
 10203c8:	e13ffe17 	ldw	r4,-8(fp)
 10203cc:	100b883a 	mov	r5,r2
 10203d0:	10218400 	call	1021840 <__divsi3>
 10203d4:	10bfffc4 	addi	r2,r2,-1
 10203d8:	e0bffa15 	stw	r2,-24(fp)
	prescale_low = prescale & 0xFF;
 10203dc:	e0bffa17 	ldw	r2,-24(fp)
 10203e0:	e0bffb05 	stb	r2,-20(fp)
	prescale_high = (prescale >> 8) & 0xFF;
 10203e4:	e0bffa17 	ldw	r2,-24(fp)
 10203e8:	1005d23a 	srai	r2,r2,8
 10203ec:	e0bffb45 	stb	r2,-19(fp)

   IOWR(i2c_base, 0, prescale_low);//write low byte of  prescale (reg 0)
 10203f0:	e0bffd17 	ldw	r2,-12(fp)
 10203f4:	e0fffb03 	ldbu	r3,-20(fp)
 10203f8:	10c00035 	stwio	r3,0(r2)
   IOWR(i2c_base, 1, prescale_high);//write high byte of prescale (reg 1)
 10203fc:	e0bffd17 	ldw	r2,-12(fp)
 1020400:	10800104 	addi	r2,r2,4
 1020404:	1007883a 	mov	r3,r2
 1020408:	e0bffb43 	ldbu	r2,-19(fp)
 102040c:	18800035 	stwio	r2,0(r3)

   //enable the I2C core, but disable the IRQ
   IOWR( i2c_base, 2, ControlValue);
 1020410:	e0bffd17 	ldw	r2,-12(fp)
 1020414:	10800204 	addi	r2,r2,8
 1020418:	1007883a 	mov	r3,r2
 102041c:	e0bff903 	ldbu	r2,-28(fp)
 1020420:	18800035 	stwio	r2,0(r3)


    // check prescale low byte
    if (bSuccess){
 1020424:	e0bff817 	ldw	r2,-32(fp)
 1020428:	10000826 	beq	r2,zero,102044c <oc_i2c_init_ex+0xb8>
    	read_data =IORD(i2c_base, 0);
 102042c:	e0bffd17 	ldw	r2,-12(fp)
 1020430:	10800037 	ldwio	r2,0(r2)
 1020434:	e0bffc15 	stw	r2,-16(fp)
        if( (read_data & 0x00ff) != prescale_low ){
 1020438:	e0bffc17 	ldw	r2,-16(fp)
 102043c:	10c03fcc 	andi	r3,r2,255
 1020440:	e0bffb03 	ldbu	r2,-20(fp)
 1020444:	18800126 	beq	r3,r2,102044c <oc_i2c_init_ex+0xb8>
            bSuccess = FALSE;
 1020448:	e03ff815 	stw	zero,-32(fp)
        }
    }

    // check prescale high byte
    if (bSuccess){
 102044c:	e0bff817 	ldw	r2,-32(fp)
 1020450:	10000926 	beq	r2,zero,1020478 <oc_i2c_init_ex+0xe4>
    	read_data =IORD(i2c_base, 1);
 1020454:	e0bffd17 	ldw	r2,-12(fp)
 1020458:	10800104 	addi	r2,r2,4
 102045c:	10800037 	ldwio	r2,0(r2)
 1020460:	e0bffc15 	stw	r2,-16(fp)
        if( (read_data & 0x00ff) != prescale_high ){
 1020464:	e0bffc17 	ldw	r2,-16(fp)
 1020468:	10c03fcc 	andi	r3,r2,255
 102046c:	e0bffb43 	ldbu	r2,-19(fp)
 1020470:	18800126 	beq	r3,r2,1020478 <oc_i2c_init_ex+0xe4>
            bSuccess = FALSE;
 1020474:	e03ff815 	stw	zero,-32(fp)
        }
    }

    // check control
    if (bSuccess){
 1020478:	e0bff817 	ldw	r2,-32(fp)
 102047c:	10000926 	beq	r2,zero,10204a4 <oc_i2c_init_ex+0x110>
    	read_data =IORD(i2c_base, 2);
 1020480:	e0bffd17 	ldw	r2,-12(fp)
 1020484:	10800204 	addi	r2,r2,8
 1020488:	10800037 	ldwio	r2,0(r2)
 102048c:	e0bffc15 	stw	r2,-16(fp)
        if( (read_data & 0x00ff) != ControlValue ){
 1020490:	e0bffc17 	ldw	r2,-16(fp)
 1020494:	10c03fcc 	andi	r3,r2,255
 1020498:	e0bff903 	ldbu	r2,-28(fp)
 102049c:	18800126 	beq	r3,r2,10204a4 <oc_i2c_init_ex+0x110>
            bSuccess = FALSE;
 10204a0:	e03ff815 	stw	zero,-32(fp)
        }
    }

   if (bSuccess)
 10204a4:	e0bff817 	ldw	r2,-32(fp)
 10204a8:	10000426 	beq	r2,zero,10204bc <oc_i2c_init_ex+0x128>
       printf("\nI2C core is enabled! \r\n");
 10204ac:	010040f4 	movhi	r4,259
 10204b0:	210ee204 	addi	r4,r4,15240
 10204b4:	1022e740 	call	1022e74 <puts>
 10204b8:	00000306 	br	10204c8 <oc_i2c_init_ex+0x134>
   else
       printf("\nI2C core is not enabled successfully! \r\n");
 10204bc:	010040f4 	movhi	r4,259
 10204c0:	210ee804 	addi	r4,r4,15264
 10204c4:	1022e740 	call	1022e74 <puts>

   return bSuccess;
 10204c8:	e0bff817 	ldw	r2,-32(fp)

}
 10204cc:	e037883a 	mov	sp,fp
 10204d0:	dfc00117 	ldw	ra,4(sp)
 10204d4:	df000017 	ldw	fp,0(sp)
 10204d8:	dec00204 	addi	sp,sp,8
 10204dc:	f800283a 	ret

010204e0 <oc_i2c_uninit>:

bool oc_i2c_uninit(alt_32 i2c_base)
{
 10204e0:	defffa04 	addi	sp,sp,-24
 10204e4:	dfc00515 	stw	ra,20(sp)
 10204e8:	df000415 	stw	fp,16(sp)
 10204ec:	df000404 	addi	fp,sp,16
 10204f0:	e13fff15 	stw	r4,-4(fp)
	bool bSuccess=TRUE;
 10204f4:	00800044 	movi	r2,1
 10204f8:	e0bffc15 	stw	r2,-16(fp)
	alt_32 read_data;
	const alt_u8 ControlValue = 0x00;
 10204fc:	e03ffd05 	stb	zero,-12(fp)

    IOWR( i2c_base, 2, ControlValue);
 1020500:	e0bfff17 	ldw	r2,-4(fp)
 1020504:	10800204 	addi	r2,r2,8
 1020508:	1007883a 	mov	r3,r2
 102050c:	e0bffd03 	ldbu	r2,-12(fp)
 1020510:	18800035 	stwio	r2,0(r3)
   	read_data =IORD(i2c_base, 2);
 1020514:	e0bfff17 	ldw	r2,-4(fp)
 1020518:	10800204 	addi	r2,r2,8
 102051c:	10800037 	ldwio	r2,0(r2)
 1020520:	e0bffe15 	stw	r2,-8(fp)
	if( (read_data & 0x00ff) != ControlValue ){
 1020524:	e0bffe17 	ldw	r2,-8(fp)
 1020528:	10c03fcc 	andi	r3,r2,255
 102052c:	e0bffd03 	ldbu	r2,-12(fp)
 1020530:	18800126 	beq	r3,r2,1020538 <oc_i2c_uninit+0x58>
            bSuccess = FALSE;
 1020534:	e03ffc15 	stw	zero,-16(fp)
    }

   if (bSuccess)
 1020538:	e0bffc17 	ldw	r2,-16(fp)
 102053c:	10000426 	beq	r2,zero,1020550 <oc_i2c_uninit+0x70>
       printf("\I2C core  is disabled! \r\n");
 1020540:	010040f4 	movhi	r4,259
 1020544:	210ef304 	addi	r4,r4,15308
 1020548:	1022e740 	call	1022e74 <puts>
 102054c:	00000306 	br	102055c <oc_i2c_uninit+0x7c>
   else
       printf("\I2C core is failed to disable! \r\n");
 1020550:	010040f4 	movhi	r4,259
 1020554:	210efa04 	addi	r4,r4,15336
 1020558:	1022e740 	call	1022e74 <puts>

   return bSuccess;
 102055c:	e0bffc17 	ldw	r2,-16(fp)

}
 1020560:	e037883a 	mov	sp,fp
 1020564:	dfc00117 	ldw	ra,4(sp)
 1020568:	df000017 	ldw	fp,0(sp)
 102056c:	dec00204 	addi	sp,sp,8
 1020570:	f800283a 	ret

01020574 <ACK_single_check>:




bool  ACK_single_check(alt_32 i2c_base)
{
 1020574:	defffb04 	addi	sp,sp,-20
 1020578:	dfc00415 	stw	ra,16(sp)
 102057c:	df000315 	stw	fp,12(sp)
 1020580:	df000304 	addi	fp,sp,12
 1020584:	e13fff15 	stw	r4,-4(fp)
	bool bSuccess=TRUE;
 1020588:	00800044 	movi	r2,1
 102058c:	e0bffd15 	stw	r2,-12(fp)
	alt_32 read_data;

    usleep(ACK_SLEEP_TIME);
 1020590:	010003c4 	movi	r4,15
 1020594:	10319ec0 	call	10319ec <usleep>
    read_data =IORD(i2c_base, 4);
 1020598:	e0bfff17 	ldw	r2,-4(fp)
 102059c:	10800404 	addi	r2,r2,16
 10205a0:	10800037 	ldwio	r2,0(r2)
 10205a4:	e0bffe15 	stw	r2,-8(fp)
    if(read_data & 0x02)
 10205a8:	e0bffe17 	ldw	r2,-8(fp)
 10205ac:	1080008c 	andi	r2,r2,2
 10205b0:	10000126 	beq	r2,zero,10205b8 <ACK_single_check+0x44>
            bSuccess = FALSE;
 10205b4:	e03ffd15 	stw	zero,-12(fp)
     if (bSuccess){
 10205b8:	e0bffd17 	ldw	r2,-12(fp)
 10205bc:	10000a26 	beq	r2,zero,10205e8 <ACK_single_check+0x74>
            usleep(ACK_SLEEP_TIME);
 10205c0:	010003c4 	movi	r4,15
 10205c4:	10319ec0 	call	10319ec <usleep>
            read_data =IORD(i2c_base, 4);
 10205c8:	e0bfff17 	ldw	r2,-4(fp)
 10205cc:	10800404 	addi	r2,r2,16
 10205d0:	10800037 	ldwio	r2,0(r2)
 10205d4:	e0bffe15 	stw	r2,-8(fp)
                if(read_data & 0x80)
 10205d8:	e0bffe17 	ldw	r2,-8(fp)
 10205dc:	1080200c 	andi	r2,r2,128
 10205e0:	10000126 	beq	r2,zero,10205e8 <ACK_single_check+0x74>
                    bSuccess = FALSE;
 10205e4:	e03ffd15 	stw	zero,-12(fp)
     }
    return bSuccess;
 10205e8:	e0bffd17 	ldw	r2,-12(fp)
}
 10205ec:	e037883a 	mov	sp,fp
 10205f0:	dfc00117 	ldw	ra,4(sp)
 10205f4:	df000017 	ldw	fp,0(sp)
 10205f8:	dec00204 	addi	sp,sp,8
 10205fc:	f800283a 	ret

01020600 <ACK_check>:


bool  ACK_check(alt_32 i2c_base){
 1020600:	defffb04 	addi	sp,sp,-20
 1020604:	dfc00415 	stw	ra,16(sp)
 1020608:	df000315 	stw	fp,12(sp)
 102060c:	df000304 	addi	fp,sp,12
 1020610:	e13fff15 	stw	r4,-4(fp)
    bool bSuccess = FALSE;
 1020614:	e03ffd15 	stw	zero,-12(fp)
    int i=0;
 1020618:	e03ffe15 	stw	zero,-8(fp)

    while(!bSuccess && i++ < 10){
 102061c:	00000306 	br	102062c <ACK_check+0x2c>
        bSuccess = ACK_single_check(i2c_base);
 1020620:	e13fff17 	ldw	r4,-4(fp)
 1020624:	10205740 	call	1020574 <ACK_single_check>
 1020628:	e0bffd15 	stw	r2,-12(fp)

bool  ACK_check(alt_32 i2c_base){
    bool bSuccess = FALSE;
    int i=0;

    while(!bSuccess && i++ < 10){
 102062c:	e0bffd17 	ldw	r2,-12(fp)
 1020630:	1000051e 	bne	r2,zero,1020648 <ACK_check+0x48>
 1020634:	e0bffe17 	ldw	r2,-8(fp)
 1020638:	10c00044 	addi	r3,r2,1
 102063c:	e0fffe15 	stw	r3,-8(fp)
 1020640:	10800290 	cmplti	r2,r2,10
 1020644:	103ff61e 	bne	r2,zero,1020620 <_gp+0xfffe299c>
        bSuccess = ACK_single_check(i2c_base);
    }

    return bSuccess;
 1020648:	e0bffd17 	ldw	r2,-12(fp)
}
 102064c:	e037883a 	mov	sp,fp
 1020650:	dfc00117 	ldw	ra,4(sp)
 1020654:	df000017 	ldw	fp,0(sp)
 1020658:	dec00204 	addi	sp,sp,8
 102065c:	f800283a 	ret

01020660 <OC_I2C_Write>:

bool  OC_I2C_Write(alt_32 i2c_base,alt_u8 device_address,alt_u8 sub_address, alt_u8 *pData, int nWriteLength)
{
 1020660:	defff904 	addi	sp,sp,-28
 1020664:	dfc00615 	stw	ra,24(sp)
 1020668:	df000515 	stw	fp,20(sp)
 102066c:	df000504 	addi	fp,sp,20
 1020670:	e13ffc15 	stw	r4,-16(fp)
 1020674:	2807883a 	mov	r3,r5
 1020678:	3005883a 	mov	r2,r6
 102067c:	e1ffff15 	stw	r7,-4(fp)
 1020680:	e0fffd05 	stb	r3,-12(fp)
 1020684:	e0bffe05 	stb	r2,-8(fp)
    //DWORD reg_data = 0x0;
    int i;
   //set the tx reg audio chip dev address with write bit
   if (!Write32_Data( i2c_base, 3,device_address)){
 1020688:	e0bffd03 	ldbu	r2,-12(fp)
 102068c:	e13ffc17 	ldw	r4,-16(fp)
 1020690:	014000c4 	movi	r5,3
 1020694:	100d883a 	mov	r6,r2
 1020698:	102028c0 	call	102028c <Write32_Data>
 102069c:	1000051e 	bne	r2,zero,10206b4 <OC_I2C_Write+0x54>
       printf("OC_I2C_Write error[0]\r\n");
 10206a0:	010040f4 	movhi	r4,259
 10206a4:	210f0304 	addi	r4,r4,15372
 10206a8:	1022e740 	call	1022e74 <puts>
       return FALSE;
 10206ac:	0005883a 	mov	r2,zero
 10206b0:	00006506 	br	1020848 <OC_I2C_Write+0x1e8>
   }
   //set STA and WR bits(bit7 and bit4)
   if (!Write32_Data( i2c_base, 4,0x90)){
 10206b4:	e13ffc17 	ldw	r4,-16(fp)
 10206b8:	01400104 	movi	r5,4
 10206bc:	01802404 	movi	r6,144
 10206c0:	102028c0 	call	102028c <Write32_Data>
 10206c4:	1000051e 	bne	r2,zero,10206dc <OC_I2C_Write+0x7c>
       printf("OC_I2C_Write error[1]\r\n");
 10206c8:	010040f4 	movhi	r4,259
 10206cc:	210f0904 	addi	r4,r4,15396
 10206d0:	1022e740 	call	1022e74 <puts>
       return FALSE;
 10206d4:	0005883a 	mov	r2,zero
 10206d8:	00005b06 	br	1020848 <OC_I2C_Write+0x1e8>
   }

   //wait TIP bit go to 0 to end Tx
    if(!ACK_check( i2c_base)){
 10206dc:	e13ffc17 	ldw	r4,-16(fp)
 10206e0:	10206000 	call	1020600 <ACK_check>
 10206e4:	1000051e 	bne	r2,zero,10206fc <OC_I2C_Write+0x9c>
        printf("OC_I2C_Write error[2]\r\n");
 10206e8:	010040f4 	movhi	r4,259
 10206ec:	210f0f04 	addi	r4,r4,15420
 10206f0:	1022e740 	call	1022e74 <puts>
        return FALSE;
 10206f4:	0005883a 	mov	r2,zero
 10206f8:	00005306 	br	1020848 <OC_I2C_Write+0x1e8>
    }
  // printf("\n receive ACK-device address! \n");

   //set the txr reg data with reg address + 1 data MSB
   if (!Write32_Data( i2c_base, 3,sub_address)){
 10206fc:	e0bffe03 	ldbu	r2,-8(fp)
 1020700:	e13ffc17 	ldw	r4,-16(fp)
 1020704:	014000c4 	movi	r5,3
 1020708:	100d883a 	mov	r6,r2
 102070c:	102028c0 	call	102028c <Write32_Data>
 1020710:	1000051e 	bne	r2,zero,1020728 <OC_I2C_Write+0xc8>
       printf("OC_I2C_Write error[3]\r\n");
 1020714:	010040f4 	movhi	r4,259
 1020718:	210f1504 	addi	r4,r4,15444
 102071c:	1022e740 	call	1022e74 <puts>
       return FALSE;
 1020720:	0005883a 	mov	r2,zero
 1020724:	00004806 	br	1020848 <OC_I2C_Write+0x1e8>
   }

   //set WR bits(bit4)
    if (!Write32_Data( i2c_base, 4,0x10)){
 1020728:	e13ffc17 	ldw	r4,-16(fp)
 102072c:	01400104 	movi	r5,4
 1020730:	01800404 	movi	r6,16
 1020734:	102028c0 	call	102028c <Write32_Data>
 1020738:	1000051e 	bne	r2,zero,1020750 <OC_I2C_Write+0xf0>
        printf("OC_I2C_Write error[4]\r\n");
 102073c:	010040f4 	movhi	r4,259
 1020740:	210f1b04 	addi	r4,r4,15468
 1020744:	1022e740 	call	1022e74 <puts>
        return FALSE;
 1020748:	0005883a 	mov	r2,zero
 102074c:	00003e06 	br	1020848 <OC_I2C_Write+0x1e8>
    }

   //wait TIP bit go to 0 to end Tx
    if(!ACK_check( i2c_base)){
 1020750:	e13ffc17 	ldw	r4,-16(fp)
 1020754:	10206000 	call	1020600 <ACK_check>
 1020758:	1000051e 	bne	r2,zero,1020770 <OC_I2C_Write+0x110>
        printf("OC_I2C_Write error[5]\r\n");
 102075c:	010040f4 	movhi	r4,259
 1020760:	210f2104 	addi	r4,r4,15492
 1020764:	1022e740 	call	1022e74 <puts>
        return FALSE;
 1020768:	0005883a 	mov	r2,zero
 102076c:	00003606 	br	1020848 <OC_I2C_Write+0x1e8>
    }
 //  printf("\n receive ACK-reg address! \n");

#if 1
    for( i=0;i<nWriteLength;i++){
 1020770:	e03ffb15 	stw	zero,-20(fp)
 1020774:	00002406 	br	1020808 <OC_I2C_Write+0x1a8>
        //set the txr reg data with the data
          if (!Write32_Data( i2c_base, 3,*(pData+i))){
 1020778:	e0bffb17 	ldw	r2,-20(fp)
 102077c:	e0ffff17 	ldw	r3,-4(fp)
 1020780:	1885883a 	add	r2,r3,r2
 1020784:	10800003 	ldbu	r2,0(r2)
 1020788:	10803fcc 	andi	r2,r2,255
 102078c:	e13ffc17 	ldw	r4,-16(fp)
 1020790:	014000c4 	movi	r5,3
 1020794:	100d883a 	mov	r6,r2
 1020798:	102028c0 	call	102028c <Write32_Data>
 102079c:	1000051e 	bne	r2,zero,10207b4 <OC_I2C_Write+0x154>
              printf("OC_I2C_Write error[6]\r\n");
 10207a0:	010040f4 	movhi	r4,259
 10207a4:	210f2704 	addi	r4,r4,15516
 10207a8:	1022e740 	call	1022e74 <puts>
              return FALSE;
 10207ac:	0005883a 	mov	r2,zero
 10207b0:	00002506 	br	1020848 <OC_I2C_Write+0x1e8>
          }

        //set STO and WR bits(bit7 and bit4)
         if (!Write32_Data( i2c_base, 4,0x10)){
 10207b4:	e13ffc17 	ldw	r4,-16(fp)
 10207b8:	01400104 	movi	r5,4
 10207bc:	01800404 	movi	r6,16
 10207c0:	102028c0 	call	102028c <Write32_Data>
 10207c4:	1000051e 	bne	r2,zero,10207dc <OC_I2C_Write+0x17c>
             printf("OC_I2C_Write error[7]\r\n");
 10207c8:	010040f4 	movhi	r4,259
 10207cc:	210f2d04 	addi	r4,r4,15540
 10207d0:	1022e740 	call	1022e74 <puts>
              return FALSE;
 10207d4:	0005883a 	mov	r2,zero
 10207d8:	00001b06 	br	1020848 <OC_I2C_Write+0x1e8>
         }

         //wait TIP bit go to 0 to end Tx
          if(!ACK_check( i2c_base)){
 10207dc:	e13ffc17 	ldw	r4,-16(fp)
 10207e0:	10206000 	call	1020600 <ACK_check>
 10207e4:	1000051e 	bne	r2,zero,10207fc <OC_I2C_Write+0x19c>
              printf("OC_I2C_Write error[8]\r\n");
 10207e8:	010040f4 	movhi	r4,259
 10207ec:	210f3304 	addi	r4,r4,15564
 10207f0:	1022e740 	call	1022e74 <puts>
              return FALSE;
 10207f4:	0005883a 	mov	r2,zero
 10207f8:	00001306 	br	1020848 <OC_I2C_Write+0x1e8>
        return FALSE;
    }
 //  printf("\n receive ACK-reg address! \n");

#if 1
    for( i=0;i<nWriteLength;i++){
 10207fc:	e0bffb17 	ldw	r2,-20(fp)
 1020800:	10800044 	addi	r2,r2,1
 1020804:	e0bffb15 	stw	r2,-20(fp)
 1020808:	e0fffb17 	ldw	r3,-20(fp)
 102080c:	e0800217 	ldw	r2,8(fp)
 1020810:	18bfd916 	blt	r3,r2,1020778 <_gp+0xfffe2af4>
   //wait TIP bit go to 0 to end Tx
    if(!ACK_check( i2c_base))
        return false;
#endif

     if (!Write32_Data( i2c_base, 4,0x40)){
 1020814:	e13ffc17 	ldw	r4,-16(fp)
 1020818:	01400104 	movi	r5,4
 102081c:	01801004 	movi	r6,64
 1020820:	102028c0 	call	102028c <Write32_Data>
 1020824:	1000051e 	bne	r2,zero,102083c <OC_I2C_Write+0x1dc>
         printf("OC_I2C_Write error[9]\r\n");
 1020828:	010040f4 	movhi	r4,259
 102082c:	210f3904 	addi	r4,r4,15588
 1020830:	1022e740 	call	1022e74 <puts>
         return FALSE;
 1020834:	0005883a 	mov	r2,zero
 1020838:	00000306 	br	1020848 <OC_I2C_Write+0x1e8>
     }
         //Sleep(10);
     //OS_msleep(1);
     usleep(SLEEP_TIME);
 102083c:	010003c4 	movi	r4,15
 1020840:	10319ec0 	call	10319ec <usleep>

  // printf("\n receive ACK-data! \n");

     return TRUE;
 1020844:	00800044 	movi	r2,1

}
 1020848:	e037883a 	mov	sp,fp
 102084c:	dfc00117 	ldw	ra,4(sp)
 1020850:	df000017 	ldw	fp,0(sp)
 1020854:	dec00204 	addi	sp,sp,8
 1020858:	f800283a 	ret

0102085c <ACK_judge_for_read>:


bool ACK_judge_for_read(alt_32 i2c_base)
{
 102085c:	defffb04 	addi	sp,sp,-20
 1020860:	dfc00415 	stw	ra,16(sp)
 1020864:	df000315 	stw	fp,12(sp)
 1020868:	df000304 	addi	fp,sp,12
 102086c:	e13fff15 	stw	r4,-4(fp)
	bool bSuccess;
    alt_32 this_data;

   // OS_msleep( SLEEP_TIME );
     usleep(ACK_SLEEP_TIME);
 1020870:	010003c4 	movi	r4,15
 1020874:	10319ec0 	call	10319ec <usleep>
    //   while(this_data & 0x02)
//   {
//      this_data =  Read32_Data ( hPCIe, i2c_base, 4);
//   }
    bSuccess =  Read32_Data ( i2c_base, 4, &this_data);
 1020878:	e0bffe04 	addi	r2,fp,-8
 102087c:	e13fff17 	ldw	r4,-4(fp)
 1020880:	01400104 	movi	r5,4
 1020884:	100d883a 	mov	r6,r2
 1020888:	10202e40 	call	10202e4 <Read32_Data>
 102088c:	e0bffd15 	stw	r2,-12(fp)
    if (bSuccess){
 1020890:	e0bffd17 	ldw	r2,-12(fp)
 1020894:	10000426 	beq	r2,zero,10208a8 <ACK_judge_for_read+0x4c>
        if(this_data & 0x02)
 1020898:	e0bffe17 	ldw	r2,-8(fp)
 102089c:	1080008c 	andi	r2,r2,2
 10208a0:	10000126 	beq	r2,zero,10208a8 <ACK_judge_for_read+0x4c>
            bSuccess = FALSE;
 10208a4:	e03ffd15 	stw	zero,-12(fp)
    }
   //wait the rx ACK signal 0-valid

    return bSuccess;
 10208a8:	e0bffd17 	ldw	r2,-12(fp)

}
 10208ac:	e037883a 	mov	sp,fp
 10208b0:	dfc00117 	ldw	ra,4(sp)
 10208b4:	df000017 	ldw	fp,0(sp)
 10208b8:	dec00204 	addi	sp,sp,8
 10208bc:	f800283a 	ret

010208c0 <OC_I2C_Read>:


bool  OC_I2C_Read(alt_32 i2c_base,alt_u8 device_address,alt_u8 sub_address, alt_u8 *pData8, int nReadLength){
 10208c0:	defff804 	addi	sp,sp,-32
 10208c4:	dfc00715 	stw	ra,28(sp)
 10208c8:	df000615 	stw	fp,24(sp)
 10208cc:	df000604 	addi	fp,sp,24
 10208d0:	e13ffc15 	stw	r4,-16(fp)
 10208d4:	2807883a 	mov	r3,r5
 10208d8:	3005883a 	mov	r2,r6
 10208dc:	e1ffff15 	stw	r7,-4(fp)
 10208e0:	e0fffd05 	stb	r3,-12(fp)
 10208e4:	e0bffe05 	stb	r2,-8(fp)
    //BYTE data = 0x0;
    alt_32 Data32;
    int i;

   //set the tx reg audio chip dev address with write bit
   IOWR( i2c_base, 3,device_address);
 10208e8:	e0bffc17 	ldw	r2,-16(fp)
 10208ec:	10800304 	addi	r2,r2,12
 10208f0:	1007883a 	mov	r3,r2
 10208f4:	e0bffd03 	ldbu	r2,-12(fp)
 10208f8:	18800035 	stwio	r2,0(r3)
   //set STA and WR bits(bit7 and bit4)
   IOWR( i2c_base, 4,0x90);
 10208fc:	e0bffc17 	ldw	r2,-16(fp)
 1020900:	10800404 	addi	r2,r2,16
 1020904:	1007883a 	mov	r3,r2
 1020908:	00802404 	movi	r2,144
 102090c:	18800035 	stwio	r2,0(r3)
   //wait TIP bit go to 0 to end Tx
   if (!ACK_check( i2c_base)){
 1020910:	e13ffc17 	ldw	r4,-16(fp)
 1020914:	10206000 	call	1020600 <ACK_check>
 1020918:	1000051e 	bne	r2,zero,1020930 <OC_I2C_Read+0x70>
       printf("OC_I2C_Read error[2]\r\n");
 102091c:	010040f4 	movhi	r4,259
 1020920:	210f3f04 	addi	r4,r4,15612
 1020924:	1022e740 	call	1022e74 <puts>
       return FALSE;
 1020928:	0005883a 	mov	r2,zero
 102092c:	00005206 	br	1020a78 <OC_I2C_Read+0x1b8>
   }
   IOWR(i2c_base, 3,sub_address);
 1020930:	e0bffc17 	ldw	r2,-16(fp)
 1020934:	10800304 	addi	r2,r2,12
 1020938:	1007883a 	mov	r3,r2
 102093c:	e0bffe03 	ldbu	r2,-8(fp)
 1020940:	18800035 	stwio	r2,0(r3)

   //set WR bits(bit4)
   IOWR( i2c_base, 4,0x10);
 1020944:	e0bffc17 	ldw	r2,-16(fp)
 1020948:	10800404 	addi	r2,r2,16
 102094c:	1007883a 	mov	r3,r2
 1020950:	00800404 	movi	r2,16
 1020954:	18800035 	stwio	r2,0(r3)
   //wait TIP bit go to 0 to end Tx
    if (!ACK_check( i2c_base)){
 1020958:	e13ffc17 	ldw	r4,-16(fp)
 102095c:	10206000 	call	1020600 <ACK_check>
 1020960:	1000051e 	bne	r2,zero,1020978 <OC_I2C_Read+0xb8>
        printf("OC_I2C_Read error[5]\r\n");
 1020964:	010040f4 	movhi	r4,259
 1020968:	210f4504 	addi	r4,r4,15636
 102096c:	1022e740 	call	1022e74 <puts>
        return FALSE;
 1020970:	0005883a 	mov	r2,zero
 1020974:	00004006 	br	1020a78 <OC_I2C_Read+0x1b8>
  // printf("\n read receive ACK-reg address! \n");

   //read
    //set the tx reg audio chip dev address with read bit 1

    IOWR(i2c_base, 3,device_address|0x01);
 1020978:	e0bffc17 	ldw	r2,-16(fp)
 102097c:	10800304 	addi	r2,r2,12
 1020980:	1007883a 	mov	r3,r2
 1020984:	e0bffd03 	ldbu	r2,-12(fp)
 1020988:	10800054 	ori	r2,r2,1
 102098c:	10803fcc 	andi	r2,r2,255
 1020990:	18800035 	stwio	r2,0(r3)

   //set STA and WR bits(bit7 and bit4)
    IOWR( i2c_base, 4,0x90);
 1020994:	e0bffc17 	ldw	r2,-16(fp)
 1020998:	10800404 	addi	r2,r2,16
 102099c:	1007883a 	mov	r3,r2
 10209a0:	00802404 	movi	r2,144
 10209a4:	18800035 	stwio	r2,0(r3)

   //wait TIP bit go to 0 to end Tx
    if (!ACK_check( i2c_base)){
 10209a8:	e13ffc17 	ldw	r4,-16(fp)
 10209ac:	10206000 	call	1020600 <ACK_check>
 10209b0:	1000051e 	bne	r2,zero,10209c8 <OC_I2C_Read+0x108>
        printf("OC_I2C_Read error[8]\r\n");
 10209b4:	010040f4 	movhi	r4,259
 10209b8:	210f4b04 	addi	r4,r4,15660
 10209bc:	1022e740 	call	1022e74 <puts>
        return FALSE;
 10209c0:	0005883a 	mov	r2,zero
 10209c4:	00002c06 	br	1020a78 <OC_I2C_Read+0x1b8>
    }

    for(i=0;i<nReadLength;i++){
 10209c8:	e03ffa15 	stw	zero,-24(fp)
 10209cc:	00001f06 	br	1020a4c <OC_I2C_Read+0x18c>
  // printf("\n read receive ACK-device address(read)! \n");
   //set the RD and ACK bit(bit5 and bit3)
    	IOWR( i2c_base, 4,((i+1) == nReadLength)?0x28:0x20);
 10209d0:	e0bffc17 	ldw	r2,-16(fp)
 10209d4:	10800404 	addi	r2,r2,16
 10209d8:	1009883a 	mov	r4,r2
 10209dc:	e0bffa17 	ldw	r2,-24(fp)
 10209e0:	10c00044 	addi	r3,r2,1
 10209e4:	e0800217 	ldw	r2,8(fp)
 10209e8:	1880021e 	bne	r3,r2,10209f4 <OC_I2C_Read+0x134>
 10209ec:	00800a04 	movi	r2,40
 10209f0:	00000106 	br	10209f8 <OC_I2C_Read+0x138>
 10209f4:	00800804 	movi	r2,32
 10209f8:	20800035 	stwio	r2,0(r4)

        if (!ACK_judge_for_read( i2c_base)){
 10209fc:	e13ffc17 	ldw	r4,-16(fp)
 1020a00:	102085c0 	call	102085c <ACK_judge_for_read>
 1020a04:	1000051e 	bne	r2,zero,1020a1c <OC_I2C_Read+0x15c>
            printf("OC_I2C_Read error[10]\r\n");
 1020a08:	010040f4 	movhi	r4,259
 1020a0c:	210f5104 	addi	r4,r4,15684
 1020a10:	1022e740 	call	1022e74 <puts>
            return FALSE;
 1020a14:	0005883a 	mov	r2,zero
 1020a18:	00001706 	br	1020a78 <OC_I2C_Read+0x1b8>
        }
   // printf("\n read receive ACK-device address(read)! \n");

        Data32=IORD( i2c_base, 3);
 1020a1c:	e0bffc17 	ldw	r2,-16(fp)
 1020a20:	10800304 	addi	r2,r2,12
 1020a24:	10800037 	ldwio	r2,0(r2)
 1020a28:	e0bffb15 	stw	r2,-20(fp)
        *(pData8+i) =  Data32 & 0xff;
 1020a2c:	e0bffa17 	ldw	r2,-24(fp)
 1020a30:	e0ffff17 	ldw	r3,-4(fp)
 1020a34:	1885883a 	add	r2,r3,r2
 1020a38:	e0fffb17 	ldw	r3,-20(fp)
 1020a3c:	10c00005 	stb	r3,0(r2)
    if (!ACK_check( i2c_base)){
        printf("OC_I2C_Read error[8]\r\n");
        return FALSE;
    }

    for(i=0;i<nReadLength;i++){
 1020a40:	e0bffa17 	ldw	r2,-24(fp)
 1020a44:	10800044 	addi	r2,r2,1
 1020a48:	e0bffa15 	stw	r2,-24(fp)
 1020a4c:	e0fffa17 	ldw	r3,-24(fp)
 1020a50:	e0800217 	ldw	r2,8(fp)
 1020a54:	18bfde16 	blt	r3,r2,10209d0 <_gp+0xfffe2d4c>

        Data32=IORD( i2c_base, 3);
        *(pData8+i) =  Data32 & 0xff;
    }

    IOWR( i2c_base, 4,0x40);
 1020a58:	e0bffc17 	ldw	r2,-16(fp)
 1020a5c:	10800404 	addi	r2,r2,16
 1020a60:	1007883a 	mov	r3,r2
 1020a64:	00801004 	movi	r2,64
 1020a68:	18800035 	stwio	r2,0(r3)

  // Sleep(10);
   //OS_msleep(1);
    usleep(SLEEP_TIME);
 1020a6c:	010003c4 	movi	r4,15
 1020a70:	10319ec0 	call	10319ec <usleep>
 //  printf(" Read  [%02X] = %02Xh\r\n", sub_address, data);


   return TRUE;
 1020a74:	00800044 	movi	r2,1

}
 1020a78:	e037883a 	mov	sp,fp
 1020a7c:	dfc00117 	ldw	ra,4(sp)
 1020a80:	df000017 	ldw	fp,0(sp)
 1020a84:	dec00204 	addi	sp,sp,8
 1020a88:	f800283a 	ret

01020a8c <OC_I2C_Read_Continue>:


bool  OC_I2C_Read_Continue(alt_32 i2c_base,alt_u8 device_address, alt_u8 *pData8, int nReadLength){
 1020a8c:	defff804 	addi	sp,sp,-32
 1020a90:	dfc00715 	stw	ra,28(sp)
 1020a94:	df000615 	stw	fp,24(sp)
 1020a98:	df000604 	addi	fp,sp,24
 1020a9c:	e13ffc15 	stw	r4,-16(fp)
 1020aa0:	2805883a 	mov	r2,r5
 1020aa4:	e1bffe15 	stw	r6,-8(fp)
 1020aa8:	e1ffff15 	stw	r7,-4(fp)
 1020aac:	e0bffd05 	stb	r2,-12(fp)
	int i;
	alt_u32 Data32;

    IOWR(i2c_base, 3,device_address|0x01);
 1020ab0:	e0bffc17 	ldw	r2,-16(fp)
 1020ab4:	10800304 	addi	r2,r2,12
 1020ab8:	1007883a 	mov	r3,r2
 1020abc:	e0bffd03 	ldbu	r2,-12(fp)
 1020ac0:	10800054 	ori	r2,r2,1
 1020ac4:	10803fcc 	andi	r2,r2,255
 1020ac8:	18800035 	stwio	r2,0(r3)

   //set STA and WR bits(bit7 and bit4)
    IOWR( i2c_base, 4,0x90);
 1020acc:	e0bffc17 	ldw	r2,-16(fp)
 1020ad0:	10800404 	addi	r2,r2,16
 1020ad4:	1007883a 	mov	r3,r2
 1020ad8:	00802404 	movi	r2,144
 1020adc:	18800035 	stwio	r2,0(r3)
//usleep(5*1000);
   //wait TIP bit go to 0 to end Tx
    if (!ACK_check( i2c_base)){
 1020ae0:	e13ffc17 	ldw	r4,-16(fp)
 1020ae4:	10206000 	call	1020600 <ACK_check>
 1020ae8:	1000051e 	bne	r2,zero,1020b00 <OC_I2C_Read_Continue+0x74>
        printf("OC_I2C_Read error[8]\r\n");
 1020aec:	010040f4 	movhi	r4,259
 1020af0:	210f4b04 	addi	r4,r4,15660
 1020af4:	1022e740 	call	1022e74 <puts>
        return FALSE;
 1020af8:	0005883a 	mov	r2,zero
 1020afc:	00002c06 	br	1020bb0 <OC_I2C_Read_Continue+0x124>
    }

    for(i=0;i<nReadLength;i++){
 1020b00:	e03ffa15 	stw	zero,-24(fp)
 1020b04:	00001f06 	br	1020b84 <OC_I2C_Read_Continue+0xf8>
  // printf("\n read receive ACK-device address(read)! \n");
   //set the RD and ACK bit(bit5 and bit3)
    	IOWR( i2c_base, 4,((i+1) == nReadLength)?0x28:0x20);
 1020b08:	e0bffc17 	ldw	r2,-16(fp)
 1020b0c:	10800404 	addi	r2,r2,16
 1020b10:	1009883a 	mov	r4,r2
 1020b14:	e0bffa17 	ldw	r2,-24(fp)
 1020b18:	10c00044 	addi	r3,r2,1
 1020b1c:	e0bfff17 	ldw	r2,-4(fp)
 1020b20:	1880021e 	bne	r3,r2,1020b2c <OC_I2C_Read_Continue+0xa0>
 1020b24:	00800a04 	movi	r2,40
 1020b28:	00000106 	br	1020b30 <OC_I2C_Read_Continue+0xa4>
 1020b2c:	00800804 	movi	r2,32
 1020b30:	20800035 	stwio	r2,0(r4)

        if (!ACK_judge_for_read( i2c_base)){
 1020b34:	e13ffc17 	ldw	r4,-16(fp)
 1020b38:	102085c0 	call	102085c <ACK_judge_for_read>
 1020b3c:	1000051e 	bne	r2,zero,1020b54 <OC_I2C_Read_Continue+0xc8>
            printf("OC_I2C_Read error[10]\r\n");
 1020b40:	010040f4 	movhi	r4,259
 1020b44:	210f5104 	addi	r4,r4,15684
 1020b48:	1022e740 	call	1022e74 <puts>
            return FALSE;
 1020b4c:	0005883a 	mov	r2,zero
 1020b50:	00001706 	br	1020bb0 <OC_I2C_Read_Continue+0x124>
        }
   // printf("\n read receive ACK-device address(read)! \n");

        Data32=IORD( i2c_base, 3);
 1020b54:	e0bffc17 	ldw	r2,-16(fp)
 1020b58:	10800304 	addi	r2,r2,12
 1020b5c:	10800037 	ldwio	r2,0(r2)
 1020b60:	e0bffb15 	stw	r2,-20(fp)
        *(pData8+i) =  Data32 & 0xff;
 1020b64:	e0bffa17 	ldw	r2,-24(fp)
 1020b68:	e0fffe17 	ldw	r3,-8(fp)
 1020b6c:	1885883a 	add	r2,r3,r2
 1020b70:	e0fffb17 	ldw	r3,-20(fp)
 1020b74:	10c00005 	stb	r3,0(r2)
    if (!ACK_check( i2c_base)){
        printf("OC_I2C_Read error[8]\r\n");
        return FALSE;
    }

    for(i=0;i<nReadLength;i++){
 1020b78:	e0bffa17 	ldw	r2,-24(fp)
 1020b7c:	10800044 	addi	r2,r2,1
 1020b80:	e0bffa15 	stw	r2,-24(fp)
 1020b84:	e0fffa17 	ldw	r3,-24(fp)
 1020b88:	e0bfff17 	ldw	r2,-4(fp)
 1020b8c:	18bfde16 	blt	r3,r2,1020b08 <_gp+0xfffe2e84>

        Data32=IORD( i2c_base, 3);
        *(pData8+i) =  Data32 & 0xff;
    }

    IOWR( i2c_base, 4,0x40);
 1020b90:	e0bffc17 	ldw	r2,-16(fp)
 1020b94:	10800404 	addi	r2,r2,16
 1020b98:	1007883a 	mov	r3,r2
 1020b9c:	00801004 	movi	r2,64
 1020ba0:	18800035 	stwio	r2,0(r3)

  // Sleep(10);
   //OS_msleep(1);
    usleep(SLEEP_TIME);
 1020ba4:	010003c4 	movi	r4,15
 1020ba8:	10319ec0 	call	10319ec <usleep>
 //  printf(" Read  [%02X] = %02Xh\r\n", sub_address, data);


   return TRUE;
 1020bac:	00800044 	movi	r2,1

}
 1020bb0:	e037883a 	mov	sp,fp
 1020bb4:	dfc00117 	ldw	ra,4(sp)
 1020bb8:	df000017 	ldw	fp,0(sp)
 1020bbc:	dec00204 	addi	sp,sp,8
 1020bc0:	f800283a 	ret

01020bc4 <OC_I2CL_Write>:


//  size > 2Kb
bool  OC_I2CL_Write(alt_32 i2c_base,alt_u8 device_address,int sub_address,alt_u8 *pData, int nWriteLength)
    {
 1020bc4:	defff804 	addi	sp,sp,-32
 1020bc8:	dfc00715 	stw	ra,28(sp)
 1020bcc:	df000615 	stw	fp,24(sp)
 1020bd0:	df000604 	addi	fp,sp,24
 1020bd4:	e13ffc15 	stw	r4,-16(fp)
 1020bd8:	2805883a 	mov	r2,r5
 1020bdc:	e1bffe15 	stw	r6,-8(fp)
 1020be0:	e1ffff15 	stw	r7,-4(fp)
 1020be4:	e0bffd05 	stb	r2,-12(fp)
    //DWORD reg_data = 0x0;
	alt_u8 AddrHigh, AddrLow;
    //int count= 0;

    AddrHigh = (sub_address >> 8) & 0xFF;
 1020be8:	e0bffe17 	ldw	r2,-8(fp)
 1020bec:	1005d23a 	srai	r2,r2,8
 1020bf0:	e0bffb05 	stb	r2,-20(fp)
    AddrLow  = sub_address & 0xFF;
 1020bf4:	e0bffe17 	ldw	r2,-8(fp)
 1020bf8:	e0bffb45 	stb	r2,-19(fp)

    int i;

    //set the tx reg audio chip dev address with write bit
   if (!Write32_Data( i2c_base, 3,device_address))
 1020bfc:	e0bffd03 	ldbu	r2,-12(fp)
 1020c00:	e13ffc17 	ldw	r4,-16(fp)
 1020c04:	014000c4 	movi	r5,3
 1020c08:	100d883a 	mov	r6,r2
 1020c0c:	102028c0 	call	102028c <Write32_Data>
 1020c10:	1000021e 	bne	r2,zero,1020c1c <OC_I2CL_Write+0x58>
       return FALSE;
 1020c14:	0005883a 	mov	r2,zero
 1020c18:	00005b06 	br	1020d88 <OC_I2CL_Write+0x1c4>
   //set STA and WR bits(bit7 and bit4)
   if (!Write32_Data( i2c_base, 4,0x90))//0x90
 1020c1c:	e13ffc17 	ldw	r4,-16(fp)
 1020c20:	01400104 	movi	r5,4
 1020c24:	01802404 	movi	r6,144
 1020c28:	102028c0 	call	102028c <Write32_Data>
 1020c2c:	1000021e 	bne	r2,zero,1020c38 <OC_I2CL_Write+0x74>
       return FALSE;
 1020c30:	0005883a 	mov	r2,zero
 1020c34:	00005406 	br	1020d88 <OC_I2CL_Write+0x1c4>

   //wait TIP bit go to 0 to end Tx
    if(!ACK_check( i2c_base))
 1020c38:	e13ffc17 	ldw	r4,-16(fp)
 1020c3c:	10206000 	call	1020600 <ACK_check>
 1020c40:	1000021e 	bne	r2,zero,1020c4c <OC_I2CL_Write+0x88>
        return FALSE;
 1020c44:	0005883a 	mov	r2,zero
 1020c48:	00004f06 	br	1020d88 <OC_I2CL_Write+0x1c4>
  // printf("\n receive ACK-device address! \n");

   //set the txr reg data with reg address + 1 data MSB
 //  reg_data  = (sub_address << 1) & 0xFE;
   //reg_data |= ((data >> 8) & 0x01);
   if (!Write32_Data( i2c_base, 3,AddrHigh))//reg_data&0xff);
 1020c4c:	e0bffb03 	ldbu	r2,-20(fp)
 1020c50:	e13ffc17 	ldw	r4,-16(fp)
 1020c54:	014000c4 	movi	r5,3
 1020c58:	100d883a 	mov	r6,r2
 1020c5c:	102028c0 	call	102028c <Write32_Data>
 1020c60:	1000021e 	bne	r2,zero,1020c6c <OC_I2CL_Write+0xa8>
       return FALSE;
 1020c64:	0005883a 	mov	r2,zero
 1020c68:	00004706 	br	1020d88 <OC_I2CL_Write+0x1c4>

   //set WR bits(bit4)
    if (!Write32_Data( i2c_base, 4,0x10))
 1020c6c:	e13ffc17 	ldw	r4,-16(fp)
 1020c70:	01400104 	movi	r5,4
 1020c74:	01800404 	movi	r6,16
 1020c78:	102028c0 	call	102028c <Write32_Data>
 1020c7c:	1000021e 	bne	r2,zero,1020c88 <OC_I2CL_Write+0xc4>
        return FALSE;
 1020c80:	0005883a 	mov	r2,zero
 1020c84:	00004006 	br	1020d88 <OC_I2CL_Write+0x1c4>

   //wait TIP bit go to 0 to end Tx
    if(!ACK_check( i2c_base))
 1020c88:	e13ffc17 	ldw	r4,-16(fp)
 1020c8c:	10206000 	call	1020600 <ACK_check>
 1020c90:	1000021e 	bne	r2,zero,1020c9c <OC_I2CL_Write+0xd8>
        return FALSE;
 1020c94:	0005883a 	mov	r2,zero
 1020c98:	00003b06 	br	1020d88 <OC_I2CL_Write+0x1c4>
  // printf("\n receive ACK-reg high address! \n");

   //set the txr reg data with reg address + 1 data MSB
   if (!Write32_Data( i2c_base, 3,AddrLow))//reg_data&0xff);
 1020c9c:	e0bffb43 	ldbu	r2,-19(fp)
 1020ca0:	e13ffc17 	ldw	r4,-16(fp)
 1020ca4:	014000c4 	movi	r5,3
 1020ca8:	100d883a 	mov	r6,r2
 1020cac:	102028c0 	call	102028c <Write32_Data>
 1020cb0:	1000021e 	bne	r2,zero,1020cbc <OC_I2CL_Write+0xf8>
       return FALSE;
 1020cb4:	0005883a 	mov	r2,zero
 1020cb8:	00003306 	br	1020d88 <OC_I2CL_Write+0x1c4>

   //set WR bits(bit4)
    Write32_Data( i2c_base, 4,0x10);
 1020cbc:	e13ffc17 	ldw	r4,-16(fp)
 1020cc0:	01400104 	movi	r5,4
 1020cc4:	01800404 	movi	r6,16
 1020cc8:	102028c0 	call	102028c <Write32_Data>

   //wait TIP bit go to 0 to end Tx
    if(!ACK_check( i2c_base))
 1020ccc:	e13ffc17 	ldw	r4,-16(fp)
 1020cd0:	10206000 	call	1020600 <ACK_check>
 1020cd4:	1000021e 	bne	r2,zero,1020ce0 <OC_I2CL_Write+0x11c>
        return FALSE;
 1020cd8:	0005883a 	mov	r2,zero
 1020cdc:	00002a06 	br	1020d88 <OC_I2CL_Write+0x1c4>
  //  printf("\n receive ACK-reg low address! \n");

#if 1
    for( i=0;i<nWriteLength;i++){
 1020ce0:	e03ffa15 	stw	zero,-24(fp)
 1020ce4:	00001b06 	br	1020d54 <OC_I2CL_Write+0x190>
        //set the txr reg data with the other data 8 bit LSB
        if (!Write32_Data( i2c_base, 3,*(pData+i)))
 1020ce8:	e0bffa17 	ldw	r2,-24(fp)
 1020cec:	e0ffff17 	ldw	r3,-4(fp)
 1020cf0:	1885883a 	add	r2,r3,r2
 1020cf4:	10800003 	ldbu	r2,0(r2)
 1020cf8:	10803fcc 	andi	r2,r2,255
 1020cfc:	e13ffc17 	ldw	r4,-16(fp)
 1020d00:	014000c4 	movi	r5,3
 1020d04:	100d883a 	mov	r6,r2
 1020d08:	102028c0 	call	102028c <Write32_Data>
 1020d0c:	1000021e 	bne	r2,zero,1020d18 <OC_I2CL_Write+0x154>
            return FALSE;
 1020d10:	0005883a 	mov	r2,zero
 1020d14:	00001c06 	br	1020d88 <OC_I2CL_Write+0x1c4>

       //set STO and WR bits(bit7 and bit4)
        if (!Write32_Data( i2c_base, 4,0x10))
 1020d18:	e13ffc17 	ldw	r4,-16(fp)
 1020d1c:	01400104 	movi	r5,4
 1020d20:	01800404 	movi	r6,16
 1020d24:	102028c0 	call	102028c <Write32_Data>
 1020d28:	1000021e 	bne	r2,zero,1020d34 <OC_I2CL_Write+0x170>
            return FALSE;
 1020d2c:	0005883a 	mov	r2,zero
 1020d30:	00001506 	br	1020d88 <OC_I2CL_Write+0x1c4>

        //wait TIP bit go to 0 to end Tx
         if(!ACK_check( i2c_base))
 1020d34:	e13ffc17 	ldw	r4,-16(fp)
 1020d38:	10206000 	call	1020600 <ACK_check>
 1020d3c:	1000021e 	bne	r2,zero,1020d48 <OC_I2CL_Write+0x184>
             return FALSE;
 1020d40:	0005883a 	mov	r2,zero
 1020d44:	00001006 	br	1020d88 <OC_I2CL_Write+0x1c4>
    if(!ACK_check( i2c_base))
        return FALSE;
  //  printf("\n receive ACK-reg low address! \n");

#if 1
    for( i=0;i<nWriteLength;i++){
 1020d48:	e0bffa17 	ldw	r2,-24(fp)
 1020d4c:	10800044 	addi	r2,r2,1
 1020d50:	e0bffa15 	stw	r2,-24(fp)
 1020d54:	e0fffa17 	ldw	r3,-24(fp)
 1020d58:	e0800217 	ldw	r2,8(fp)
 1020d5c:	18bfe216 	blt	r3,r2,1020ce8 <_gp+0xfffe3064>
   //wait TIP bit go to 0 to end Tx
    if(!ACK_check( i2c_base))
        return FALSE;

#endif
    if (!Write32_Data( i2c_base, 4,0x40))
 1020d60:	e13ffc17 	ldw	r4,-16(fp)
 1020d64:	01400104 	movi	r5,4
 1020d68:	01801004 	movi	r6,64
 1020d6c:	102028c0 	call	102028c <Write32_Data>
 1020d70:	1000021e 	bne	r2,zero,1020d7c <OC_I2CL_Write+0x1b8>
         return FALSE;
 1020d74:	0005883a 	mov	r2,zero
 1020d78:	00000306 	br	1020d88 <OC_I2CL_Write+0x1c4>

     //OS_msleep(1);
      usleep(SLEEP_TIME);
 1020d7c:	010003c4 	movi	r4,15
 1020d80:	10319ec0 	call	10319ec <usleep>
  //  printf("\n receive ACK-data! \n");

     return TRUE;
 1020d84:	00800044 	movi	r2,1
}
 1020d88:	e037883a 	mov	sp,fp
 1020d8c:	dfc00117 	ldw	ra,4(sp)
 1020d90:	df000017 	ldw	fp,0(sp)
 1020d94:	dec00204 	addi	sp,sp,8
 1020d98:	f800283a 	ret

01020d9c <OC_I2CL_Read>:
   return TRUE;

}*/


bool  OC_I2CL_Read(alt_32 i2c_base,alt_u8 device_address, alt_u16 sub_address, alt_u8 *pData8, int nReadLength){
 1020d9c:	defff704 	addi	sp,sp,-36
 1020da0:	dfc00815 	stw	ra,32(sp)
 1020da4:	df000715 	stw	fp,28(sp)
 1020da8:	df000704 	addi	fp,sp,28
 1020dac:	e13ffc15 	stw	r4,-16(fp)
 1020db0:	2807883a 	mov	r3,r5
 1020db4:	3005883a 	mov	r2,r6
 1020db8:	e1ffff15 	stw	r7,-4(fp)
 1020dbc:	e0fffd05 	stb	r3,-12(fp)
 1020dc0:	e0bffe0d 	sth	r2,-8(fp)
    int i;

    alt_u8 AddrHigh, AddrLow;
    alt_u8 DataHigh, DataLow;

    AddrHigh = (sub_address >> 8) & 0xFF;
 1020dc4:	e0bffe0b 	ldhu	r2,-8(fp)
 1020dc8:	1004d23a 	srli	r2,r2,8
 1020dcc:	e0bffa05 	stb	r2,-24(fp)
    AddrLow  = sub_address & 0xFF;
 1020dd0:	e0bffe0b 	ldhu	r2,-8(fp)
 1020dd4:	e0bffa45 	stb	r2,-23(fp)


   //set the tx reg audio chip dev address with write bit
   if (!Write32_Data( i2c_base, 3,device_address))
 1020dd8:	e0bffd03 	ldbu	r2,-12(fp)
 1020ddc:	e13ffc17 	ldw	r4,-16(fp)
 1020de0:	014000c4 	movi	r5,3
 1020de4:	100d883a 	mov	r6,r2
 1020de8:	102028c0 	call	102028c <Write32_Data>
 1020dec:	1000021e 	bne	r2,zero,1020df8 <OC_I2CL_Read+0x5c>
       return FALSE;
 1020df0:	0005883a 	mov	r2,zero
 1020df4:	00007806 	br	1020fd8 <OC_I2CL_Read+0x23c>
   //set STA and WR bits(bit7 and bit4)
   if (!Write32_Data( i2c_base, 4,0x90))
 1020df8:	e13ffc17 	ldw	r4,-16(fp)
 1020dfc:	01400104 	movi	r5,4
 1020e00:	01802404 	movi	r6,144
 1020e04:	102028c0 	call	102028c <Write32_Data>
 1020e08:	1000021e 	bne	r2,zero,1020e14 <OC_I2CL_Read+0x78>
       return FALSE;
 1020e0c:	0005883a 	mov	r2,zero
 1020e10:	00007106 	br	1020fd8 <OC_I2CL_Read+0x23c>

   //wait TIP bit go to 0 to end Tx
    if(!ACK_check( i2c_base))
 1020e14:	e13ffc17 	ldw	r4,-16(fp)
 1020e18:	10206000 	call	1020600 <ACK_check>
 1020e1c:	1000021e 	bne	r2,zero,1020e28 <OC_I2CL_Read+0x8c>
        return FALSE;
 1020e20:	0005883a 	mov	r2,zero
 1020e24:	00006c06 	br	1020fd8 <OC_I2CL_Read+0x23c>
 //  printf("\n receive ACK-device address! \n");


   //set the txr reg data with reg address + 0

   if (!Write32_Data( i2c_base, 3,AddrHigh))//reg_data&0xff);
 1020e28:	e0bffa03 	ldbu	r2,-24(fp)
 1020e2c:	e13ffc17 	ldw	r4,-16(fp)
 1020e30:	014000c4 	movi	r5,3
 1020e34:	100d883a 	mov	r6,r2
 1020e38:	102028c0 	call	102028c <Write32_Data>
 1020e3c:	1000021e 	bne	r2,zero,1020e48 <OC_I2CL_Read+0xac>
       return FALSE;
 1020e40:	0005883a 	mov	r2,zero
 1020e44:	00006406 	br	1020fd8 <OC_I2CL_Read+0x23c>

   //set WR bits(bit4)
    if (!Write32_Data( i2c_base, 4,0x10))
 1020e48:	e13ffc17 	ldw	r4,-16(fp)
 1020e4c:	01400104 	movi	r5,4
 1020e50:	01800404 	movi	r6,16
 1020e54:	102028c0 	call	102028c <Write32_Data>
 1020e58:	1000021e 	bne	r2,zero,1020e64 <OC_I2CL_Read+0xc8>
        return FALSE;
 1020e5c:	0005883a 	mov	r2,zero
 1020e60:	00005d06 	br	1020fd8 <OC_I2CL_Read+0x23c>

   //wait TIP bit go to 0 to end Tx
    if(!ACK_check( i2c_base))
 1020e64:	e13ffc17 	ldw	r4,-16(fp)
 1020e68:	10206000 	call	1020600 <ACK_check>
 1020e6c:	1000021e 	bne	r2,zero,1020e78 <OC_I2CL_Read+0xdc>
        return FALSE;
 1020e70:	0005883a 	mov	r2,zero
 1020e74:	00005806 	br	1020fd8 <OC_I2CL_Read+0x23c>
//   printf("\n read receive ACK-reg High address! \n");

     //set the txr reg data with reg address + 0
   if (!Write32_Data( i2c_base, 3,AddrLow)) //;//reg_data&0xff);
 1020e78:	e0bffa43 	ldbu	r2,-23(fp)
 1020e7c:	e13ffc17 	ldw	r4,-16(fp)
 1020e80:	014000c4 	movi	r5,3
 1020e84:	100d883a 	mov	r6,r2
 1020e88:	102028c0 	call	102028c <Write32_Data>
 1020e8c:	1000021e 	bne	r2,zero,1020e98 <OC_I2CL_Read+0xfc>
       return FALSE;
 1020e90:	0005883a 	mov	r2,zero
 1020e94:	00005006 	br	1020fd8 <OC_I2CL_Read+0x23c>

   //set WR bits(bit4)
    if (!Write32_Data( i2c_base, 4,0x10))
 1020e98:	e13ffc17 	ldw	r4,-16(fp)
 1020e9c:	01400104 	movi	r5,4
 1020ea0:	01800404 	movi	r6,16
 1020ea4:	102028c0 	call	102028c <Write32_Data>
 1020ea8:	1000021e 	bne	r2,zero,1020eb4 <OC_I2CL_Read+0x118>
        return FALSE;
 1020eac:	0005883a 	mov	r2,zero
 1020eb0:	00004906 	br	1020fd8 <OC_I2CL_Read+0x23c>

   //wait TIP bit go to 0 to end Tx
    if(!ACK_check( i2c_base))
 1020eb4:	e13ffc17 	ldw	r4,-16(fp)
 1020eb8:	10206000 	call	1020600 <ACK_check>
 1020ebc:	1000021e 	bne	r2,zero,1020ec8 <OC_I2CL_Read+0x12c>
        return FALSE;
 1020ec0:	0005883a 	mov	r2,zero
 1020ec4:	00004406 	br	1020fd8 <OC_I2CL_Read+0x23c>

 //  printf("\n read receive ACK-reg Low address! \n");

   //read
    //set the tx reg audio chip dev address with read bit 1
     if (!Write32_Data( i2c_base, 3,device_address|0x01))
 1020ec8:	e0bffd03 	ldbu	r2,-12(fp)
 1020ecc:	10800054 	ori	r2,r2,1
 1020ed0:	10803fcc 	andi	r2,r2,255
 1020ed4:	e13ffc17 	ldw	r4,-16(fp)
 1020ed8:	014000c4 	movi	r5,3
 1020edc:	100d883a 	mov	r6,r2
 1020ee0:	102028c0 	call	102028c <Write32_Data>
 1020ee4:	1000021e 	bne	r2,zero,1020ef0 <OC_I2CL_Read+0x154>
         return FALSE;
 1020ee8:	0005883a 	mov	r2,zero
 1020eec:	00003a06 	br	1020fd8 <OC_I2CL_Read+0x23c>

   //set STA and WR bits(bit7 and bit4)
     if (!Write32_Data( i2c_base, 4,0x90))
 1020ef0:	e13ffc17 	ldw	r4,-16(fp)
 1020ef4:	01400104 	movi	r5,4
 1020ef8:	01802404 	movi	r6,144
 1020efc:	102028c0 	call	102028c <Write32_Data>
 1020f00:	1000021e 	bne	r2,zero,1020f0c <OC_I2CL_Read+0x170>
         return FALSE;
 1020f04:	0005883a 	mov	r2,zero
 1020f08:	00003306 	br	1020fd8 <OC_I2CL_Read+0x23c>

   //wait TIP bit go to 0 to end Tx
    if(!ACK_check( i2c_base))
 1020f0c:	e13ffc17 	ldw	r4,-16(fp)
 1020f10:	10206000 	call	1020600 <ACK_check>
 1020f14:	1000021e 	bne	r2,zero,1020f20 <OC_I2CL_Read+0x184>
        return FALSE;
 1020f18:	0005883a 	mov	r2,zero
 1020f1c:	00002e06 	br	1020fd8 <OC_I2CL_Read+0x23c>
//   printf("\n read receive ACK-device address(read)! \n");

       //read the rxr data

#if 1
    for(i=0;i<nReadLength;i++){
 1020f20:	e03ff915 	stw	zero,-28(fp)
 1020f24:	00001f06 	br	1020fa4 <OC_I2CL_Read+0x208>
  // printf("\n read receive ACK-device address(read)! \n");
   //set the RD and ACK bit(bit5 and bit3)
    	IOWR( i2c_base, 4,((i+1) == nReadLength)?0x28:0x20);
 1020f28:	e0bffc17 	ldw	r2,-16(fp)
 1020f2c:	10800404 	addi	r2,r2,16
 1020f30:	1009883a 	mov	r4,r2
 1020f34:	e0bff917 	ldw	r2,-28(fp)
 1020f38:	10c00044 	addi	r3,r2,1
 1020f3c:	e0800217 	ldw	r2,8(fp)
 1020f40:	1880021e 	bne	r3,r2,1020f4c <OC_I2CL_Read+0x1b0>
 1020f44:	00800a04 	movi	r2,40
 1020f48:	00000106 	br	1020f50 <OC_I2CL_Read+0x1b4>
 1020f4c:	00800804 	movi	r2,32
 1020f50:	20800035 	stwio	r2,0(r4)

        if (!ACK_judge_for_read( i2c_base)){
 1020f54:	e13ffc17 	ldw	r4,-16(fp)
 1020f58:	102085c0 	call	102085c <ACK_judge_for_read>
 1020f5c:	1000051e 	bne	r2,zero,1020f74 <OC_I2CL_Read+0x1d8>
            printf("OC_I2C_Read error[10]\r\n");
 1020f60:	010040f4 	movhi	r4,259
 1020f64:	210f5104 	addi	r4,r4,15684
 1020f68:	1022e740 	call	1022e74 <puts>
            return FALSE;
 1020f6c:	0005883a 	mov	r2,zero
 1020f70:	00001906 	br	1020fd8 <OC_I2CL_Read+0x23c>
        }
   // printf("\n read receive ACK-device address(read)! \n");

        Data32=IORD( i2c_base, 3);
 1020f74:	e0bffc17 	ldw	r2,-16(fp)
 1020f78:	10800304 	addi	r2,r2,12
 1020f7c:	10800037 	ldwio	r2,0(r2)
 1020f80:	e0bffb15 	stw	r2,-20(fp)
        *(pData8+i) =  Data32 & 0xff;
 1020f84:	e0bff917 	ldw	r2,-28(fp)
 1020f88:	e0ffff17 	ldw	r3,-4(fp)
 1020f8c:	1885883a 	add	r2,r3,r2
 1020f90:	e0fffb17 	ldw	r3,-20(fp)
 1020f94:	10c00005 	stb	r3,0(r2)
//   printf("\n read receive ACK-device address(read)! \n");

       //read the rxr data

#if 1
    for(i=0;i<nReadLength;i++){
 1020f98:	e0bff917 	ldw	r2,-28(fp)
 1020f9c:	10800044 	addi	r2,r2,1
 1020fa0:	e0bff915 	stw	r2,-28(fp)
 1020fa4:	e0fff917 	ldw	r3,-28(fp)
 1020fa8:	e0800217 	ldw	r2,8(fp)
 1020fac:	18bfde16 	blt	r3,r2,1020f28 <_gp+0xfffe32a4>
    DataLow =  Data32 & 0xff;

    pData16 = (DataHigh << 8) | DataLow;
#endif

   if (!Write32_Data( i2c_base, 4,0x40))
 1020fb0:	e13ffc17 	ldw	r4,-16(fp)
 1020fb4:	01400104 	movi	r5,4
 1020fb8:	01801004 	movi	r6,64
 1020fbc:	102028c0 	call	102028c <Write32_Data>
 1020fc0:	1000021e 	bne	r2,zero,1020fcc <OC_I2CL_Read+0x230>
       return FALSE;
 1020fc4:	0005883a 	mov	r2,zero
 1020fc8:	00000306 	br	1020fd8 <OC_I2CL_Read+0x23c>

   //OS_msleep(1);
    usleep(SLEEP_TIME);
 1020fcc:	010003c4 	movi	r4,15
 1020fd0:	10319ec0 	call	10319ec <usleep>

   return TRUE;
 1020fd4:	00800044 	movi	r2,1

}
 1020fd8:	e037883a 	mov	sp,fp
 1020fdc:	dfc00117 	ldw	ra,4(sp)
 1020fe0:	df000017 	ldw	fp,0(sp)
 1020fe4:	dec00204 	addi	sp,sp,8
 1020fe8:	f800283a 	ret

01020fec <debug_output>:
    if (!UART_IsOpened())
        UART_Open();
    UART_WriteString(pMessage);  // UART debug
}
#else
void debug_output(char *pMessage){
 1020fec:	defffd04 	addi	sp,sp,-12
 1020ff0:	dfc00215 	stw	ra,8(sp)
 1020ff4:	df000115 	stw	fp,4(sp)
 1020ff8:	df000104 	addi	fp,sp,4
 1020ffc:	e13fff15 	stw	r4,-4(fp)
    printf(pMessage);
 1021000:	e13fff17 	ldw	r4,-4(fp)
 1021004:	1022d800 	call	1022d80 <printf>
}
 1021008:	e037883a 	mov	sp,fp
 102100c:	dfc00117 	ldw	ra,4(sp)
 1021010:	df000017 	ldw	fp,0(sp)
 1021014:	dec00204 	addi	sp,sp,8
 1021018:	f800283a 	ret

0102101c <myprintf>:

#endif


int myprintf(char *format, ...){
 102101c:	deff7804 	addi	sp,sp,-544
 1021020:	dfc08415 	stw	ra,528(sp)
 1021024:	df008315 	stw	fp,524(sp)
 1021028:	df008304 	addi	fp,sp,524
 102102c:	e1400215 	stw	r5,8(fp)
 1021030:	e1800315 	stw	r6,12(fp)
 1021034:	e1c00415 	stw	r7,16(fp)
 1021038:	e13fff15 	stw	r4,-4(fp)
    int rc;
    char szText[512];
    
    va_list paramList;
    va_start(paramList, format);
 102103c:	e0800204 	addi	r2,fp,8
 1021040:	e0bffe15 	stw	r2,-8(fp)
    rc = vsnprintf(szText, 512, format, paramList);
 1021044:	e0bffe17 	ldw	r2,-8(fp)
 1021048:	e0ff7e04 	addi	r3,fp,-520
 102104c:	1809883a 	mov	r4,r3
 1021050:	01408004 	movi	r5,512
 1021054:	e1bfff17 	ldw	r6,-4(fp)
 1021058:	100f883a 	mov	r7,r2
 102105c:	10270840 	call	1027084 <vsnprintf>
 1021060:	e0bf7d15 	stw	r2,-524(fp)
    va_end(paramList);
    
    debug_output(szText);
 1021064:	e0bf7e04 	addi	r2,fp,-520
 1021068:	1009883a 	mov	r4,r2
 102106c:	1020fec0 	call	1020fec <debug_output>

    return rc;    
 1021070:	e0bf7d17 	ldw	r2,-524(fp)
}
 1021074:	e037883a 	mov	sp,fp
 1021078:	dfc00117 	ldw	ra,4(sp)
 102107c:	df000017 	ldw	fp,0(sp)
 1021080:	dec00504 	addi	sp,sp,20
 1021084:	f800283a 	ret

01021088 <myprintf_hex_array>:


int myprintf_hex_array(unsigned char *pHex, int len){
 1021088:	defff704 	addi	sp,sp,-36
 102108c:	dfc00815 	stw	ra,32(sp)
 1021090:	df000715 	stw	fp,28(sp)
 1021094:	df000704 	addi	fp,sp,28
 1021098:	e13ffe15 	stw	r4,-8(fp)
 102109c:	e17fff15 	stw	r5,-4(fp)
    int i;
    unsigned char szText[16];
    for(i=0;i<len;i++){
 10210a0:	e03ff915 	stw	zero,-28(fp)
 10210a4:	00001106 	br	10210ec <myprintf_hex_array+0x64>
        sprintf(szText, "[%02X]", *(pHex+i));
 10210a8:	e0bff917 	ldw	r2,-28(fp)
 10210ac:	e0fffe17 	ldw	r3,-8(fp)
 10210b0:	1885883a 	add	r2,r3,r2
 10210b4:	10800003 	ldbu	r2,0(r2)
 10210b8:	10803fcc 	andi	r2,r2,255
 10210bc:	e0fffa04 	addi	r3,fp,-24
 10210c0:	1809883a 	mov	r4,r3
 10210c4:	014040f4 	movhi	r5,259
 10210c8:	294f5704 	addi	r5,r5,15708
 10210cc:	100d883a 	mov	r6,r2
 10210d0:	1022ee00 	call	1022ee0 <sprintf>
        DEBUG((szText));
 10210d4:	e0bffa04 	addi	r2,fp,-24
 10210d8:	1009883a 	mov	r4,r2
 10210dc:	102101c0 	call	102101c <myprintf>


int myprintf_hex_array(unsigned char *pHex, int len){
    int i;
    unsigned char szText[16];
    for(i=0;i<len;i++){
 10210e0:	e0bff917 	ldw	r2,-28(fp)
 10210e4:	10800044 	addi	r2,r2,1
 10210e8:	e0bff915 	stw	r2,-28(fp)
 10210ec:	e0fff917 	ldw	r3,-28(fp)
 10210f0:	e0bfff17 	ldw	r2,-4(fp)
 10210f4:	18bfec16 	blt	r3,r2,10210a8 <_gp+0xfffe3424>
        sprintf(szText, "[%02X]", *(pHex+i));
        DEBUG((szText));
    }
    return len;
 10210f8:	e0bfff17 	ldw	r2,-4(fp)
}
 10210fc:	e037883a 	mov	sp,fp
 1021100:	dfc00117 	ldw	ra,4(sp)
 1021104:	df000017 	ldw	fp,0(sp)
 1021108:	dec00204 	addi	sp,sp,8
 102110c:	f800283a 	ret

01021110 <myprintf_dword_array>:

int  myprintf_dword_array(unsigned int *pArray, int nElementCount){
 1021110:	defff704 	addi	sp,sp,-36
 1021114:	dfc00815 	stw	ra,32(sp)
 1021118:	df000715 	stw	fp,28(sp)
 102111c:	df000704 	addi	fp,sp,28
 1021120:	e13ffe15 	stw	r4,-8(fp)
 1021124:	e17fff15 	stw	r5,-4(fp)
    int i;
    char szText[16];
    for(i=0;i<nElementCount;i++){
 1021128:	e03ff915 	stw	zero,-28(fp)
 102112c:	00001306 	br	102117c <myprintf_dword_array+0x6c>
        sprintf(szText, "[%08X]", *(pArray+i));
 1021130:	e0bff917 	ldw	r2,-28(fp)
 1021134:	1085883a 	add	r2,r2,r2
 1021138:	1085883a 	add	r2,r2,r2
 102113c:	1007883a 	mov	r3,r2
 1021140:	e0bffe17 	ldw	r2,-8(fp)
 1021144:	10c5883a 	add	r2,r2,r3
 1021148:	10800017 	ldw	r2,0(r2)
 102114c:	e0fffa04 	addi	r3,fp,-24
 1021150:	1809883a 	mov	r4,r3
 1021154:	014040f4 	movhi	r5,259
 1021158:	294f5904 	addi	r5,r5,15716
 102115c:	100d883a 	mov	r6,r2
 1021160:	1022ee00 	call	1022ee0 <sprintf>
        DEBUG((szText));
 1021164:	e0bffa04 	addi	r2,fp,-24
 1021168:	1009883a 	mov	r4,r2
 102116c:	102101c0 	call	102101c <myprintf>
}

int  myprintf_dword_array(unsigned int *pArray, int nElementCount){
    int i;
    char szText[16];
    for(i=0;i<nElementCount;i++){
 1021170:	e0bff917 	ldw	r2,-28(fp)
 1021174:	10800044 	addi	r2,r2,1
 1021178:	e0bff915 	stw	r2,-28(fp)
 102117c:	e0fff917 	ldw	r3,-28(fp)
 1021180:	e0bfff17 	ldw	r2,-4(fp)
 1021184:	18bfea16 	blt	r3,r2,1021130 <_gp+0xfffe34ac>
        sprintf(szText, "[%08X]", *(pArray+i));
        DEBUG((szText));
    }
    return nElementCount;
 1021188:	e0bfff17 	ldw	r2,-4(fp)
}
 102118c:	e037883a 	mov	sp,fp
 1021190:	dfc00117 	ldw	ra,4(sp)
 1021194:	df000017 	ldw	fp,0(sp)
 1021198:	dec00204 	addi	sp,sp,8
 102119c:	f800283a 	ret

010211a0 <LIS2DH12_wr_reg>:
#define Gsensor_I2C_ADRESS   0x32    // 0011_00 + SA0 + bit 0----write(32h),read(33h)
#define LIS2DH12_DEBUG(x)    DEBUG(x)



bool LIS2DH12_wr_reg(alt_u8 reg_index, alt_u8 data8){
 10211a0:	defff904 	addi	sp,sp,-28
 10211a4:	dfc00615 	stw	ra,24(sp)
 10211a8:	df000515 	stw	fp,20(sp)
 10211ac:	df000504 	addi	fp,sp,20
 10211b0:	2007883a 	mov	r3,r4
 10211b4:	2805883a 	mov	r2,r5
 10211b8:	e0fffe05 	stb	r3,-8(fp)
 10211bc:	e0bfff05 	stb	r2,-4(fp)
	bool bSuccess = TRUE;
 10211c0:	00800044 	movi	r2,1
 10211c4:	e0bffc15 	stw	r2,-16(fp)
	alt_u8 dataR;
    if (bSuccess){
 10211c8:	e0bffc17 	ldw	r2,-16(fp)
 10211cc:	10000a26 	beq	r2,zero,10211f8 <LIS2DH12_wr_reg+0x58>
    	bSuccess = OC_I2C_Write(I2C_OPENCORES_0_BASE,Gsensor_I2C_ADRESS,reg_index,&data8, 1);}
 10211d0:	e1bffe03 	ldbu	r6,-8(fp)
 10211d4:	e0ffff04 	addi	r3,fp,-4
 10211d8:	00800044 	movi	r2,1
 10211dc:	d8800015 	stw	r2,0(sp)
 10211e0:	01004134 	movhi	r4,260
 10211e4:	21040004 	addi	r4,r4,4096
 10211e8:	01400c84 	movi	r5,50
 10211ec:	180f883a 	mov	r7,r3
 10211f0:	10206600 	call	1020660 <OC_I2C_Write>
 10211f4:	e0bffc15 	stw	r2,-16(fp)
    usleep(50*1000);
 10211f8:	0130d414 	movui	r4,50000
 10211fc:	10319ec0 	call	10319ec <usleep>
    if (bSuccess)
 1021200:	e0bffc17 	ldw	r2,-16(fp)
 1021204:	10000a26 	beq	r2,zero,1021230 <LIS2DH12_wr_reg+0x90>
    	bSuccess = OC_I2C_Read(I2C_OPENCORES_0_BASE, Gsensor_I2C_ADRESS,reg_index, &dataR, 1);
 1021208:	e1bffe03 	ldbu	r6,-8(fp)
 102120c:	e0fffd04 	addi	r3,fp,-12
 1021210:	00800044 	movi	r2,1
 1021214:	d8800015 	stw	r2,0(sp)
 1021218:	01004134 	movhi	r4,260
 102121c:	21040004 	addi	r4,r4,4096
 1021220:	01400c84 	movi	r5,50
 1021224:	180f883a 	mov	r7,r3
 1021228:	10208c00 	call	10208c0 <OC_I2C_Read>
 102122c:	e0bffc15 	stw	r2,-16(fp)
	if (!bSuccess){
 1021230:	e0bffc17 	ldw	r2,-16(fp)
 1021234:	1000041e 	bne	r2,zero,1021248 <LIS2DH12_wr_reg+0xa8>
				printf("LIS2DH12: failed to read page register\r\n");
 1021238:	010040f4 	movhi	r4,259
 102123c:	210f5b04 	addi	r4,r4,15724
 1021240:	1022e740 	call	1022e74 <puts>
 1021244:	00000e06 	br	1021280 <LIS2DH12_wr_reg+0xe0>
	}
	else{
		      if (dataR !=data8)
 1021248:	e0fffd03 	ldbu	r3,-12(fp)
 102124c:	e0bfff03 	ldbu	r2,-4(fp)
 1021250:	18c03fcc 	andi	r3,r3,255
 1021254:	10803fcc 	andi	r2,r2,255
 1021258:	18800926 	beq	r3,r2,1021280 <LIS2DH12_wr_reg+0xe0>
		      {
		    	bSuccess = FALSE;
 102125c:	e03ffc15 	stw	zero,-16(fp)
		    	LIS2DH12_DEBUG(("Read LIS2DH12 reg[%02xh] = %02Xh\r\n", reg_index, dataR ));
 1021260:	e0fffe03 	ldbu	r3,-8(fp)
 1021264:	e0bffd03 	ldbu	r2,-12(fp)
 1021268:	10803fcc 	andi	r2,r2,255
 102126c:	010040f4 	movhi	r4,259
 1021270:	210f6504 	addi	r4,r4,15764
 1021274:	180b883a 	mov	r5,r3
 1021278:	100d883a 	mov	r6,r2
 102127c:	102101c0 	call	102101c <myprintf>

              }
	     }

    return bSuccess;
 1021280:	e0bffc17 	ldw	r2,-16(fp)

}
 1021284:	e037883a 	mov	sp,fp
 1021288:	dfc00117 	ldw	ra,4(sp)
 102128c:	df000017 	ldw	fp,0(sp)
 1021290:	dec00204 	addi	sp,sp,8
 1021294:	f800283a 	ret

01021298 <LIS2DH12_Init>:

bool LIS2DH12_Init(void){
 1021298:	defffd04 	addi	sp,sp,-12
 102129c:	dfc00215 	stw	ra,8(sp)
 10212a0:	df000115 	stw	fp,4(sp)
 10212a4:	df000104 	addi	fp,sp,4
	 bool  bSuccess= TRUE;
 10212a8:	00800044 	movi	r2,1
 10212ac:	e0bfff15 	stw	r2,-4(fp)
	 LIS2DH12_DEBUG(("Gsensor_Configuration...\r\n"));
 10212b0:	010040f4 	movhi	r4,259
 10212b4:	210f6e04 	addi	r4,r4,15800
 10212b8:	102101c0 	call	102101c <myprintf>
	 bSuccess = oc_i2c_init_ex(I2C_OPENCORES_0_BASE, 50*1000*1000, 400*1000); // ref clock:50MHz, i2c clk:400K
 10212bc:	01004134 	movhi	r4,260
 10212c0:	21040004 	addi	r4,r4,4096
 10212c4:	0140bef4 	movhi	r5,763
 10212c8:	297c2004 	addi	r5,r5,-3968
 10212cc:	018001b4 	movhi	r6,6
 10212d0:	3186a004 	addi	r6,r6,6784
 10212d4:	10203940 	call	1020394 <oc_i2c_init_ex>
 10212d8:	e0bfff15 	stw	r2,-4(fp)
	 if (!bSuccess)
 10212dc:	e0bfff17 	ldw	r2,-4(fp)
 10212e0:	1000031e 	bne	r2,zero,10212f0 <LIS2DH12_Init+0x58>
	     printf("failed to init i2c clock\r\n");
 10212e4:	010040f4 	movhi	r4,259
 10212e8:	210f7504 	addi	r4,r4,15828
 10212ec:	1022e740 	call	1022e74 <puts>
	 if (bSuccess)
 10212f0:	e0bfff17 	ldw	r2,-4(fp)
 10212f4:	10000426 	beq	r2,zero,1021308 <LIS2DH12_Init+0x70>
		 bSuccess= LIS2DH12_wr_reg(CTRL_REG1,CTRL_REG1_value);
 10212f8:	01000804 	movi	r4,32
 10212fc:	014025c4 	movi	r5,151
 1021300:	10211a00 	call	10211a0 <LIS2DH12_wr_reg>
 1021304:	e0bfff15 	stw	r2,-4(fp)
	 if (bSuccess)
 1021308:	e0bfff17 	ldw	r2,-4(fp)
 102130c:	10000426 	beq	r2,zero,1021320 <LIS2DH12_Init+0x88>
		 bSuccess = LIS2DH12_wr_reg(TEMP_CFG_REG,TEMP_CFG_REG_value);
 1021310:	010007c4 	movi	r4,31
 1021314:	01403004 	movi	r5,192
 1021318:	10211a00 	call	10211a0 <LIS2DH12_wr_reg>
 102131c:	e0bfff15 	stw	r2,-4(fp)
	 if(bSuccess)
 1021320:	e0bfff17 	ldw	r2,-4(fp)
 1021324:	10000426 	beq	r2,zero,1021338 <LIS2DH12_Init+0xa0>
		 bSuccess =  LIS2DH12_wr_reg(CTRL_REG4,CTRL_REG4_value);
 1021328:	010008c4 	movi	r4,35
 102132c:	01402e04 	movi	r5,184
 1021330:	10211a00 	call	10211a0 <LIS2DH12_wr_reg>
 1021334:	e0bfff15 	stw	r2,-4(fp)

	 LIS2DH12_DEBUG(("Gsensor_Configuration  %s\r\n", bSuccess?"success":"fail"));
 1021338:	e0bfff17 	ldw	r2,-4(fp)
 102133c:	10000326 	beq	r2,zero,102134c <LIS2DH12_Init+0xb4>
 1021340:	008040f4 	movhi	r2,259
 1021344:	108f7c04 	addi	r2,r2,15856
 1021348:	00000206 	br	1021354 <LIS2DH12_Init+0xbc>
 102134c:	008040f4 	movhi	r2,259
 1021350:	108f7e04 	addi	r2,r2,15864
 1021354:	010040f4 	movhi	r4,259
 1021358:	210f8004 	addi	r4,r4,15872
 102135c:	100b883a 	mov	r5,r2
 1021360:	102101c0 	call	102101c <myprintf>

	 return bSuccess;
 1021364:	e0bfff17 	ldw	r2,-4(fp)
}
 1021368:	e037883a 	mov	sp,fp
 102136c:	dfc00117 	ldw	ra,4(sp)
 1021370:	df000017 	ldw	fp,0(sp)
 1021374:	dec00204 	addi	sp,sp,8
 1021378:	f800283a 	ret

0102137c <main>:


int main()
{
 102137c:	deffef04 	addi	sp,sp,-68
 1021380:	dfc01015 	stw	ra,64(sp)
 1021384:	df000f15 	stw	fp,60(sp)
 1021388:	dc000e15 	stw	r16,56(sp)
 102138c:	df000f04 	addi	fp,sp,60
   bool     bPass,bSuccess;
   alt_16   data_x,data_y,data_z,temp_data;
   alt_u8   temp_reg[2],data[6],status;
   alt_u16  nIndex=1;
 1021390:	00800044 	movi	r2,1
 1021394:	e0bff30d 	sth	r2,-52(fp)
   alt_16   x, y, z;
   int      i,j;
   float    temp;

   //Configuration Register
   printf("== Gsensor Demo ==\r\n");
 1021398:	010040f4 	movhi	r4,259
 102139c:	210f8704 	addi	r4,r4,15900
 10213a0:	1022e740 	call	1022e74 <puts>
   bSuccess=LIS2DH12_Init();
 10213a4:	10212980 	call	1021298 <LIS2DH12_Init>
 10213a8:	e0bff615 	stw	r2,-40(fp)
   usleep(2000);
 10213ac:	0101f404 	movi	r4,2000
 10213b0:	10319ec0 	call	10319ec <usleep>
   while(bSuccess){
 10213b4:	0000ff06 	br	10217b4 <main+0x438>
	    bPass = OC_I2C_Read(I2C_OPENCORES_0_BASE, Gsensor_I2C_ADRESS, STATUS_REG, &status, sizeof(status));
 10213b8:	e0fffe04 	addi	r3,fp,-8
 10213bc:	00800044 	movi	r2,1
 10213c0:	d8800015 	stw	r2,0(sp)
 10213c4:	01004134 	movhi	r4,260
 10213c8:	21040004 	addi	r4,r4,4096
 10213cc:	01400c84 	movi	r5,50
 10213d0:	018009c4 	movi	r6,39
 10213d4:	180f883a 	mov	r7,r3
 10213d8:	10208c00 	call	10208c0 <OC_I2C_Read>
 10213dc:	e0bff215 	stw	r2,-56(fp)
	    if (bPass){
 10213e0:	e0bff217 	ldw	r2,-56(fp)
 10213e4:	10000526 	beq	r2,zero,10213fc <main+0x80>
	    	if (!(status & 0x04))
 10213e8:	e0bffe03 	ldbu	r2,-8(fp)
 10213ec:	10803fcc 	andi	r2,r2,255
 10213f0:	1080010c 	andi	r2,r2,4
 10213f4:	1000021e 	bne	r2,zero,1021400 <main+0x84>
		    	continue;
 10213f8:	0000ee06 	br	10217b4 <main+0x438>
	    }else{
	    	continue;
 10213fc:	0000ed06 	br	10217b4 <main+0x438>
	    }
	   // Read Temperature
	    for(j=0; j<2;j++)
 1021400:	e03ff515 	stw	zero,-44(fp)
 1021404:	00001106 	br	102144c <main+0xd0>
    	bPass = OC_I2C_Read(I2C_OPENCORES_0_BASE, Gsensor_I2C_ADRESS,OUT_TEMP_L+j, &temp_reg[j], 1);
 1021408:	e0bff517 	ldw	r2,-44(fp)
 102140c:	10800304 	addi	r2,r2,12
 1021410:	11803fcc 	andi	r6,r2,255
 1021414:	e0fffc04 	addi	r3,fp,-16
 1021418:	e0bff517 	ldw	r2,-44(fp)
 102141c:	1887883a 	add	r3,r3,r2
 1021420:	00800044 	movi	r2,1
 1021424:	d8800015 	stw	r2,0(sp)
 1021428:	01004134 	movhi	r4,260
 102142c:	21040004 	addi	r4,r4,4096
 1021430:	01400c84 	movi	r5,50
 1021434:	180f883a 	mov	r7,r3
 1021438:	10208c00 	call	10208c0 <OC_I2C_Read>
 102143c:	e0bff215 	stw	r2,-56(fp)
		    	continue;
	    }else{
	    	continue;
	    }
	   // Read Temperature
	    for(j=0; j<2;j++)
 1021440:	e0bff517 	ldw	r2,-44(fp)
 1021444:	10800044 	addi	r2,r2,1
 1021448:	e0bff515 	stw	r2,-44(fp)
 102144c:	e0bff517 	ldw	r2,-44(fp)
 1021450:	10800090 	cmplti	r2,r2,2
 1021454:	103fec1e 	bne	r2,zero,1021408 <_gp+0xfffe3784>
    	bPass = OC_I2C_Read(I2C_OPENCORES_0_BASE, Gsensor_I2C_ADRESS,OUT_TEMP_L+j, &temp_reg[j], 1);
    	if(bPass){
 1021458:	e0bff217 	ldw	r2,-56(fp)
 102145c:	10002726 	beq	r2,zero,10214fc <main+0x180>
		      temp_data = ((temp_reg[1]<<8)|temp_reg[0]);
 1021460:	e0bffc43 	ldbu	r2,-15(fp)
 1021464:	10803fcc 	andi	r2,r2,255
 1021468:	1004923a 	slli	r2,r2,8
 102146c:	1007883a 	mov	r3,r2
 1021470:	e0bffc03 	ldbu	r2,-16(fp)
 1021474:	10803fcc 	andi	r2,r2,255
 1021478:	1884b03a 	or	r2,r3,r2
 102147c:	e0bff70d 	sth	r2,-36(fp)
	          temp = (float)(temp_data/256.0);
 1021480:	e0bff70f 	ldh	r2,-36(fp)
 1021484:	1009883a 	mov	r4,r2
 1021488:	10229780 	call	1022978 <__floatsidf>
 102148c:	100b883a 	mov	r5,r2
 1021490:	180d883a 	mov	r6,r3
 1021494:	2809883a 	mov	r4,r5
 1021498:	300b883a 	mov	r5,r6
 102149c:	000d883a 	mov	r6,zero
 10214a0:	01d01c34 	movhi	r7,16496
 10214a4:	10219000 	call	1021900 <__divdf3>
 10214a8:	1009883a 	mov	r4,r2
 10214ac:	180b883a 	mov	r5,r3
 10214b0:	2005883a 	mov	r2,r4
 10214b4:	2807883a 	mov	r3,r5
 10214b8:	1009883a 	mov	r4,r2
 10214bc:	180b883a 	mov	r5,r3
 10214c0:	1022b580 	call	1022b58 <__truncdfsf2>
 10214c4:	1007883a 	mov	r3,r2
 10214c8:	e0fff815 	stw	r3,-32(fp)
	          printf("[%d]Temperature: %.2f *C \n",nIndex, temp);
 10214cc:	e43ff30b 	ldhu	r16,-52(fp)
 10214d0:	e13ff817 	ldw	r4,-32(fp)
 10214d4:	1022a480 	call	1022a48 <__extendsfdf2>
 10214d8:	100f883a 	mov	r7,r2
 10214dc:	1811883a 	mov	r8,r3
 10214e0:	010040f4 	movhi	r4,259
 10214e4:	210f8c04 	addi	r4,r4,15920
 10214e8:	800b883a 	mov	r5,r16
 10214ec:	380d883a 	mov	r6,r7
 10214f0:	400f883a 	mov	r7,r8
 10214f4:	1022d800 	call	1022d80 <printf>
 10214f8:	00000306 	br	1021508 <main+0x18c>
    	}else{
    	   	      printf("Read Temperature failed!\n");}
 10214fc:	010040f4 	movhi	r4,259
 1021500:	210f9304 	addi	r4,r4,15948
 1021504:	1022e740 	call	1022e74 <puts>

        // Read X/Y/Z-axis
    	for(i=0; i<6;i++)
 1021508:	e03ff415 	stw	zero,-48(fp)
 102150c:	00001106 	br	1021554 <main+0x1d8>
    		bPass = OC_I2C_Read(I2C_OPENCORES_0_BASE, Gsensor_I2C_ADRESS,OUT_X_L+i,  &data[i], 1);
 1021510:	e0bff417 	ldw	r2,-48(fp)
 1021514:	10800a04 	addi	r2,r2,40
 1021518:	11803fcc 	andi	r6,r2,255
 102151c:	e0fffc84 	addi	r3,fp,-14
 1021520:	e0bff417 	ldw	r2,-48(fp)
 1021524:	1887883a 	add	r3,r3,r2
 1021528:	00800044 	movi	r2,1
 102152c:	d8800015 	stw	r2,0(sp)
 1021530:	01004134 	movhi	r4,260
 1021534:	21040004 	addi	r4,r4,4096
 1021538:	01400c84 	movi	r5,50
 102153c:	180f883a 	mov	r7,r3
 1021540:	10208c00 	call	10208c0 <OC_I2C_Read>
 1021544:	e0bff215 	stw	r2,-56(fp)
	          printf("[%d]Temperature: %.2f *C \n",nIndex, temp);
    	}else{
    	   	      printf("Read Temperature failed!\n");}

        // Read X/Y/Z-axis
    	for(i=0; i<6;i++)
 1021548:	e0bff417 	ldw	r2,-48(fp)
 102154c:	10800044 	addi	r2,r2,1
 1021550:	e0bff415 	stw	r2,-48(fp)
 1021554:	e0bff417 	ldw	r2,-48(fp)
 1021558:	10800190 	cmplti	r2,r2,6
 102155c:	103fec1e 	bne	r2,zero,1021510 <_gp+0xfffe388c>
    		bPass = OC_I2C_Read(I2C_OPENCORES_0_BASE, Gsensor_I2C_ADRESS,OUT_X_L+i,  &data[i], 1);
    	if(bPass){
 1021560:	e0bff217 	ldw	r2,-56(fp)
 1021564:	10008a26 	beq	r2,zero,1021790 <main+0x414>
		      data_x = ((data[1]<<8)|data[0]);
 1021568:	e0bffcc3 	ldbu	r2,-13(fp)
 102156c:	10803fcc 	andi	r2,r2,255
 1021570:	1004923a 	slli	r2,r2,8
 1021574:	1007883a 	mov	r3,r2
 1021578:	e0bffc83 	ldbu	r2,-14(fp)
 102157c:	10803fcc 	andi	r2,r2,255
 1021580:	1884b03a 	or	r2,r3,r2
 1021584:	e0bff90d 	sth	r2,-28(fp)
		      data_y = ((data[3]<<8)|data[2]);
 1021588:	e0bffd43 	ldbu	r2,-11(fp)
 102158c:	10803fcc 	andi	r2,r2,255
 1021590:	1004923a 	slli	r2,r2,8
 1021594:	1007883a 	mov	r3,r2
 1021598:	e0bffd03 	ldbu	r2,-12(fp)
 102159c:	10803fcc 	andi	r2,r2,255
 10215a0:	1884b03a 	or	r2,r3,r2
 10215a4:	e0bff98d 	sth	r2,-26(fp)
		      data_z = ((data[5]<<8)|data[4]);
 10215a8:	e0bffdc3 	ldbu	r2,-9(fp)
 10215ac:	10803fcc 	andi	r2,r2,255
 10215b0:	1004923a 	slli	r2,r2,8
 10215b4:	1007883a 	mov	r3,r2
 10215b8:	e0bffd83 	ldbu	r2,-10(fp)
 10215bc:	10803fcc 	andi	r2,r2,255
 10215c0:	1884b03a 	or	r2,r3,r2
 10215c4:	e0bffa0d 	sth	r2,-24(fp)
	          x = (float)(data_x/16.0)*12.0;
 10215c8:	e0bff90f 	ldh	r2,-28(fp)
 10215cc:	1009883a 	mov	r4,r2
 10215d0:	10229780 	call	1022978 <__floatsidf>
 10215d4:	100b883a 	mov	r5,r2
 10215d8:	180d883a 	mov	r6,r3
 10215dc:	2809883a 	mov	r4,r5
 10215e0:	300b883a 	mov	r5,r6
 10215e4:	000d883a 	mov	r6,zero
 10215e8:	01d00c34 	movhi	r7,16432
 10215ec:	10219000 	call	1021900 <__divdf3>
 10215f0:	1009883a 	mov	r4,r2
 10215f4:	180b883a 	mov	r5,r3
 10215f8:	2005883a 	mov	r2,r4
 10215fc:	2807883a 	mov	r3,r5
 1021600:	1009883a 	mov	r4,r2
 1021604:	180b883a 	mov	r5,r3
 1021608:	1022b580 	call	1022b58 <__truncdfsf2>
 102160c:	1007883a 	mov	r3,r2
 1021610:	1809883a 	mov	r4,r3
 1021614:	1022a480 	call	1022a48 <__extendsfdf2>
 1021618:	100b883a 	mov	r5,r2
 102161c:	180d883a 	mov	r6,r3
 1021620:	2809883a 	mov	r4,r5
 1021624:	300b883a 	mov	r5,r6
 1021628:	000d883a 	mov	r6,zero
 102162c:	01d00a34 	movhi	r7,16424
 1021630:	10221cc0 	call	10221cc <__muldf3>
 1021634:	1009883a 	mov	r4,r2
 1021638:	180b883a 	mov	r5,r3
 102163c:	2005883a 	mov	r2,r4
 1021640:	2807883a 	mov	r3,r5
 1021644:	1009883a 	mov	r4,r2
 1021648:	180b883a 	mov	r5,r3
 102164c:	10228f00 	call	10228f0 <__fixdfsi>
 1021650:	e0bffa8d 	sth	r2,-22(fp)
	          y = (float)(data_y/16.0)*12.0;
 1021654:	e0bff98f 	ldh	r2,-26(fp)
 1021658:	1009883a 	mov	r4,r2
 102165c:	10229780 	call	1022978 <__floatsidf>
 1021660:	100b883a 	mov	r5,r2
 1021664:	180d883a 	mov	r6,r3
 1021668:	2809883a 	mov	r4,r5
 102166c:	300b883a 	mov	r5,r6
 1021670:	000d883a 	mov	r6,zero
 1021674:	01d00c34 	movhi	r7,16432
 1021678:	10219000 	call	1021900 <__divdf3>
 102167c:	1009883a 	mov	r4,r2
 1021680:	180b883a 	mov	r5,r3
 1021684:	2005883a 	mov	r2,r4
 1021688:	2807883a 	mov	r3,r5
 102168c:	1009883a 	mov	r4,r2
 1021690:	180b883a 	mov	r5,r3
 1021694:	1022b580 	call	1022b58 <__truncdfsf2>
 1021698:	1007883a 	mov	r3,r2
 102169c:	1809883a 	mov	r4,r3
 10216a0:	1022a480 	call	1022a48 <__extendsfdf2>
 10216a4:	100b883a 	mov	r5,r2
 10216a8:	180d883a 	mov	r6,r3
 10216ac:	2809883a 	mov	r4,r5
 10216b0:	300b883a 	mov	r5,r6
 10216b4:	000d883a 	mov	r6,zero
 10216b8:	01d00a34 	movhi	r7,16424
 10216bc:	10221cc0 	call	10221cc <__muldf3>
 10216c0:	1009883a 	mov	r4,r2
 10216c4:	180b883a 	mov	r5,r3
 10216c8:	2005883a 	mov	r2,r4
 10216cc:	2807883a 	mov	r3,r5
 10216d0:	1009883a 	mov	r4,r2
 10216d4:	180b883a 	mov	r5,r3
 10216d8:	10228f00 	call	10228f0 <__fixdfsi>
 10216dc:	e0bffb0d 	sth	r2,-20(fp)
	          z = (float)(data_z/16.0)*12.0;
 10216e0:	e0bffa0f 	ldh	r2,-24(fp)
 10216e4:	1009883a 	mov	r4,r2
 10216e8:	10229780 	call	1022978 <__floatsidf>
 10216ec:	100b883a 	mov	r5,r2
 10216f0:	180d883a 	mov	r6,r3
 10216f4:	2809883a 	mov	r4,r5
 10216f8:	300b883a 	mov	r5,r6
 10216fc:	000d883a 	mov	r6,zero
 1021700:	01d00c34 	movhi	r7,16432
 1021704:	10219000 	call	1021900 <__divdf3>
 1021708:	1009883a 	mov	r4,r2
 102170c:	180b883a 	mov	r5,r3
 1021710:	2005883a 	mov	r2,r4
 1021714:	2807883a 	mov	r3,r5
 1021718:	1009883a 	mov	r4,r2
 102171c:	180b883a 	mov	r5,r3
 1021720:	1022b580 	call	1022b58 <__truncdfsf2>
 1021724:	1007883a 	mov	r3,r2
 1021728:	1809883a 	mov	r4,r3
 102172c:	1022a480 	call	1022a48 <__extendsfdf2>
 1021730:	100b883a 	mov	r5,r2
 1021734:	180d883a 	mov	r6,r3
 1021738:	2809883a 	mov	r4,r5
 102173c:	300b883a 	mov	r5,r6
 1021740:	000d883a 	mov	r6,zero
 1021744:	01d00a34 	movhi	r7,16424
 1021748:	10221cc0 	call	10221cc <__muldf3>
 102174c:	1009883a 	mov	r4,r2
 1021750:	180b883a 	mov	r5,r3
 1021754:	2005883a 	mov	r2,r4
 1021758:	2807883a 	mov	r3,r5
 102175c:	1009883a 	mov	r4,r2
 1021760:	180b883a 	mov	r5,r3
 1021764:	10228f00 	call	10228f0 <__fixdfsi>
 1021768:	e0bffb8d 	sth	r2,-18(fp)
		      printf("   X=%dmg, Y=%dmg, Z=%dmg \r\n", x, y, z);
 102176c:	e17ffa8f 	ldh	r5,-22(fp)
 1021770:	e0fffb0f 	ldh	r3,-20(fp)
 1021774:	e0bffb8f 	ldh	r2,-18(fp)
 1021778:	010040f4 	movhi	r4,259
 102177c:	210f9a04 	addi	r4,r4,15976
 1021780:	180d883a 	mov	r6,r3
 1021784:	100f883a 	mov	r7,r2
 1021788:	1022d800 	call	1022d80 <printf>
 102178c:	00000306 	br	102179c <main+0x420>
    	}else{
   	              printf("Read Gsensor failed!\n");}
 1021790:	010040f4 	movhi	r4,259
 1021794:	210fa204 	addi	r4,r4,16008
 1021798:	1022e740 	call	1022e74 <puts>

        usleep(1000*2000);
 102179c:	010007f4 	movhi	r4,31
 10217a0:	21212004 	addi	r4,r4,-31616
 10217a4:	10319ec0 	call	10319ec <usleep>
        nIndex++;
 10217a8:	e0bff30b 	ldhu	r2,-52(fp)
 10217ac:	10800044 	addi	r2,r2,1
 10217b0:	e0bff30d 	sth	r2,-52(fp)

   //Configuration Register
   printf("== Gsensor Demo ==\r\n");
   bSuccess=LIS2DH12_Init();
   usleep(2000);
   while(bSuccess){
 10217b4:	e0bff617 	ldw	r2,-40(fp)
 10217b8:	103eff1e 	bne	r2,zero,10213b8 <_gp+0xfffe3734>

        usleep(1000*2000);
        nIndex++;
    }

 }
 10217bc:	e6ffff04 	addi	sp,fp,-4
 10217c0:	dfc00217 	ldw	ra,8(sp)
 10217c4:	df000117 	ldw	fp,4(sp)
 10217c8:	dc000017 	ldw	r16,0(sp)
 10217cc:	dec00304 	addi	sp,sp,12
 10217d0:	f800283a 	ret

010217d4 <udivmodsi4>:
 10217d4:	2900182e 	bgeu	r5,r4,1021838 <udivmodsi4+0x64>
 10217d8:	28001716 	blt	r5,zero,1021838 <udivmodsi4+0x64>
 10217dc:	00800804 	movi	r2,32
 10217e0:	00c00044 	movi	r3,1
 10217e4:	00000206 	br	10217f0 <udivmodsi4+0x1c>
 10217e8:	10001126 	beq	r2,zero,1021830 <udivmodsi4+0x5c>
 10217ec:	28000516 	blt	r5,zero,1021804 <udivmodsi4+0x30>
 10217f0:	294b883a 	add	r5,r5,r5
 10217f4:	10bfffc4 	addi	r2,r2,-1
 10217f8:	18c7883a 	add	r3,r3,r3
 10217fc:	293ffa36 	bltu	r5,r4,10217e8 <_gp+0xfffe3b64>
 1021800:	18000b26 	beq	r3,zero,1021830 <udivmodsi4+0x5c>
 1021804:	0005883a 	mov	r2,zero
 1021808:	21400236 	bltu	r4,r5,1021814 <udivmodsi4+0x40>
 102180c:	2149c83a 	sub	r4,r4,r5
 1021810:	10c4b03a 	or	r2,r2,r3
 1021814:	1806d07a 	srli	r3,r3,1
 1021818:	280ad07a 	srli	r5,r5,1
 102181c:	183ffa1e 	bne	r3,zero,1021808 <_gp+0xfffe3b84>
 1021820:	3000011e 	bne	r6,zero,1021828 <udivmodsi4+0x54>
 1021824:	f800283a 	ret
 1021828:	2005883a 	mov	r2,r4
 102182c:	f800283a 	ret
 1021830:	0005883a 	mov	r2,zero
 1021834:	003ffa06 	br	1021820 <_gp+0xfffe3b9c>
 1021838:	00c00044 	movi	r3,1
 102183c:	003ff106 	br	1021804 <_gp+0xfffe3b80>

01021840 <__divsi3>:
 1021840:	defffe04 	addi	sp,sp,-8
 1021844:	dfc00115 	stw	ra,4(sp)
 1021848:	dc000015 	stw	r16,0(sp)
 102184c:	20000b16 	blt	r4,zero,102187c <__divsi3+0x3c>
 1021850:	0021883a 	mov	r16,zero
 1021854:	28000c16 	blt	r5,zero,1021888 <__divsi3+0x48>
 1021858:	000d883a 	mov	r6,zero
 102185c:	10217d40 	call	10217d4 <udivmodsi4>
 1021860:	0407c83a 	sub	r3,zero,r16
 1021864:	1884f03a 	xor	r2,r3,r2
 1021868:	1405883a 	add	r2,r2,r16
 102186c:	dfc00117 	ldw	ra,4(sp)
 1021870:	dc000017 	ldw	r16,0(sp)
 1021874:	dec00204 	addi	sp,sp,8
 1021878:	f800283a 	ret
 102187c:	0109c83a 	sub	r4,zero,r4
 1021880:	04000044 	movi	r16,1
 1021884:	283ff40e 	bge	r5,zero,1021858 <_gp+0xfffe3bd4>
 1021888:	014bc83a 	sub	r5,zero,r5
 102188c:	8400005c 	xori	r16,r16,1
 1021890:	003ff106 	br	1021858 <_gp+0xfffe3bd4>

01021894 <__modsi3>:
 1021894:	defffd04 	addi	sp,sp,-12
 1021898:	dfc00215 	stw	ra,8(sp)
 102189c:	dc400115 	stw	r17,4(sp)
 10218a0:	dc000015 	stw	r16,0(sp)
 10218a4:	20000c16 	blt	r4,zero,10218d8 <__modsi3+0x44>
 10218a8:	0023883a 	mov	r17,zero
 10218ac:	0021883a 	mov	r16,zero
 10218b0:	28000d16 	blt	r5,zero,10218e8 <__modsi3+0x54>
 10218b4:	01800044 	movi	r6,1
 10218b8:	10217d40 	call	10217d4 <udivmodsi4>
 10218bc:	1404f03a 	xor	r2,r2,r16
 10218c0:	8885883a 	add	r2,r17,r2
 10218c4:	dfc00217 	ldw	ra,8(sp)
 10218c8:	dc400117 	ldw	r17,4(sp)
 10218cc:	dc000017 	ldw	r16,0(sp)
 10218d0:	dec00304 	addi	sp,sp,12
 10218d4:	f800283a 	ret
 10218d8:	0109c83a 	sub	r4,zero,r4
 10218dc:	04400044 	movi	r17,1
 10218e0:	043fffc4 	movi	r16,-1
 10218e4:	283ff30e 	bge	r5,zero,10218b4 <_gp+0xfffe3c30>
 10218e8:	014bc83a 	sub	r5,zero,r5
 10218ec:	003ff106 	br	10218b4 <_gp+0xfffe3c30>

010218f0 <__udivsi3>:
 10218f0:	000d883a 	mov	r6,zero
 10218f4:	10217d41 	jmpi	10217d4 <udivmodsi4>

010218f8 <__umodsi3>:
 10218f8:	01800044 	movi	r6,1
 10218fc:	10217d41 	jmpi	10217d4 <udivmodsi4>

01021900 <__divdf3>:
 1021900:	defff204 	addi	sp,sp,-56
 1021904:	dd000815 	stw	r20,32(sp)
 1021908:	2828d53a 	srli	r20,r5,20
 102190c:	dd800a15 	stw	r22,40(sp)
 1021910:	282cd7fa 	srli	r22,r5,31
 1021914:	dc000415 	stw	r16,16(sp)
 1021918:	04000434 	movhi	r16,16
 102191c:	df000c15 	stw	fp,48(sp)
 1021920:	dcc00715 	stw	r19,28(sp)
 1021924:	dc800615 	stw	r18,24(sp)
 1021928:	dc400515 	stw	r17,20(sp)
 102192c:	843fffc4 	addi	r16,r16,-1
 1021930:	dfc00d15 	stw	ra,52(sp)
 1021934:	ddc00b15 	stw	r23,44(sp)
 1021938:	dd400915 	stw	r21,36(sp)
 102193c:	a501ffcc 	andi	r20,r20,2047
 1021940:	2025883a 	mov	r18,r4
 1021944:	2027883a 	mov	r19,r4
 1021948:	2c22703a 	and	r17,r5,r16
 102194c:	b7003fcc 	andi	fp,r22,255
 1021950:	a0005e26 	beq	r20,zero,1021acc <__divdf3+0x1cc>
 1021954:	0081ffc4 	movi	r2,2047
 1021958:	a0803526 	beq	r20,r2,1021a30 <__divdf3+0x130>
 102195c:	8c000434 	orhi	r16,r17,16
 1021960:	2004d77a 	srli	r2,r4,29
 1021964:	802090fa 	slli	r16,r16,3
 1021968:	202690fa 	slli	r19,r4,3
 102196c:	a53f0044 	addi	r20,r20,-1023
 1021970:	80a2b03a 	or	r17,r16,r2
 1021974:	0025883a 	mov	r18,zero
 1021978:	0011883a 	mov	r8,zero
 102197c:	380ad53a 	srli	r5,r7,20
 1021980:	382ed7fa 	srli	r23,r7,31
 1021984:	04000434 	movhi	r16,16
 1021988:	843fffc4 	addi	r16,r16,-1
 102198c:	2941ffcc 	andi	r5,r5,2047
 1021990:	302b883a 	mov	r21,r6
 1021994:	3c20703a 	and	r16,r7,r16
 1021998:	ba403fcc 	andi	r9,r23,255
 102199c:	28006726 	beq	r5,zero,1021b3c <__divdf3+0x23c>
 10219a0:	0081ffc4 	movi	r2,2047
 10219a4:	28805f26 	beq	r5,r2,1021b24 <__divdf3+0x224>
 10219a8:	84000434 	orhi	r16,r16,16
 10219ac:	3004d77a 	srli	r2,r6,29
 10219b0:	802090fa 	slli	r16,r16,3
 10219b4:	302a90fa 	slli	r21,r6,3
 10219b8:	297f0044 	addi	r5,r5,-1023
 10219bc:	80a0b03a 	or	r16,r16,r2
 10219c0:	000f883a 	mov	r7,zero
 10219c4:	3c86b03a 	or	r3,r7,r18
 10219c8:	180690ba 	slli	r3,r3,2
 10219cc:	008040b4 	movhi	r2,258
 10219d0:	10867c04 	addi	r2,r2,6640
 10219d4:	1887883a 	add	r3,r3,r2
 10219d8:	18c00017 	ldw	r3,0(r3)
 10219dc:	b5c8f03a 	xor	r4,r22,r23
 10219e0:	200d883a 	mov	r6,r4
 10219e4:	24803fcc 	andi	r18,r4,255
 10219e8:	a169c83a 	sub	r20,r20,r5
 10219ec:	1800683a 	jmp	r3
 10219f0:	01021c38 	rdprs	r4,zero,2160
 10219f4:	01021a68 	cmpgeui	r4,zero,2153
 10219f8:	01021bfc 	xorhi	r4,zero,2159
 10219fc:	01021a4c 	andi	r4,zero,2153
 1021a00:	01021bfc 	xorhi	r4,zero,2159
 1021a04:	01021bd0 	cmplti	r4,zero,2159
 1021a08:	01021bfc 	xorhi	r4,zero,2159
 1021a0c:	01021a4c 	andi	r4,zero,2153
 1021a10:	01021a68 	cmpgeui	r4,zero,2153
 1021a14:	01021a68 	cmpgeui	r4,zero,2153
 1021a18:	01021bd0 	cmplti	r4,zero,2159
 1021a1c:	01021a4c 	andi	r4,zero,2153
 1021a20:	01021a5c 	xori	r4,zero,2153
 1021a24:	01021a5c 	xori	r4,zero,2153
 1021a28:	01021a5c 	xori	r4,zero,2153
 1021a2c:	01021c0c 	andi	r4,zero,2160
 1021a30:	8904b03a 	or	r2,r17,r4
 1021a34:	1000631e 	bne	r2,zero,1021bc4 <__divdf3+0x2c4>
 1021a38:	04800204 	movi	r18,8
 1021a3c:	0023883a 	mov	r17,zero
 1021a40:	0027883a 	mov	r19,zero
 1021a44:	02000084 	movi	r8,2
 1021a48:	003fcc06 	br	102197c <_gp+0xfffe3cf8>
 1021a4c:	8023883a 	mov	r17,r16
 1021a50:	a827883a 	mov	r19,r21
 1021a54:	4839883a 	mov	fp,r9
 1021a58:	3811883a 	mov	r8,r7
 1021a5c:	00800084 	movi	r2,2
 1021a60:	40812a1e 	bne	r8,r2,1021f0c <__divdf3+0x60c>
 1021a64:	e025883a 	mov	r18,fp
 1021a68:	9180004c 	andi	r6,r18,1
 1021a6c:	0101ffc4 	movi	r4,2047
 1021a70:	000b883a 	mov	r5,zero
 1021a74:	0027883a 	mov	r19,zero
 1021a78:	2008953a 	slli	r4,r4,20
 1021a7c:	30c03fcc 	andi	r3,r6,255
 1021a80:	04000434 	movhi	r16,16
 1021a84:	180697fa 	slli	r3,r3,31
 1021a88:	843fffc4 	addi	r16,r16,-1
 1021a8c:	2c20703a 	and	r16,r5,r16
 1021a90:	8120b03a 	or	r16,r16,r4
 1021a94:	80c6b03a 	or	r3,r16,r3
 1021a98:	9805883a 	mov	r2,r19
 1021a9c:	dfc00d17 	ldw	ra,52(sp)
 1021aa0:	df000c17 	ldw	fp,48(sp)
 1021aa4:	ddc00b17 	ldw	r23,44(sp)
 1021aa8:	dd800a17 	ldw	r22,40(sp)
 1021aac:	dd400917 	ldw	r21,36(sp)
 1021ab0:	dd000817 	ldw	r20,32(sp)
 1021ab4:	dcc00717 	ldw	r19,28(sp)
 1021ab8:	dc800617 	ldw	r18,24(sp)
 1021abc:	dc400517 	ldw	r17,20(sp)
 1021ac0:	dc000417 	ldw	r16,16(sp)
 1021ac4:	dec00e04 	addi	sp,sp,56
 1021ac8:	f800283a 	ret
 1021acc:	8904b03a 	or	r2,r17,r4
 1021ad0:	10003726 	beq	r2,zero,1021bb0 <__divdf3+0x2b0>
 1021ad4:	88011c26 	beq	r17,zero,1021f48 <__divdf3+0x648>
 1021ad8:	8809883a 	mov	r4,r17
 1021adc:	d9800315 	stw	r6,12(sp)
 1021ae0:	d9c00115 	stw	r7,4(sp)
 1021ae4:	1022cf00 	call	1022cf0 <__clzsi2>
 1021ae8:	d9800317 	ldw	r6,12(sp)
 1021aec:	d9c00117 	ldw	r7,4(sp)
 1021af0:	1007883a 	mov	r3,r2
 1021af4:	01000a04 	movi	r4,40
 1021af8:	1cfffe04 	addi	r19,r3,-8
 1021afc:	20c9c83a 	sub	r4,r4,r3
 1021b00:	8cca983a 	sll	r5,r17,r19
 1021b04:	9108d83a 	srl	r4,r18,r4
 1021b08:	94e6983a 	sll	r19,r18,r19
 1021b0c:	2162b03a 	or	r17,r4,r5
 1021b10:	053f0344 	movi	r20,-1011
 1021b14:	a0e9c83a 	sub	r20,r20,r3
 1021b18:	0025883a 	mov	r18,zero
 1021b1c:	0011883a 	mov	r8,zero
 1021b20:	003f9606 	br	102197c <_gp+0xfffe3cf8>
 1021b24:	8184b03a 	or	r2,r16,r6
 1021b28:	10001f1e 	bne	r2,zero,1021ba8 <__divdf3+0x2a8>
 1021b2c:	0021883a 	mov	r16,zero
 1021b30:	002b883a 	mov	r21,zero
 1021b34:	01c00084 	movi	r7,2
 1021b38:	003fa206 	br	10219c4 <_gp+0xfffe3d40>
 1021b3c:	8184b03a 	or	r2,r16,r6
 1021b40:	10001526 	beq	r2,zero,1021b98 <__divdf3+0x298>
 1021b44:	80010c26 	beq	r16,zero,1021f78 <__divdf3+0x678>
 1021b48:	8009883a 	mov	r4,r16
 1021b4c:	d9800315 	stw	r6,12(sp)
 1021b50:	da000215 	stw	r8,8(sp)
 1021b54:	da400015 	stw	r9,0(sp)
 1021b58:	1022cf00 	call	1022cf0 <__clzsi2>
 1021b5c:	d9800317 	ldw	r6,12(sp)
 1021b60:	da000217 	ldw	r8,8(sp)
 1021b64:	da400017 	ldw	r9,0(sp)
 1021b68:	1007883a 	mov	r3,r2
 1021b6c:	01000a04 	movi	r4,40
 1021b70:	1d7ffe04 	addi	r21,r3,-8
 1021b74:	20c9c83a 	sub	r4,r4,r3
 1021b78:	8560983a 	sll	r16,r16,r21
 1021b7c:	3108d83a 	srl	r4,r6,r4
 1021b80:	356a983a 	sll	r21,r6,r21
 1021b84:	2420b03a 	or	r16,r4,r16
 1021b88:	017f0344 	movi	r5,-1011
 1021b8c:	28cbc83a 	sub	r5,r5,r3
 1021b90:	000f883a 	mov	r7,zero
 1021b94:	003f8b06 	br	10219c4 <_gp+0xfffe3d40>
 1021b98:	0021883a 	mov	r16,zero
 1021b9c:	002b883a 	mov	r21,zero
 1021ba0:	01c00044 	movi	r7,1
 1021ba4:	003f8706 	br	10219c4 <_gp+0xfffe3d40>
 1021ba8:	01c000c4 	movi	r7,3
 1021bac:	003f8506 	br	10219c4 <_gp+0xfffe3d40>
 1021bb0:	04800104 	movi	r18,4
 1021bb4:	0023883a 	mov	r17,zero
 1021bb8:	0027883a 	mov	r19,zero
 1021bbc:	02000044 	movi	r8,1
 1021bc0:	003f6e06 	br	102197c <_gp+0xfffe3cf8>
 1021bc4:	04800304 	movi	r18,12
 1021bc8:	020000c4 	movi	r8,3
 1021bcc:	003f6b06 	br	102197c <_gp+0xfffe3cf8>
 1021bd0:	01400434 	movhi	r5,16
 1021bd4:	000d883a 	mov	r6,zero
 1021bd8:	297fffc4 	addi	r5,r5,-1
 1021bdc:	04ffffc4 	movi	r19,-1
 1021be0:	0101ffc4 	movi	r4,2047
 1021be4:	003fa406 	br	1021a78 <_gp+0xfffe3df4>
 1021be8:	043f0084 	movi	r16,-1022
 1021bec:	8521c83a 	sub	r16,r16,r20
 1021bf0:	00800e04 	movi	r2,56
 1021bf4:	1401200e 	bge	r2,r16,1022078 <__divdf3+0x778>
 1021bf8:	9180004c 	andi	r6,r18,1
 1021bfc:	0009883a 	mov	r4,zero
 1021c00:	000b883a 	mov	r5,zero
 1021c04:	0027883a 	mov	r19,zero
 1021c08:	003f9b06 	br	1021a78 <_gp+0xfffe3df4>
 1021c0c:	8880022c 	andhi	r2,r17,8
 1021c10:	1000c726 	beq	r2,zero,1021f30 <__divdf3+0x630>
 1021c14:	8080022c 	andhi	r2,r16,8
 1021c18:	1000c51e 	bne	r2,zero,1021f30 <__divdf3+0x630>
 1021c1c:	00800434 	movhi	r2,16
 1021c20:	81400234 	orhi	r5,r16,8
 1021c24:	10bfffc4 	addi	r2,r2,-1
 1021c28:	b80d883a 	mov	r6,r23
 1021c2c:	288a703a 	and	r5,r5,r2
 1021c30:	a827883a 	mov	r19,r21
 1021c34:	003fea06 	br	1021be0 <_gp+0xfffe3f5c>
 1021c38:	8440ea36 	bltu	r16,r17,1021fe4 <__divdf3+0x6e4>
 1021c3c:	8c00e826 	beq	r17,r16,1021fe0 <__divdf3+0x6e0>
 1021c40:	a53fffc4 	addi	r20,r20,-1
 1021c44:	882d883a 	mov	r22,r17
 1021c48:	000d883a 	mov	r6,zero
 1021c4c:	a804d63a 	srli	r2,r21,24
 1021c50:	8020923a 	slli	r16,r16,8
 1021c54:	b009883a 	mov	r4,r22
 1021c58:	d9800315 	stw	r6,12(sp)
 1021c5c:	1420b03a 	or	r16,r2,r16
 1021c60:	802ed43a 	srli	r23,r16,16
 1021c64:	873fffcc 	andi	fp,r16,65535
 1021c68:	a82a923a 	slli	r21,r21,8
 1021c6c:	b80b883a 	mov	r5,r23
 1021c70:	10218f00 	call	10218f0 <__udivsi3>
 1021c74:	b009883a 	mov	r4,r22
 1021c78:	b80b883a 	mov	r5,r23
 1021c7c:	1023883a 	mov	r17,r2
 1021c80:	10218f80 	call	10218f8 <__umodsi3>
 1021c84:	1004943a 	slli	r2,r2,16
 1021c88:	9808d43a 	srli	r4,r19,16
 1021c8c:	8f2d383a 	mul	r22,r17,fp
 1021c90:	d9800317 	ldw	r6,12(sp)
 1021c94:	1106b03a 	or	r3,r2,r4
 1021c98:	1d80062e 	bgeu	r3,r22,1021cb4 <__divdf3+0x3b4>
 1021c9c:	1c07883a 	add	r3,r3,r16
 1021ca0:	88bfffc4 	addi	r2,r17,-1
 1021ca4:	1c00dc36 	bltu	r3,r16,1022018 <__divdf3+0x718>
 1021ca8:	1d80db2e 	bgeu	r3,r22,1022018 <__divdf3+0x718>
 1021cac:	8c7fff84 	addi	r17,r17,-2
 1021cb0:	1c07883a 	add	r3,r3,r16
 1021cb4:	1dadc83a 	sub	r22,r3,r22
 1021cb8:	b009883a 	mov	r4,r22
 1021cbc:	b80b883a 	mov	r5,r23
 1021cc0:	d9800315 	stw	r6,12(sp)
 1021cc4:	10218f00 	call	10218f0 <__udivsi3>
 1021cc8:	b009883a 	mov	r4,r22
 1021ccc:	b80b883a 	mov	r5,r23
 1021cd0:	d8800015 	stw	r2,0(sp)
 1021cd4:	10218f80 	call	10218f8 <__umodsi3>
 1021cd8:	da400017 	ldw	r9,0(sp)
 1021cdc:	1004943a 	slli	r2,r2,16
 1021ce0:	9cffffcc 	andi	r19,r19,65535
 1021ce4:	4f07383a 	mul	r3,r9,fp
 1021ce8:	14c8b03a 	or	r4,r2,r19
 1021cec:	d9800317 	ldw	r6,12(sp)
 1021cf0:	20c0062e 	bgeu	r4,r3,1021d0c <__divdf3+0x40c>
 1021cf4:	2409883a 	add	r4,r4,r16
 1021cf8:	48bfffc4 	addi	r2,r9,-1
 1021cfc:	2400c436 	bltu	r4,r16,1022010 <__divdf3+0x710>
 1021d00:	20c0c32e 	bgeu	r4,r3,1022010 <__divdf3+0x710>
 1021d04:	4a7fff84 	addi	r9,r9,-2
 1021d08:	2409883a 	add	r4,r4,r16
 1021d0c:	8822943a 	slli	r17,r17,16
 1021d10:	a80ed43a 	srli	r7,r21,16
 1021d14:	aa3fffcc 	andi	r8,r21,65535
 1021d18:	4c62b03a 	or	r17,r9,r17
 1021d1c:	8816d43a 	srli	r11,r17,16
 1021d20:	897fffcc 	andi	r5,r17,65535
 1021d24:	2a15383a 	mul	r10,r5,r8
 1021d28:	5a19383a 	mul	r12,r11,r8
 1021d2c:	29cb383a 	mul	r5,r5,r7
 1021d30:	5012d43a 	srli	r9,r10,16
 1021d34:	20c5c83a 	sub	r2,r4,r3
 1021d38:	614b883a 	add	r5,r12,r5
 1021d3c:	2a4b883a 	add	r5,r5,r9
 1021d40:	59c7383a 	mul	r3,r11,r7
 1021d44:	2b00022e 	bgeu	r5,r12,1021d50 <__divdf3+0x450>
 1021d48:	01000074 	movhi	r4,1
 1021d4c:	1907883a 	add	r3,r3,r4
 1021d50:	2808d43a 	srli	r4,r5,16
 1021d54:	280a943a 	slli	r5,r5,16
 1021d58:	54ffffcc 	andi	r19,r10,65535
 1021d5c:	1907883a 	add	r3,r3,r4
 1021d60:	2ccb883a 	add	r5,r5,r19
 1021d64:	10c09336 	bltu	r2,r3,1021fb4 <__divdf3+0x6b4>
 1021d68:	10c0ad26 	beq	r2,r3,1022020 <__divdf3+0x720>
 1021d6c:	10c7c83a 	sub	r3,r2,r3
 1021d70:	3167c83a 	sub	r19,r6,r5
 1021d74:	34ed803a 	cmpltu	r22,r6,r19
 1021d78:	1dadc83a 	sub	r22,r3,r22
 1021d7c:	b400b226 	beq	r22,r16,1022048 <__divdf3+0x748>
 1021d80:	b009883a 	mov	r4,r22
 1021d84:	b80b883a 	mov	r5,r23
 1021d88:	d9c00115 	stw	r7,4(sp)
 1021d8c:	da000215 	stw	r8,8(sp)
 1021d90:	10218f00 	call	10218f0 <__udivsi3>
 1021d94:	b009883a 	mov	r4,r22
 1021d98:	b80b883a 	mov	r5,r23
 1021d9c:	d8800315 	stw	r2,12(sp)
 1021da0:	10218f80 	call	10218f8 <__umodsi3>
 1021da4:	d9800317 	ldw	r6,12(sp)
 1021da8:	1004943a 	slli	r2,r2,16
 1021dac:	9808d43a 	srli	r4,r19,16
 1021db0:	372d383a 	mul	r22,r6,fp
 1021db4:	d9c00117 	ldw	r7,4(sp)
 1021db8:	1106b03a 	or	r3,r2,r4
 1021dbc:	da000217 	ldw	r8,8(sp)
 1021dc0:	1d80062e 	bgeu	r3,r22,1021ddc <__divdf3+0x4dc>
 1021dc4:	1c07883a 	add	r3,r3,r16
 1021dc8:	30bfffc4 	addi	r2,r6,-1
 1021dcc:	1c00a036 	bltu	r3,r16,1022050 <__divdf3+0x750>
 1021dd0:	1d809f2e 	bgeu	r3,r22,1022050 <__divdf3+0x750>
 1021dd4:	31bfff84 	addi	r6,r6,-2
 1021dd8:	1c07883a 	add	r3,r3,r16
 1021ddc:	1dadc83a 	sub	r22,r3,r22
 1021de0:	b009883a 	mov	r4,r22
 1021de4:	b80b883a 	mov	r5,r23
 1021de8:	d9800315 	stw	r6,12(sp)
 1021dec:	d9c00115 	stw	r7,4(sp)
 1021df0:	da000215 	stw	r8,8(sp)
 1021df4:	10218f00 	call	10218f0 <__udivsi3>
 1021df8:	b009883a 	mov	r4,r22
 1021dfc:	b80b883a 	mov	r5,r23
 1021e00:	d8800015 	stw	r2,0(sp)
 1021e04:	10218f80 	call	10218f8 <__umodsi3>
 1021e08:	da400017 	ldw	r9,0(sp)
 1021e0c:	1004943a 	slli	r2,r2,16
 1021e10:	993fffcc 	andi	r4,r19,65535
 1021e14:	4f39383a 	mul	fp,r9,fp
 1021e18:	1106b03a 	or	r3,r2,r4
 1021e1c:	d9800317 	ldw	r6,12(sp)
 1021e20:	d9c00117 	ldw	r7,4(sp)
 1021e24:	da000217 	ldw	r8,8(sp)
 1021e28:	1f00062e 	bgeu	r3,fp,1021e44 <__divdf3+0x544>
 1021e2c:	1c07883a 	add	r3,r3,r16
 1021e30:	48bfffc4 	addi	r2,r9,-1
 1021e34:	1c008836 	bltu	r3,r16,1022058 <__divdf3+0x758>
 1021e38:	1f00872e 	bgeu	r3,fp,1022058 <__divdf3+0x758>
 1021e3c:	4a7fff84 	addi	r9,r9,-2
 1021e40:	1c07883a 	add	r3,r3,r16
 1021e44:	3008943a 	slli	r4,r6,16
 1021e48:	1f07c83a 	sub	r3,r3,fp
 1021e4c:	4926b03a 	or	r19,r9,r4
 1021e50:	993fffcc 	andi	r4,r19,65535
 1021e54:	980cd43a 	srli	r6,r19,16
 1021e58:	220b383a 	mul	r5,r4,r8
 1021e5c:	21c5383a 	mul	r2,r4,r7
 1021e60:	3211383a 	mul	r8,r6,r8
 1021e64:	2808d43a 	srli	r4,r5,16
 1021e68:	31cf383a 	mul	r7,r6,r7
 1021e6c:	4085883a 	add	r2,r8,r2
 1021e70:	1105883a 	add	r2,r2,r4
 1021e74:	1200022e 	bgeu	r2,r8,1021e80 <__divdf3+0x580>
 1021e78:	01000074 	movhi	r4,1
 1021e7c:	390f883a 	add	r7,r7,r4
 1021e80:	1008d43a 	srli	r4,r2,16
 1021e84:	1004943a 	slli	r2,r2,16
 1021e88:	297fffcc 	andi	r5,r5,65535
 1021e8c:	390f883a 	add	r7,r7,r4
 1021e90:	1145883a 	add	r2,r2,r5
 1021e94:	19c06536 	bltu	r3,r7,102202c <__divdf3+0x72c>
 1021e98:	19c09f26 	beq	r3,r7,1022118 <__divdf3+0x818>
 1021e9c:	9cc00054 	ori	r19,r19,1
 1021ea0:	a100ffc4 	addi	r4,r20,1023
 1021ea4:	013f500e 	bge	zero,r4,1021be8 <_gp+0xfffe3f64>
 1021ea8:	988001cc 	andi	r2,r19,7
 1021eac:	10000726 	beq	r2,zero,1021ecc <__divdf3+0x5cc>
 1021eb0:	98c003cc 	andi	r3,r19,15
 1021eb4:	00800104 	movi	r2,4
 1021eb8:	18800426 	beq	r3,r2,1021ecc <__divdf3+0x5cc>
 1021ebc:	9885883a 	add	r2,r19,r2
 1021ec0:	14e1803a 	cmpltu	r16,r2,r19
 1021ec4:	8c23883a 	add	r17,r17,r16
 1021ec8:	1027883a 	mov	r19,r2
 1021ecc:	8880402c 	andhi	r2,r17,256
 1021ed0:	10000426 	beq	r2,zero,1021ee4 <__divdf3+0x5e4>
 1021ed4:	00bfc034 	movhi	r2,65280
 1021ed8:	10bfffc4 	addi	r2,r2,-1
 1021edc:	a1010004 	addi	r4,r20,1024
 1021ee0:	88a2703a 	and	r17,r17,r2
 1021ee4:	0081ff84 	movi	r2,2046
 1021ee8:	113edf16 	blt	r2,r4,1021a68 <_gp+0xfffe3de4>
 1021eec:	9826d0fa 	srli	r19,r19,3
 1021ef0:	8804977a 	slli	r2,r17,29
 1021ef4:	8820927a 	slli	r16,r17,9
 1021ef8:	2101ffcc 	andi	r4,r4,2047
 1021efc:	14e6b03a 	or	r19,r2,r19
 1021f00:	800ad33a 	srli	r5,r16,12
 1021f04:	9180004c 	andi	r6,r18,1
 1021f08:	003edb06 	br	1021a78 <_gp+0xfffe3df4>
 1021f0c:	008000c4 	movi	r2,3
 1021f10:	4080a826 	beq	r8,r2,10221b4 <__divdf3+0x8b4>
 1021f14:	00800044 	movi	r2,1
 1021f18:	4080551e 	bne	r8,r2,1022070 <__divdf3+0x770>
 1021f1c:	e00d883a 	mov	r6,fp
 1021f20:	0009883a 	mov	r4,zero
 1021f24:	000b883a 	mov	r5,zero
 1021f28:	0027883a 	mov	r19,zero
 1021f2c:	003ed206 	br	1021a78 <_gp+0xfffe3df4>
 1021f30:	00800434 	movhi	r2,16
 1021f34:	89400234 	orhi	r5,r17,8
 1021f38:	10bfffc4 	addi	r2,r2,-1
 1021f3c:	b00d883a 	mov	r6,r22
 1021f40:	288a703a 	and	r5,r5,r2
 1021f44:	003f2606 	br	1021be0 <_gp+0xfffe3f5c>
 1021f48:	d9800315 	stw	r6,12(sp)
 1021f4c:	d9c00115 	stw	r7,4(sp)
 1021f50:	1022cf00 	call	1022cf0 <__clzsi2>
 1021f54:	10c00804 	addi	r3,r2,32
 1021f58:	010009c4 	movi	r4,39
 1021f5c:	d9800317 	ldw	r6,12(sp)
 1021f60:	d9c00117 	ldw	r7,4(sp)
 1021f64:	20fee30e 	bge	r4,r3,1021af4 <_gp+0xfffe3e70>
 1021f68:	117ffe04 	addi	r5,r2,-8
 1021f6c:	9162983a 	sll	r17,r18,r5
 1021f70:	0027883a 	mov	r19,zero
 1021f74:	003ee606 	br	1021b10 <_gp+0xfffe3e8c>
 1021f78:	3009883a 	mov	r4,r6
 1021f7c:	d9800315 	stw	r6,12(sp)
 1021f80:	da000215 	stw	r8,8(sp)
 1021f84:	da400015 	stw	r9,0(sp)
 1021f88:	1022cf00 	call	1022cf0 <__clzsi2>
 1021f8c:	10c00804 	addi	r3,r2,32
 1021f90:	010009c4 	movi	r4,39
 1021f94:	d9800317 	ldw	r6,12(sp)
 1021f98:	da000217 	ldw	r8,8(sp)
 1021f9c:	da400017 	ldw	r9,0(sp)
 1021fa0:	20fef20e 	bge	r4,r3,1021b6c <_gp+0xfffe3ee8>
 1021fa4:	10bffe04 	addi	r2,r2,-8
 1021fa8:	a8a0983a 	sll	r16,r21,r2
 1021fac:	002b883a 	mov	r21,zero
 1021fb0:	003ef506 	br	1021b88 <_gp+0xfffe3f04>
 1021fb4:	354d883a 	add	r6,r6,r21
 1021fb8:	3549803a 	cmpltu	r4,r6,r21
 1021fbc:	2409883a 	add	r4,r4,r16
 1021fc0:	2089883a 	add	r4,r4,r2
 1021fc4:	88bfffc4 	addi	r2,r17,-1
 1021fc8:	81000c2e 	bgeu	r16,r4,1021ffc <__divdf3+0x6fc>
 1021fcc:	20c04436 	bltu	r4,r3,10220e0 <__divdf3+0x7e0>
 1021fd0:	19006f26 	beq	r3,r4,1022190 <__divdf3+0x890>
 1021fd4:	20c7c83a 	sub	r3,r4,r3
 1021fd8:	1023883a 	mov	r17,r2
 1021fdc:	003f6406 	br	1021d70 <_gp+0xfffe40ec>
 1021fe0:	9d7f1736 	bltu	r19,r21,1021c40 <_gp+0xfffe3fbc>
 1021fe4:	9806d07a 	srli	r3,r19,1
 1021fe8:	880497fa 	slli	r2,r17,31
 1021fec:	980c97fa 	slli	r6,r19,31
 1021ff0:	882cd07a 	srli	r22,r17,1
 1021ff4:	18a6b03a 	or	r19,r3,r2
 1021ff8:	003f1406 	br	1021c4c <_gp+0xfffe3fc8>
 1021ffc:	243ff51e 	bne	r4,r16,1021fd4 <_gp+0xfffe4350>
 1022000:	357ff22e 	bgeu	r6,r21,1021fcc <_gp+0xfffe4348>
 1022004:	80c7c83a 	sub	r3,r16,r3
 1022008:	1023883a 	mov	r17,r2
 102200c:	003f5806 	br	1021d70 <_gp+0xfffe40ec>
 1022010:	1013883a 	mov	r9,r2
 1022014:	003f3d06 	br	1021d0c <_gp+0xfffe4088>
 1022018:	1023883a 	mov	r17,r2
 102201c:	003f2506 	br	1021cb4 <_gp+0xfffe4030>
 1022020:	317fe436 	bltu	r6,r5,1021fb4 <_gp+0xfffe4330>
 1022024:	0007883a 	mov	r3,zero
 1022028:	003f5106 	br	1021d70 <_gp+0xfffe40ec>
 102202c:	1c07883a 	add	r3,r3,r16
 1022030:	993fffc4 	addi	r4,r19,-1
 1022034:	1c000a2e 	bgeu	r3,r16,1022060 <__divdf3+0x760>
 1022038:	2027883a 	mov	r19,r4
 102203c:	19ff971e 	bne	r3,r7,1021e9c <_gp+0xfffe4218>
 1022040:	a8bf961e 	bne	r21,r2,1021e9c <_gp+0xfffe4218>
 1022044:	003f9606 	br	1021ea0 <_gp+0xfffe421c>
 1022048:	04ffffc4 	movi	r19,-1
 102204c:	003f9406 	br	1021ea0 <_gp+0xfffe421c>
 1022050:	100d883a 	mov	r6,r2
 1022054:	003f6106 	br	1021ddc <_gp+0xfffe4158>
 1022058:	1013883a 	mov	r9,r2
 102205c:	003f7906 	br	1021e44 <_gp+0xfffe41c0>
 1022060:	19c02636 	bltu	r3,r7,10220fc <__divdf3+0x7fc>
 1022064:	38c04d26 	beq	r7,r3,102219c <__divdf3+0x89c>
 1022068:	2027883a 	mov	r19,r4
 102206c:	003f8b06 	br	1021e9c <_gp+0xfffe4218>
 1022070:	e025883a 	mov	r18,fp
 1022074:	003f8a06 	br	1021ea0 <_gp+0xfffe421c>
 1022078:	008007c4 	movi	r2,31
 102207c:	14002a16 	blt	r2,r16,1022128 <__divdf3+0x828>
 1022080:	a5010784 	addi	r20,r20,1054
 1022084:	8d04983a 	sll	r2,r17,r20
 1022088:	9c06d83a 	srl	r3,r19,r16
 102208c:	9d28983a 	sll	r20,r19,r20
 1022090:	8c20d83a 	srl	r16,r17,r16
 1022094:	1886b03a 	or	r3,r3,r2
 1022098:	a004c03a 	cmpne	r2,r20,zero
 102209c:	1884b03a 	or	r2,r3,r2
 10220a0:	10c001cc 	andi	r3,r2,7
 10220a4:	18000726 	beq	r3,zero,10220c4 <__divdf3+0x7c4>
 10220a8:	110003cc 	andi	r4,r2,15
 10220ac:	00c00104 	movi	r3,4
 10220b0:	20c00426 	beq	r4,r3,10220c4 <__divdf3+0x7c4>
 10220b4:	10c00104 	addi	r3,r2,4
 10220b8:	1885803a 	cmpltu	r2,r3,r2
 10220bc:	80a1883a 	add	r16,r16,r2
 10220c0:	1805883a 	mov	r2,r3
 10220c4:	80c0202c 	andhi	r3,r16,128
 10220c8:	18002d26 	beq	r3,zero,1022180 <__divdf3+0x880>
 10220cc:	9180004c 	andi	r6,r18,1
 10220d0:	01000044 	movi	r4,1
 10220d4:	000b883a 	mov	r5,zero
 10220d8:	0027883a 	mov	r19,zero
 10220dc:	003e6606 	br	1021a78 <_gp+0xfffe3df4>
 10220e0:	354d883a 	add	r6,r6,r21
 10220e4:	356d803a 	cmpltu	r22,r6,r21
 10220e8:	b42d883a 	add	r22,r22,r16
 10220ec:	b12d883a 	add	r22,r22,r4
 10220f0:	8c7fff84 	addi	r17,r17,-2
 10220f4:	b0c7c83a 	sub	r3,r22,r3
 10220f8:	003f1d06 	br	1021d70 <_gp+0xfffe40ec>
 10220fc:	ad4b883a 	add	r5,r21,r21
 1022100:	2d6b803a 	cmpltu	r21,r5,r21
 1022104:	ac2b883a 	add	r21,r21,r16
 1022108:	1d47883a 	add	r3,r3,r21
 102210c:	993fff84 	addi	r4,r19,-2
 1022110:	282b883a 	mov	r21,r5
 1022114:	003fc806 	br	1022038 <_gp+0xfffe43b4>
 1022118:	103fc41e 	bne	r2,zero,102202c <_gp+0xfffe43a8>
 102211c:	002b883a 	mov	r21,zero
 1022120:	a8bf5e1e 	bne	r21,r2,1021e9c <_gp+0xfffe4218>
 1022124:	003f5e06 	br	1021ea0 <_gp+0xfffe421c>
 1022128:	00bef884 	movi	r2,-1054
 102212c:	1505c83a 	sub	r2,r2,r20
 1022130:	00c00804 	movi	r3,32
 1022134:	8884d83a 	srl	r2,r17,r2
 1022138:	80c01c26 	beq	r16,r3,10221ac <__divdf3+0x8ac>
 102213c:	a0c10f84 	addi	r3,r20,1086
 1022140:	88c6983a 	sll	r3,r17,r3
 1022144:	1cc6b03a 	or	r3,r3,r19
 1022148:	1806c03a 	cmpne	r3,r3,zero
 102214c:	1884b03a 	or	r2,r3,r2
 1022150:	140001cc 	andi	r16,r2,7
 1022154:	8000061e 	bne	r16,zero,1022170 <__divdf3+0x870>
 1022158:	000b883a 	mov	r5,zero
 102215c:	1004d0fa 	srli	r2,r2,3
 1022160:	9180004c 	andi	r6,r18,1
 1022164:	0009883a 	mov	r4,zero
 1022168:	1426b03a 	or	r19,r2,r16
 102216c:	003e4206 	br	1021a78 <_gp+0xfffe3df4>
 1022170:	110003cc 	andi	r4,r2,15
 1022174:	00c00104 	movi	r3,4
 1022178:	0021883a 	mov	r16,zero
 102217c:	20ffcd1e 	bne	r4,r3,10220b4 <_gp+0xfffe4430>
 1022180:	800a927a 	slli	r5,r16,9
 1022184:	8020977a 	slli	r16,r16,29
 1022188:	280ad33a 	srli	r5,r5,12
 102218c:	003ff306 	br	102215c <_gp+0xfffe44d8>
 1022190:	317fd336 	bltu	r6,r5,10220e0 <_gp+0xfffe445c>
 1022194:	1023883a 	mov	r17,r2
 1022198:	003fa206 	br	1022024 <_gp+0xfffe43a0>
 102219c:	a8bfd736 	bltu	r21,r2,10220fc <_gp+0xfffe4478>
 10221a0:	2027883a 	mov	r19,r4
 10221a4:	a8bf3d1e 	bne	r21,r2,1021e9c <_gp+0xfffe4218>
 10221a8:	003f3d06 	br	1021ea0 <_gp+0xfffe421c>
 10221ac:	0007883a 	mov	r3,zero
 10221b0:	003fe406 	br	1022144 <_gp+0xfffe44c0>
 10221b4:	00800434 	movhi	r2,16
 10221b8:	89400234 	orhi	r5,r17,8
 10221bc:	10bfffc4 	addi	r2,r2,-1
 10221c0:	e00d883a 	mov	r6,fp
 10221c4:	288a703a 	and	r5,r5,r2
 10221c8:	003e8506 	br	1021be0 <_gp+0xfffe3f5c>

010221cc <__muldf3>:
 10221cc:	defff204 	addi	sp,sp,-56
 10221d0:	2804d53a 	srli	r2,r5,20
 10221d4:	dd800a15 	stw	r22,40(sp)
 10221d8:	282cd7fa 	srli	r22,r5,31
 10221dc:	dc000415 	stw	r16,16(sp)
 10221e0:	04000434 	movhi	r16,16
 10221e4:	df000c15 	stw	fp,48(sp)
 10221e8:	dd000815 	stw	r20,32(sp)
 10221ec:	dcc00715 	stw	r19,28(sp)
 10221f0:	dc800615 	stw	r18,24(sp)
 10221f4:	dc400515 	stw	r17,20(sp)
 10221f8:	843fffc4 	addi	r16,r16,-1
 10221fc:	dfc00d15 	stw	ra,52(sp)
 1022200:	ddc00b15 	stw	r23,44(sp)
 1022204:	dd400915 	stw	r21,36(sp)
 1022208:	1501ffcc 	andi	r20,r2,2047
 102220c:	2023883a 	mov	r17,r4
 1022210:	2025883a 	mov	r18,r4
 1022214:	2c20703a 	and	r16,r5,r16
 1022218:	b027883a 	mov	r19,r22
 102221c:	b7003fcc 	andi	fp,r22,255
 1022220:	a0005926 	beq	r20,zero,1022388 <__muldf3+0x1bc>
 1022224:	0081ffc4 	movi	r2,2047
 1022228:	a0803426 	beq	r20,r2,10222fc <__muldf3+0x130>
 102222c:	84000434 	orhi	r16,r16,16
 1022230:	2004d77a 	srli	r2,r4,29
 1022234:	802090fa 	slli	r16,r16,3
 1022238:	202490fa 	slli	r18,r4,3
 102223c:	a53f0044 	addi	r20,r20,-1023
 1022240:	80a0b03a 	or	r16,r16,r2
 1022244:	002b883a 	mov	r21,zero
 1022248:	0015883a 	mov	r10,zero
 102224c:	3812d53a 	srli	r9,r7,20
 1022250:	3806d7fa 	srli	r3,r7,31
 1022254:	02000434 	movhi	r8,16
 1022258:	423fffc4 	addi	r8,r8,-1
 102225c:	4941ffcc 	andi	r5,r9,2047
 1022260:	302f883a 	mov	r23,r6
 1022264:	3a22703a 	and	r17,r7,r8
 1022268:	1ac03fcc 	andi	r11,r3,255
 102226c:	28006226 	beq	r5,zero,10223f8 <__muldf3+0x22c>
 1022270:	0081ffc4 	movi	r2,2047
 1022274:	28805a26 	beq	r5,r2,10223e0 <__muldf3+0x214>
 1022278:	8a000434 	orhi	r8,r17,16
 102227c:	3004d77a 	srli	r2,r6,29
 1022280:	401090fa 	slli	r8,r8,3
 1022284:	302e90fa 	slli	r23,r6,3
 1022288:	297f0044 	addi	r5,r5,-1023
 102228c:	40a2b03a 	or	r17,r8,r2
 1022290:	0013883a 	mov	r9,zero
 1022294:	4d4cb03a 	or	r6,r9,r21
 1022298:	300c90ba 	slli	r6,r6,2
 102229c:	020040b4 	movhi	r8,258
 10222a0:	4208af04 	addi	r8,r8,8892
 10222a4:	320d883a 	add	r6,r6,r8
 10222a8:	31800017 	ldw	r6,0(r6)
 10222ac:	a14b883a 	add	r5,r20,r5
 10222b0:	1dacf03a 	xor	r22,r3,r22
 10222b4:	2b000044 	addi	r12,r5,1
 10222b8:	3000683a 	jmp	r6
 10222bc:	010224f8 	rdprs	r4,zero,2195
 10222c0:	010224e4 	muli	r4,zero,2195
 10222c4:	010224e4 	muli	r4,zero,2195
 10222c8:	010224d0 	cmplti	r4,zero,2195
 10222cc:	01022318 	cmpnei	r4,zero,2188
 10222d0:	01022318 	cmpnei	r4,zero,2188
 10222d4:	010224b8 	rdprs	r4,zero,2194
 10222d8:	010224d0 	cmplti	r4,zero,2195
 10222dc:	01022318 	cmpnei	r4,zero,2188
 10222e0:	010224b8 	rdprs	r4,zero,2194
 10222e4:	01022318 	cmpnei	r4,zero,2188
 10222e8:	010224d0 	cmplti	r4,zero,2195
 10222ec:	0102231c 	xori	r4,zero,2188
 10222f0:	0102231c 	xori	r4,zero,2188
 10222f4:	0102231c 	xori	r4,zero,2188
 10222f8:	010226f4 	movhi	r4,2203
 10222fc:	8104b03a 	or	r2,r16,r4
 1022300:	10006a1e 	bne	r2,zero,10224ac <__muldf3+0x2e0>
 1022304:	05400204 	movi	r21,8
 1022308:	0021883a 	mov	r16,zero
 102230c:	0025883a 	mov	r18,zero
 1022310:	02800084 	movi	r10,2
 1022314:	003fcd06 	br	102224c <_gp+0xfffe45c8>
 1022318:	b039883a 	mov	fp,r22
 102231c:	00800084 	movi	r2,2
 1022320:	50804e1e 	bne	r10,r2,102245c <__muldf3+0x290>
 1022324:	e4c0004c 	andi	r19,fp,1
 1022328:	0101ffc4 	movi	r4,2047
 102232c:	0021883a 	mov	r16,zero
 1022330:	0025883a 	mov	r18,zero
 1022334:	2008953a 	slli	r4,r4,20
 1022338:	98c03fcc 	andi	r3,r19,255
 102233c:	01400434 	movhi	r5,16
 1022340:	297fffc4 	addi	r5,r5,-1
 1022344:	180697fa 	slli	r3,r3,31
 1022348:	8160703a 	and	r16,r16,r5
 102234c:	8120b03a 	or	r16,r16,r4
 1022350:	80c6b03a 	or	r3,r16,r3
 1022354:	9005883a 	mov	r2,r18
 1022358:	dfc00d17 	ldw	ra,52(sp)
 102235c:	df000c17 	ldw	fp,48(sp)
 1022360:	ddc00b17 	ldw	r23,44(sp)
 1022364:	dd800a17 	ldw	r22,40(sp)
 1022368:	dd400917 	ldw	r21,36(sp)
 102236c:	dd000817 	ldw	r20,32(sp)
 1022370:	dcc00717 	ldw	r19,28(sp)
 1022374:	dc800617 	ldw	r18,24(sp)
 1022378:	dc400517 	ldw	r17,20(sp)
 102237c:	dc000417 	ldw	r16,16(sp)
 1022380:	dec00e04 	addi	sp,sp,56
 1022384:	f800283a 	ret
 1022388:	8104b03a 	or	r2,r16,r4
 102238c:	10004226 	beq	r2,zero,1022498 <__muldf3+0x2cc>
 1022390:	8000f926 	beq	r16,zero,1022778 <__muldf3+0x5ac>
 1022394:	8009883a 	mov	r4,r16
 1022398:	d9800315 	stw	r6,12(sp)
 102239c:	d9c00015 	stw	r7,0(sp)
 10223a0:	1022cf00 	call	1022cf0 <__clzsi2>
 10223a4:	d9800317 	ldw	r6,12(sp)
 10223a8:	d9c00017 	ldw	r7,0(sp)
 10223ac:	1007883a 	mov	r3,r2
 10223b0:	01000a04 	movi	r4,40
 10223b4:	18bffe04 	addi	r2,r3,-8
 10223b8:	20c9c83a 	sub	r4,r4,r3
 10223bc:	80a0983a 	sll	r16,r16,r2
 10223c0:	8908d83a 	srl	r4,r17,r4
 10223c4:	88a4983a 	sll	r18,r17,r2
 10223c8:	2420b03a 	or	r16,r4,r16
 10223cc:	017f0344 	movi	r5,-1011
 10223d0:	28e9c83a 	sub	r20,r5,r3
 10223d4:	002b883a 	mov	r21,zero
 10223d8:	0015883a 	mov	r10,zero
 10223dc:	003f9b06 	br	102224c <_gp+0xfffe45c8>
 10223e0:	8984b03a 	or	r2,r17,r6
 10223e4:	10002a1e 	bne	r2,zero,1022490 <__muldf3+0x2c4>
 10223e8:	0023883a 	mov	r17,zero
 10223ec:	002f883a 	mov	r23,zero
 10223f0:	02400084 	movi	r9,2
 10223f4:	003fa706 	br	1022294 <_gp+0xfffe4610>
 10223f8:	8984b03a 	or	r2,r17,r6
 10223fc:	10002026 	beq	r2,zero,1022480 <__muldf3+0x2b4>
 1022400:	8800cc26 	beq	r17,zero,1022734 <__muldf3+0x568>
 1022404:	8809883a 	mov	r4,r17
 1022408:	d8c00215 	stw	r3,8(sp)
 102240c:	d9800315 	stw	r6,12(sp)
 1022410:	da800015 	stw	r10,0(sp)
 1022414:	dac00115 	stw	r11,4(sp)
 1022418:	1022cf00 	call	1022cf0 <__clzsi2>
 102241c:	d8c00217 	ldw	r3,8(sp)
 1022420:	d9800317 	ldw	r6,12(sp)
 1022424:	da800017 	ldw	r10,0(sp)
 1022428:	dac00117 	ldw	r11,4(sp)
 102242c:	1009883a 	mov	r4,r2
 1022430:	01400a04 	movi	r5,40
 1022434:	25fffe04 	addi	r23,r4,-8
 1022438:	290bc83a 	sub	r5,r5,r4
 102243c:	8dd0983a 	sll	r8,r17,r23
 1022440:	314ad83a 	srl	r5,r6,r5
 1022444:	35ee983a 	sll	r23,r6,r23
 1022448:	2a22b03a 	or	r17,r5,r8
 102244c:	017f0344 	movi	r5,-1011
 1022450:	290bc83a 	sub	r5,r5,r4
 1022454:	0013883a 	mov	r9,zero
 1022458:	003f8e06 	br	1022294 <_gp+0xfffe4610>
 102245c:	008000c4 	movi	r2,3
 1022460:	50811d26 	beq	r10,r2,10228d8 <__muldf3+0x70c>
 1022464:	00800044 	movi	r2,1
 1022468:	5080e01e 	bne	r10,r2,10227ec <__muldf3+0x620>
 102246c:	e0a6703a 	and	r19,fp,r2
 1022470:	0009883a 	mov	r4,zero
 1022474:	0021883a 	mov	r16,zero
 1022478:	0025883a 	mov	r18,zero
 102247c:	003fad06 	br	1022334 <_gp+0xfffe46b0>
 1022480:	0023883a 	mov	r17,zero
 1022484:	002f883a 	mov	r23,zero
 1022488:	02400044 	movi	r9,1
 102248c:	003f8106 	br	1022294 <_gp+0xfffe4610>
 1022490:	024000c4 	movi	r9,3
 1022494:	003f7f06 	br	1022294 <_gp+0xfffe4610>
 1022498:	05400104 	movi	r21,4
 102249c:	0021883a 	mov	r16,zero
 10224a0:	0025883a 	mov	r18,zero
 10224a4:	02800044 	movi	r10,1
 10224a8:	003f6806 	br	102224c <_gp+0xfffe45c8>
 10224ac:	05400304 	movi	r21,12
 10224b0:	028000c4 	movi	r10,3
 10224b4:	003f6506 	br	102224c <_gp+0xfffe45c8>
 10224b8:	04000434 	movhi	r16,16
 10224bc:	0027883a 	mov	r19,zero
 10224c0:	843fffc4 	addi	r16,r16,-1
 10224c4:	04bfffc4 	movi	r18,-1
 10224c8:	0101ffc4 	movi	r4,2047
 10224cc:	003f9906 	br	1022334 <_gp+0xfffe46b0>
 10224d0:	8821883a 	mov	r16,r17
 10224d4:	b825883a 	mov	r18,r23
 10224d8:	5839883a 	mov	fp,r11
 10224dc:	4815883a 	mov	r10,r9
 10224e0:	003f8e06 	br	102231c <_gp+0xfffe4698>
 10224e4:	8821883a 	mov	r16,r17
 10224e8:	b825883a 	mov	r18,r23
 10224ec:	b039883a 	mov	fp,r22
 10224f0:	4815883a 	mov	r10,r9
 10224f4:	003f8906 	br	102231c <_gp+0xfffe4698>
 10224f8:	b80cd43a 	srli	r6,r23,16
 10224fc:	9006d43a 	srli	r3,r18,16
 1022500:	90bfffcc 	andi	r2,r18,65535
 1022504:	bdffffcc 	andi	r23,r23,65535
 1022508:	b891383a 	mul	r8,r23,r2
 102250c:	b8c9383a 	mul	r4,r23,r3
 1022510:	309b383a 	mul	r13,r6,r2
 1022514:	400ed43a 	srli	r7,r8,16
 1022518:	30df383a 	mul	r15,r6,r3
 102251c:	235b883a 	add	r13,r4,r13
 1022520:	69db883a 	add	r13,r13,r7
 1022524:	6900022e 	bgeu	r13,r4,1022530 <__muldf3+0x364>
 1022528:	01000074 	movhi	r4,1
 102252c:	791f883a 	add	r15,r15,r4
 1022530:	8828d43a 	srli	r20,r17,16
 1022534:	8c7fffcc 	andi	r17,r17,65535
 1022538:	888f383a 	mul	r7,r17,r2
 102253c:	88d3383a 	mul	r9,r17,r3
 1022540:	a0a5383a 	mul	r18,r20,r2
 1022544:	3816d43a 	srli	r11,r7,16
 1022548:	6814943a 	slli	r10,r13,16
 102254c:	4ca5883a 	add	r18,r9,r18
 1022550:	423fffcc 	andi	r8,r8,65535
 1022554:	92e5883a 	add	r18,r18,r11
 1022558:	6808d43a 	srli	r4,r13,16
 102255c:	5215883a 	add	r10,r10,r8
 1022560:	a0c7383a 	mul	r3,r20,r3
 1022564:	9240022e 	bgeu	r18,r9,1022570 <__muldf3+0x3a4>
 1022568:	00800074 	movhi	r2,1
 102256c:	1887883a 	add	r3,r3,r2
 1022570:	802ad43a 	srli	r21,r16,16
 1022574:	80bfffcc 	andi	r2,r16,65535
 1022578:	b893383a 	mul	r9,r23,r2
 102257c:	3091383a 	mul	r8,r6,r2
 1022580:	bd6f383a 	mul	r23,r23,r21
 1022584:	9026943a 	slli	r19,r18,16
 1022588:	481ad43a 	srli	r13,r9,16
 102258c:	9024d43a 	srli	r18,r18,16
 1022590:	39ffffcc 	andi	r7,r7,65535
 1022594:	ba11883a 	add	r8,r23,r8
 1022598:	99e7883a 	add	r19,r19,r7
 102259c:	4351883a 	add	r8,r8,r13
 10225a0:	1c97883a 	add	r11,r3,r18
 10225a4:	354d383a 	mul	r6,r6,r21
 10225a8:	9925883a 	add	r18,r19,r4
 10225ac:	45c0022e 	bgeu	r8,r23,10225b8 <__muldf3+0x3ec>
 10225b0:	00c00074 	movhi	r3,1
 10225b4:	30cd883a 	add	r6,r6,r3
 10225b8:	8889383a 	mul	r4,r17,r2
 10225bc:	8d63383a 	mul	r17,r17,r21
 10225c0:	a085383a 	mul	r2,r20,r2
 10225c4:	200ed43a 	srli	r7,r4,16
 10225c8:	401cd43a 	srli	r14,r8,16
 10225cc:	401a943a 	slli	r13,r8,16
 10225d0:	8885883a 	add	r2,r17,r2
 10225d4:	4a3fffcc 	andi	r8,r9,65535
 10225d8:	11c5883a 	add	r2,r2,r7
 10225dc:	339d883a 	add	r14,r6,r14
 10225e0:	6a11883a 	add	r8,r13,r8
 10225e4:	a561383a 	mul	r16,r20,r21
 10225e8:	1440022e 	bgeu	r2,r17,10225f4 <__muldf3+0x428>
 10225ec:	00c00074 	movhi	r3,1
 10225f0:	80e1883a 	add	r16,r16,r3
 10225f4:	1006943a 	slli	r3,r2,16
 10225f8:	213fffcc 	andi	r4,r4,65535
 10225fc:	93db883a 	add	r13,r18,r15
 1022600:	1909883a 	add	r4,r3,r4
 1022604:	22c7883a 	add	r3,r4,r11
 1022608:	6cd3803a 	cmpltu	r9,r13,r19
 102260c:	6a09883a 	add	r4,r13,r8
 1022610:	1a5b883a 	add	r13,r3,r9
 1022614:	2211803a 	cmpltu	r8,r4,r8
 1022618:	734d883a 	add	r6,r14,r13
 102261c:	100ed43a 	srli	r7,r2,16
 1022620:	6a53803a 	cmpltu	r9,r13,r9
 1022624:	3205883a 	add	r2,r6,r8
 1022628:	1ac7803a 	cmpltu	r3,r3,r11
 102262c:	1211803a 	cmpltu	r8,r2,r8
 1022630:	48c6b03a 	or	r3,r9,r3
 1022634:	338d803a 	cmpltu	r6,r6,r14
 1022638:	19c7883a 	add	r3,r3,r7
 102263c:	418cb03a 	or	r6,r8,r6
 1022640:	1987883a 	add	r3,r3,r6
 1022644:	2024927a 	slli	r18,r4,9
 1022648:	1c07883a 	add	r3,r3,r16
 102264c:	1806927a 	slli	r3,r3,9
 1022650:	1020d5fa 	srli	r16,r2,23
 1022654:	2008d5fa 	srli	r4,r4,23
 1022658:	9294b03a 	or	r10,r18,r10
 102265c:	1004927a 	slli	r2,r2,9
 1022660:	5024c03a 	cmpne	r18,r10,zero
 1022664:	1c20b03a 	or	r16,r3,r16
 1022668:	9108b03a 	or	r4,r18,r4
 102266c:	80c0402c 	andhi	r3,r16,256
 1022670:	20a4b03a 	or	r18,r4,r2
 1022674:	18000726 	beq	r3,zero,1022694 <__muldf3+0x4c8>
 1022678:	9006d07a 	srli	r3,r18,1
 102267c:	800897fa 	slli	r4,r16,31
 1022680:	9080004c 	andi	r2,r18,1
 1022684:	8020d07a 	srli	r16,r16,1
 1022688:	10c4b03a 	or	r2,r2,r3
 102268c:	1124b03a 	or	r18,r2,r4
 1022690:	600b883a 	mov	r5,r12
 1022694:	2900ffc4 	addi	r4,r5,1023
 1022698:	01004b0e 	bge	zero,r4,10227c8 <__muldf3+0x5fc>
 102269c:	908001cc 	andi	r2,r18,7
 10226a0:	10000726 	beq	r2,zero,10226c0 <__muldf3+0x4f4>
 10226a4:	90c003cc 	andi	r3,r18,15
 10226a8:	00800104 	movi	r2,4
 10226ac:	18800426 	beq	r3,r2,10226c0 <__muldf3+0x4f4>
 10226b0:	9087883a 	add	r3,r18,r2
 10226b4:	1c85803a 	cmpltu	r2,r3,r18
 10226b8:	80a1883a 	add	r16,r16,r2
 10226bc:	1825883a 	mov	r18,r3
 10226c0:	8080402c 	andhi	r2,r16,256
 10226c4:	10000426 	beq	r2,zero,10226d8 <__muldf3+0x50c>
 10226c8:	00bfc034 	movhi	r2,65280
 10226cc:	10bfffc4 	addi	r2,r2,-1
 10226d0:	29010004 	addi	r4,r5,1024
 10226d4:	80a0703a 	and	r16,r16,r2
 10226d8:	0081ff84 	movi	r2,2046
 10226dc:	1100320e 	bge	r2,r4,10227a8 <__muldf3+0x5dc>
 10226e0:	b4c0004c 	andi	r19,r22,1
 10226e4:	0101ffc4 	movi	r4,2047
 10226e8:	0021883a 	mov	r16,zero
 10226ec:	0025883a 	mov	r18,zero
 10226f0:	003f1006 	br	1022334 <_gp+0xfffe46b0>
 10226f4:	8080022c 	andhi	r2,r16,8
 10226f8:	10000926 	beq	r2,zero,1022720 <__muldf3+0x554>
 10226fc:	8880022c 	andhi	r2,r17,8
 1022700:	1000071e 	bne	r2,zero,1022720 <__muldf3+0x554>
 1022704:	00800434 	movhi	r2,16
 1022708:	8c000234 	orhi	r16,r17,8
 102270c:	10bfffc4 	addi	r2,r2,-1
 1022710:	1827883a 	mov	r19,r3
 1022714:	80a0703a 	and	r16,r16,r2
 1022718:	b825883a 	mov	r18,r23
 102271c:	003f6a06 	br	10224c8 <_gp+0xfffe4844>
 1022720:	00800434 	movhi	r2,16
 1022724:	84000234 	orhi	r16,r16,8
 1022728:	10bfffc4 	addi	r2,r2,-1
 102272c:	80a0703a 	and	r16,r16,r2
 1022730:	003f6506 	br	10224c8 <_gp+0xfffe4844>
 1022734:	3009883a 	mov	r4,r6
 1022738:	d8c00215 	stw	r3,8(sp)
 102273c:	d9800315 	stw	r6,12(sp)
 1022740:	da800015 	stw	r10,0(sp)
 1022744:	dac00115 	stw	r11,4(sp)
 1022748:	1022cf00 	call	1022cf0 <__clzsi2>
 102274c:	11000804 	addi	r4,r2,32
 1022750:	014009c4 	movi	r5,39
 1022754:	d8c00217 	ldw	r3,8(sp)
 1022758:	d9800317 	ldw	r6,12(sp)
 102275c:	da800017 	ldw	r10,0(sp)
 1022760:	dac00117 	ldw	r11,4(sp)
 1022764:	293f320e 	bge	r5,r4,1022430 <_gp+0xfffe47ac>
 1022768:	10bffe04 	addi	r2,r2,-8
 102276c:	b8a2983a 	sll	r17,r23,r2
 1022770:	002f883a 	mov	r23,zero
 1022774:	003f3506 	br	102244c <_gp+0xfffe47c8>
 1022778:	d9800315 	stw	r6,12(sp)
 102277c:	d9c00015 	stw	r7,0(sp)
 1022780:	1022cf00 	call	1022cf0 <__clzsi2>
 1022784:	10c00804 	addi	r3,r2,32
 1022788:	010009c4 	movi	r4,39
 102278c:	d9800317 	ldw	r6,12(sp)
 1022790:	d9c00017 	ldw	r7,0(sp)
 1022794:	20ff060e 	bge	r4,r3,10223b0 <_gp+0xfffe472c>
 1022798:	10bffe04 	addi	r2,r2,-8
 102279c:	88a0983a 	sll	r16,r17,r2
 10227a0:	0025883a 	mov	r18,zero
 10227a4:	003f0906 	br	10223cc <_gp+0xfffe4748>
 10227a8:	9004d0fa 	srli	r2,r18,3
 10227ac:	8024977a 	slli	r18,r16,29
 10227b0:	8020927a 	slli	r16,r16,9
 10227b4:	2101ffcc 	andi	r4,r4,2047
 10227b8:	90a4b03a 	or	r18,r18,r2
 10227bc:	8020d33a 	srli	r16,r16,12
 10227c0:	b4c0004c 	andi	r19,r22,1
 10227c4:	003edb06 	br	1022334 <_gp+0xfffe46b0>
 10227c8:	00ff0084 	movi	r3,-1022
 10227cc:	1947c83a 	sub	r3,r3,r5
 10227d0:	00800e04 	movi	r2,56
 10227d4:	10c0080e 	bge	r2,r3,10227f8 <__muldf3+0x62c>
 10227d8:	b4c0004c 	andi	r19,r22,1
 10227dc:	0009883a 	mov	r4,zero
 10227e0:	0021883a 	mov	r16,zero
 10227e4:	0025883a 	mov	r18,zero
 10227e8:	003ed206 	br	1022334 <_gp+0xfffe46b0>
 10227ec:	600b883a 	mov	r5,r12
 10227f0:	e02d883a 	mov	r22,fp
 10227f4:	003fa706 	br	1022694 <_gp+0xfffe4a10>
 10227f8:	008007c4 	movi	r2,31
 10227fc:	10c01816 	blt	r2,r3,1022860 <__muldf3+0x694>
 1022800:	29410784 	addi	r5,r5,1054
 1022804:	8144983a 	sll	r2,r16,r5
 1022808:	90c8d83a 	srl	r4,r18,r3
 102280c:	914a983a 	sll	r5,r18,r5
 1022810:	80c6d83a 	srl	r3,r16,r3
 1022814:	2088b03a 	or	r4,r4,r2
 1022818:	2804c03a 	cmpne	r2,r5,zero
 102281c:	2084b03a 	or	r2,r4,r2
 1022820:	110001cc 	andi	r4,r2,7
 1022824:	20000726 	beq	r4,zero,1022844 <__muldf3+0x678>
 1022828:	114003cc 	andi	r5,r2,15
 102282c:	01000104 	movi	r4,4
 1022830:	29000426 	beq	r5,r4,1022844 <__muldf3+0x678>
 1022834:	11000104 	addi	r4,r2,4
 1022838:	2085803a 	cmpltu	r2,r4,r2
 102283c:	1887883a 	add	r3,r3,r2
 1022840:	2005883a 	mov	r2,r4
 1022844:	1900202c 	andhi	r4,r3,128
 1022848:	20001826 	beq	r4,zero,10228ac <__muldf3+0x6e0>
 102284c:	b4c0004c 	andi	r19,r22,1
 1022850:	01000044 	movi	r4,1
 1022854:	0021883a 	mov	r16,zero
 1022858:	0025883a 	mov	r18,zero
 102285c:	003eb506 	br	1022334 <_gp+0xfffe46b0>
 1022860:	00bef884 	movi	r2,-1054
 1022864:	1145c83a 	sub	r2,r2,r5
 1022868:	8088d83a 	srl	r4,r16,r2
 102286c:	00800804 	movi	r2,32
 1022870:	18801726 	beq	r3,r2,10228d0 <__muldf3+0x704>
 1022874:	28810f84 	addi	r2,r5,1086
 1022878:	8084983a 	sll	r2,r16,r2
 102287c:	1484b03a 	or	r2,r2,r18
 1022880:	1004c03a 	cmpne	r2,r2,zero
 1022884:	1104b03a 	or	r2,r2,r4
 1022888:	10c001cc 	andi	r3,r2,7
 102288c:	18000b1e 	bne	r3,zero,10228bc <__muldf3+0x6f0>
 1022890:	0021883a 	mov	r16,zero
 1022894:	1004d0fa 	srli	r2,r2,3
 1022898:	b4c0004c 	andi	r19,r22,1
 102289c:	0009883a 	mov	r4,zero
 10228a0:	10e4b03a 	or	r18,r2,r3
 10228a4:	003ea306 	br	1022334 <_gp+0xfffe46b0>
 10228a8:	0007883a 	mov	r3,zero
 10228ac:	1820927a 	slli	r16,r3,9
 10228b0:	1806977a 	slli	r3,r3,29
 10228b4:	8020d33a 	srli	r16,r16,12
 10228b8:	003ff606 	br	1022894 <_gp+0xfffe4c10>
 10228bc:	110003cc 	andi	r4,r2,15
 10228c0:	00c00104 	movi	r3,4
 10228c4:	20fff826 	beq	r4,r3,10228a8 <_gp+0xfffe4c24>
 10228c8:	0007883a 	mov	r3,zero
 10228cc:	003fd906 	br	1022834 <_gp+0xfffe4bb0>
 10228d0:	0005883a 	mov	r2,zero
 10228d4:	003fe906 	br	102287c <_gp+0xfffe4bf8>
 10228d8:	00800434 	movhi	r2,16
 10228dc:	84000234 	orhi	r16,r16,8
 10228e0:	10bfffc4 	addi	r2,r2,-1
 10228e4:	e4c0004c 	andi	r19,fp,1
 10228e8:	80a0703a 	and	r16,r16,r2
 10228ec:	003ef606 	br	10224c8 <_gp+0xfffe4844>

010228f0 <__fixdfsi>:
 10228f0:	2806d53a 	srli	r3,r5,20
 10228f4:	00800434 	movhi	r2,16
 10228f8:	10bfffc4 	addi	r2,r2,-1
 10228fc:	18c1ffcc 	andi	r3,r3,2047
 1022900:	0180ff84 	movi	r6,1022
 1022904:	2884703a 	and	r2,r5,r2
 1022908:	280ad7fa 	srli	r5,r5,31
 102290c:	30c0130e 	bge	r6,r3,102295c <__fixdfsi+0x6c>
 1022910:	01810744 	movi	r6,1053
 1022914:	30c00d16 	blt	r6,r3,102294c <__fixdfsi+0x5c>
 1022918:	01810cc4 	movi	r6,1075
 102291c:	30cdc83a 	sub	r6,r6,r3
 1022920:	01c007c4 	movi	r7,31
 1022924:	10800434 	orhi	r2,r2,16
 1022928:	39800e0e 	bge	r7,r6,1022964 <__fixdfsi+0x74>
 102292c:	010104c4 	movi	r4,1043
 1022930:	20c7c83a 	sub	r3,r4,r3
 1022934:	10c6d83a 	srl	r3,r2,r3
 1022938:	29403fcc 	andi	r5,r5,255
 102293c:	0145c83a 	sub	r2,zero,r5
 1022940:	1884f03a 	xor	r2,r3,r2
 1022944:	1145883a 	add	r2,r2,r5
 1022948:	f800283a 	ret
 102294c:	00a00034 	movhi	r2,32768
 1022950:	10bfffc4 	addi	r2,r2,-1
 1022954:	2885883a 	add	r2,r5,r2
 1022958:	f800283a 	ret
 102295c:	0005883a 	mov	r2,zero
 1022960:	f800283a 	ret
 1022964:	18fefb44 	addi	r3,r3,-1043
 1022968:	2188d83a 	srl	r4,r4,r6
 102296c:	10c6983a 	sll	r3,r2,r3
 1022970:	20c6b03a 	or	r3,r4,r3
 1022974:	003ff006 	br	1022938 <_gp+0xfffe4cb4>

01022978 <__floatsidf>:
 1022978:	defffd04 	addi	sp,sp,-12
 102297c:	dc400115 	stw	r17,4(sp)
 1022980:	dfc00215 	stw	ra,8(sp)
 1022984:	dc000015 	stw	r16,0(sp)
 1022988:	2023883a 	mov	r17,r4
 102298c:	20001426 	beq	r4,zero,10229e0 <__floatsidf+0x68>
 1022990:	2020d7fa 	srli	r16,r4,31
 1022994:	80000126 	beq	r16,zero,102299c <__floatsidf+0x24>
 1022998:	0123c83a 	sub	r17,zero,r4
 102299c:	8809883a 	mov	r4,r17
 10229a0:	1022cf00 	call	1022cf0 <__clzsi2>
 10229a4:	01410784 	movi	r5,1054
 10229a8:	00c00284 	movi	r3,10
 10229ac:	288bc83a 	sub	r5,r5,r2
 10229b0:	18801c16 	blt	r3,r2,1022a24 <__floatsidf+0xac>
 10229b4:	00c002c4 	movi	r3,11
 10229b8:	1887c83a 	sub	r3,r3,r2
 10229bc:	88c8d83a 	srl	r4,r17,r3
 10229c0:	00c00434 	movhi	r3,16
 10229c4:	18ffffc4 	addi	r3,r3,-1
 10229c8:	10800544 	addi	r2,r2,21
 10229cc:	20c8703a 	and	r4,r4,r3
 10229d0:	8884983a 	sll	r2,r17,r2
 10229d4:	28c1ffcc 	andi	r3,r5,2047
 10229d8:	800d883a 	mov	r6,r16
 10229dc:	00000406 	br	10229f0 <__floatsidf+0x78>
 10229e0:	000d883a 	mov	r6,zero
 10229e4:	0007883a 	mov	r3,zero
 10229e8:	0009883a 	mov	r4,zero
 10229ec:	0005883a 	mov	r2,zero
 10229f0:	180a953a 	slli	r5,r3,20
 10229f4:	31803fcc 	andi	r6,r6,255
 10229f8:	00c00434 	movhi	r3,16
 10229fc:	300c97fa 	slli	r6,r6,31
 1022a00:	18ffffc4 	addi	r3,r3,-1
 1022a04:	20c6703a 	and	r3,r4,r3
 1022a08:	1946b03a 	or	r3,r3,r5
 1022a0c:	1986b03a 	or	r3,r3,r6
 1022a10:	dfc00217 	ldw	ra,8(sp)
 1022a14:	dc400117 	ldw	r17,4(sp)
 1022a18:	dc000017 	ldw	r16,0(sp)
 1022a1c:	dec00304 	addi	sp,sp,12
 1022a20:	f800283a 	ret
 1022a24:	10fffd44 	addi	r3,r2,-11
 1022a28:	88c8983a 	sll	r4,r17,r3
 1022a2c:	00800434 	movhi	r2,16
 1022a30:	10bfffc4 	addi	r2,r2,-1
 1022a34:	2088703a 	and	r4,r4,r2
 1022a38:	28c1ffcc 	andi	r3,r5,2047
 1022a3c:	800d883a 	mov	r6,r16
 1022a40:	0005883a 	mov	r2,zero
 1022a44:	003fea06 	br	10229f0 <_gp+0xfffe4d6c>

01022a48 <__extendsfdf2>:
 1022a48:	200ad5fa 	srli	r5,r4,23
 1022a4c:	defffd04 	addi	sp,sp,-12
 1022a50:	dc400115 	stw	r17,4(sp)
 1022a54:	29403fcc 	andi	r5,r5,255
 1022a58:	29800044 	addi	r6,r5,1
 1022a5c:	04402034 	movhi	r17,128
 1022a60:	dc000015 	stw	r16,0(sp)
 1022a64:	8c7fffc4 	addi	r17,r17,-1
 1022a68:	dfc00215 	stw	ra,8(sp)
 1022a6c:	31803fcc 	andi	r6,r6,255
 1022a70:	00800044 	movi	r2,1
 1022a74:	8922703a 	and	r17,r17,r4
 1022a78:	2020d7fa 	srli	r16,r4,31
 1022a7c:	1180110e 	bge	r2,r6,1022ac4 <__extendsfdf2+0x7c>
 1022a80:	880ed0fa 	srli	r7,r17,3
 1022a84:	8822977a 	slli	r17,r17,29
 1022a88:	2940e004 	addi	r5,r5,896
 1022a8c:	2941ffcc 	andi	r5,r5,2047
 1022a90:	280c953a 	slli	r6,r5,20
 1022a94:	01400434 	movhi	r5,16
 1022a98:	800697fa 	slli	r3,r16,31
 1022a9c:	297fffc4 	addi	r5,r5,-1
 1022aa0:	394a703a 	and	r5,r7,r5
 1022aa4:	298ab03a 	or	r5,r5,r6
 1022aa8:	8805883a 	mov	r2,r17
 1022aac:	28c6b03a 	or	r3,r5,r3
 1022ab0:	dfc00217 	ldw	ra,8(sp)
 1022ab4:	dc400117 	ldw	r17,4(sp)
 1022ab8:	dc000017 	ldw	r16,0(sp)
 1022abc:	dec00304 	addi	sp,sp,12
 1022ac0:	f800283a 	ret
 1022ac4:	2800111e 	bne	r5,zero,1022b0c <__extendsfdf2+0xc4>
 1022ac8:	88001c26 	beq	r17,zero,1022b3c <__extendsfdf2+0xf4>
 1022acc:	8809883a 	mov	r4,r17
 1022ad0:	1022cf00 	call	1022cf0 <__clzsi2>
 1022ad4:	00c00284 	movi	r3,10
 1022ad8:	18801b16 	blt	r3,r2,1022b48 <__extendsfdf2+0x100>
 1022adc:	01c002c4 	movi	r7,11
 1022ae0:	388fc83a 	sub	r7,r7,r2
 1022ae4:	10c00544 	addi	r3,r2,21
 1022ae8:	89ced83a 	srl	r7,r17,r7
 1022aec:	88e2983a 	sll	r17,r17,r3
 1022af0:	0180e244 	movi	r6,905
 1022af4:	308bc83a 	sub	r5,r6,r2
 1022af8:	01800434 	movhi	r6,16
 1022afc:	31bfffc4 	addi	r6,r6,-1
 1022b00:	398e703a 	and	r7,r7,r6
 1022b04:	2941ffcc 	andi	r5,r5,2047
 1022b08:	003fe006 	br	1022a8c <_gp+0xfffe4e08>
 1022b0c:	88000826 	beq	r17,zero,1022b30 <__extendsfdf2+0xe8>
 1022b10:	880ed0fa 	srli	r7,r17,3
 1022b14:	00800434 	movhi	r2,16
 1022b18:	10bfffc4 	addi	r2,r2,-1
 1022b1c:	39c00234 	orhi	r7,r7,8
 1022b20:	8822977a 	slli	r17,r17,29
 1022b24:	388e703a 	and	r7,r7,r2
 1022b28:	0141ffc4 	movi	r5,2047
 1022b2c:	003fd706 	br	1022a8c <_gp+0xfffe4e08>
 1022b30:	0141ffc4 	movi	r5,2047
 1022b34:	000f883a 	mov	r7,zero
 1022b38:	003fd406 	br	1022a8c <_gp+0xfffe4e08>
 1022b3c:	000b883a 	mov	r5,zero
 1022b40:	000f883a 	mov	r7,zero
 1022b44:	003fd106 	br	1022a8c <_gp+0xfffe4e08>
 1022b48:	11fffd44 	addi	r7,r2,-11
 1022b4c:	89ce983a 	sll	r7,r17,r7
 1022b50:	0023883a 	mov	r17,zero
 1022b54:	003fe606 	br	1022af0 <_gp+0xfffe4e6c>

01022b58 <__truncdfsf2>:
 1022b58:	2810d53a 	srli	r8,r5,20
 1022b5c:	01c00434 	movhi	r7,16
 1022b60:	39ffffc4 	addi	r7,r7,-1
 1022b64:	29ce703a 	and	r7,r5,r7
 1022b68:	380e90fa 	slli	r7,r7,3
 1022b6c:	4201ffcc 	andi	r8,r8,2047
 1022b70:	200cd77a 	srli	r6,r4,29
 1022b74:	42400044 	addi	r9,r8,1
 1022b78:	4a41ffcc 	andi	r9,r9,2047
 1022b7c:	00800044 	movi	r2,1
 1022b80:	398cb03a 	or	r6,r7,r6
 1022b84:	280ad7fa 	srli	r5,r5,31
 1022b88:	200e90fa 	slli	r7,r4,3
 1022b8c:	1240230e 	bge	r2,r9,1022c1c <__truncdfsf2+0xc4>
 1022b90:	40ff2004 	addi	r3,r8,-896
 1022b94:	00803f84 	movi	r2,254
 1022b98:	10c01516 	blt	r2,r3,1022bf0 <__truncdfsf2+0x98>
 1022b9c:	00c02d0e 	bge	zero,r3,1022c54 <__truncdfsf2+0xfc>
 1022ba0:	200891ba 	slli	r4,r4,6
 1022ba4:	300c90fa 	slli	r6,r6,3
 1022ba8:	380ed77a 	srli	r7,r7,29
 1022bac:	2008c03a 	cmpne	r4,r4,zero
 1022bb0:	310cb03a 	or	r6,r6,r4
 1022bb4:	31ccb03a 	or	r6,r6,r7
 1022bb8:	308001cc 	andi	r2,r6,7
 1022bbc:	10000426 	beq	r2,zero,1022bd0 <__truncdfsf2+0x78>
 1022bc0:	310003cc 	andi	r4,r6,15
 1022bc4:	00800104 	movi	r2,4
 1022bc8:	20800126 	beq	r4,r2,1022bd0 <__truncdfsf2+0x78>
 1022bcc:	31800104 	addi	r6,r6,4
 1022bd0:	3081002c 	andhi	r2,r6,1024
 1022bd4:	10002326 	beq	r2,zero,1022c64 <__truncdfsf2+0x10c>
 1022bd8:	18c00044 	addi	r3,r3,1
 1022bdc:	00803fc4 	movi	r2,255
 1022be0:	18800326 	beq	r3,r2,1022bf0 <__truncdfsf2+0x98>
 1022be4:	300c91ba 	slli	r6,r6,6
 1022be8:	300cd27a 	srli	r6,r6,9
 1022bec:	00000206 	br	1022bf8 <__truncdfsf2+0xa0>
 1022bf0:	00ffffc4 	movi	r3,-1
 1022bf4:	000d883a 	mov	r6,zero
 1022bf8:	18c03fcc 	andi	r3,r3,255
 1022bfc:	180895fa 	slli	r4,r3,23
 1022c00:	00c02034 	movhi	r3,128
 1022c04:	280a97fa 	slli	r5,r5,31
 1022c08:	18ffffc4 	addi	r3,r3,-1
 1022c0c:	30c6703a 	and	r3,r6,r3
 1022c10:	1906b03a 	or	r3,r3,r4
 1022c14:	1944b03a 	or	r2,r3,r5
 1022c18:	f800283a 	ret
 1022c1c:	4000071e 	bne	r8,zero,1022c3c <__truncdfsf2+0xe4>
 1022c20:	31ccb03a 	or	r6,r6,r7
 1022c24:	30000d1e 	bne	r6,zero,1022c5c <__truncdfsf2+0x104>
 1022c28:	0007883a 	mov	r3,zero
 1022c2c:	00802034 	movhi	r2,128
 1022c30:	10bfffc4 	addi	r2,r2,-1
 1022c34:	308c703a 	and	r6,r6,r2
 1022c38:	003fef06 	br	1022bf8 <_gp+0xfffe4f74>
 1022c3c:	31c8b03a 	or	r4,r6,r7
 1022c40:	203feb26 	beq	r4,zero,1022bf0 <_gp+0xfffe4f6c>
 1022c44:	300c90fa 	slli	r6,r6,3
 1022c48:	00c03fc4 	movi	r3,255
 1022c4c:	31808034 	orhi	r6,r6,512
 1022c50:	003fd906 	br	1022bb8 <_gp+0xfffe4f34>
 1022c54:	00bffa44 	movi	r2,-23
 1022c58:	1880090e 	bge	r3,r2,1022c80 <__truncdfsf2+0x128>
 1022c5c:	01800144 	movi	r6,5
 1022c60:	0007883a 	mov	r3,zero
 1022c64:	00803fc4 	movi	r2,255
 1022c68:	300cd0fa 	srli	r6,r6,3
 1022c6c:	18bfef1e 	bne	r3,r2,1022c2c <_gp+0xfffe4fa8>
 1022c70:	303fdf26 	beq	r6,zero,1022bf0 <_gp+0xfffe4f6c>
 1022c74:	31801034 	orhi	r6,r6,64
 1022c78:	00ffffc4 	movi	r3,-1
 1022c7c:	003feb06 	br	1022c2c <_gp+0xfffe4fa8>
 1022c80:	0080e784 	movi	r2,926
 1022c84:	1205c83a 	sub	r2,r2,r8
 1022c88:	00c007c4 	movi	r3,31
 1022c8c:	31802034 	orhi	r6,r6,128
 1022c90:	18800916 	blt	r3,r2,1022cb8 <__truncdfsf2+0x160>
 1022c94:	423f2084 	addi	r8,r8,-894
 1022c98:	3a06983a 	sll	r3,r7,r8
 1022c9c:	3210983a 	sll	r8,r6,r8
 1022ca0:	388ed83a 	srl	r7,r7,r2
 1022ca4:	180cc03a 	cmpne	r6,r3,zero
 1022ca8:	418cb03a 	or	r6,r8,r6
 1022cac:	31ccb03a 	or	r6,r6,r7
 1022cb0:	0007883a 	mov	r3,zero
 1022cb4:	003fc006 	br	1022bb8 <_gp+0xfffe4f34>
 1022cb8:	00c0df84 	movi	r3,894
 1022cbc:	1a07c83a 	sub	r3,r3,r8
 1022cc0:	01000804 	movi	r4,32
 1022cc4:	30c6d83a 	srl	r3,r6,r3
 1022cc8:	11000726 	beq	r2,r4,1022ce8 <__truncdfsf2+0x190>
 1022ccc:	423f2884 	addi	r8,r8,-862
 1022cd0:	3210983a 	sll	r8,r6,r8
 1022cd4:	41ceb03a 	or	r7,r8,r7
 1022cd8:	380ec03a 	cmpne	r7,r7,zero
 1022cdc:	38ccb03a 	or	r6,r7,r3
 1022ce0:	0007883a 	mov	r3,zero
 1022ce4:	003fb406 	br	1022bb8 <_gp+0xfffe4f34>
 1022ce8:	0011883a 	mov	r8,zero
 1022cec:	003ff906 	br	1022cd4 <_gp+0xfffe5050>

01022cf0 <__clzsi2>:
 1022cf0:	00bfffd4 	movui	r2,65535
 1022cf4:	11000b36 	bltu	r2,r4,1022d24 <__clzsi2+0x34>
 1022cf8:	00803fc4 	movi	r2,255
 1022cfc:	1100122e 	bgeu	r2,r4,1022d48 <__clzsi2+0x58>
 1022d00:	00c00204 	movi	r3,8
 1022d04:	01400604 	movi	r5,24
 1022d08:	20c8d83a 	srl	r4,r4,r3
 1022d0c:	008040f4 	movhi	r2,259
 1022d10:	108fa804 	addi	r2,r2,16032
 1022d14:	1109883a 	add	r4,r2,r4
 1022d18:	20800003 	ldbu	r2,0(r4)
 1022d1c:	2885c83a 	sub	r2,r5,r2
 1022d20:	f800283a 	ret
 1022d24:	00804034 	movhi	r2,256
 1022d28:	10bfffc4 	addi	r2,r2,-1
 1022d2c:	11000336 	bltu	r2,r4,1022d3c <__clzsi2+0x4c>
 1022d30:	00c00404 	movi	r3,16
 1022d34:	180b883a 	mov	r5,r3
 1022d38:	003ff306 	br	1022d08 <_gp+0xfffe5084>
 1022d3c:	00c00604 	movi	r3,24
 1022d40:	01400204 	movi	r5,8
 1022d44:	003ff006 	br	1022d08 <_gp+0xfffe5084>
 1022d48:	0007883a 	mov	r3,zero
 1022d4c:	01400804 	movi	r5,32
 1022d50:	003fed06 	br	1022d08 <_gp+0xfffe5084>

01022d54 <_printf_r>:
 1022d54:	defffd04 	addi	sp,sp,-12
 1022d58:	dfc00015 	stw	ra,0(sp)
 1022d5c:	d9800115 	stw	r6,4(sp)
 1022d60:	d9c00215 	stw	r7,8(sp)
 1022d64:	280d883a 	mov	r6,r5
 1022d68:	21400217 	ldw	r5,8(r4)
 1022d6c:	d9c00104 	addi	r7,sp,4
 1022d70:	1024f740 	call	1024f74 <___vfprintf_internal_r>
 1022d74:	dfc00017 	ldw	ra,0(sp)
 1022d78:	dec00304 	addi	sp,sp,12
 1022d7c:	f800283a 	ret

01022d80 <printf>:
 1022d80:	defffc04 	addi	sp,sp,-16
 1022d84:	dfc00015 	stw	ra,0(sp)
 1022d88:	d9400115 	stw	r5,4(sp)
 1022d8c:	d9800215 	stw	r6,8(sp)
 1022d90:	d9c00315 	stw	r7,12(sp)
 1022d94:	008040f4 	movhi	r2,259
 1022d98:	10972204 	addi	r2,r2,23688
 1022d9c:	10800017 	ldw	r2,0(r2)
 1022da0:	200b883a 	mov	r5,r4
 1022da4:	d9800104 	addi	r6,sp,4
 1022da8:	11000217 	ldw	r4,8(r2)
 1022dac:	1026f700 	call	1026f70 <__vfprintf_internal>
 1022db0:	dfc00017 	ldw	ra,0(sp)
 1022db4:	dec00404 	addi	sp,sp,16
 1022db8:	f800283a 	ret

01022dbc <_puts_r>:
 1022dbc:	defff604 	addi	sp,sp,-40
 1022dc0:	dc000715 	stw	r16,28(sp)
 1022dc4:	2021883a 	mov	r16,r4
 1022dc8:	2809883a 	mov	r4,r5
 1022dcc:	dc400815 	stw	r17,32(sp)
 1022dd0:	dfc00915 	stw	ra,36(sp)
 1022dd4:	2823883a 	mov	r17,r5
 1022dd8:	1022f4c0 	call	1022f4c <strlen>
 1022ddc:	00c040f4 	movhi	r3,259
 1022de0:	18d72204 	addi	r3,r3,23688
 1022de4:	18c00017 	ldw	r3,0(r3)
 1022de8:	11000044 	addi	r4,r2,1
 1022dec:	d8800115 	stw	r2,4(sp)
 1022df0:	18c00217 	ldw	r3,8(r3)
 1022df4:	014040f4 	movhi	r5,259
 1022df8:	294fe804 	addi	r5,r5,16288
 1022dfc:	1880030b 	ldhu	r2,12(r3)
 1022e00:	d9400215 	stw	r5,8(sp)
 1022e04:	d9000615 	stw	r4,24(sp)
 1022e08:	01400044 	movi	r5,1
 1022e0c:	01000084 	movi	r4,2
 1022e10:	d9000515 	stw	r4,20(sp)
 1022e14:	dc400015 	stw	r17,0(sp)
 1022e18:	d9400315 	stw	r5,12(sp)
 1022e1c:	dec00415 	stw	sp,16(sp)
 1022e20:	1108000c 	andi	r4,r2,8192
 1022e24:	2000061e 	bne	r4,zero,1022e40 <_puts_r+0x84>
 1022e28:	19401917 	ldw	r5,100(r3)
 1022e2c:	0137ffc4 	movi	r4,-8193
 1022e30:	10880014 	ori	r2,r2,8192
 1022e34:	2908703a 	and	r4,r5,r4
 1022e38:	1880030d 	sth	r2,12(r3)
 1022e3c:	19001915 	stw	r4,100(r3)
 1022e40:	81400217 	ldw	r5,8(r16)
 1022e44:	8009883a 	mov	r4,r16
 1022e48:	d9800404 	addi	r6,sp,16
 1022e4c:	10295280 	call	1029528 <__sfvwrite_r>
 1022e50:	1000061e 	bne	r2,zero,1022e6c <_puts_r+0xb0>
 1022e54:	00800284 	movi	r2,10
 1022e58:	dfc00917 	ldw	ra,36(sp)
 1022e5c:	dc400817 	ldw	r17,32(sp)
 1022e60:	dc000717 	ldw	r16,28(sp)
 1022e64:	dec00a04 	addi	sp,sp,40
 1022e68:	f800283a 	ret
 1022e6c:	00bfffc4 	movi	r2,-1
 1022e70:	003ff906 	br	1022e58 <_gp+0xfffe51d4>

01022e74 <puts>:
 1022e74:	008040f4 	movhi	r2,259
 1022e78:	10972204 	addi	r2,r2,23688
 1022e7c:	200b883a 	mov	r5,r4
 1022e80:	11000017 	ldw	r4,0(r2)
 1022e84:	1022dbc1 	jmpi	1022dbc <_puts_r>

01022e88 <_sprintf_r>:
 1022e88:	deffe404 	addi	sp,sp,-112
 1022e8c:	2807883a 	mov	r3,r5
 1022e90:	dfc01a15 	stw	ra,104(sp)
 1022e94:	d9c01b15 	stw	r7,108(sp)
 1022e98:	00a00034 	movhi	r2,32768
 1022e9c:	10bfffc4 	addi	r2,r2,-1
 1022ea0:	02008204 	movi	r8,520
 1022ea4:	d8800215 	stw	r2,8(sp)
 1022ea8:	d8800515 	stw	r2,20(sp)
 1022eac:	d80b883a 	mov	r5,sp
 1022eb0:	d9c01b04 	addi	r7,sp,108
 1022eb4:	00bfffc4 	movi	r2,-1
 1022eb8:	d8c00015 	stw	r3,0(sp)
 1022ebc:	d8c00415 	stw	r3,16(sp)
 1022ec0:	da00030d 	sth	r8,12(sp)
 1022ec4:	d880038d 	sth	r2,14(sp)
 1022ec8:	1022fe40 	call	1022fe4 <___svfprintf_internal_r>
 1022ecc:	d8c00017 	ldw	r3,0(sp)
 1022ed0:	18000005 	stb	zero,0(r3)
 1022ed4:	dfc01a17 	ldw	ra,104(sp)
 1022ed8:	dec01c04 	addi	sp,sp,112
 1022edc:	f800283a 	ret

01022ee0 <sprintf>:
 1022ee0:	deffe304 	addi	sp,sp,-116
 1022ee4:	2007883a 	mov	r3,r4
 1022ee8:	dfc01a15 	stw	ra,104(sp)
 1022eec:	d9801b15 	stw	r6,108(sp)
 1022ef0:	d9c01c15 	stw	r7,112(sp)
 1022ef4:	010040f4 	movhi	r4,259
 1022ef8:	21172204 	addi	r4,r4,23688
 1022efc:	21000017 	ldw	r4,0(r4)
 1022f00:	00a00034 	movhi	r2,32768
 1022f04:	10bfffc4 	addi	r2,r2,-1
 1022f08:	280d883a 	mov	r6,r5
 1022f0c:	02008204 	movi	r8,520
 1022f10:	d8800215 	stw	r2,8(sp)
 1022f14:	d8800515 	stw	r2,20(sp)
 1022f18:	d80b883a 	mov	r5,sp
 1022f1c:	d9c01b04 	addi	r7,sp,108
 1022f20:	00bfffc4 	movi	r2,-1
 1022f24:	d8c00015 	stw	r3,0(sp)
 1022f28:	d8c00415 	stw	r3,16(sp)
 1022f2c:	da00030d 	sth	r8,12(sp)
 1022f30:	d880038d 	sth	r2,14(sp)
 1022f34:	1022fe40 	call	1022fe4 <___svfprintf_internal_r>
 1022f38:	d8c00017 	ldw	r3,0(sp)
 1022f3c:	18000005 	stb	zero,0(r3)
 1022f40:	dfc01a17 	ldw	ra,104(sp)
 1022f44:	dec01d04 	addi	sp,sp,116
 1022f48:	f800283a 	ret

01022f4c <strlen>:
 1022f4c:	208000cc 	andi	r2,r4,3
 1022f50:	10002026 	beq	r2,zero,1022fd4 <strlen+0x88>
 1022f54:	20800007 	ldb	r2,0(r4)
 1022f58:	10002026 	beq	r2,zero,1022fdc <strlen+0x90>
 1022f5c:	2005883a 	mov	r2,r4
 1022f60:	00000206 	br	1022f6c <strlen+0x20>
 1022f64:	10c00007 	ldb	r3,0(r2)
 1022f68:	18001826 	beq	r3,zero,1022fcc <strlen+0x80>
 1022f6c:	10800044 	addi	r2,r2,1
 1022f70:	10c000cc 	andi	r3,r2,3
 1022f74:	183ffb1e 	bne	r3,zero,1022f64 <_gp+0xfffe52e0>
 1022f78:	10c00017 	ldw	r3,0(r2)
 1022f7c:	01ffbff4 	movhi	r7,65279
 1022f80:	39ffbfc4 	addi	r7,r7,-257
 1022f84:	00ca303a 	nor	r5,zero,r3
 1022f88:	01a02074 	movhi	r6,32897
 1022f8c:	19c7883a 	add	r3,r3,r7
 1022f90:	31a02004 	addi	r6,r6,-32640
 1022f94:	1946703a 	and	r3,r3,r5
 1022f98:	1986703a 	and	r3,r3,r6
 1022f9c:	1800091e 	bne	r3,zero,1022fc4 <strlen+0x78>
 1022fa0:	10800104 	addi	r2,r2,4
 1022fa4:	10c00017 	ldw	r3,0(r2)
 1022fa8:	19cb883a 	add	r5,r3,r7
 1022fac:	00c6303a 	nor	r3,zero,r3
 1022fb0:	28c6703a 	and	r3,r5,r3
 1022fb4:	1986703a 	and	r3,r3,r6
 1022fb8:	183ff926 	beq	r3,zero,1022fa0 <_gp+0xfffe531c>
 1022fbc:	00000106 	br	1022fc4 <strlen+0x78>
 1022fc0:	10800044 	addi	r2,r2,1
 1022fc4:	10c00007 	ldb	r3,0(r2)
 1022fc8:	183ffd1e 	bne	r3,zero,1022fc0 <_gp+0xfffe533c>
 1022fcc:	1105c83a 	sub	r2,r2,r4
 1022fd0:	f800283a 	ret
 1022fd4:	2005883a 	mov	r2,r4
 1022fd8:	003fe706 	br	1022f78 <_gp+0xfffe52f4>
 1022fdc:	0005883a 	mov	r2,zero
 1022fe0:	f800283a 	ret

01022fe4 <___svfprintf_internal_r>:
 1022fe4:	deffb504 	addi	sp,sp,-300
 1022fe8:	dfc04a15 	stw	ra,296(sp)
 1022fec:	ddc04815 	stw	r23,288(sp)
 1022ff0:	d9002f15 	stw	r4,188(sp)
 1022ff4:	282f883a 	mov	r23,r5
 1022ff8:	d9802915 	stw	r6,164(sp)
 1022ffc:	d9c02d15 	stw	r7,180(sp)
 1023000:	df004915 	stw	fp,292(sp)
 1023004:	dd804715 	stw	r22,284(sp)
 1023008:	dd404615 	stw	r21,280(sp)
 102300c:	dd004515 	stw	r20,276(sp)
 1023010:	dcc04415 	stw	r19,272(sp)
 1023014:	dc804315 	stw	r18,268(sp)
 1023018:	dc404215 	stw	r17,264(sp)
 102301c:	dc004115 	stw	r16,260(sp)
 1023020:	1029be80 	call	1029be8 <_localeconv_r>
 1023024:	10800017 	ldw	r2,0(r2)
 1023028:	1009883a 	mov	r4,r2
 102302c:	d8803515 	stw	r2,212(sp)
 1023030:	1022f4c0 	call	1022f4c <strlen>
 1023034:	d8803915 	stw	r2,228(sp)
 1023038:	b880030b 	ldhu	r2,12(r23)
 102303c:	1080200c 	andi	r2,r2,128
 1023040:	10000226 	beq	r2,zero,102304c <___svfprintf_internal_r+0x68>
 1023044:	b8800417 	ldw	r2,16(r23)
 1023048:	10065d26 	beq	r2,zero,10249c0 <___svfprintf_internal_r+0x19dc>
 102304c:	db001dc4 	addi	r12,sp,119
 1023050:	dd801e04 	addi	r22,sp,120
 1023054:	d8800404 	addi	r2,sp,16
 1023058:	050040f4 	movhi	r20,259
 102305c:	b317c83a 	sub	r11,r22,r12
 1023060:	a50ff984 	addi	r20,r20,16358
 1023064:	db002815 	stw	r12,160(sp)
 1023068:	d8801e15 	stw	r2,120(sp)
 102306c:	d8002015 	stw	zero,128(sp)
 1023070:	d8001f15 	stw	zero,124(sp)
 1023074:	d8003315 	stw	zero,204(sp)
 1023078:	d8003715 	stw	zero,220(sp)
 102307c:	d8003815 	stw	zero,224(sp)
 1023080:	d8003b15 	stw	zero,236(sp)
 1023084:	d8003a15 	stw	zero,232(sp)
 1023088:	d8003015 	stw	zero,192(sp)
 102308c:	1011883a 	mov	r8,r2
 1023090:	dac03d15 	stw	r11,244(sp)
 1023094:	db002917 	ldw	r12,164(sp)
 1023098:	60800007 	ldb	r2,0(r12)
 102309c:	1000ab26 	beq	r2,zero,102334c <___svfprintf_internal_r+0x368>
 10230a0:	00c00944 	movi	r3,37
 10230a4:	10c0a926 	beq	r2,r3,102334c <___svfprintf_internal_r+0x368>
 10230a8:	6021883a 	mov	r16,r12
 10230ac:	00000106 	br	10230b4 <___svfprintf_internal_r+0xd0>
 10230b0:	10c08426 	beq	r2,r3,10232c4 <___svfprintf_internal_r+0x2e0>
 10230b4:	84000044 	addi	r16,r16,1
 10230b8:	80800007 	ldb	r2,0(r16)
 10230bc:	103ffc1e 	bne	r2,zero,10230b0 <_gp+0xfffe542c>
 10230c0:	dac02917 	ldw	r11,164(sp)
 10230c4:	82e3c83a 	sub	r17,r16,r11
 10230c8:	88000f26 	beq	r17,zero,1023108 <___svfprintf_internal_r+0x124>
 10230cc:	d8c02017 	ldw	r3,128(sp)
 10230d0:	d8801f17 	ldw	r2,124(sp)
 10230d4:	dac02917 	ldw	r11,164(sp)
 10230d8:	1c47883a 	add	r3,r3,r17
 10230dc:	10800044 	addi	r2,r2,1
 10230e0:	d8c02015 	stw	r3,128(sp)
 10230e4:	42c00015 	stw	r11,0(r8)
 10230e8:	44400115 	stw	r17,4(r8)
 10230ec:	d8801f15 	stw	r2,124(sp)
 10230f0:	00c001c4 	movi	r3,7
 10230f4:	18807616 	blt	r3,r2,10232d0 <___svfprintf_internal_r+0x2ec>
 10230f8:	42000204 	addi	r8,r8,8
 10230fc:	db003017 	ldw	r12,192(sp)
 1023100:	6459883a 	add	r12,r12,r17
 1023104:	db003015 	stw	r12,192(sp)
 1023108:	80800007 	ldb	r2,0(r16)
 102310c:	10007726 	beq	r2,zero,10232ec <___svfprintf_internal_r+0x308>
 1023110:	80800044 	addi	r2,r16,1
 1023114:	84000047 	ldb	r16,1(r16)
 1023118:	d8002785 	stb	zero,158(sp)
 102311c:	000d883a 	mov	r6,zero
 1023120:	027fffc4 	movi	r9,-1
 1023124:	d8002e15 	stw	zero,184(sp)
 1023128:	0023883a 	mov	r17,zero
 102312c:	01001604 	movi	r4,88
 1023130:	01400244 	movi	r5,9
 1023134:	02800a84 	movi	r10,42
 1023138:	01c01b04 	movi	r7,108
 102313c:	10c00044 	addi	r3,r2,1
 1023140:	80bff804 	addi	r2,r16,-32
 1023144:	2082e436 	bltu	r4,r2,1023cd8 <___svfprintf_internal_r+0xcf4>
 1023148:	100490ba 	slli	r2,r2,2
 102314c:	02c040b4 	movhi	r11,258
 1023150:	5acc5804 	addi	r11,r11,12640
 1023154:	12c5883a 	add	r2,r2,r11
 1023158:	10800017 	ldw	r2,0(r2)
 102315c:	1000683a 	jmp	r2
 1023160:	01023a90 	cmplti	r4,zero,2282
 1023164:	01023cd8 	cmpnei	r4,zero,2291
 1023168:	01023cd8 	cmpnei	r4,zero,2291
 102316c:	01023c10 	cmplti	r4,zero,2288
 1023170:	01023cd8 	cmpnei	r4,zero,2291
 1023174:	01023cd8 	cmpnei	r4,zero,2291
 1023178:	01023cd8 	cmpnei	r4,zero,2291
 102317c:	01023cd8 	cmpnei	r4,zero,2291
 1023180:	01023cd8 	cmpnei	r4,zero,2291
 1023184:	01023cd8 	cmpnei	r4,zero,2291
 1023188:	01023bd4 	movui	r4,2287
 102318c:	01023c00 	call	1023c0 <__reset-0xf1dc40>
 1023190:	01023cd8 	cmpnei	r4,zero,2291
 1023194:	01023354 	movui	r4,2253
 1023198:	01023364 	muli	r4,zero,2253
 102319c:	01023cd8 	cmpnei	r4,zero,2291
 10231a0:	010233a4 	muli	r4,zero,2254
 10231a4:	010233b4 	movhi	r4,2254
 10231a8:	010233b4 	movhi	r4,2254
 10231ac:	010233b4 	movhi	r4,2254
 10231b0:	010233b4 	movhi	r4,2254
 10231b4:	010233b4 	movhi	r4,2254
 10231b8:	010233b4 	movhi	r4,2254
 10231bc:	010233b4 	movhi	r4,2254
 10231c0:	010233b4 	movhi	r4,2254
 10231c4:	010233b4 	movhi	r4,2254
 10231c8:	01023cd8 	cmpnei	r4,zero,2291
 10231cc:	01023cd8 	cmpnei	r4,zero,2291
 10231d0:	01023cd8 	cmpnei	r4,zero,2291
 10231d4:	01023cd8 	cmpnei	r4,zero,2291
 10231d8:	01023cd8 	cmpnei	r4,zero,2291
 10231dc:	01023cd8 	cmpnei	r4,zero,2291
 10231e0:	01023cd8 	cmpnei	r4,zero,2291
 10231e4:	01023cd8 	cmpnei	r4,zero,2291
 10231e8:	01023cd8 	cmpnei	r4,zero,2291
 10231ec:	01023cd8 	cmpnei	r4,zero,2291
 10231f0:	010233e8 	cmpgeui	r4,zero,2255
 10231f4:	010238d4 	movui	r4,2275
 10231f8:	01023cd8 	cmpnei	r4,zero,2291
 10231fc:	010238d4 	movui	r4,2275
 1023200:	01023cd8 	cmpnei	r4,zero,2291
 1023204:	01023cd8 	cmpnei	r4,zero,2291
 1023208:	01023cd8 	cmpnei	r4,zero,2291
 102320c:	01023cd8 	cmpnei	r4,zero,2291
 1023210:	010239c0 	call	10239c <__reset-0xf1dc64>
 1023214:	01023cd8 	cmpnei	r4,zero,2291
 1023218:	01023cd8 	cmpnei	r4,zero,2291
 102321c:	01023868 	cmpgeui	r4,zero,2273
 1023220:	01023cd8 	cmpnei	r4,zero,2291
 1023224:	01023cd8 	cmpnei	r4,zero,2291
 1023228:	01023cd8 	cmpnei	r4,zero,2291
 102322c:	01023cd8 	cmpnei	r4,zero,2291
 1023230:	01023cd8 	cmpnei	r4,zero,2291
 1023234:	010238a4 	muli	r4,zero,2274
 1023238:	01023cd8 	cmpnei	r4,zero,2291
 102323c:	01023cd8 	cmpnei	r4,zero,2291
 1023240:	01023ab0 	cmpltui	r4,zero,2282
 1023244:	01023cd8 	cmpnei	r4,zero,2291
 1023248:	01023cd8 	cmpnei	r4,zero,2291
 102324c:	01023cd8 	cmpnei	r4,zero,2291
 1023250:	01023cd8 	cmpnei	r4,zero,2291
 1023254:	01023cd8 	cmpnei	r4,zero,2291
 1023258:	01023cd8 	cmpnei	r4,zero,2291
 102325c:	01023cd8 	cmpnei	r4,zero,2291
 1023260:	01023cd8 	cmpnei	r4,zero,2291
 1023264:	01023cd8 	cmpnei	r4,zero,2291
 1023268:	01023cd8 	cmpnei	r4,zero,2291
 102326c:	01023b94 	movui	r4,2286
 1023270:	010239d0 	cmplti	r4,zero,2279
 1023274:	010238d4 	movui	r4,2275
 1023278:	010238d4 	movui	r4,2275
 102327c:	010238d4 	movui	r4,2275
 1023280:	01023a38 	rdprs	r4,zero,2280
 1023284:	010239d0 	cmplti	r4,zero,2279
 1023288:	01023cd8 	cmpnei	r4,zero,2291
 102328c:	01023cd8 	cmpnei	r4,zero,2291
 1023290:	01023a48 	cmpgei	r4,zero,2281
 1023294:	01023cd8 	cmpnei	r4,zero,2291
 1023298:	01023a5c 	xori	r4,zero,2281
 102329c:	01023c9c 	xori	r4,zero,2290
 10232a0:	01023978 	rdprs	r4,zero,2277
 10232a4:	01023b84 	movi	r4,2286
 10232a8:	01023cd8 	cmpnei	r4,zero,2291
 10232ac:	01023b0c 	andi	r4,zero,2284
 10232b0:	01023cd8 	cmpnei	r4,zero,2291
 10232b4:	01023c60 	cmpeqi	r4,zero,2289
 10232b8:	01023cd8 	cmpnei	r4,zero,2291
 10232bc:	01023cd8 	cmpnei	r4,zero,2291
 10232c0:	01023c20 	cmpeqi	r4,zero,2288
 10232c4:	db002917 	ldw	r12,164(sp)
 10232c8:	8323c83a 	sub	r17,r16,r12
 10232cc:	003f7e06 	br	10230c8 <_gp+0xfffe5444>
 10232d0:	d9002f17 	ldw	r4,188(sp)
 10232d4:	b80b883a 	mov	r5,r23
 10232d8:	b00d883a 	mov	r6,r22
 10232dc:	102c1f00 	call	102c1f0 <__ssprint_r>
 10232e0:	1000081e 	bne	r2,zero,1023304 <___svfprintf_internal_r+0x320>
 10232e4:	da000404 	addi	r8,sp,16
 10232e8:	003f8406 	br	10230fc <_gp+0xfffe5478>
 10232ec:	d8802017 	ldw	r2,128(sp)
 10232f0:	10000426 	beq	r2,zero,1023304 <___svfprintf_internal_r+0x320>
 10232f4:	d9002f17 	ldw	r4,188(sp)
 10232f8:	b80b883a 	mov	r5,r23
 10232fc:	d9801e04 	addi	r6,sp,120
 1023300:	102c1f00 	call	102c1f0 <__ssprint_r>
 1023304:	b880030b 	ldhu	r2,12(r23)
 1023308:	1080100c 	andi	r2,r2,64
 102330c:	10000d1e 	bne	r2,zero,1023344 <___svfprintf_internal_r+0x360>
 1023310:	d8803017 	ldw	r2,192(sp)
 1023314:	dfc04a17 	ldw	ra,296(sp)
 1023318:	df004917 	ldw	fp,292(sp)
 102331c:	ddc04817 	ldw	r23,288(sp)
 1023320:	dd804717 	ldw	r22,284(sp)
 1023324:	dd404617 	ldw	r21,280(sp)
 1023328:	dd004517 	ldw	r20,276(sp)
 102332c:	dcc04417 	ldw	r19,272(sp)
 1023330:	dc804317 	ldw	r18,268(sp)
 1023334:	dc404217 	ldw	r17,264(sp)
 1023338:	dc004117 	ldw	r16,260(sp)
 102333c:	dec04b04 	addi	sp,sp,300
 1023340:	f800283a 	ret
 1023344:	00bfffc4 	movi	r2,-1
 1023348:	003ff206 	br	1023314 <_gp+0xfffe5690>
 102334c:	dc002917 	ldw	r16,164(sp)
 1023350:	003f6d06 	br	1023108 <_gp+0xfffe5484>
 1023354:	1805883a 	mov	r2,r3
 1023358:	8c400114 	ori	r17,r17,4
 102335c:	1c000007 	ldb	r16,0(r3)
 1023360:	003f7606 	br	102313c <_gp+0xfffe54b8>
 1023364:	1c000007 	ldb	r16,0(r3)
 1023368:	18800044 	addi	r2,r3,1
 102336c:	8286e726 	beq	r16,r10,1024f0c <___svfprintf_internal_r+0x1f28>
 1023370:	82fff404 	addi	r11,r16,-48
 1023374:	1007883a 	mov	r3,r2
 1023378:	0013883a 	mov	r9,zero
 102337c:	2aff7036 	bltu	r5,r11,1023140 <_gp+0xfffe54bc>
 1023380:	1c000007 	ldb	r16,0(r3)
 1023384:	4a4002a4 	muli	r9,r9,10
 1023388:	18c00044 	addi	r3,r3,1
 102338c:	5a53883a 	add	r9,r11,r9
 1023390:	82fff404 	addi	r11,r16,-48
 1023394:	2afffa2e 	bgeu	r5,r11,1023380 <_gp+0xfffe56fc>
 1023398:	483f690e 	bge	r9,zero,1023140 <_gp+0xfffe54bc>
 102339c:	027fffc4 	movi	r9,-1
 10233a0:	003f6706 	br	1023140 <_gp+0xfffe54bc>
 10233a4:	8c402014 	ori	r17,r17,128
 10233a8:	1805883a 	mov	r2,r3
 10233ac:	1c000007 	ldb	r16,0(r3)
 10233b0:	003f6206 	br	102313c <_gp+0xfffe54b8>
 10233b4:	1805883a 	mov	r2,r3
 10233b8:	d8002e15 	stw	zero,184(sp)
 10233bc:	82fff404 	addi	r11,r16,-48
 10233c0:	0019883a 	mov	r12,zero
 10233c4:	14000007 	ldb	r16,0(r2)
 10233c8:	630002a4 	muli	r12,r12,10
 10233cc:	18c00044 	addi	r3,r3,1
 10233d0:	1805883a 	mov	r2,r3
 10233d4:	62d9883a 	add	r12,r12,r11
 10233d8:	82fff404 	addi	r11,r16,-48
 10233dc:	2afff92e 	bgeu	r5,r11,10233c4 <_gp+0xfffe5740>
 10233e0:	db002e15 	stw	r12,184(sp)
 10233e4:	003f5606 	br	1023140 <_gp+0xfffe54bc>
 10233e8:	8c400414 	ori	r17,r17,16
 10233ec:	d8c02915 	stw	r3,164(sp)
 10233f0:	d9802785 	stb	r6,158(sp)
 10233f4:	8880080c 	andi	r2,r17,32
 10233f8:	d8c02d17 	ldw	r3,180(sp)
 10233fc:	10017926 	beq	r2,zero,10239e4 <___svfprintf_internal_r+0xa00>
 1023400:	db002d17 	ldw	r12,180(sp)
 1023404:	18800117 	ldw	r2,4(r3)
 1023408:	1cc00017 	ldw	r19,0(r3)
 102340c:	63000204 	addi	r12,r12,8
 1023410:	db002d15 	stw	r12,180(sp)
 1023414:	1039883a 	mov	fp,r2
 1023418:	10017d16 	blt	r2,zero,1023a10 <___svfprintf_internal_r+0xa2c>
 102341c:	dd402783 	ldbu	r21,158(sp)
 1023420:	da403215 	stw	r9,200(sp)
 1023424:	00800044 	movi	r2,1
 1023428:	9f06b03a 	or	r3,r19,fp
 102342c:	48000216 	blt	r9,zero,1023438 <___svfprintf_internal_r+0x454>
 1023430:	013fdfc4 	movi	r4,-129
 1023434:	8922703a 	and	r17,r17,r4
 1023438:	1802371e 	bne	r3,zero,1023d18 <___svfprintf_internal_r+0xd34>
 102343c:	48034526 	beq	r9,zero,1024154 <___svfprintf_internal_r+0x1170>
 1023440:	10803fcc 	andi	r2,r2,255
 1023444:	00c00044 	movi	r3,1
 1023448:	10c25826 	beq	r2,r3,1023dac <___svfprintf_internal_r+0xdc8>
 102344c:	00c00084 	movi	r3,2
 1023450:	10c2db26 	beq	r2,r3,1023fc0 <___svfprintf_internal_r+0xfdc>
 1023454:	b007883a 	mov	r3,r22
 1023458:	9808d0fa 	srli	r4,r19,3
 102345c:	e00a977a 	slli	r5,fp,29
 1023460:	e038d0fa 	srli	fp,fp,3
 1023464:	9cc001cc 	andi	r19,r19,7
 1023468:	98800c04 	addi	r2,r19,48
 102346c:	18ffffc4 	addi	r3,r3,-1
 1023470:	2926b03a 	or	r19,r5,r4
 1023474:	18800005 	stb	r2,0(r3)
 1023478:	9f08b03a 	or	r4,r19,fp
 102347c:	203ff61e 	bne	r4,zero,1023458 <_gp+0xfffe57d4>
 1023480:	8900004c 	andi	r4,r17,1
 1023484:	d8c03115 	stw	r3,196(sp)
 1023488:	2002db26 	beq	r4,zero,1023ff8 <___svfprintf_internal_r+0x1014>
 102348c:	10803fcc 	andi	r2,r2,255
 1023490:	1080201c 	xori	r2,r2,128
 1023494:	10bfe004 	addi	r2,r2,-128
 1023498:	01000c04 	movi	r4,48
 102349c:	11056626 	beq	r2,r4,1024a38 <___svfprintf_internal_r+0x1a54>
 10234a0:	dac03117 	ldw	r11,196(sp)
 10234a4:	193fffc5 	stb	r4,-1(r3)
 10234a8:	5affffc4 	addi	r11,r11,-1
 10234ac:	dac03115 	stw	r11,196(sp)
 10234b0:	b2e5c83a 	sub	r18,r22,r11
 10234b4:	9005883a 	mov	r2,r18
 10234b8:	9240010e 	bge	r18,r9,10234c0 <___svfprintf_internal_r+0x4dc>
 10234bc:	4805883a 	mov	r2,r9
 10234c0:	d8802a15 	stw	r2,168(sp)
 10234c4:	d8003415 	stw	zero,208(sp)
 10234c8:	a8803fcc 	andi	r2,r21,255
 10234cc:	1080201c 	xori	r2,r2,128
 10234d0:	10bfe004 	addi	r2,r2,-128
 10234d4:	10000326 	beq	r2,zero,10234e4 <___svfprintf_internal_r+0x500>
 10234d8:	d8c02a17 	ldw	r3,168(sp)
 10234dc:	18c00044 	addi	r3,r3,1
 10234e0:	d8c02a15 	stw	r3,168(sp)
 10234e4:	8ac0008c 	andi	r11,r17,2
 10234e8:	dac02b15 	stw	r11,172(sp)
 10234ec:	58000326 	beq	r11,zero,10234fc <___svfprintf_internal_r+0x518>
 10234f0:	db002a17 	ldw	r12,168(sp)
 10234f4:	63000084 	addi	r12,r12,2
 10234f8:	db002a15 	stw	r12,168(sp)
 10234fc:	88c0210c 	andi	r3,r17,132
 1023500:	d8c02c15 	stw	r3,176(sp)
 1023504:	1802021e 	bne	r3,zero,1023d10 <___svfprintf_internal_r+0xd2c>
 1023508:	dac02e17 	ldw	r11,184(sp)
 102350c:	db002a17 	ldw	r12,168(sp)
 1023510:	5b39c83a 	sub	fp,r11,r12
 1023514:	0701fe0e 	bge	zero,fp,1023d10 <___svfprintf_internal_r+0xd2c>
 1023518:	02400404 	movi	r9,16
 102351c:	d8c02017 	ldw	r3,128(sp)
 1023520:	d8801f17 	ldw	r2,124(sp)
 1023524:	4f057d0e 	bge	r9,fp,1024b1c <___svfprintf_internal_r+0x1b38>
 1023528:	014040f4 	movhi	r5,259
 102352c:	e009883a 	mov	r4,fp
 1023530:	294ffd84 	addi	r5,r5,16374
 1023534:	dc003c15 	stw	r16,240(sp)
 1023538:	9039883a 	mov	fp,r18
 102353c:	d9403615 	stw	r5,216(sp)
 1023540:	8825883a 	mov	r18,r17
 1023544:	482b883a 	mov	r21,r9
 1023548:	04c001c4 	movi	r19,7
 102354c:	dc002f17 	ldw	r16,188(sp)
 1023550:	2023883a 	mov	r17,r4
 1023554:	00000306 	br	1023564 <___svfprintf_internal_r+0x580>
 1023558:	8c7ffc04 	addi	r17,r17,-16
 102355c:	42000204 	addi	r8,r8,8
 1023560:	ac40130e 	bge	r21,r17,10235b0 <___svfprintf_internal_r+0x5cc>
 1023564:	02c040f4 	movhi	r11,259
 1023568:	18c00404 	addi	r3,r3,16
 102356c:	10800044 	addi	r2,r2,1
 1023570:	5acffd84 	addi	r11,r11,16374
 1023574:	42c00015 	stw	r11,0(r8)
 1023578:	45400115 	stw	r21,4(r8)
 102357c:	d8c02015 	stw	r3,128(sp)
 1023580:	d8801f15 	stw	r2,124(sp)
 1023584:	98bff40e 	bge	r19,r2,1023558 <_gp+0xfffe58d4>
 1023588:	8009883a 	mov	r4,r16
 102358c:	b80b883a 	mov	r5,r23
 1023590:	b00d883a 	mov	r6,r22
 1023594:	102c1f00 	call	102c1f0 <__ssprint_r>
 1023598:	103f5a1e 	bne	r2,zero,1023304 <_gp+0xfffe5680>
 102359c:	8c7ffc04 	addi	r17,r17,-16
 10235a0:	d8c02017 	ldw	r3,128(sp)
 10235a4:	d8801f17 	ldw	r2,124(sp)
 10235a8:	da000404 	addi	r8,sp,16
 10235ac:	ac7fed16 	blt	r21,r17,1023564 <_gp+0xfffe58e0>
 10235b0:	dc003c17 	ldw	r16,240(sp)
 10235b4:	8809883a 	mov	r4,r17
 10235b8:	9023883a 	mov	r17,r18
 10235bc:	e025883a 	mov	r18,fp
 10235c0:	2039883a 	mov	fp,r4
 10235c4:	db003617 	ldw	r12,216(sp)
 10235c8:	e0c7883a 	add	r3,fp,r3
 10235cc:	10800044 	addi	r2,r2,1
 10235d0:	43000015 	stw	r12,0(r8)
 10235d4:	47000115 	stw	fp,4(r8)
 10235d8:	d8c02015 	stw	r3,128(sp)
 10235dc:	d8801f15 	stw	r2,124(sp)
 10235e0:	010001c4 	movi	r4,7
 10235e4:	20833516 	blt	r4,r2,10242bc <___svfprintf_internal_r+0x12d8>
 10235e8:	d8802787 	ldb	r2,158(sp)
 10235ec:	42000204 	addi	r8,r8,8
 10235f0:	10000c26 	beq	r2,zero,1023624 <___svfprintf_internal_r+0x640>
 10235f4:	d8801f17 	ldw	r2,124(sp)
 10235f8:	d9002784 	addi	r4,sp,158
 10235fc:	18c00044 	addi	r3,r3,1
 1023600:	10800044 	addi	r2,r2,1
 1023604:	41000015 	stw	r4,0(r8)
 1023608:	01000044 	movi	r4,1
 102360c:	41000115 	stw	r4,4(r8)
 1023610:	d8c02015 	stw	r3,128(sp)
 1023614:	d8801f15 	stw	r2,124(sp)
 1023618:	010001c4 	movi	r4,7
 102361c:	2082df16 	blt	r4,r2,102419c <___svfprintf_internal_r+0x11b8>
 1023620:	42000204 	addi	r8,r8,8
 1023624:	dac02b17 	ldw	r11,172(sp)
 1023628:	58000c26 	beq	r11,zero,102365c <___svfprintf_internal_r+0x678>
 102362c:	d8801f17 	ldw	r2,124(sp)
 1023630:	d9002704 	addi	r4,sp,156
 1023634:	18c00084 	addi	r3,r3,2
 1023638:	10800044 	addi	r2,r2,1
 102363c:	41000015 	stw	r4,0(r8)
 1023640:	01000084 	movi	r4,2
 1023644:	41000115 	stw	r4,4(r8)
 1023648:	d8c02015 	stw	r3,128(sp)
 102364c:	d8801f15 	stw	r2,124(sp)
 1023650:	010001c4 	movi	r4,7
 1023654:	2082d916 	blt	r4,r2,10241bc <___svfprintf_internal_r+0x11d8>
 1023658:	42000204 	addi	r8,r8,8
 102365c:	db002c17 	ldw	r12,176(sp)
 1023660:	00802004 	movi	r2,128
 1023664:	60822026 	beq	r12,r2,1023ee8 <___svfprintf_internal_r+0xf04>
 1023668:	db003217 	ldw	r12,200(sp)
 102366c:	64abc83a 	sub	r21,r12,r18
 1023670:	0540310e 	bge	zero,r21,1023738 <___svfprintf_internal_r+0x754>
 1023674:	07000404 	movi	fp,16
 1023678:	d8801f17 	ldw	r2,124(sp)
 102367c:	e544180e 	bge	fp,r21,10246e0 <___svfprintf_internal_r+0x16fc>
 1023680:	014040f4 	movhi	r5,259
 1023684:	a809883a 	mov	r4,r21
 1023688:	294ff984 	addi	r5,r5,16358
 102368c:	dc002c15 	stw	r16,176(sp)
 1023690:	902b883a 	mov	r21,r18
 1023694:	d9402b15 	stw	r5,172(sp)
 1023698:	8825883a 	mov	r18,r17
 102369c:	04c001c4 	movi	r19,7
 10236a0:	dc002f17 	ldw	r16,188(sp)
 10236a4:	2023883a 	mov	r17,r4
 10236a8:	00000306 	br	10236b8 <___svfprintf_internal_r+0x6d4>
 10236ac:	8c7ffc04 	addi	r17,r17,-16
 10236b0:	42000204 	addi	r8,r8,8
 10236b4:	e440110e 	bge	fp,r17,10236fc <___svfprintf_internal_r+0x718>
 10236b8:	18c00404 	addi	r3,r3,16
 10236bc:	10800044 	addi	r2,r2,1
 10236c0:	45000015 	stw	r20,0(r8)
 10236c4:	47000115 	stw	fp,4(r8)
 10236c8:	d8c02015 	stw	r3,128(sp)
 10236cc:	d8801f15 	stw	r2,124(sp)
 10236d0:	98bff60e 	bge	r19,r2,10236ac <_gp+0xfffe5a28>
 10236d4:	8009883a 	mov	r4,r16
 10236d8:	b80b883a 	mov	r5,r23
 10236dc:	b00d883a 	mov	r6,r22
 10236e0:	102c1f00 	call	102c1f0 <__ssprint_r>
 10236e4:	103f071e 	bne	r2,zero,1023304 <_gp+0xfffe5680>
 10236e8:	8c7ffc04 	addi	r17,r17,-16
 10236ec:	d8c02017 	ldw	r3,128(sp)
 10236f0:	d8801f17 	ldw	r2,124(sp)
 10236f4:	da000404 	addi	r8,sp,16
 10236f8:	e47fef16 	blt	fp,r17,10236b8 <_gp+0xfffe5a34>
 10236fc:	dc002c17 	ldw	r16,176(sp)
 1023700:	8809883a 	mov	r4,r17
 1023704:	9023883a 	mov	r17,r18
 1023708:	a825883a 	mov	r18,r21
 102370c:	202b883a 	mov	r21,r4
 1023710:	dac02b17 	ldw	r11,172(sp)
 1023714:	1d47883a 	add	r3,r3,r21
 1023718:	10800044 	addi	r2,r2,1
 102371c:	42c00015 	stw	r11,0(r8)
 1023720:	45400115 	stw	r21,4(r8)
 1023724:	d8c02015 	stw	r3,128(sp)
 1023728:	d8801f15 	stw	r2,124(sp)
 102372c:	010001c4 	movi	r4,7
 1023730:	20829216 	blt	r4,r2,102417c <___svfprintf_internal_r+0x1198>
 1023734:	42000204 	addi	r8,r8,8
 1023738:	8880400c 	andi	r2,r17,256
 102373c:	1001a11e 	bne	r2,zero,1023dc4 <___svfprintf_internal_r+0xde0>
 1023740:	d8801f17 	ldw	r2,124(sp)
 1023744:	db003117 	ldw	r12,196(sp)
 1023748:	1c87883a 	add	r3,r3,r18
 102374c:	10800044 	addi	r2,r2,1
 1023750:	43000015 	stw	r12,0(r8)
 1023754:	44800115 	stw	r18,4(r8)
 1023758:	d8c02015 	stw	r3,128(sp)
 102375c:	d8801f15 	stw	r2,124(sp)
 1023760:	010001c4 	movi	r4,7
 1023764:	20826d16 	blt	r4,r2,102411c <___svfprintf_internal_r+0x1138>
 1023768:	42000204 	addi	r8,r8,8
 102376c:	8c40010c 	andi	r17,r17,4
 1023770:	88003226 	beq	r17,zero,102383c <___svfprintf_internal_r+0x858>
 1023774:	db002e17 	ldw	r12,184(sp)
 1023778:	dac02a17 	ldw	r11,168(sp)
 102377c:	62e1c83a 	sub	r16,r12,r11
 1023780:	04002e0e 	bge	zero,r16,102383c <___svfprintf_internal_r+0x858>
 1023784:	04400404 	movi	r17,16
 1023788:	d8801f17 	ldw	r2,124(sp)
 102378c:	8c05240e 	bge	r17,r16,1024c20 <___svfprintf_internal_r+0x1c3c>
 1023790:	010040f4 	movhi	r4,259
 1023794:	210ffd84 	addi	r4,r4,16374
 1023798:	d9003615 	stw	r4,216(sp)
 102379c:	048001c4 	movi	r18,7
 10237a0:	dcc02f17 	ldw	r19,188(sp)
 10237a4:	00000306 	br	10237b4 <___svfprintf_internal_r+0x7d0>
 10237a8:	843ffc04 	addi	r16,r16,-16
 10237ac:	42000204 	addi	r8,r8,8
 10237b0:	8c00130e 	bge	r17,r16,1023800 <___svfprintf_internal_r+0x81c>
 10237b4:	014040f4 	movhi	r5,259
 10237b8:	18c00404 	addi	r3,r3,16
 10237bc:	10800044 	addi	r2,r2,1
 10237c0:	294ffd84 	addi	r5,r5,16374
 10237c4:	41400015 	stw	r5,0(r8)
 10237c8:	44400115 	stw	r17,4(r8)
 10237cc:	d8c02015 	stw	r3,128(sp)
 10237d0:	d8801f15 	stw	r2,124(sp)
 10237d4:	90bff40e 	bge	r18,r2,10237a8 <_gp+0xfffe5b24>
 10237d8:	9809883a 	mov	r4,r19
 10237dc:	b80b883a 	mov	r5,r23
 10237e0:	b00d883a 	mov	r6,r22
 10237e4:	102c1f00 	call	102c1f0 <__ssprint_r>
 10237e8:	103ec61e 	bne	r2,zero,1023304 <_gp+0xfffe5680>
 10237ec:	843ffc04 	addi	r16,r16,-16
 10237f0:	d8c02017 	ldw	r3,128(sp)
 10237f4:	d8801f17 	ldw	r2,124(sp)
 10237f8:	da000404 	addi	r8,sp,16
 10237fc:	8c3fed16 	blt	r17,r16,10237b4 <_gp+0xfffe5b30>
 1023800:	dac03617 	ldw	r11,216(sp)
 1023804:	1c07883a 	add	r3,r3,r16
 1023808:	10800044 	addi	r2,r2,1
 102380c:	42c00015 	stw	r11,0(r8)
 1023810:	44000115 	stw	r16,4(r8)
 1023814:	d8c02015 	stw	r3,128(sp)
 1023818:	d8801f15 	stw	r2,124(sp)
 102381c:	010001c4 	movi	r4,7
 1023820:	2080060e 	bge	r4,r2,102383c <___svfprintf_internal_r+0x858>
 1023824:	d9002f17 	ldw	r4,188(sp)
 1023828:	b80b883a 	mov	r5,r23
 102382c:	b00d883a 	mov	r6,r22
 1023830:	102c1f00 	call	102c1f0 <__ssprint_r>
 1023834:	103eb31e 	bne	r2,zero,1023304 <_gp+0xfffe5680>
 1023838:	d8c02017 	ldw	r3,128(sp)
 102383c:	d8802a17 	ldw	r2,168(sp)
 1023840:	db002e17 	ldw	r12,184(sp)
 1023844:	1300010e 	bge	r2,r12,102384c <___svfprintf_internal_r+0x868>
 1023848:	6005883a 	mov	r2,r12
 102384c:	dac03017 	ldw	r11,192(sp)
 1023850:	5897883a 	add	r11,r11,r2
 1023854:	dac03015 	stw	r11,192(sp)
 1023858:	1802381e 	bne	r3,zero,102413c <___svfprintf_internal_r+0x1158>
 102385c:	d8001f15 	stw	zero,124(sp)
 1023860:	da000404 	addi	r8,sp,16
 1023864:	003e0b06 	br	1023094 <_gp+0xfffe5410>
 1023868:	8c400414 	ori	r17,r17,16
 102386c:	d8c02915 	stw	r3,164(sp)
 1023870:	8880080c 	andi	r2,r17,32
 1023874:	10010c26 	beq	r2,zero,1023ca8 <___svfprintf_internal_r+0xcc4>
 1023878:	db002d17 	ldw	r12,180(sp)
 102387c:	0005883a 	mov	r2,zero
 1023880:	64c00017 	ldw	r19,0(r12)
 1023884:	67000117 	ldw	fp,4(r12)
 1023888:	63000204 	addi	r12,r12,8
 102388c:	db002d15 	stw	r12,180(sp)
 1023890:	9f06b03a 	or	r3,r19,fp
 1023894:	d8002785 	stb	zero,158(sp)
 1023898:	da403215 	stw	r9,200(sp)
 102389c:	002b883a 	mov	r21,zero
 10238a0:	003ee206 	br	102342c <_gp+0xfffe57a8>
 10238a4:	8c400414 	ori	r17,r17,16
 10238a8:	d8c02915 	stw	r3,164(sp)
 10238ac:	8880080c 	andi	r2,r17,32
 10238b0:	1000ee26 	beq	r2,zero,1023c6c <___svfprintf_internal_r+0xc88>
 10238b4:	dac02d17 	ldw	r11,180(sp)
 10238b8:	00800044 	movi	r2,1
 10238bc:	5cc00017 	ldw	r19,0(r11)
 10238c0:	5f000117 	ldw	fp,4(r11)
 10238c4:	5ac00204 	addi	r11,r11,8
 10238c8:	dac02d15 	stw	r11,180(sp)
 10238cc:	9f06b03a 	or	r3,r19,fp
 10238d0:	003ff006 	br	1023894 <_gp+0xfffe5c10>
 10238d4:	db002d17 	ldw	r12,180(sp)
 10238d8:	dac02d17 	ldw	r11,180(sp)
 10238dc:	d8c02915 	stw	r3,164(sp)
 10238e0:	63000017 	ldw	r12,0(r12)
 10238e4:	5ac00117 	ldw	r11,4(r11)
 10238e8:	d9802785 	stb	r6,158(sp)
 10238ec:	6009883a 	mov	r4,r12
 10238f0:	580b883a 	mov	r5,r11
 10238f4:	db003715 	stw	r12,220(sp)
 10238f8:	da004015 	stw	r8,256(sp)
 10238fc:	da403f15 	stw	r9,252(sp)
 1023900:	dac03815 	stw	r11,224(sp)
 1023904:	102bf480 	call	102bf48 <__fpclassifyd>
 1023908:	db002d17 	ldw	r12,180(sp)
 102390c:	04800044 	movi	r18,1
 1023910:	da004017 	ldw	r8,256(sp)
 1023914:	64c00204 	addi	r19,r12,8
 1023918:	da403f17 	ldw	r9,252(sp)
 102391c:	d9003717 	ldw	r4,220(sp)
 1023920:	d9403817 	ldw	r5,224(sp)
 1023924:	14832c1e 	bne	r2,r18,10245d8 <___svfprintf_internal_r+0x15f4>
 1023928:	000d883a 	mov	r6,zero
 102392c:	000f883a 	mov	r7,zero
 1023930:	103073c0 	call	103073c <__ledf2>
 1023934:	da004017 	ldw	r8,256(sp)
 1023938:	1004c416 	blt	r2,zero,1024c4c <___svfprintf_internal_r+0x1c68>
 102393c:	dd402783 	ldbu	r21,158(sp)
 1023940:	008011c4 	movi	r2,71
 1023944:	14041a0e 	bge	r2,r16,10249b0 <___svfprintf_internal_r+0x19cc>
 1023948:	00c040f4 	movhi	r3,259
 102394c:	18cfea04 	addi	r3,r3,16296
 1023950:	d8c03115 	stw	r3,196(sp)
 1023954:	02c000c4 	movi	r11,3
 1023958:	00bfdfc4 	movi	r2,-129
 102395c:	dac02a15 	stw	r11,168(sp)
 1023960:	88a2703a 	and	r17,r17,r2
 1023964:	dcc02d15 	stw	r19,180(sp)
 1023968:	5825883a 	mov	r18,r11
 102396c:	d8003215 	stw	zero,200(sp)
 1023970:	d8003415 	stw	zero,208(sp)
 1023974:	003ed406 	br	10234c8 <_gp+0xfffe5844>
 1023978:	db002d17 	ldw	r12,180(sp)
 102397c:	00800c04 	movi	r2,48
 1023980:	d8802705 	stb	r2,156(sp)
 1023984:	64c00017 	ldw	r19,0(r12)
 1023988:	00801e04 	movi	r2,120
 102398c:	d8802745 	stb	r2,157(sp)
 1023990:	008040f4 	movhi	r2,259
 1023994:	108ff204 	addi	r2,r2,16328
 1023998:	63000104 	addi	r12,r12,4
 102399c:	d8c02915 	stw	r3,164(sp)
 10239a0:	d8803b15 	stw	r2,236(sp)
 10239a4:	0039883a 	mov	fp,zero
 10239a8:	8c400094 	ori	r17,r17,2
 10239ac:	db002d15 	stw	r12,180(sp)
 10239b0:	00800084 	movi	r2,2
 10239b4:	04001e04 	movi	r16,120
 10239b8:	9807883a 	mov	r3,r19
 10239bc:	003fb506 	br	1023894 <_gp+0xfffe5c10>
 10239c0:	8c400214 	ori	r17,r17,8
 10239c4:	1805883a 	mov	r2,r3
 10239c8:	1c000007 	ldb	r16,0(r3)
 10239cc:	003ddb06 	br	102313c <_gp+0xfffe54b8>
 10239d0:	d8c02915 	stw	r3,164(sp)
 10239d4:	d9802785 	stb	r6,158(sp)
 10239d8:	8880080c 	andi	r2,r17,32
 10239dc:	d8c02d17 	ldw	r3,180(sp)
 10239e0:	103e871e 	bne	r2,zero,1023400 <_gp+0xfffe577c>
 10239e4:	8880040c 	andi	r2,r17,16
 10239e8:	10027a1e 	bne	r2,zero,10243d4 <___svfprintf_internal_r+0x13f0>
 10239ec:	8880100c 	andi	r2,r17,64
 10239f0:	10027826 	beq	r2,zero,10243d4 <___svfprintf_internal_r+0x13f0>
 10239f4:	1cc0000f 	ldh	r19,0(r3)
 10239f8:	db002d17 	ldw	r12,180(sp)
 10239fc:	9839d7fa 	srai	fp,r19,31
 1023a00:	63000104 	addi	r12,r12,4
 1023a04:	db002d15 	stw	r12,180(sp)
 1023a08:	e005883a 	mov	r2,fp
 1023a0c:	103e830e 	bge	r2,zero,102341c <_gp+0xfffe5798>
 1023a10:	04e7c83a 	sub	r19,zero,r19
 1023a14:	9804c03a 	cmpne	r2,r19,zero
 1023a18:	0739c83a 	sub	fp,zero,fp
 1023a1c:	e0b9c83a 	sub	fp,fp,r2
 1023a20:	05400b44 	movi	r21,45
 1023a24:	dd402785 	stb	r21,158(sp)
 1023a28:	da403215 	stw	r9,200(sp)
 1023a2c:	00800044 	movi	r2,1
 1023a30:	9f06b03a 	or	r3,r19,fp
 1023a34:	003e7d06 	br	102342c <_gp+0xfffe57a8>
 1023a38:	8c401014 	ori	r17,r17,64
 1023a3c:	1805883a 	mov	r2,r3
 1023a40:	1c000007 	ldb	r16,0(r3)
 1023a44:	003dbd06 	br	102313c <_gp+0xfffe54b8>
 1023a48:	1c000007 	ldb	r16,0(r3)
 1023a4c:	81c37126 	beq	r16,r7,1024814 <___svfprintf_internal_r+0x1830>
 1023a50:	8c400414 	ori	r17,r17,16
 1023a54:	1805883a 	mov	r2,r3
 1023a58:	003db806 	br	102313c <_gp+0xfffe54b8>
 1023a5c:	d8c02915 	stw	r3,164(sp)
 1023a60:	d9802785 	stb	r6,158(sp)
 1023a64:	8880080c 	andi	r2,r17,32
 1023a68:	1002f026 	beq	r2,zero,102462c <___svfprintf_internal_r+0x1648>
 1023a6c:	db002d17 	ldw	r12,180(sp)
 1023a70:	dac03017 	ldw	r11,192(sp)
 1023a74:	60800017 	ldw	r2,0(r12)
 1023a78:	5807d7fa 	srai	r3,r11,31
 1023a7c:	63000104 	addi	r12,r12,4
 1023a80:	db002d15 	stw	r12,180(sp)
 1023a84:	12c00015 	stw	r11,0(r2)
 1023a88:	10c00115 	stw	r3,4(r2)
 1023a8c:	003d8106 	br	1023094 <_gp+0xfffe5410>
 1023a90:	30803fcc 	andi	r2,r6,255
 1023a94:	1080201c 	xori	r2,r2,128
 1023a98:	10bfe004 	addi	r2,r2,-128
 1023a9c:	1002fd1e 	bne	r2,zero,1024694 <___svfprintf_internal_r+0x16b0>
 1023aa0:	1805883a 	mov	r2,r3
 1023aa4:	01800804 	movi	r6,32
 1023aa8:	1c000007 	ldb	r16,0(r3)
 1023aac:	003da306 	br	102313c <_gp+0xfffe54b8>
 1023ab0:	030040f4 	movhi	r12,259
 1023ab4:	630fed04 	addi	r12,r12,16308
 1023ab8:	d8c02915 	stw	r3,164(sp)
 1023abc:	d9802785 	stb	r6,158(sp)
 1023ac0:	db003b15 	stw	r12,236(sp)
 1023ac4:	88c0080c 	andi	r3,r17,32
 1023ac8:	d8802d17 	ldw	r2,180(sp)
 1023acc:	18005c26 	beq	r3,zero,1023c40 <___svfprintf_internal_r+0xc5c>
 1023ad0:	dac02d17 	ldw	r11,180(sp)
 1023ad4:	14c00017 	ldw	r19,0(r2)
 1023ad8:	17000117 	ldw	fp,4(r2)
 1023adc:	5ac00204 	addi	r11,r11,8
 1023ae0:	dac02d15 	stw	r11,180(sp)
 1023ae4:	8880004c 	andi	r2,r17,1
 1023ae8:	10022f26 	beq	r2,zero,10243a8 <___svfprintf_internal_r+0x13c4>
 1023aec:	9f06b03a 	or	r3,r19,fp
 1023af0:	1802eb26 	beq	r3,zero,10246a0 <___svfprintf_internal_r+0x16bc>
 1023af4:	00800c04 	movi	r2,48
 1023af8:	d8802705 	stb	r2,156(sp)
 1023afc:	dc002745 	stb	r16,157(sp)
 1023b00:	8c400094 	ori	r17,r17,2
 1023b04:	00800084 	movi	r2,2
 1023b08:	003f6206 	br	1023894 <_gp+0xfffe5c10>
 1023b0c:	dac02d17 	ldw	r11,180(sp)
 1023b10:	db002d17 	ldw	r12,180(sp)
 1023b14:	d8c02915 	stw	r3,164(sp)
 1023b18:	5ac00017 	ldw	r11,0(r11)
 1023b1c:	d8002785 	stb	zero,158(sp)
 1023b20:	64c00104 	addi	r19,r12,4
 1023b24:	dac03115 	stw	r11,196(sp)
 1023b28:	58042e26 	beq	r11,zero,1024be4 <___svfprintf_internal_r+0x1c00>
 1023b2c:	d9003117 	ldw	r4,196(sp)
 1023b30:	4803c416 	blt	r9,zero,1024a44 <___svfprintf_internal_r+0x1a60>
 1023b34:	480d883a 	mov	r6,r9
 1023b38:	000b883a 	mov	r5,zero
 1023b3c:	da004015 	stw	r8,256(sp)
 1023b40:	da403f15 	stw	r9,252(sp)
 1023b44:	102a57c0 	call	102a57c <memchr>
 1023b48:	da004017 	ldw	r8,256(sp)
 1023b4c:	da403f17 	ldw	r9,252(sp)
 1023b50:	10048a26 	beq	r2,zero,1024d7c <___svfprintf_internal_r+0x1d98>
 1023b54:	d8c03117 	ldw	r3,196(sp)
 1023b58:	10e5c83a 	sub	r18,r2,r3
 1023b5c:	4c80010e 	bge	r9,r18,1023b64 <___svfprintf_internal_r+0xb80>
 1023b60:	4825883a 	mov	r18,r9
 1023b64:	9005883a 	mov	r2,r18
 1023b68:	9003bb16 	blt	r18,zero,1024a58 <___svfprintf_internal_r+0x1a74>
 1023b6c:	dd402783 	ldbu	r21,158(sp)
 1023b70:	d8802a15 	stw	r2,168(sp)
 1023b74:	dcc02d15 	stw	r19,180(sp)
 1023b78:	d8003215 	stw	zero,200(sp)
 1023b7c:	d8003415 	stw	zero,208(sp)
 1023b80:	003e5106 	br	10234c8 <_gp+0xfffe5844>
 1023b84:	8c400814 	ori	r17,r17,32
 1023b88:	1805883a 	mov	r2,r3
 1023b8c:	1c000007 	ldb	r16,0(r3)
 1023b90:	003d6a06 	br	102313c <_gp+0xfffe54b8>
 1023b94:	db002d17 	ldw	r12,180(sp)
 1023b98:	d8c02915 	stw	r3,164(sp)
 1023b9c:	dac01404 	addi	r11,sp,80
 1023ba0:	60800017 	ldw	r2,0(r12)
 1023ba4:	00c00044 	movi	r3,1
 1023ba8:	63000104 	addi	r12,r12,4
 1023bac:	d8801405 	stb	r2,80(sp)
 1023bb0:	d8c02a15 	stw	r3,168(sp)
 1023bb4:	d8002785 	stb	zero,158(sp)
 1023bb8:	db002d15 	stw	r12,180(sp)
 1023bbc:	1825883a 	mov	r18,r3
 1023bc0:	d8003215 	stw	zero,200(sp)
 1023bc4:	d8003415 	stw	zero,208(sp)
 1023bc8:	dac03115 	stw	r11,196(sp)
 1023bcc:	0005883a 	mov	r2,zero
 1023bd0:	003e4406 	br	10234e4 <_gp+0xfffe5860>
 1023bd4:	dac02d17 	ldw	r11,180(sp)
 1023bd8:	db002d17 	ldw	r12,180(sp)
 1023bdc:	5ac00017 	ldw	r11,0(r11)
 1023be0:	dac02e15 	stw	r11,184(sp)
 1023be4:	62c00104 	addi	r11,r12,4
 1023be8:	db002e17 	ldw	r12,184(sp)
 1023bec:	60030316 	blt	r12,zero,10247fc <___svfprintf_internal_r+0x1818>
 1023bf0:	dac02d15 	stw	r11,180(sp)
 1023bf4:	1805883a 	mov	r2,r3
 1023bf8:	1c000007 	ldb	r16,0(r3)
 1023bfc:	003d4f06 	br	102313c <_gp+0xfffe54b8>
 1023c00:	1805883a 	mov	r2,r3
 1023c04:	01800ac4 	movi	r6,43
 1023c08:	1c000007 	ldb	r16,0(r3)
 1023c0c:	003d4b06 	br	102313c <_gp+0xfffe54b8>
 1023c10:	8c400054 	ori	r17,r17,1
 1023c14:	1805883a 	mov	r2,r3
 1023c18:	1c000007 	ldb	r16,0(r3)
 1023c1c:	003d4706 	br	102313c <_gp+0xfffe54b8>
 1023c20:	008040f4 	movhi	r2,259
 1023c24:	108ff204 	addi	r2,r2,16328
 1023c28:	d8c02915 	stw	r3,164(sp)
 1023c2c:	d8803b15 	stw	r2,236(sp)
 1023c30:	d9802785 	stb	r6,158(sp)
 1023c34:	88c0080c 	andi	r3,r17,32
 1023c38:	d8802d17 	ldw	r2,180(sp)
 1023c3c:	183fa41e 	bne	r3,zero,1023ad0 <_gp+0xfffe5e4c>
 1023c40:	88c0040c 	andi	r3,r17,16
 1023c44:	18028b26 	beq	r3,zero,1024674 <___svfprintf_internal_r+0x1690>
 1023c48:	db002d17 	ldw	r12,180(sp)
 1023c4c:	14c00017 	ldw	r19,0(r2)
 1023c50:	0039883a 	mov	fp,zero
 1023c54:	63000104 	addi	r12,r12,4
 1023c58:	db002d15 	stw	r12,180(sp)
 1023c5c:	003fa106 	br	1023ae4 <_gp+0xfffe5e60>
 1023c60:	d8c02915 	stw	r3,164(sp)
 1023c64:	8880080c 	andi	r2,r17,32
 1023c68:	103f121e 	bne	r2,zero,10238b4 <_gp+0xfffe5c30>
 1023c6c:	8880040c 	andi	r2,r17,16
 1023c70:	1001df1e 	bne	r2,zero,10243f0 <___svfprintf_internal_r+0x140c>
 1023c74:	8880100c 	andi	r2,r17,64
 1023c78:	1001dd26 	beq	r2,zero,10243f0 <___svfprintf_internal_r+0x140c>
 1023c7c:	dac02d17 	ldw	r11,180(sp)
 1023c80:	0039883a 	mov	fp,zero
 1023c84:	00800044 	movi	r2,1
 1023c88:	5cc0000b 	ldhu	r19,0(r11)
 1023c8c:	5ac00104 	addi	r11,r11,4
 1023c90:	dac02d15 	stw	r11,180(sp)
 1023c94:	9807883a 	mov	r3,r19
 1023c98:	003efe06 	br	1023894 <_gp+0xfffe5c10>
 1023c9c:	d8c02915 	stw	r3,164(sp)
 1023ca0:	8880080c 	andi	r2,r17,32
 1023ca4:	103ef41e 	bne	r2,zero,1023878 <_gp+0xfffe5bf4>
 1023ca8:	8880040c 	andi	r2,r17,16
 1023cac:	1001c11e 	bne	r2,zero,10243b4 <___svfprintf_internal_r+0x13d0>
 1023cb0:	8880100c 	andi	r2,r17,64
 1023cb4:	1001bf26 	beq	r2,zero,10243b4 <___svfprintf_internal_r+0x13d0>
 1023cb8:	db002d17 	ldw	r12,180(sp)
 1023cbc:	0039883a 	mov	fp,zero
 1023cc0:	0005883a 	mov	r2,zero
 1023cc4:	64c0000b 	ldhu	r19,0(r12)
 1023cc8:	63000104 	addi	r12,r12,4
 1023ccc:	db002d15 	stw	r12,180(sp)
 1023cd0:	9807883a 	mov	r3,r19
 1023cd4:	003eef06 	br	1023894 <_gp+0xfffe5c10>
 1023cd8:	d8c02915 	stw	r3,164(sp)
 1023cdc:	d9802785 	stb	r6,158(sp)
 1023ce0:	803d8226 	beq	r16,zero,10232ec <_gp+0xfffe5668>
 1023ce4:	02c00044 	movi	r11,1
 1023ce8:	db001404 	addi	r12,sp,80
 1023cec:	dac02a15 	stw	r11,168(sp)
 1023cf0:	dc001405 	stb	r16,80(sp)
 1023cf4:	d8002785 	stb	zero,158(sp)
 1023cf8:	5825883a 	mov	r18,r11
 1023cfc:	d8003215 	stw	zero,200(sp)
 1023d00:	d8003415 	stw	zero,208(sp)
 1023d04:	db003115 	stw	r12,196(sp)
 1023d08:	0005883a 	mov	r2,zero
 1023d0c:	003df506 	br	10234e4 <_gp+0xfffe5860>
 1023d10:	d8c02017 	ldw	r3,128(sp)
 1023d14:	003e3606 	br	10235f0 <_gp+0xfffe596c>
 1023d18:	10803fcc 	andi	r2,r2,255
 1023d1c:	00c00044 	movi	r3,1
 1023d20:	10fdca1e 	bne	r2,r3,102344c <_gp+0xfffe57c8>
 1023d24:	e000021e 	bne	fp,zero,1023d30 <___svfprintf_internal_r+0xd4c>
 1023d28:	00800244 	movi	r2,9
 1023d2c:	14c01f2e 	bgeu	r2,r19,1023dac <___svfprintf_internal_r+0xdc8>
 1023d30:	dc002a15 	stw	r16,168(sp)
 1023d34:	dc402b15 	stw	r17,172(sp)
 1023d38:	9821883a 	mov	r16,r19
 1023d3c:	e023883a 	mov	r17,fp
 1023d40:	b025883a 	mov	r18,r22
 1023d44:	4027883a 	mov	r19,r8
 1023d48:	4839883a 	mov	fp,r9
 1023d4c:	8009883a 	mov	r4,r16
 1023d50:	880b883a 	mov	r5,r17
 1023d54:	01800284 	movi	r6,10
 1023d58:	000f883a 	mov	r7,zero
 1023d5c:	102f7ac0 	call	102f7ac <__umoddi3>
 1023d60:	10800c04 	addi	r2,r2,48
 1023d64:	94bfffc4 	addi	r18,r18,-1
 1023d68:	8009883a 	mov	r4,r16
 1023d6c:	880b883a 	mov	r5,r17
 1023d70:	01800284 	movi	r6,10
 1023d74:	000f883a 	mov	r7,zero
 1023d78:	90800005 	stb	r2,0(r18)
 1023d7c:	102f1ec0 	call	102f1ec <__udivdi3>
 1023d80:	1021883a 	mov	r16,r2
 1023d84:	10c4b03a 	or	r2,r2,r3
 1023d88:	1823883a 	mov	r17,r3
 1023d8c:	103fef1e 	bne	r2,zero,1023d4c <_gp+0xfffe60c8>
 1023d90:	dc803115 	stw	r18,196(sp)
 1023d94:	dc002a17 	ldw	r16,168(sp)
 1023d98:	9811883a 	mov	r8,r19
 1023d9c:	dc402b17 	ldw	r17,172(sp)
 1023da0:	e013883a 	mov	r9,fp
 1023da4:	b4a5c83a 	sub	r18,r22,r18
 1023da8:	003dc206 	br	10234b4 <_gp+0xfffe5830>
 1023dac:	9cc00c04 	addi	r19,r19,48
 1023db0:	db001dc4 	addi	r12,sp,119
 1023db4:	dcc01dc5 	stb	r19,119(sp)
 1023db8:	dc803d17 	ldw	r18,244(sp)
 1023dbc:	db003115 	stw	r12,196(sp)
 1023dc0:	003dbc06 	br	10234b4 <_gp+0xfffe5830>
 1023dc4:	00801944 	movi	r2,101
 1023dc8:	14008d0e 	bge	r2,r16,1024000 <___svfprintf_internal_r+0x101c>
 1023dcc:	d9003717 	ldw	r4,220(sp)
 1023dd0:	d9403817 	ldw	r5,224(sp)
 1023dd4:	000d883a 	mov	r6,zero
 1023dd8:	000f883a 	mov	r7,zero
 1023ddc:	d8c03e15 	stw	r3,248(sp)
 1023de0:	da004015 	stw	r8,256(sp)
 1023de4:	10305d80 	call	10305d8 <__eqdf2>
 1023de8:	d8c03e17 	ldw	r3,248(sp)
 1023dec:	da004017 	ldw	r8,256(sp)
 1023df0:	1000fd1e 	bne	r2,zero,10241e8 <___svfprintf_internal_r+0x1204>
 1023df4:	d8801f17 	ldw	r2,124(sp)
 1023df8:	010040f4 	movhi	r4,259
 1023dfc:	210ff904 	addi	r4,r4,16356
 1023e00:	18c00044 	addi	r3,r3,1
 1023e04:	10800044 	addi	r2,r2,1
 1023e08:	41000015 	stw	r4,0(r8)
 1023e0c:	01000044 	movi	r4,1
 1023e10:	41000115 	stw	r4,4(r8)
 1023e14:	d8c02015 	stw	r3,128(sp)
 1023e18:	d8801f15 	stw	r2,124(sp)
 1023e1c:	010001c4 	movi	r4,7
 1023e20:	20823316 	blt	r4,r2,10246f0 <___svfprintf_internal_r+0x170c>
 1023e24:	42000204 	addi	r8,r8,8
 1023e28:	d8802617 	ldw	r2,152(sp)
 1023e2c:	dac03317 	ldw	r11,204(sp)
 1023e30:	12c00216 	blt	r2,r11,1023e3c <___svfprintf_internal_r+0xe58>
 1023e34:	8880004c 	andi	r2,r17,1
 1023e38:	103e4c26 	beq	r2,zero,102376c <_gp+0xfffe5ae8>
 1023e3c:	db003917 	ldw	r12,228(sp)
 1023e40:	d8801f17 	ldw	r2,124(sp)
 1023e44:	dac03517 	ldw	r11,212(sp)
 1023e48:	1b07883a 	add	r3,r3,r12
 1023e4c:	10800044 	addi	r2,r2,1
 1023e50:	42c00015 	stw	r11,0(r8)
 1023e54:	43000115 	stw	r12,4(r8)
 1023e58:	d8c02015 	stw	r3,128(sp)
 1023e5c:	d8801f15 	stw	r2,124(sp)
 1023e60:	010001c4 	movi	r4,7
 1023e64:	20826f16 	blt	r4,r2,1024824 <___svfprintf_internal_r+0x1840>
 1023e68:	42000204 	addi	r8,r8,8
 1023e6c:	db003317 	ldw	r12,204(sp)
 1023e70:	643fffc4 	addi	r16,r12,-1
 1023e74:	043e3d0e 	bge	zero,r16,102376c <_gp+0xfffe5ae8>
 1023e78:	04800404 	movi	r18,16
 1023e7c:	d8801f17 	ldw	r2,124(sp)
 1023e80:	94009a0e 	bge	r18,r16,10240ec <___svfprintf_internal_r+0x1108>
 1023e84:	014040f4 	movhi	r5,259
 1023e88:	294ff984 	addi	r5,r5,16358
 1023e8c:	d9402b15 	stw	r5,172(sp)
 1023e90:	054001c4 	movi	r21,7
 1023e94:	dcc02f17 	ldw	r19,188(sp)
 1023e98:	00000306 	br	1023ea8 <___svfprintf_internal_r+0xec4>
 1023e9c:	42000204 	addi	r8,r8,8
 1023ea0:	843ffc04 	addi	r16,r16,-16
 1023ea4:	9400940e 	bge	r18,r16,10240f8 <___svfprintf_internal_r+0x1114>
 1023ea8:	18c00404 	addi	r3,r3,16
 1023eac:	10800044 	addi	r2,r2,1
 1023eb0:	45000015 	stw	r20,0(r8)
 1023eb4:	44800115 	stw	r18,4(r8)
 1023eb8:	d8c02015 	stw	r3,128(sp)
 1023ebc:	d8801f15 	stw	r2,124(sp)
 1023ec0:	a8bff60e 	bge	r21,r2,1023e9c <_gp+0xfffe6218>
 1023ec4:	9809883a 	mov	r4,r19
 1023ec8:	b80b883a 	mov	r5,r23
 1023ecc:	b00d883a 	mov	r6,r22
 1023ed0:	102c1f00 	call	102c1f0 <__ssprint_r>
 1023ed4:	103d0b1e 	bne	r2,zero,1023304 <_gp+0xfffe5680>
 1023ed8:	d8c02017 	ldw	r3,128(sp)
 1023edc:	d8801f17 	ldw	r2,124(sp)
 1023ee0:	da000404 	addi	r8,sp,16
 1023ee4:	003fee06 	br	1023ea0 <_gp+0xfffe621c>
 1023ee8:	dac02e17 	ldw	r11,184(sp)
 1023eec:	db002a17 	ldw	r12,168(sp)
 1023ef0:	5b2bc83a 	sub	r21,r11,r12
 1023ef4:	057ddc0e 	bge	zero,r21,1023668 <_gp+0xfffe59e4>
 1023ef8:	07000404 	movi	fp,16
 1023efc:	d8801f17 	ldw	r2,124(sp)
 1023f00:	e5435d0e 	bge	fp,r21,1024c78 <___svfprintf_internal_r+0x1c94>
 1023f04:	014040f4 	movhi	r5,259
 1023f08:	a809883a 	mov	r4,r21
 1023f0c:	294ff984 	addi	r5,r5,16358
 1023f10:	dc002c15 	stw	r16,176(sp)
 1023f14:	902b883a 	mov	r21,r18
 1023f18:	d9402b15 	stw	r5,172(sp)
 1023f1c:	8825883a 	mov	r18,r17
 1023f20:	04c001c4 	movi	r19,7
 1023f24:	dc002f17 	ldw	r16,188(sp)
 1023f28:	2023883a 	mov	r17,r4
 1023f2c:	00000306 	br	1023f3c <___svfprintf_internal_r+0xf58>
 1023f30:	8c7ffc04 	addi	r17,r17,-16
 1023f34:	42000204 	addi	r8,r8,8
 1023f38:	e440110e 	bge	fp,r17,1023f80 <___svfprintf_internal_r+0xf9c>
 1023f3c:	18c00404 	addi	r3,r3,16
 1023f40:	10800044 	addi	r2,r2,1
 1023f44:	45000015 	stw	r20,0(r8)
 1023f48:	47000115 	stw	fp,4(r8)
 1023f4c:	d8c02015 	stw	r3,128(sp)
 1023f50:	d8801f15 	stw	r2,124(sp)
 1023f54:	98bff60e 	bge	r19,r2,1023f30 <_gp+0xfffe62ac>
 1023f58:	8009883a 	mov	r4,r16
 1023f5c:	b80b883a 	mov	r5,r23
 1023f60:	b00d883a 	mov	r6,r22
 1023f64:	102c1f00 	call	102c1f0 <__ssprint_r>
 1023f68:	103ce61e 	bne	r2,zero,1023304 <_gp+0xfffe5680>
 1023f6c:	8c7ffc04 	addi	r17,r17,-16
 1023f70:	d8c02017 	ldw	r3,128(sp)
 1023f74:	d8801f17 	ldw	r2,124(sp)
 1023f78:	da000404 	addi	r8,sp,16
 1023f7c:	e47fef16 	blt	fp,r17,1023f3c <_gp+0xfffe62b8>
 1023f80:	dc002c17 	ldw	r16,176(sp)
 1023f84:	8809883a 	mov	r4,r17
 1023f88:	9023883a 	mov	r17,r18
 1023f8c:	a825883a 	mov	r18,r21
 1023f90:	202b883a 	mov	r21,r4
 1023f94:	dac02b17 	ldw	r11,172(sp)
 1023f98:	1d47883a 	add	r3,r3,r21
 1023f9c:	10800044 	addi	r2,r2,1
 1023fa0:	42c00015 	stw	r11,0(r8)
 1023fa4:	45400115 	stw	r21,4(r8)
 1023fa8:	d8c02015 	stw	r3,128(sp)
 1023fac:	d8801f15 	stw	r2,124(sp)
 1023fb0:	010001c4 	movi	r4,7
 1023fb4:	20818016 	blt	r4,r2,10245b8 <___svfprintf_internal_r+0x15d4>
 1023fb8:	42000204 	addi	r8,r8,8
 1023fbc:	003daa06 	br	1023668 <_gp+0xfffe59e4>
 1023fc0:	d9403b17 	ldw	r5,236(sp)
 1023fc4:	b007883a 	mov	r3,r22
 1023fc8:	988003cc 	andi	r2,r19,15
 1023fcc:	e008973a 	slli	r4,fp,28
 1023fd0:	2885883a 	add	r2,r5,r2
 1023fd4:	9826d13a 	srli	r19,r19,4
 1023fd8:	10800003 	ldbu	r2,0(r2)
 1023fdc:	e038d13a 	srli	fp,fp,4
 1023fe0:	18ffffc4 	addi	r3,r3,-1
 1023fe4:	24e6b03a 	or	r19,r4,r19
 1023fe8:	18800005 	stb	r2,0(r3)
 1023fec:	9f04b03a 	or	r2,r19,fp
 1023ff0:	103ff51e 	bne	r2,zero,1023fc8 <_gp+0xfffe6344>
 1023ff4:	d8c03115 	stw	r3,196(sp)
 1023ff8:	b0e5c83a 	sub	r18,r22,r3
 1023ffc:	003d2d06 	br	10234b4 <_gp+0xfffe5830>
 1024000:	db003317 	ldw	r12,204(sp)
 1024004:	00800044 	movi	r2,1
 1024008:	18c00044 	addi	r3,r3,1
 102400c:	13014b0e 	bge	r2,r12,102453c <___svfprintf_internal_r+0x1558>
 1024010:	dc001f17 	ldw	r16,124(sp)
 1024014:	dac03117 	ldw	r11,196(sp)
 1024018:	00800044 	movi	r2,1
 102401c:	84000044 	addi	r16,r16,1
 1024020:	40800115 	stw	r2,4(r8)
 1024024:	42c00015 	stw	r11,0(r8)
 1024028:	d8c02015 	stw	r3,128(sp)
 102402c:	dc001f15 	stw	r16,124(sp)
 1024030:	008001c4 	movi	r2,7
 1024034:	14014e16 	blt	r2,r16,1024570 <___svfprintf_internal_r+0x158c>
 1024038:	42000204 	addi	r8,r8,8
 102403c:	db003917 	ldw	r12,228(sp)
 1024040:	dac03517 	ldw	r11,212(sp)
 1024044:	84000044 	addi	r16,r16,1
 1024048:	1b07883a 	add	r3,r3,r12
 102404c:	42c00015 	stw	r11,0(r8)
 1024050:	43000115 	stw	r12,4(r8)
 1024054:	d8c02015 	stw	r3,128(sp)
 1024058:	dc001f15 	stw	r16,124(sp)
 102405c:	008001c4 	movi	r2,7
 1024060:	14014c16 	blt	r2,r16,1024594 <___svfprintf_internal_r+0x15b0>
 1024064:	44800204 	addi	r18,r8,8
 1024068:	d9003717 	ldw	r4,220(sp)
 102406c:	d9403817 	ldw	r5,224(sp)
 1024070:	000d883a 	mov	r6,zero
 1024074:	000f883a 	mov	r7,zero
 1024078:	d8c03e15 	stw	r3,248(sp)
 102407c:	10305d80 	call	10305d8 <__eqdf2>
 1024080:	d8c03e17 	ldw	r3,248(sp)
 1024084:	db003317 	ldw	r12,204(sp)
 1024088:	10009526 	beq	r2,zero,10242e0 <___svfprintf_internal_r+0x12fc>
 102408c:	dac03117 	ldw	r11,196(sp)
 1024090:	60bfffc4 	addi	r2,r12,-1
 1024094:	1887883a 	add	r3,r3,r2
 1024098:	59000044 	addi	r4,r11,1
 102409c:	84000044 	addi	r16,r16,1
 10240a0:	90800115 	stw	r2,4(r18)
 10240a4:	91000015 	stw	r4,0(r18)
 10240a8:	d8c02015 	stw	r3,128(sp)
 10240ac:	dc001f15 	stw	r16,124(sp)
 10240b0:	008001c4 	movi	r2,7
 10240b4:	1400b316 	blt	r2,r16,1024384 <___svfprintf_internal_r+0x13a0>
 10240b8:	94800204 	addi	r18,r18,8
 10240bc:	dac03a17 	ldw	r11,232(sp)
 10240c0:	dd4022c4 	addi	r21,sp,139
 10240c4:	84000044 	addi	r16,r16,1
 10240c8:	58c7883a 	add	r3,r11,r3
 10240cc:	95400015 	stw	r21,0(r18)
 10240d0:	92c00115 	stw	r11,4(r18)
 10240d4:	d8c02015 	stw	r3,128(sp)
 10240d8:	dc001f15 	stw	r16,124(sp)
 10240dc:	008001c4 	movi	r2,7
 10240e0:	14000e16 	blt	r2,r16,102411c <___svfprintf_internal_r+0x1138>
 10240e4:	92000204 	addi	r8,r18,8
 10240e8:	003da006 	br	102376c <_gp+0xfffe5ae8>
 10240ec:	010040f4 	movhi	r4,259
 10240f0:	210ff984 	addi	r4,r4,16358
 10240f4:	d9002b15 	stw	r4,172(sp)
 10240f8:	dac02b17 	ldw	r11,172(sp)
 10240fc:	1c07883a 	add	r3,r3,r16
 1024100:	44000115 	stw	r16,4(r8)
 1024104:	42c00015 	stw	r11,0(r8)
 1024108:	10800044 	addi	r2,r2,1
 102410c:	d8c02015 	stw	r3,128(sp)
 1024110:	d8801f15 	stw	r2,124(sp)
 1024114:	010001c4 	movi	r4,7
 1024118:	20bd930e 	bge	r4,r2,1023768 <_gp+0xfffe5ae4>
 102411c:	d9002f17 	ldw	r4,188(sp)
 1024120:	b80b883a 	mov	r5,r23
 1024124:	b00d883a 	mov	r6,r22
 1024128:	102c1f00 	call	102c1f0 <__ssprint_r>
 102412c:	103c751e 	bne	r2,zero,1023304 <_gp+0xfffe5680>
 1024130:	d8c02017 	ldw	r3,128(sp)
 1024134:	da000404 	addi	r8,sp,16
 1024138:	003d8c06 	br	102376c <_gp+0xfffe5ae8>
 102413c:	d9002f17 	ldw	r4,188(sp)
 1024140:	b80b883a 	mov	r5,r23
 1024144:	b00d883a 	mov	r6,r22
 1024148:	102c1f00 	call	102c1f0 <__ssprint_r>
 102414c:	103dc326 	beq	r2,zero,102385c <_gp+0xfffe5bd8>
 1024150:	003c6c06 	br	1023304 <_gp+0xfffe5680>
 1024154:	10803fcc 	andi	r2,r2,255
 1024158:	1000201e 	bne	r2,zero,10241dc <___svfprintf_internal_r+0x11f8>
 102415c:	8880004c 	andi	r2,r17,1
 1024160:	10001e26 	beq	r2,zero,10241dc <___svfprintf_internal_r+0x11f8>
 1024164:	00800c04 	movi	r2,48
 1024168:	d8c01dc4 	addi	r3,sp,119
 102416c:	d8801dc5 	stb	r2,119(sp)
 1024170:	dc803d17 	ldw	r18,244(sp)
 1024174:	d8c03115 	stw	r3,196(sp)
 1024178:	003cce06 	br	10234b4 <_gp+0xfffe5830>
 102417c:	d9002f17 	ldw	r4,188(sp)
 1024180:	b80b883a 	mov	r5,r23
 1024184:	b00d883a 	mov	r6,r22
 1024188:	102c1f00 	call	102c1f0 <__ssprint_r>
 102418c:	103c5d1e 	bne	r2,zero,1023304 <_gp+0xfffe5680>
 1024190:	d8c02017 	ldw	r3,128(sp)
 1024194:	da000404 	addi	r8,sp,16
 1024198:	003d6706 	br	1023738 <_gp+0xfffe5ab4>
 102419c:	d9002f17 	ldw	r4,188(sp)
 10241a0:	b80b883a 	mov	r5,r23
 10241a4:	b00d883a 	mov	r6,r22
 10241a8:	102c1f00 	call	102c1f0 <__ssprint_r>
 10241ac:	103c551e 	bne	r2,zero,1023304 <_gp+0xfffe5680>
 10241b0:	d8c02017 	ldw	r3,128(sp)
 10241b4:	da000404 	addi	r8,sp,16
 10241b8:	003d1a06 	br	1023624 <_gp+0xfffe59a0>
 10241bc:	d9002f17 	ldw	r4,188(sp)
 10241c0:	b80b883a 	mov	r5,r23
 10241c4:	b00d883a 	mov	r6,r22
 10241c8:	102c1f00 	call	102c1f0 <__ssprint_r>
 10241cc:	103c4d1e 	bne	r2,zero,1023304 <_gp+0xfffe5680>
 10241d0:	d8c02017 	ldw	r3,128(sp)
 10241d4:	da000404 	addi	r8,sp,16
 10241d8:	003d2006 	br	102365c <_gp+0xfffe59d8>
 10241dc:	0025883a 	mov	r18,zero
 10241e0:	dd803115 	stw	r22,196(sp)
 10241e4:	003cb306 	br	10234b4 <_gp+0xfffe5830>
 10241e8:	dc002617 	ldw	r16,152(sp)
 10241ec:	0401480e 	bge	zero,r16,1024710 <___svfprintf_internal_r+0x172c>
 10241f0:	db003117 	ldw	r12,196(sp)
 10241f4:	dac03317 	ldw	r11,204(sp)
 10241f8:	62e1883a 	add	r16,r12,r11
 10241fc:	db003417 	ldw	r12,208(sp)
 1024200:	5825883a 	mov	r18,r11
 1024204:	62c0010e 	bge	r12,r11,102420c <___svfprintf_internal_r+0x1228>
 1024208:	6025883a 	mov	r18,r12
 102420c:	04800b0e 	bge	zero,r18,102423c <___svfprintf_internal_r+0x1258>
 1024210:	d8801f17 	ldw	r2,124(sp)
 1024214:	dac03117 	ldw	r11,196(sp)
 1024218:	1c87883a 	add	r3,r3,r18
 102421c:	10800044 	addi	r2,r2,1
 1024220:	42c00015 	stw	r11,0(r8)
 1024224:	44800115 	stw	r18,4(r8)
 1024228:	d8c02015 	stw	r3,128(sp)
 102422c:	d8801f15 	stw	r2,124(sp)
 1024230:	010001c4 	movi	r4,7
 1024234:	20823f16 	blt	r4,r2,1024b34 <___svfprintf_internal_r+0x1b50>
 1024238:	42000204 	addi	r8,r8,8
 102423c:	90023b16 	blt	r18,zero,1024b2c <___svfprintf_internal_r+0x1b48>
 1024240:	db003417 	ldw	r12,208(sp)
 1024244:	64a5c83a 	sub	r18,r12,r18
 1024248:	0480780e 	bge	zero,r18,102442c <___svfprintf_internal_r+0x1448>
 102424c:	05400404 	movi	r21,16
 1024250:	d8801f17 	ldw	r2,124(sp)
 1024254:	ac81140e 	bge	r21,r18,10246a8 <___svfprintf_internal_r+0x16c4>
 1024258:	014040f4 	movhi	r5,259
 102425c:	294ff984 	addi	r5,r5,16358
 1024260:	d9402b15 	stw	r5,172(sp)
 1024264:	070001c4 	movi	fp,7
 1024268:	dcc02f17 	ldw	r19,188(sp)
 102426c:	00000306 	br	102427c <___svfprintf_internal_r+0x1298>
 1024270:	42000204 	addi	r8,r8,8
 1024274:	94bffc04 	addi	r18,r18,-16
 1024278:	ac810e0e 	bge	r21,r18,10246b4 <___svfprintf_internal_r+0x16d0>
 102427c:	18c00404 	addi	r3,r3,16
 1024280:	10800044 	addi	r2,r2,1
 1024284:	45000015 	stw	r20,0(r8)
 1024288:	45400115 	stw	r21,4(r8)
 102428c:	d8c02015 	stw	r3,128(sp)
 1024290:	d8801f15 	stw	r2,124(sp)
 1024294:	e0bff60e 	bge	fp,r2,1024270 <_gp+0xfffe65ec>
 1024298:	9809883a 	mov	r4,r19
 102429c:	b80b883a 	mov	r5,r23
 10242a0:	b00d883a 	mov	r6,r22
 10242a4:	102c1f00 	call	102c1f0 <__ssprint_r>
 10242a8:	103c161e 	bne	r2,zero,1023304 <_gp+0xfffe5680>
 10242ac:	d8c02017 	ldw	r3,128(sp)
 10242b0:	d8801f17 	ldw	r2,124(sp)
 10242b4:	da000404 	addi	r8,sp,16
 10242b8:	003fee06 	br	1024274 <_gp+0xfffe65f0>
 10242bc:	d9002f17 	ldw	r4,188(sp)
 10242c0:	b80b883a 	mov	r5,r23
 10242c4:	b00d883a 	mov	r6,r22
 10242c8:	102c1f00 	call	102c1f0 <__ssprint_r>
 10242cc:	103c0d1e 	bne	r2,zero,1023304 <_gp+0xfffe5680>
 10242d0:	d8c02017 	ldw	r3,128(sp)
 10242d4:	d8802787 	ldb	r2,158(sp)
 10242d8:	da000404 	addi	r8,sp,16
 10242dc:	003cc406 	br	10235f0 <_gp+0xfffe596c>
 10242e0:	657fffc4 	addi	r21,r12,-1
 10242e4:	057f750e 	bge	zero,r21,10240bc <_gp+0xfffe6438>
 10242e8:	07000404 	movi	fp,16
 10242ec:	e542ef0e 	bge	fp,r21,1024eac <___svfprintf_internal_r+0x1ec8>
 10242f0:	010040f4 	movhi	r4,259
 10242f4:	210ff984 	addi	r4,r4,16358
 10242f8:	d9002b15 	stw	r4,172(sp)
 10242fc:	01c001c4 	movi	r7,7
 1024300:	dcc02f17 	ldw	r19,188(sp)
 1024304:	00000306 	br	1024314 <___svfprintf_internal_r+0x1330>
 1024308:	ad7ffc04 	addi	r21,r21,-16
 102430c:	94800204 	addi	r18,r18,8
 1024310:	e540130e 	bge	fp,r21,1024360 <___svfprintf_internal_r+0x137c>
 1024314:	18c00404 	addi	r3,r3,16
 1024318:	84000044 	addi	r16,r16,1
 102431c:	95000015 	stw	r20,0(r18)
 1024320:	97000115 	stw	fp,4(r18)
 1024324:	d8c02015 	stw	r3,128(sp)
 1024328:	dc001f15 	stw	r16,124(sp)
 102432c:	3c3ff60e 	bge	r7,r16,1024308 <_gp+0xfffe6684>
 1024330:	9809883a 	mov	r4,r19
 1024334:	b80b883a 	mov	r5,r23
 1024338:	b00d883a 	mov	r6,r22
 102433c:	d9c03e15 	stw	r7,248(sp)
 1024340:	102c1f00 	call	102c1f0 <__ssprint_r>
 1024344:	d9c03e17 	ldw	r7,248(sp)
 1024348:	103bee1e 	bne	r2,zero,1023304 <_gp+0xfffe5680>
 102434c:	ad7ffc04 	addi	r21,r21,-16
 1024350:	d8c02017 	ldw	r3,128(sp)
 1024354:	dc001f17 	ldw	r16,124(sp)
 1024358:	dc800404 	addi	r18,sp,16
 102435c:	e57fed16 	blt	fp,r21,1024314 <_gp+0xfffe6690>
 1024360:	dac02b17 	ldw	r11,172(sp)
 1024364:	1d47883a 	add	r3,r3,r21
 1024368:	84000044 	addi	r16,r16,1
 102436c:	92c00015 	stw	r11,0(r18)
 1024370:	95400115 	stw	r21,4(r18)
 1024374:	d8c02015 	stw	r3,128(sp)
 1024378:	dc001f15 	stw	r16,124(sp)
 102437c:	008001c4 	movi	r2,7
 1024380:	143f4d0e 	bge	r2,r16,10240b8 <_gp+0xfffe6434>
 1024384:	d9002f17 	ldw	r4,188(sp)
 1024388:	b80b883a 	mov	r5,r23
 102438c:	b00d883a 	mov	r6,r22
 1024390:	102c1f00 	call	102c1f0 <__ssprint_r>
 1024394:	103bdb1e 	bne	r2,zero,1023304 <_gp+0xfffe5680>
 1024398:	d8c02017 	ldw	r3,128(sp)
 102439c:	dc001f17 	ldw	r16,124(sp)
 10243a0:	dc800404 	addi	r18,sp,16
 10243a4:	003f4506 	br	10240bc <_gp+0xfffe6438>
 10243a8:	00800084 	movi	r2,2
 10243ac:	9f06b03a 	or	r3,r19,fp
 10243b0:	003d3806 	br	1023894 <_gp+0xfffe5c10>
 10243b4:	dac02d17 	ldw	r11,180(sp)
 10243b8:	0039883a 	mov	fp,zero
 10243bc:	0005883a 	mov	r2,zero
 10243c0:	5cc00017 	ldw	r19,0(r11)
 10243c4:	5ac00104 	addi	r11,r11,4
 10243c8:	dac02d15 	stw	r11,180(sp)
 10243cc:	9807883a 	mov	r3,r19
 10243d0:	003d3006 	br	1023894 <_gp+0xfffe5c10>
 10243d4:	1cc00017 	ldw	r19,0(r3)
 10243d8:	dac02d17 	ldw	r11,180(sp)
 10243dc:	9839d7fa 	srai	fp,r19,31
 10243e0:	5ac00104 	addi	r11,r11,4
 10243e4:	dac02d15 	stw	r11,180(sp)
 10243e8:	e005883a 	mov	r2,fp
 10243ec:	003c0a06 	br	1023418 <_gp+0xfffe5794>
 10243f0:	db002d17 	ldw	r12,180(sp)
 10243f4:	0039883a 	mov	fp,zero
 10243f8:	00800044 	movi	r2,1
 10243fc:	64c00017 	ldw	r19,0(r12)
 1024400:	63000104 	addi	r12,r12,4
 1024404:	db002d15 	stw	r12,180(sp)
 1024408:	9807883a 	mov	r3,r19
 102440c:	003d2106 	br	1023894 <_gp+0xfffe5c10>
 1024410:	d9002f17 	ldw	r4,188(sp)
 1024414:	b80b883a 	mov	r5,r23
 1024418:	b00d883a 	mov	r6,r22
 102441c:	102c1f00 	call	102c1f0 <__ssprint_r>
 1024420:	103bb81e 	bne	r2,zero,1023304 <_gp+0xfffe5680>
 1024424:	d8c02017 	ldw	r3,128(sp)
 1024428:	da000404 	addi	r8,sp,16
 102442c:	db003117 	ldw	r12,196(sp)
 1024430:	dac03417 	ldw	r11,208(sp)
 1024434:	d8802617 	ldw	r2,152(sp)
 1024438:	62e5883a 	add	r18,r12,r11
 102443c:	db003317 	ldw	r12,204(sp)
 1024440:	13000216 	blt	r2,r12,102444c <___svfprintf_internal_r+0x1468>
 1024444:	8900004c 	andi	r4,r17,1
 1024448:	20000c26 	beq	r4,zero,102447c <___svfprintf_internal_r+0x1498>
 102444c:	dac03917 	ldw	r11,228(sp)
 1024450:	d9001f17 	ldw	r4,124(sp)
 1024454:	db003517 	ldw	r12,212(sp)
 1024458:	1ac7883a 	add	r3,r3,r11
 102445c:	21000044 	addi	r4,r4,1
 1024460:	43000015 	stw	r12,0(r8)
 1024464:	42c00115 	stw	r11,4(r8)
 1024468:	d8c02015 	stw	r3,128(sp)
 102446c:	d9001f15 	stw	r4,124(sp)
 1024470:	014001c4 	movi	r5,7
 1024474:	2901b716 	blt	r5,r4,1024b54 <___svfprintf_internal_r+0x1b70>
 1024478:	42000204 	addi	r8,r8,8
 102447c:	dac03317 	ldw	r11,204(sp)
 1024480:	8489c83a 	sub	r4,r16,r18
 1024484:	5885c83a 	sub	r2,r11,r2
 1024488:	1021883a 	mov	r16,r2
 102448c:	2080010e 	bge	r4,r2,1024494 <___svfprintf_internal_r+0x14b0>
 1024490:	2021883a 	mov	r16,r4
 1024494:	04000a0e 	bge	zero,r16,10244c0 <___svfprintf_internal_r+0x14dc>
 1024498:	d9001f17 	ldw	r4,124(sp)
 102449c:	1c07883a 	add	r3,r3,r16
 10244a0:	44800015 	stw	r18,0(r8)
 10244a4:	21000044 	addi	r4,r4,1
 10244a8:	44000115 	stw	r16,4(r8)
 10244ac:	d8c02015 	stw	r3,128(sp)
 10244b0:	d9001f15 	stw	r4,124(sp)
 10244b4:	014001c4 	movi	r5,7
 10244b8:	2901bf16 	blt	r5,r4,1024bb8 <___svfprintf_internal_r+0x1bd4>
 10244bc:	42000204 	addi	r8,r8,8
 10244c0:	8001bb16 	blt	r16,zero,1024bb0 <___svfprintf_internal_r+0x1bcc>
 10244c4:	1421c83a 	sub	r16,r2,r16
 10244c8:	043ca80e 	bge	zero,r16,102376c <_gp+0xfffe5ae8>
 10244cc:	04800404 	movi	r18,16
 10244d0:	d8801f17 	ldw	r2,124(sp)
 10244d4:	943f050e 	bge	r18,r16,10240ec <_gp+0xfffe6468>
 10244d8:	014040f4 	movhi	r5,259
 10244dc:	294ff984 	addi	r5,r5,16358
 10244e0:	d9402b15 	stw	r5,172(sp)
 10244e4:	054001c4 	movi	r21,7
 10244e8:	dcc02f17 	ldw	r19,188(sp)
 10244ec:	00000306 	br	10244fc <___svfprintf_internal_r+0x1518>
 10244f0:	42000204 	addi	r8,r8,8
 10244f4:	843ffc04 	addi	r16,r16,-16
 10244f8:	943eff0e 	bge	r18,r16,10240f8 <_gp+0xfffe6474>
 10244fc:	18c00404 	addi	r3,r3,16
 1024500:	10800044 	addi	r2,r2,1
 1024504:	45000015 	stw	r20,0(r8)
 1024508:	44800115 	stw	r18,4(r8)
 102450c:	d8c02015 	stw	r3,128(sp)
 1024510:	d8801f15 	stw	r2,124(sp)
 1024514:	a8bff60e 	bge	r21,r2,10244f0 <_gp+0xfffe686c>
 1024518:	9809883a 	mov	r4,r19
 102451c:	b80b883a 	mov	r5,r23
 1024520:	b00d883a 	mov	r6,r22
 1024524:	102c1f00 	call	102c1f0 <__ssprint_r>
 1024528:	103b761e 	bne	r2,zero,1023304 <_gp+0xfffe5680>
 102452c:	d8c02017 	ldw	r3,128(sp)
 1024530:	d8801f17 	ldw	r2,124(sp)
 1024534:	da000404 	addi	r8,sp,16
 1024538:	003fee06 	br	10244f4 <_gp+0xfffe6870>
 102453c:	8888703a 	and	r4,r17,r2
 1024540:	203eb31e 	bne	r4,zero,1024010 <_gp+0xfffe638c>
 1024544:	dc001f17 	ldw	r16,124(sp)
 1024548:	db003117 	ldw	r12,196(sp)
 102454c:	40800115 	stw	r2,4(r8)
 1024550:	84000044 	addi	r16,r16,1
 1024554:	43000015 	stw	r12,0(r8)
 1024558:	d8c02015 	stw	r3,128(sp)
 102455c:	dc001f15 	stw	r16,124(sp)
 1024560:	008001c4 	movi	r2,7
 1024564:	143f8716 	blt	r2,r16,1024384 <_gp+0xfffe6700>
 1024568:	44800204 	addi	r18,r8,8
 102456c:	003ed306 	br	10240bc <_gp+0xfffe6438>
 1024570:	d9002f17 	ldw	r4,188(sp)
 1024574:	b80b883a 	mov	r5,r23
 1024578:	b00d883a 	mov	r6,r22
 102457c:	102c1f00 	call	102c1f0 <__ssprint_r>
 1024580:	103b601e 	bne	r2,zero,1023304 <_gp+0xfffe5680>
 1024584:	d8c02017 	ldw	r3,128(sp)
 1024588:	dc001f17 	ldw	r16,124(sp)
 102458c:	da000404 	addi	r8,sp,16
 1024590:	003eaa06 	br	102403c <_gp+0xfffe63b8>
 1024594:	d9002f17 	ldw	r4,188(sp)
 1024598:	b80b883a 	mov	r5,r23
 102459c:	b00d883a 	mov	r6,r22
 10245a0:	102c1f00 	call	102c1f0 <__ssprint_r>
 10245a4:	103b571e 	bne	r2,zero,1023304 <_gp+0xfffe5680>
 10245a8:	d8c02017 	ldw	r3,128(sp)
 10245ac:	dc001f17 	ldw	r16,124(sp)
 10245b0:	dc800404 	addi	r18,sp,16
 10245b4:	003eac06 	br	1024068 <_gp+0xfffe63e4>
 10245b8:	d9002f17 	ldw	r4,188(sp)
 10245bc:	b80b883a 	mov	r5,r23
 10245c0:	b00d883a 	mov	r6,r22
 10245c4:	102c1f00 	call	102c1f0 <__ssprint_r>
 10245c8:	103b4e1e 	bne	r2,zero,1023304 <_gp+0xfffe5680>
 10245cc:	d8c02017 	ldw	r3,128(sp)
 10245d0:	da000404 	addi	r8,sp,16
 10245d4:	003c2406 	br	1023668 <_gp+0xfffe59e4>
 10245d8:	da004015 	stw	r8,256(sp)
 10245dc:	da403f15 	stw	r9,252(sp)
 10245e0:	102bf480 	call	102bf48 <__fpclassifyd>
 10245e4:	da004017 	ldw	r8,256(sp)
 10245e8:	da403f17 	ldw	r9,252(sp)
 10245ec:	1000951e 	bne	r2,zero,1024844 <___svfprintf_internal_r+0x1860>
 10245f0:	008011c4 	movi	r2,71
 10245f4:	1400fb16 	blt	r2,r16,10249e4 <___svfprintf_internal_r+0x1a00>
 10245f8:	030040f4 	movhi	r12,259
 10245fc:	630feb04 	addi	r12,r12,16300
 1024600:	db003115 	stw	r12,196(sp)
 1024604:	00c000c4 	movi	r3,3
 1024608:	00bfdfc4 	movi	r2,-129
 102460c:	d8c02a15 	stw	r3,168(sp)
 1024610:	88a2703a 	and	r17,r17,r2
 1024614:	dd402783 	ldbu	r21,158(sp)
 1024618:	dcc02d15 	stw	r19,180(sp)
 102461c:	1825883a 	mov	r18,r3
 1024620:	d8003215 	stw	zero,200(sp)
 1024624:	d8003415 	stw	zero,208(sp)
 1024628:	003ba706 	br	10234c8 <_gp+0xfffe5844>
 102462c:	8880040c 	andi	r2,r17,16
 1024630:	1000091e 	bne	r2,zero,1024658 <___svfprintf_internal_r+0x1674>
 1024634:	8c40100c 	andi	r17,r17,64
 1024638:	88000726 	beq	r17,zero,1024658 <___svfprintf_internal_r+0x1674>
 102463c:	db002d17 	ldw	r12,180(sp)
 1024640:	dac03017 	ldw	r11,192(sp)
 1024644:	60800017 	ldw	r2,0(r12)
 1024648:	63000104 	addi	r12,r12,4
 102464c:	db002d15 	stw	r12,180(sp)
 1024650:	12c0000d 	sth	r11,0(r2)
 1024654:	003a8f06 	br	1023094 <_gp+0xfffe5410>
 1024658:	db002d17 	ldw	r12,180(sp)
 102465c:	dac03017 	ldw	r11,192(sp)
 1024660:	60800017 	ldw	r2,0(r12)
 1024664:	63000104 	addi	r12,r12,4
 1024668:	db002d15 	stw	r12,180(sp)
 102466c:	12c00015 	stw	r11,0(r2)
 1024670:	003a8806 	br	1023094 <_gp+0xfffe5410>
 1024674:	88c0100c 	andi	r3,r17,64
 1024678:	1800e926 	beq	r3,zero,1024a20 <___svfprintf_internal_r+0x1a3c>
 102467c:	dac02d17 	ldw	r11,180(sp)
 1024680:	14c0000b 	ldhu	r19,0(r2)
 1024684:	0039883a 	mov	fp,zero
 1024688:	5ac00104 	addi	r11,r11,4
 102468c:	dac02d15 	stw	r11,180(sp)
 1024690:	003d1406 	br	1023ae4 <_gp+0xfffe5e60>
 1024694:	1c000007 	ldb	r16,0(r3)
 1024698:	1805883a 	mov	r2,r3
 102469c:	003aa706 	br	102313c <_gp+0xfffe54b8>
 10246a0:	00800084 	movi	r2,2
 10246a4:	003c7b06 	br	1023894 <_gp+0xfffe5c10>
 10246a8:	010040f4 	movhi	r4,259
 10246ac:	210ff984 	addi	r4,r4,16358
 10246b0:	d9002b15 	stw	r4,172(sp)
 10246b4:	dac02b17 	ldw	r11,172(sp)
 10246b8:	1c87883a 	add	r3,r3,r18
 10246bc:	10800044 	addi	r2,r2,1
 10246c0:	42c00015 	stw	r11,0(r8)
 10246c4:	44800115 	stw	r18,4(r8)
 10246c8:	d8c02015 	stw	r3,128(sp)
 10246cc:	d8801f15 	stw	r2,124(sp)
 10246d0:	010001c4 	movi	r4,7
 10246d4:	20bf4e16 	blt	r4,r2,1024410 <_gp+0xfffe678c>
 10246d8:	42000204 	addi	r8,r8,8
 10246dc:	003f5306 	br	102442c <_gp+0xfffe67a8>
 10246e0:	010040f4 	movhi	r4,259
 10246e4:	210ff984 	addi	r4,r4,16358
 10246e8:	d9002b15 	stw	r4,172(sp)
 10246ec:	003c0806 	br	1023710 <_gp+0xfffe5a8c>
 10246f0:	d9002f17 	ldw	r4,188(sp)
 10246f4:	b80b883a 	mov	r5,r23
 10246f8:	b00d883a 	mov	r6,r22
 10246fc:	102c1f00 	call	102c1f0 <__ssprint_r>
 1024700:	103b001e 	bne	r2,zero,1023304 <_gp+0xfffe5680>
 1024704:	d8c02017 	ldw	r3,128(sp)
 1024708:	da000404 	addi	r8,sp,16
 102470c:	003dc606 	br	1023e28 <_gp+0xfffe61a4>
 1024710:	d8801f17 	ldw	r2,124(sp)
 1024714:	030040f4 	movhi	r12,259
 1024718:	01000044 	movi	r4,1
 102471c:	18c00044 	addi	r3,r3,1
 1024720:	10800044 	addi	r2,r2,1
 1024724:	630ff904 	addi	r12,r12,16356
 1024728:	41000115 	stw	r4,4(r8)
 102472c:	43000015 	stw	r12,0(r8)
 1024730:	d8c02015 	stw	r3,128(sp)
 1024734:	d8801f15 	stw	r2,124(sp)
 1024738:	010001c4 	movi	r4,7
 102473c:	2080ad16 	blt	r4,r2,10249f4 <___svfprintf_internal_r+0x1a10>
 1024740:	42000204 	addi	r8,r8,8
 1024744:	8000041e 	bne	r16,zero,1024758 <___svfprintf_internal_r+0x1774>
 1024748:	dac03317 	ldw	r11,204(sp)
 102474c:	5800021e 	bne	r11,zero,1024758 <___svfprintf_internal_r+0x1774>
 1024750:	8880004c 	andi	r2,r17,1
 1024754:	103c0526 	beq	r2,zero,102376c <_gp+0xfffe5ae8>
 1024758:	db003917 	ldw	r12,228(sp)
 102475c:	d8801f17 	ldw	r2,124(sp)
 1024760:	dac03517 	ldw	r11,212(sp)
 1024764:	1b07883a 	add	r3,r3,r12
 1024768:	10800044 	addi	r2,r2,1
 102476c:	42c00015 	stw	r11,0(r8)
 1024770:	43000115 	stw	r12,4(r8)
 1024774:	d8c02015 	stw	r3,128(sp)
 1024778:	d8801f15 	stw	r2,124(sp)
 102477c:	010001c4 	movi	r4,7
 1024780:	20818816 	blt	r4,r2,1024da4 <___svfprintf_internal_r+0x1dc0>
 1024784:	42000204 	addi	r8,r8,8
 1024788:	0421c83a 	sub	r16,zero,r16
 102478c:	0400bc0e 	bge	zero,r16,1024a80 <___svfprintf_internal_r+0x1a9c>
 1024790:	04800404 	movi	r18,16
 1024794:	9400f80e 	bge	r18,r16,1024b78 <___svfprintf_internal_r+0x1b94>
 1024798:	010040f4 	movhi	r4,259
 102479c:	210ff984 	addi	r4,r4,16358
 10247a0:	d9002b15 	stw	r4,172(sp)
 10247a4:	054001c4 	movi	r21,7
 10247a8:	dcc02f17 	ldw	r19,188(sp)
 10247ac:	00000306 	br	10247bc <___svfprintf_internal_r+0x17d8>
 10247b0:	42000204 	addi	r8,r8,8
 10247b4:	843ffc04 	addi	r16,r16,-16
 10247b8:	9400f20e 	bge	r18,r16,1024b84 <___svfprintf_internal_r+0x1ba0>
 10247bc:	18c00404 	addi	r3,r3,16
 10247c0:	10800044 	addi	r2,r2,1
 10247c4:	45000015 	stw	r20,0(r8)
 10247c8:	44800115 	stw	r18,4(r8)
 10247cc:	d8c02015 	stw	r3,128(sp)
 10247d0:	d8801f15 	stw	r2,124(sp)
 10247d4:	a8bff60e 	bge	r21,r2,10247b0 <_gp+0xfffe6b2c>
 10247d8:	9809883a 	mov	r4,r19
 10247dc:	b80b883a 	mov	r5,r23
 10247e0:	b00d883a 	mov	r6,r22
 10247e4:	102c1f00 	call	102c1f0 <__ssprint_r>
 10247e8:	103ac61e 	bne	r2,zero,1023304 <_gp+0xfffe5680>
 10247ec:	d8c02017 	ldw	r3,128(sp)
 10247f0:	d8801f17 	ldw	r2,124(sp)
 10247f4:	da000404 	addi	r8,sp,16
 10247f8:	003fee06 	br	10247b4 <_gp+0xfffe6b30>
 10247fc:	db002e17 	ldw	r12,184(sp)
 1024800:	1805883a 	mov	r2,r3
 1024804:	dac02d15 	stw	r11,180(sp)
 1024808:	0319c83a 	sub	r12,zero,r12
 102480c:	db002e15 	stw	r12,184(sp)
 1024810:	003ad106 	br	1023358 <_gp+0xfffe56d4>
 1024814:	18800044 	addi	r2,r3,1
 1024818:	8c400814 	ori	r17,r17,32
 102481c:	1c000047 	ldb	r16,1(r3)
 1024820:	003a4606 	br	102313c <_gp+0xfffe54b8>
 1024824:	d9002f17 	ldw	r4,188(sp)
 1024828:	b80b883a 	mov	r5,r23
 102482c:	b00d883a 	mov	r6,r22
 1024830:	102c1f00 	call	102c1f0 <__ssprint_r>
 1024834:	103ab31e 	bne	r2,zero,1023304 <_gp+0xfffe5680>
 1024838:	d8c02017 	ldw	r3,128(sp)
 102483c:	da000404 	addi	r8,sp,16
 1024840:	003d8a06 	br	1023e6c <_gp+0xfffe61e8>
 1024844:	057ff7c4 	movi	r21,-33
 1024848:	00bfffc4 	movi	r2,-1
 102484c:	856a703a 	and	r21,r16,r21
 1024850:	48807126 	beq	r9,r2,1024a18 <___svfprintf_internal_r+0x1a34>
 1024854:	008011c4 	movi	r2,71
 1024858:	a8814f26 	beq	r21,r2,1024d98 <___svfprintf_internal_r+0x1db4>
 102485c:	db003817 	ldw	r12,224(sp)
 1024860:	8ac04014 	ori	r11,r17,256
 1024864:	dac02d15 	stw	r11,180(sp)
 1024868:	60015816 	blt	r12,zero,1024dcc <___svfprintf_internal_r+0x1de8>
 102486c:	dc803817 	ldw	r18,224(sp)
 1024870:	d8002a05 	stb	zero,168(sp)
 1024874:	00801984 	movi	r2,102
 1024878:	80808c26 	beq	r16,r2,1024aac <___svfprintf_internal_r+0x1ac8>
 102487c:	00801184 	movi	r2,70
 1024880:	80808a26 	beq	r16,r2,1024aac <___svfprintf_internal_r+0x1ac8>
 1024884:	00801144 	movi	r2,69
 1024888:	a8815426 	beq	r21,r2,1024ddc <___svfprintf_internal_r+0x1df8>
 102488c:	4839883a 	mov	fp,r9
 1024890:	d8802604 	addi	r2,sp,152
 1024894:	d8800115 	stw	r2,4(sp)
 1024898:	d9002f17 	ldw	r4,188(sp)
 102489c:	d8802504 	addi	r2,sp,148
 10248a0:	d9403717 	ldw	r5,220(sp)
 10248a4:	d8800215 	stw	r2,8(sp)
 10248a8:	d8802104 	addi	r2,sp,132
 10248ac:	df000015 	stw	fp,0(sp)
 10248b0:	d8800315 	stw	r2,12(sp)
 10248b4:	900d883a 	mov	r6,r18
 10248b8:	01c00084 	movi	r7,2
 10248bc:	da004015 	stw	r8,256(sp)
 10248c0:	da403f15 	stw	r9,252(sp)
 10248c4:	10273f40 	call	10273f4 <_dtoa_r>
 10248c8:	d8803115 	stw	r2,196(sp)
 10248cc:	008019c4 	movi	r2,103
 10248d0:	da004017 	ldw	r8,256(sp)
 10248d4:	da403f17 	ldw	r9,252(sp)
 10248d8:	80800226 	beq	r16,r2,10248e4 <___svfprintf_internal_r+0x1900>
 10248dc:	008011c4 	movi	r2,71
 10248e0:	8080841e 	bne	r16,r2,1024af4 <___svfprintf_internal_r+0x1b10>
 10248e4:	8880004c 	andi	r2,r17,1
 10248e8:	10015126 	beq	r2,zero,1024e30 <___svfprintf_internal_r+0x1e4c>
 10248ec:	db003117 	ldw	r12,196(sp)
 10248f0:	6715883a 	add	r10,r12,fp
 10248f4:	d9003717 	ldw	r4,220(sp)
 10248f8:	900b883a 	mov	r5,r18
 10248fc:	000d883a 	mov	r6,zero
 1024900:	000f883a 	mov	r7,zero
 1024904:	da004015 	stw	r8,256(sp)
 1024908:	da403f15 	stw	r9,252(sp)
 102490c:	da803e15 	stw	r10,248(sp)
 1024910:	10305d80 	call	10305d8 <__eqdf2>
 1024914:	da004017 	ldw	r8,256(sp)
 1024918:	da403f17 	ldw	r9,252(sp)
 102491c:	da803e17 	ldw	r10,248(sp)
 1024920:	1000d926 	beq	r2,zero,1024c88 <___svfprintf_internal_r+0x1ca4>
 1024924:	d8802117 	ldw	r2,132(sp)
 1024928:	1280062e 	bgeu	r2,r10,1024944 <___svfprintf_internal_r+0x1960>
 102492c:	01000c04 	movi	r4,48
 1024930:	10c00044 	addi	r3,r2,1
 1024934:	d8c02115 	stw	r3,132(sp)
 1024938:	11000005 	stb	r4,0(r2)
 102493c:	d8802117 	ldw	r2,132(sp)
 1024940:	12bffb36 	bltu	r2,r10,1024930 <_gp+0xfffe6cac>
 1024944:	db003117 	ldw	r12,196(sp)
 1024948:	1305c83a 	sub	r2,r2,r12
 102494c:	d8803315 	stw	r2,204(sp)
 1024950:	008011c4 	movi	r2,71
 1024954:	a880b626 	beq	r21,r2,1024c30 <___svfprintf_internal_r+0x1c4c>
 1024958:	00801944 	movi	r2,101
 102495c:	14017e0e 	bge	r2,r16,1024f58 <___svfprintf_internal_r+0x1f74>
 1024960:	00801984 	movi	r2,102
 1024964:	80812826 	beq	r16,r2,1024e08 <___svfprintf_internal_r+0x1e24>
 1024968:	db002617 	ldw	r12,152(sp)
 102496c:	db003415 	stw	r12,208(sp)
 1024970:	db003417 	ldw	r12,208(sp)
 1024974:	dac03317 	ldw	r11,204(sp)
 1024978:	62c11a16 	blt	r12,r11,1024de4 <___svfprintf_internal_r+0x1e00>
 102497c:	8c40004c 	andi	r17,r17,1
 1024980:	88013d1e 	bne	r17,zero,1024e78 <___svfprintf_internal_r+0x1e94>
 1024984:	6005883a 	mov	r2,r12
 1024988:	60012716 	blt	r12,zero,1024e28 <___svfprintf_internal_r+0x1e44>
 102498c:	dc803417 	ldw	r18,208(sp)
 1024990:	df002a07 	ldb	fp,168(sp)
 1024994:	e000b01e 	bne	fp,zero,1024c58 <___svfprintf_internal_r+0x1c74>
 1024998:	dc402d17 	ldw	r17,180(sp)
 102499c:	dd402783 	ldbu	r21,158(sp)
 10249a0:	d8802a15 	stw	r2,168(sp)
 10249a4:	dcc02d15 	stw	r19,180(sp)
 10249a8:	d8003215 	stw	zero,200(sp)
 10249ac:	003ac606 	br	10234c8 <_gp+0xfffe5844>
 10249b0:	008040f4 	movhi	r2,259
 10249b4:	108fe904 	addi	r2,r2,16292
 10249b8:	d8803115 	stw	r2,196(sp)
 10249bc:	003be506 	br	1023954 <_gp+0xfffe5cd0>
 10249c0:	d9002f17 	ldw	r4,188(sp)
 10249c4:	04001004 	movi	r16,64
 10249c8:	800b883a 	mov	r5,r16
 10249cc:	1029dd40 	call	1029dd4 <_malloc_r>
 10249d0:	b8800015 	stw	r2,0(r23)
 10249d4:	b8800415 	stw	r2,16(r23)
 10249d8:	10016126 	beq	r2,zero,1024f60 <___svfprintf_internal_r+0x1f7c>
 10249dc:	bc000515 	stw	r16,20(r23)
 10249e0:	00399a06 	br	102304c <_gp+0xfffe53c8>
 10249e4:	008040f4 	movhi	r2,259
 10249e8:	108fec04 	addi	r2,r2,16304
 10249ec:	d8803115 	stw	r2,196(sp)
 10249f0:	003f0406 	br	1024604 <_gp+0xfffe6980>
 10249f4:	d9002f17 	ldw	r4,188(sp)
 10249f8:	b80b883a 	mov	r5,r23
 10249fc:	b00d883a 	mov	r6,r22
 1024a00:	102c1f00 	call	102c1f0 <__ssprint_r>
 1024a04:	103a3f1e 	bne	r2,zero,1023304 <_gp+0xfffe5680>
 1024a08:	dc002617 	ldw	r16,152(sp)
 1024a0c:	d8c02017 	ldw	r3,128(sp)
 1024a10:	da000404 	addi	r8,sp,16
 1024a14:	003f4b06 	br	1024744 <_gp+0xfffe6ac0>
 1024a18:	02400184 	movi	r9,6
 1024a1c:	003f8f06 	br	102485c <_gp+0xfffe6bd8>
 1024a20:	db002d17 	ldw	r12,180(sp)
 1024a24:	14c00017 	ldw	r19,0(r2)
 1024a28:	0039883a 	mov	fp,zero
 1024a2c:	63000104 	addi	r12,r12,4
 1024a30:	db002d15 	stw	r12,180(sp)
 1024a34:	003c2b06 	br	1023ae4 <_gp+0xfffe5e60>
 1024a38:	d8c03117 	ldw	r3,196(sp)
 1024a3c:	b0e5c83a 	sub	r18,r22,r3
 1024a40:	003a9c06 	br	10234b4 <_gp+0xfffe5830>
 1024a44:	da004015 	stw	r8,256(sp)
 1024a48:	1022f4c0 	call	1022f4c <strlen>
 1024a4c:	1025883a 	mov	r18,r2
 1024a50:	da004017 	ldw	r8,256(sp)
 1024a54:	903c450e 	bge	r18,zero,1023b6c <_gp+0xfffe5ee8>
 1024a58:	0005883a 	mov	r2,zero
 1024a5c:	003c4306 	br	1023b6c <_gp+0xfffe5ee8>
 1024a60:	d9002f17 	ldw	r4,188(sp)
 1024a64:	b80b883a 	mov	r5,r23
 1024a68:	b00d883a 	mov	r6,r22
 1024a6c:	102c1f00 	call	102c1f0 <__ssprint_r>
 1024a70:	103a241e 	bne	r2,zero,1023304 <_gp+0xfffe5680>
 1024a74:	d8c02017 	ldw	r3,128(sp)
 1024a78:	d8801f17 	ldw	r2,124(sp)
 1024a7c:	da000404 	addi	r8,sp,16
 1024a80:	db003317 	ldw	r12,204(sp)
 1024a84:	dac03117 	ldw	r11,196(sp)
 1024a88:	10800044 	addi	r2,r2,1
 1024a8c:	60c7883a 	add	r3,r12,r3
 1024a90:	42c00015 	stw	r11,0(r8)
 1024a94:	43000115 	stw	r12,4(r8)
 1024a98:	d8c02015 	stw	r3,128(sp)
 1024a9c:	d8801f15 	stw	r2,124(sp)
 1024aa0:	010001c4 	movi	r4,7
 1024aa4:	20bb300e 	bge	r4,r2,1023768 <_gp+0xfffe5ae4>
 1024aa8:	003d9c06 	br	102411c <_gp+0xfffe6498>
 1024aac:	d8802604 	addi	r2,sp,152
 1024ab0:	d8800115 	stw	r2,4(sp)
 1024ab4:	d9002f17 	ldw	r4,188(sp)
 1024ab8:	d8802504 	addi	r2,sp,148
 1024abc:	d9403717 	ldw	r5,220(sp)
 1024ac0:	d8800215 	stw	r2,8(sp)
 1024ac4:	d8802104 	addi	r2,sp,132
 1024ac8:	da400015 	stw	r9,0(sp)
 1024acc:	d8800315 	stw	r2,12(sp)
 1024ad0:	900d883a 	mov	r6,r18
 1024ad4:	01c000c4 	movi	r7,3
 1024ad8:	da004015 	stw	r8,256(sp)
 1024adc:	da403f15 	stw	r9,252(sp)
 1024ae0:	10273f40 	call	10273f4 <_dtoa_r>
 1024ae4:	da403f17 	ldw	r9,252(sp)
 1024ae8:	da004017 	ldw	r8,256(sp)
 1024aec:	d8803115 	stw	r2,196(sp)
 1024af0:	4839883a 	mov	fp,r9
 1024af4:	dac03117 	ldw	r11,196(sp)
 1024af8:	00801184 	movi	r2,70
 1024afc:	5f15883a 	add	r10,r11,fp
 1024b00:	a8bf7c1e 	bne	r21,r2,10248f4 <_gp+0xfffe6c70>
 1024b04:	59000007 	ldb	r4,0(r11)
 1024b08:	00800c04 	movi	r2,48
 1024b0c:	2080ca26 	beq	r4,r2,1024e38 <___svfprintf_internal_r+0x1e54>
 1024b10:	d8c02617 	ldw	r3,152(sp)
 1024b14:	50d5883a 	add	r10,r10,r3
 1024b18:	003f7606 	br	10248f4 <_gp+0xfffe6c70>
 1024b1c:	010040f4 	movhi	r4,259
 1024b20:	210ffd84 	addi	r4,r4,16374
 1024b24:	d9003615 	stw	r4,216(sp)
 1024b28:	003aa606 	br	10235c4 <_gp+0xfffe5940>
 1024b2c:	0025883a 	mov	r18,zero
 1024b30:	003dc306 	br	1024240 <_gp+0xfffe65bc>
 1024b34:	d9002f17 	ldw	r4,188(sp)
 1024b38:	b80b883a 	mov	r5,r23
 1024b3c:	b00d883a 	mov	r6,r22
 1024b40:	102c1f00 	call	102c1f0 <__ssprint_r>
 1024b44:	1039ef1e 	bne	r2,zero,1023304 <_gp+0xfffe5680>
 1024b48:	d8c02017 	ldw	r3,128(sp)
 1024b4c:	da000404 	addi	r8,sp,16
 1024b50:	003dba06 	br	102423c <_gp+0xfffe65b8>
 1024b54:	d9002f17 	ldw	r4,188(sp)
 1024b58:	b80b883a 	mov	r5,r23
 1024b5c:	b00d883a 	mov	r6,r22
 1024b60:	102c1f00 	call	102c1f0 <__ssprint_r>
 1024b64:	1039e71e 	bne	r2,zero,1023304 <_gp+0xfffe5680>
 1024b68:	d8802617 	ldw	r2,152(sp)
 1024b6c:	d8c02017 	ldw	r3,128(sp)
 1024b70:	da000404 	addi	r8,sp,16
 1024b74:	003e4106 	br	102447c <_gp+0xfffe67f8>
 1024b78:	030040f4 	movhi	r12,259
 1024b7c:	630ff984 	addi	r12,r12,16358
 1024b80:	db002b15 	stw	r12,172(sp)
 1024b84:	dac02b17 	ldw	r11,172(sp)
 1024b88:	1c07883a 	add	r3,r3,r16
 1024b8c:	10800044 	addi	r2,r2,1
 1024b90:	42c00015 	stw	r11,0(r8)
 1024b94:	44000115 	stw	r16,4(r8)
 1024b98:	d8c02015 	stw	r3,128(sp)
 1024b9c:	d8801f15 	stw	r2,124(sp)
 1024ba0:	010001c4 	movi	r4,7
 1024ba4:	20bfae16 	blt	r4,r2,1024a60 <_gp+0xfffe6ddc>
 1024ba8:	42000204 	addi	r8,r8,8
 1024bac:	003fb406 	br	1024a80 <_gp+0xfffe6dfc>
 1024bb0:	0021883a 	mov	r16,zero
 1024bb4:	003e4306 	br	10244c4 <_gp+0xfffe6840>
 1024bb8:	d9002f17 	ldw	r4,188(sp)
 1024bbc:	b80b883a 	mov	r5,r23
 1024bc0:	b00d883a 	mov	r6,r22
 1024bc4:	102c1f00 	call	102c1f0 <__ssprint_r>
 1024bc8:	1039ce1e 	bne	r2,zero,1023304 <_gp+0xfffe5680>
 1024bcc:	d8802617 	ldw	r2,152(sp)
 1024bd0:	db003317 	ldw	r12,204(sp)
 1024bd4:	d8c02017 	ldw	r3,128(sp)
 1024bd8:	da000404 	addi	r8,sp,16
 1024bdc:	6085c83a 	sub	r2,r12,r2
 1024be0:	003e3706 	br	10244c0 <_gp+0xfffe683c>
 1024be4:	00800184 	movi	r2,6
 1024be8:	1240012e 	bgeu	r2,r9,1024bf0 <___svfprintf_internal_r+0x1c0c>
 1024bec:	1013883a 	mov	r9,r2
 1024bf0:	4825883a 	mov	r18,r9
 1024bf4:	4805883a 	mov	r2,r9
 1024bf8:	4800a416 	blt	r9,zero,1024e8c <___svfprintf_internal_r+0x1ea8>
 1024bfc:	d8802a15 	stw	r2,168(sp)
 1024c00:	008040f4 	movhi	r2,259
 1024c04:	108ff704 	addi	r2,r2,16348
 1024c08:	d8803115 	stw	r2,196(sp)
 1024c0c:	dcc02d15 	stw	r19,180(sp)
 1024c10:	d8003215 	stw	zero,200(sp)
 1024c14:	d8003415 	stw	zero,208(sp)
 1024c18:	0005883a 	mov	r2,zero
 1024c1c:	003a3106 	br	10234e4 <_gp+0xfffe5860>
 1024c20:	030040f4 	movhi	r12,259
 1024c24:	630ffd84 	addi	r12,r12,16374
 1024c28:	db003615 	stw	r12,216(sp)
 1024c2c:	003af406 	br	1023800 <_gp+0xfffe5b7c>
 1024c30:	d8c02617 	ldw	r3,152(sp)
 1024c34:	00bfff44 	movi	r2,-3
 1024c38:	18801516 	blt	r3,r2,1024c90 <___svfprintf_internal_r+0x1cac>
 1024c3c:	48c01416 	blt	r9,r3,1024c90 <___svfprintf_internal_r+0x1cac>
 1024c40:	d8c03415 	stw	r3,208(sp)
 1024c44:	040019c4 	movi	r16,103
 1024c48:	003f4906 	br	1024970 <_gp+0xfffe6cec>
 1024c4c:	05400b44 	movi	r21,45
 1024c50:	dd402785 	stb	r21,158(sp)
 1024c54:	003b3a06 	br	1023940 <_gp+0xfffe5cbc>
 1024c58:	00c00b44 	movi	r3,45
 1024c5c:	d8802a15 	stw	r2,168(sp)
 1024c60:	dc402d17 	ldw	r17,180(sp)
 1024c64:	d8c02785 	stb	r3,158(sp)
 1024c68:	dcc02d15 	stw	r19,180(sp)
 1024c6c:	d8003215 	stw	zero,200(sp)
 1024c70:	00800b44 	movi	r2,45
 1024c74:	003a1806 	br	10234d8 <_gp+0xfffe5854>
 1024c78:	010040f4 	movhi	r4,259
 1024c7c:	210ff984 	addi	r4,r4,16358
 1024c80:	d9002b15 	stw	r4,172(sp)
 1024c84:	003cc306 	br	1023f94 <_gp+0xfffe6310>
 1024c88:	5005883a 	mov	r2,r10
 1024c8c:	003f2d06 	br	1024944 <_gp+0xfffe6cc0>
 1024c90:	843fff84 	addi	r16,r16,-2
 1024c94:	1f3fffc4 	addi	fp,r3,-1
 1024c98:	df002615 	stw	fp,152(sp)
 1024c9c:	dc0022c5 	stb	r16,139(sp)
 1024ca0:	e000a216 	blt	fp,zero,1024f2c <___svfprintf_internal_r+0x1f48>
 1024ca4:	00800ac4 	movi	r2,43
 1024ca8:	d8802305 	stb	r2,140(sp)
 1024cac:	00800244 	movi	r2,9
 1024cb0:	1700820e 	bge	r2,fp,1024ebc <___svfprintf_internal_r+0x1ed8>
 1024cb4:	dd4022c4 	addi	r21,sp,139
 1024cb8:	dc002b15 	stw	r16,172(sp)
 1024cbc:	8825883a 	mov	r18,r17
 1024cc0:	a821883a 	mov	r16,r21
 1024cc4:	4023883a 	mov	r17,r8
 1024cc8:	e009883a 	mov	r4,fp
 1024ccc:	01400284 	movi	r5,10
 1024cd0:	10218940 	call	1021894 <__modsi3>
 1024cd4:	10800c04 	addi	r2,r2,48
 1024cd8:	843fffc4 	addi	r16,r16,-1
 1024cdc:	e009883a 	mov	r4,fp
 1024ce0:	01400284 	movi	r5,10
 1024ce4:	80800005 	stb	r2,0(r16)
 1024ce8:	10218400 	call	1021840 <__divsi3>
 1024cec:	1039883a 	mov	fp,r2
 1024cf0:	00800244 	movi	r2,9
 1024cf4:	173ff416 	blt	r2,fp,1024cc8 <_gp+0xfffe7044>
 1024cf8:	8811883a 	mov	r8,r17
 1024cfc:	e0800c04 	addi	r2,fp,48
 1024d00:	9023883a 	mov	r17,r18
 1024d04:	8025883a 	mov	r18,r16
 1024d08:	913fffc4 	addi	r4,r18,-1
 1024d0c:	90bfffc5 	stb	r2,-1(r18)
 1024d10:	dc002b17 	ldw	r16,172(sp)
 1024d14:	25408e2e 	bgeu	r4,r21,1024f50 <___svfprintf_internal_r+0x1f6c>
 1024d18:	d9402384 	addi	r5,sp,142
 1024d1c:	2c8bc83a 	sub	r5,r5,r18
 1024d20:	d8c02344 	addi	r3,sp,141
 1024d24:	a94b883a 	add	r5,r21,r5
 1024d28:	00000106 	br	1024d30 <___svfprintf_internal_r+0x1d4c>
 1024d2c:	20800003 	ldbu	r2,0(r4)
 1024d30:	18800005 	stb	r2,0(r3)
 1024d34:	18c00044 	addi	r3,r3,1
 1024d38:	21000044 	addi	r4,r4,1
 1024d3c:	197ffb1e 	bne	r3,r5,1024d2c <_gp+0xfffe70a8>
 1024d40:	d8802304 	addi	r2,sp,140
 1024d44:	1485c83a 	sub	r2,r2,r18
 1024d48:	d8c02344 	addi	r3,sp,141
 1024d4c:	1885883a 	add	r2,r3,r2
 1024d50:	dac03317 	ldw	r11,204(sp)
 1024d54:	156bc83a 	sub	r21,r2,r21
 1024d58:	dd403a15 	stw	r21,232(sp)
 1024d5c:	00800044 	movi	r2,1
 1024d60:	5d65883a 	add	r18,r11,r21
 1024d64:	12c0770e 	bge	r2,r11,1024f44 <___svfprintf_internal_r+0x1f60>
 1024d68:	94800044 	addi	r18,r18,1
 1024d6c:	9005883a 	mov	r2,r18
 1024d70:	90007216 	blt	r18,zero,1024f3c <___svfprintf_internal_r+0x1f58>
 1024d74:	d8003415 	stw	zero,208(sp)
 1024d78:	003f0506 	br	1024990 <_gp+0xfffe6d0c>
 1024d7c:	da402a15 	stw	r9,168(sp)
 1024d80:	dd402783 	ldbu	r21,158(sp)
 1024d84:	4825883a 	mov	r18,r9
 1024d88:	dcc02d15 	stw	r19,180(sp)
 1024d8c:	d8003215 	stw	zero,200(sp)
 1024d90:	d8003415 	stw	zero,208(sp)
 1024d94:	0039cc06 	br	10234c8 <_gp+0xfffe5844>
 1024d98:	483eb01e 	bne	r9,zero,102485c <_gp+0xfffe6bd8>
 1024d9c:	9013883a 	mov	r9,r18
 1024da0:	003eae06 	br	102485c <_gp+0xfffe6bd8>
 1024da4:	d9002f17 	ldw	r4,188(sp)
 1024da8:	b80b883a 	mov	r5,r23
 1024dac:	b00d883a 	mov	r6,r22
 1024db0:	102c1f00 	call	102c1f0 <__ssprint_r>
 1024db4:	1039531e 	bne	r2,zero,1023304 <_gp+0xfffe5680>
 1024db8:	dc002617 	ldw	r16,152(sp)
 1024dbc:	d8c02017 	ldw	r3,128(sp)
 1024dc0:	d8801f17 	ldw	r2,124(sp)
 1024dc4:	da000404 	addi	r8,sp,16
 1024dc8:	003e6f06 	br	1024788 <_gp+0xfffe6b04>
 1024dcc:	00c00b44 	movi	r3,45
 1024dd0:	64a0003c 	xorhi	r18,r12,32768
 1024dd4:	d8c02a05 	stb	r3,168(sp)
 1024dd8:	003ea606 	br	1024874 <_gp+0xfffe6bf0>
 1024ddc:	4f000044 	addi	fp,r9,1
 1024de0:	003eab06 	br	1024890 <_gp+0xfffe6c0c>
 1024de4:	d8c03417 	ldw	r3,208(sp)
 1024de8:	00c0410e 	bge	zero,r3,1024ef0 <___svfprintf_internal_r+0x1f0c>
 1024dec:	04800044 	movi	r18,1
 1024df0:	dac03317 	ldw	r11,204(sp)
 1024df4:	92e5883a 	add	r18,r18,r11
 1024df8:	9005883a 	mov	r2,r18
 1024dfc:	903ee40e 	bge	r18,zero,1024990 <_gp+0xfffe6d0c>
 1024e00:	0005883a 	mov	r2,zero
 1024e04:	003ee206 	br	1024990 <_gp+0xfffe6d0c>
 1024e08:	d8c02617 	ldw	r3,152(sp)
 1024e0c:	d8c03415 	stw	r3,208(sp)
 1024e10:	00c0310e 	bge	zero,r3,1024ed8 <___svfprintf_internal_r+0x1ef4>
 1024e14:	48001f1e 	bne	r9,zero,1024e94 <___svfprintf_internal_r+0x1eb0>
 1024e18:	8c40004c 	andi	r17,r17,1
 1024e1c:	88001d1e 	bne	r17,zero,1024e94 <___svfprintf_internal_r+0x1eb0>
 1024e20:	1805883a 	mov	r2,r3
 1024e24:	183ed90e 	bge	r3,zero,102498c <_gp+0xfffe6d08>
 1024e28:	0005883a 	mov	r2,zero
 1024e2c:	003ed706 	br	102498c <_gp+0xfffe6d08>
 1024e30:	d8802117 	ldw	r2,132(sp)
 1024e34:	003ec306 	br	1024944 <_gp+0xfffe6cc0>
 1024e38:	d9003717 	ldw	r4,220(sp)
 1024e3c:	900b883a 	mov	r5,r18
 1024e40:	000d883a 	mov	r6,zero
 1024e44:	000f883a 	mov	r7,zero
 1024e48:	da004015 	stw	r8,256(sp)
 1024e4c:	da403f15 	stw	r9,252(sp)
 1024e50:	da803e15 	stw	r10,248(sp)
 1024e54:	10305d80 	call	10305d8 <__eqdf2>
 1024e58:	da004017 	ldw	r8,256(sp)
 1024e5c:	da403f17 	ldw	r9,252(sp)
 1024e60:	da803e17 	ldw	r10,248(sp)
 1024e64:	103f2a26 	beq	r2,zero,1024b10 <_gp+0xfffe6e8c>
 1024e68:	00800044 	movi	r2,1
 1024e6c:	1707c83a 	sub	r3,r2,fp
 1024e70:	d8c02615 	stw	r3,152(sp)
 1024e74:	003f2706 	br	1024b14 <_gp+0xfffe6e90>
 1024e78:	db003417 	ldw	r12,208(sp)
 1024e7c:	64800044 	addi	r18,r12,1
 1024e80:	9005883a 	mov	r2,r18
 1024e84:	903ec20e 	bge	r18,zero,1024990 <_gp+0xfffe6d0c>
 1024e88:	003fdd06 	br	1024e00 <_gp+0xfffe717c>
 1024e8c:	0005883a 	mov	r2,zero
 1024e90:	003f5a06 	br	1024bfc <_gp+0xfffe6f78>
 1024e94:	dac03417 	ldw	r11,208(sp)
