
adc_demo.elf:     file format elf32-littlenios2
adc_demo.elf
architecture: nios2:r1, flags 0x00000112:
EXEC_P, HAS_SYMS, D_PAGED
start address 0x00020240

Program Header:
    LOAD off    0x00001000 vaddr 0x00020000 paddr 0x00020000 align 2**12
         filesz 0x00000020 memsz 0x00000020 flags r-x
    LOAD off    0x00001020 vaddr 0x00020020 paddr 0x00020020 align 2**12
         filesz 0x00010080 memsz 0x00010080 flags r-x
    LOAD off    0x000110a0 vaddr 0x000300a0 paddr 0x00031c0c align 2**12
         filesz 0x00001b6c memsz 0x00001b6c flags rw-
    LOAD off    0x00013778 vaddr 0x00033778 paddr 0x00033778 align 2**12
         filesz 0x00000000 memsz 0x00000160 flags rw-

Sections:
Idx Name          Size      VMA       LMA       File off  Algn
  0 .entry        00000020  00020000  00020000  00001000  2**5
                  CONTENTS, ALLOC, LOAD, READONLY, CODE
  1 .exceptions   00000220  00020020  00020020  00001020  2**2
                  CONTENTS, ALLOC, LOAD, READONLY, CODE
  2 .text         0000fad0  00020240  00020240  00001240  2**2
                  CONTENTS, ALLOC, LOAD, READONLY, CODE
  3 .rodata       00000390  0002fd10  0002fd10  00010d10  2**2
                  CONTENTS, ALLOC, LOAD, READONLY, DATA
  4 .rwdata       00001b6c  000300a0  00031c0c  000110a0  2**2
                  CONTENTS, ALLOC, LOAD, DATA, SMALL_DATA
  5 .bss          00000160  00033778  00033778  00013778  2**2
                  ALLOC, SMALL_DATA
  6 .onchip_memory2 00000000  000338d8  000338d8  00012c0c  2**0
                  CONTENTS
  7 .comment      00000023  00000000  00000000  00012c0c  2**0
                  CONTENTS, READONLY
  8 .debug_aranges 00000db0  00000000  00000000  00012c30  2**3
                  CONTENTS, READONLY, DEBUGGING
  9 .debug_info   000246a1  00000000  00000000  000139e0  2**0
                  CONTENTS, READONLY, DEBUGGING
 10 .debug_abbrev 00009595  00000000  00000000  00038081  2**0
                  CONTENTS, READONLY, DEBUGGING
 11 .debug_line   0000b3d2  00000000  00000000  00041616  2**0
                  CONTENTS, READONLY, DEBUGGING
 12 .debug_frame  00002354  00000000  00000000  0004c9e8  2**2
                  CONTENTS, READONLY, DEBUGGING
 13 .debug_str    000038c4  00000000  00000000  0004ed3c  2**0
                  CONTENTS, READONLY, DEBUGGING
 14 .debug_loc    00017508  00000000  00000000  00052600  2**0
                  CONTENTS, READONLY, DEBUGGING
 15 .debug_alt_sim_info 00000060  00000000  00000000  00069b08  2**2
                  CONTENTS, READONLY, DEBUGGING
 16 .debug_ranges 00001438  00000000  00000000  00069b68  2**3
                  CONTENTS, READONLY, DEBUGGING
 17 .thread_model 00000003  00000000  00000000  0006e4ae  2**0
                  CONTENTS, READONLY
 18 .cpu          0000000a  00000000  00000000  0006e4b1  2**0
                  CONTENTS, READONLY
 19 .qsys         00000001  00000000  00000000  0006e4bb  2**0
                  CONTENTS, READONLY
 20 .simulation_enabled 00000001  00000000  00000000  0006e4bc  2**0
                  CONTENTS, READONLY
 21 .sysid_hash   00000004  00000000  00000000  0006e4bd  2**0
                  CONTENTS, READONLY
 22 .sysid_base   00000004  00000000  00000000  0006e4c1  2**0
                  CONTENTS, READONLY
 23 .sysid_time   00000004  00000000  00000000  0006e4c5  2**0
                  CONTENTS, READONLY
 24 .stderr_dev   00000009  00000000  00000000  0006e4c9  2**0
                  CONTENTS, READONLY
 25 .stdin_dev    00000009  00000000  00000000  0006e4d2  2**0
                  CONTENTS, READONLY
 26 .stdout_dev   00000009  00000000  00000000  0006e4db  2**0
                  CONTENTS, READONLY
 27 .sopc_system_name 00000008  00000000  00000000  0006e4e4  2**0
                  CONTENTS, READONLY
 28 .quartus_project_dir 00000033  00000000  00000000  0006e4ec  2**0
                  CONTENTS, READONLY
 29 .jdi          0000402d  00000000  00000000  0006e51f  2**0
                  CONTENTS, READONLY
 30 .sopcinfo     0006faf7  00000000  00000000  0007254c  2**0
                  CONTENTS, READONLY
SYMBOL TABLE:
00020000 l    d  .entry	00000000 .entry
00020020 l    d  .exceptions	00000000 .exceptions
00020240 l    d  .text	00000000 .text
0002fd10 l    d  .rodata	00000000 .rodata
000300a0 l    d  .rwdata	00000000 .rwdata
00033778 l    d  .bss	00000000 .bss
000338d8 l    d  .onchip_memory2	00000000 .onchip_memory2
00000000 l    d  .comment	00000000 .comment
00000000 l    d  .debug_aranges	00000000 .debug_aranges
00000000 l    d  .debug_info	00000000 .debug_info
00000000 l    d  .debug_abbrev	00000000 .debug_abbrev
00000000 l    d  .debug_line	00000000 .debug_line
00000000 l    d  .debug_frame	00000000 .debug_frame
00000000 l    d  .debug_str	00000000 .debug_str
00000000 l    d  .debug_loc	00000000 .debug_loc
00000000 l    d  .debug_alt_sim_info	00000000 .debug_alt_sim_info
00000000 l    d  .debug_ranges	00000000 .debug_ranges
00000000 l    df *ABS*	00000000 ../adc_demo_bsp//obj/HAL/src/crt0.o
00020288 l       .text	00000000 alt_after_alt_main
00000000 l    df *ABS*	00000000 alt_irq_handler.c
00000000 l    df *ABS*	00000000 alt_instruction_exception_entry.c
00000000 l    df *ABS*	00000000 main.c
00000000 l    df *ABS*	00000000 floatsisf.c
00000000 l    df *ABS*	00000000 divdf3.c
00000000 l    df *ABS*	00000000 muldf3.c
00000000 l    df *ABS*	00000000 subdf3.c
00000000 l    df *ABS*	00000000 fixdfsi.c
00000000 l    df *ABS*	00000000 extendsfdf2.c
00000000 l    df *ABS*	00000000 truncdfsf2.c
00000000 l    df *ABS*	00000000 libgcc2.c
00000000 l    df *ABS*	00000000 lib2-divmod.c
000223f8 l     F .text	0000006c udivmodsi4
00000000 l    df *ABS*	00000000 libgcc2.c
00000000 l    df *ABS*	00000000 printf.c
00000000 l    df *ABS*	00000000 puts.c
00000000 l    df *ABS*	00000000 strlen.c
00000000 l    df *ABS*	00000000 vfprintf.c
0002fea6 l     O .rodata	00000010 zeroes.4181
0002feb6 l     O .rodata	00000010 blanks.4180
00000000 l    df *ABS*	00000000 wsetup.c
00000000 l    df *ABS*	00000000 dtoa.c
00024840 l     F .text	00000200 quorem
00000000 l    df *ABS*	00000000 fflush.c
00000000 l    df *ABS*	00000000 findfp.c
000263c0 l     F .text	00000008 __fp_lock
000263c8 l     F .text	00000008 __fp_unlock
000263dc l     F .text	000001a0 __sinit.part.1
00000000 l    df *ABS*	00000000 mallocr.c
00000000 l    df *ABS*	00000000 fvwrite.c
00000000 l    df *ABS*	00000000 fwalk.c
00000000 l    df *ABS*	00000000 impure.c
000300a0 l     O .rwdata	00000424 impure_data
00000000 l    df *ABS*	00000000 locale.c
000304e4 l     O .rwdata	00000020 lc_ctype_charset
000304c4 l     O .rwdata	00000020 lc_message_charset
00030504 l     O .rwdata	00000038 lconv
00000000 l    df *ABS*	00000000 makebuf.c
00000000 l    df *ABS*	00000000 mallocr.c
00000000 l    df *ABS*	00000000 memchr.c
00000000 l    df *ABS*	00000000 memcpy.c
00000000 l    df *ABS*	00000000 memmove.c
00000000 l    df *ABS*	00000000 memset.c
00000000 l    df *ABS*	00000000 mprec.c
0002fee8 l     O .rodata	0000000c p05.2678
00000000 l    df *ABS*	00000000 mallocr.c
00000000 l    df *ABS*	00000000 s_fpclassify.c
00000000 l    df *ABS*	00000000 sbrkr.c
00000000 l    df *ABS*	00000000 stdio.c
00000000 l    df *ABS*	00000000 strcmp.c
00000000 l    df *ABS*	00000000 vfprintf.c
0002983c l     F .text	000000fc __sprint_r.part.0
0003001c l     O .rodata	00000010 blanks.4125
0003000c l     O .rodata	00000010 zeroes.4126
00000000 l    df *ABS*	00000000 writer.c
00000000 l    df *ABS*	00000000 closer.c
00000000 l    df *ABS*	00000000 mallocr.c
00000000 l    df *ABS*	00000000 fclose.c
00000000 l    df *ABS*	00000000 fputwc.c
00000000 l    df *ABS*	00000000 fstatr.c
00000000 l    df *ABS*	00000000 int_errno.c
00000000 l    df *ABS*	00000000 isattyr.c
00000000 l    df *ABS*	00000000 lseekr.c
00000000 l    df *ABS*	00000000 readr.c
00000000 l    df *ABS*	00000000 wbuf.c
00000000 l    df *ABS*	00000000 wcrtomb.c
00000000 l    df *ABS*	00000000 wctomb_r.c
00000000 l    df *ABS*	00000000 libgcc2.c
00000000 l    df *ABS*	00000000 libgcc2.c
00000000 l    df *ABS*	00000000 adddf3.c
00000000 l    df *ABS*	00000000 eqdf2.c
00000000 l    df *ABS*	00000000 gedf2.c
00000000 l    df *ABS*	00000000 ledf2.c
00000000 l    df *ABS*	00000000 floatsidf.c
00000000 l    df *ABS*	00000000 floatunsidf.c
00000000 l    df *ABS*	00000000 alt_close.c
0002cdac l     F .text	00000050 alt_get_errno
00000000 l    df *ABS*	00000000 alt_dev.c
0002cecc l     F .text	0000002c alt_dev_null_write
00000000 l    df *ABS*	00000000 alt_errno.c
00000000 l    df *ABS*	00000000 alt_fstat.c
0002cef8 l     F .text	00000050 alt_get_errno
00000000 l    df *ABS*	00000000 alt_isatty.c
0002cff8 l     F .text	00000050 alt_get_errno
00000000 l    df *ABS*	00000000 alt_load.c
0002d0ec l     F .text	00000064 alt_load_section
00000000 l    df *ABS*	00000000 alt_lseek.c
0002d1d0 l     F .text	00000050 alt_get_errno
00000000 l    df *ABS*	00000000 alt_main.c
00000000 l    df *ABS*	00000000 alt_malloc_lock.c
00000000 l    df *ABS*	00000000 alt_read.c
0002d3ac l     F .text	00000050 alt_get_errno
00000000 l    df *ABS*	00000000 alt_release_fd.c
00000000 l    df *ABS*	00000000 alt_sbrk.c
00031bf4 l     O .rwdata	00000004 heap_end
00000000 l    df *ABS*	00000000 alt_usleep.c
00000000 l    df *ABS*	00000000 alt_write.c
0002d638 l     F .text	00000050 alt_get_errno
00000000 l    df *ABS*	00000000 alt_sys_init.c
0002d780 l     F .text	00000038 alt_dev_reg
00030aec l     O .rwdata	00001060 jtag_uart
00031b4c l     O .rwdata	0000003c modular_adc_0
00031b88 l     O .rwdata	0000003c modular_adc_1
00000000 l    df *ABS*	00000000 altera_avalon_jtag_uart_fd.c
00000000 l    df *ABS*	00000000 altera_avalon_jtag_uart_init.c
0002da9c l     F .text	00000204 altera_avalon_jtag_uart_irq
0002dca0 l     F .text	000000a8 altera_avalon_jtag_uart_timeout
00000000 l    df *ABS*	00000000 altera_avalon_jtag_uart_ioctl.c
00000000 l    df *ABS*	00000000 altera_avalon_jtag_uart_read.c
00000000 l    df *ABS*	00000000 altera_avalon_jtag_uart_write.c
00000000 l    df *ABS*	00000000 altera_avalon_timer_sc.c
0002e2c0 l     F .text	00000074 alt_avalon_timer_sc_irq
00000000 l    df *ABS*	00000000 altera_modular_adc.c
0002e3bc l     F .text	000000a4 alt_adc_irq
00000000 l    df *ABS*	00000000 alt_alarm_start.c
00000000 l    df *ABS*	00000000 alt_busy_sleep.c
00000000 l    df *ABS*	00000000 alt_dcache_flush_all.c
00000000 l    df *ABS*	00000000 alt_dev_llist_insert.c
0002ebd8 l     F .text	00000050 alt_get_errno
00000000 l    df *ABS*	00000000 alt_do_ctors.c
00000000 l    df *ABS*	00000000 alt_do_dtors.c
00000000 l    df *ABS*	00000000 alt_find_dev.c
00000000 l    df *ABS*	00000000 alt_icache_flush_all.c
00000000 l    df *ABS*	00000000 alt_iic.c
00000000 l    df *ABS*	00000000 alt_iic_isr_register.c
00000000 l    df *ABS*	00000000 alt_io_redirect.c
0002f114 l     F .text	000000c0 alt_open_fd
00000000 l    df *ABS*	00000000 alt_irq_vars.c
00000000 l    df *ABS*	00000000 alt_open.c
0002f24c l     F .text	00000050 alt_get_errno
0002f29c l     F .text	000000cc alt_file_locked
00000000 l    df *ABS*	00000000 alt_tick.c
00000000 l    df *ABS*	00000000 altera_nios2_gen2_irq.c
00000000 l    df *ABS*	00000000 alt_find_file.c
00000000 l    df *ABS*	00000000 alt_get_fd.c
00000000 l    df *ABS*	00000000 alt_icache_flush.c
00000000 l    df *ABS*	00000000 atexit.c
00000000 l    df *ABS*	00000000 exit.c
00000000 l    df *ABS*	00000000 memcmp.c
00000000 l    df *ABS*	00000000 __atexit.c
00000000 l    df *ABS*	00000000 __call_atexit.c
00000000 l    df *ABS*	00000000 alt_exit.c
000337ac g     O .bss	00000004 alt_instruction_exception_handler
00028e7c g     F .text	00000074 _mprec_log10
0002e654 g     F .text	0000004c adc_stop
00028f68 g     F .text	0000008c __any_on
0002b18c g     F .text	00000054 _isatty_r
0002fef4 g     O .rodata	00000028 __mprec_tinytens
0002d2f4 g     F .text	00000078 alt_main
0002258c g     F .text	000000b8 _puts_r
000337d8 g     O .bss	00000100 alt_irq
0002b1e0 g     F .text	0000005c _lseek_r
00031c0c g       *ABS*	00000000 __flash_rwdata_start
0002c9f4 g     F .text	00000084 .hidden __eqdf2
000338d8 g       *ABS*	00000000 __alt_heap_start
00022550 g     F .text	0000003c printf
0002b408 g     F .text	0000009c _wcrtomb_r
00029734 g     F .text	0000005c __sseek
00026710 g     F .text	00000010 __sinit
0002b298 g     F .text	00000154 __swbuf_r
00027188 g     F .text	0000007c _setlocale_r
0002657c g     F .text	00000064 __sfmoreglue
0002d38c g     F .text	00000020 __malloc_unlock
00027de8 g     F .text	0000015c memmove
000266f8 g     F .text	00000018 _cleanup
00028068 g     F .text	000000a8 _Balloc
0002ca78 g     F .text	000000e0 .hidden __gtdf2
0002f65c g     F .text	00000020 altera_nios2_gen2_irq_init
00000000  w      *UND*	00000000 __errno
00020000 g     F .entry	0000001c __reset
0002e800 g     F .text	00000044 adc_interrupt_disable
00020020 g       *ABS*	00000000 __flash_exceptions_start
0002b134 g     F .text	00000058 _fstat_r
00033790 g     O .bss	00000004 errno
000296b0 g     F .text	00000008 __seofread
0002e50c g     F .text	00000070 altera_modular_adc_init
00033798 g     O .bss	00000004 alt_argv
00039bc4 g       *ABS*	00000000 _gp
0002d608 g     F .text	00000030 usleep
0003096c g     O .rwdata	00000180 alt_fd_list
0002ed84 g     F .text	00000090 alt_find_dev
00027cb0 g     F .text	00000138 memcpy
000263d0 g     F .text	0000000c _cleanup_r
0002cc38 g     F .text	000000d0 .hidden __floatsidf
0002e710 g     F .text	00000038 adc_set_mode_run_continuously
0002f1d4 g     F .text	00000078 alt_io_redirect
0002cb58 g     F .text	000000e0 .hidden __ltdf2
0002fd10 g       *ABS*	00000000 __DTOR_END__
00022644 g     F .text	00000014 puts
0002f8d0 g     F .text	0000009c alt_exception_cause_generated_bad_addr
00029594 g     F .text	00000074 __fpclassifyd
00028dd8 g     F .text	000000a4 __ratio
0002acac g     F .text	00000024 __vfiprintf_internal
0002de9c g     F .text	0000020c altera_avalon_jtag_uart_read
00000000  w      *UND*	00000000 malloc
00022524 g     F .text	0000002c _printf_r
00022514 g     F .text	00000008 .hidden __udivsi3
0002d048 g     F .text	000000a4 isatty
0002ff44 g     O .rodata	000000c8 __mprec_tens
00027204 g     F .text	0000000c __locale_charset
0002f844 g     F .text	0000008c alt_icache_flush
0003378c g     O .bss	00000004 __malloc_top_pad
00031bcc g     O .rwdata	00000004 __mb_cur_max
00027234 g     F .text	0000000c _localeconv_r
00028468 g     F .text	0000003c __i2b
00026b74 g     F .text	000004a4 __sfvwrite_r
00029608 g     F .text	00000054 _sbrk_r
0002b23c g     F .text	0000005c _read_r
00031bf8 g     O .rwdata	00000008 altera_modular_adc_list
00031bec g     O .rwdata	00000004 alt_max_fd
0002ae44 g     F .text	00000100 _fclose_r
00026390 g     F .text	00000030 fflush
00033788 g     O .bss	00000004 __malloc_max_sbrked_mem
000220ec g     F .text	00000110 .hidden __extendsfdf2
0002c158 g     F .text	0000089c .hidden __adddf3
00028b80 g     F .text	0000011c __b2d
0002bbc8 g     F .text	00000590 .hidden __umoddi3
0002d220 g     F .text	000000d4 lseek
00031bc4 g     O .rwdata	00000004 _global_impure_ptr
00028ff4 g     F .text	000005a0 _realloc_r
000338d8 g       *ABS*	00000000 __bss_end
0002f024 g     F .text	000000f0 alt_iic_isr_register
0002f558 g     F .text	00000104 alt_tick
0002b608 g     F .text	000005c0 .hidden __udivdi3
0002af58 g     F .text	00000184 _fputwc_r
0002e8c4 g     F .text	00000038 adc_wait_for_interrupt
0002ff1c g     O .rodata	00000028 __mprec_bigtens
0002824c g     F .text	00000104 __s2b
0002cd08 g     F .text	000000a4 .hidden __floatunsidf
00028928 g     F .text	00000060 __mcmp
00026730 g     F .text	00000018 __fp_lock_all
0002efd8 g     F .text	0000004c alt_ic_irq_enabled
0002f4c0 g     F .text	00000098 alt_alarm_stop
000337a0 g     O .bss	00000004 alt_irq_active
000200fc g     F .exceptions	000000d0 alt_irq_handler
00030944 g     O .rwdata	00000028 alt_dev_null
0002e6d4 g     F .text	0000003c adc_set_mode_run_once
0002eb94 g     F .text	00000044 alt_dcache_flush_all
00028350 g     F .text	00000068 __hi0bits
00022064 g     F .text	00000088 .hidden __fixdfsi
00031c0c g       *ABS*	00000000 __ram_rwdata_end
00031be4 g     O .rwdata	00000008 alt_dev_list
0002d688 g     F .text	000000f8 write
000300a0 g       *ABS*	00000000 __ram_rodata_end
0002cf48 g     F .text	000000b0 fstat
0002cb58 g     F .text	000000e0 .hidden __ledf2
0002e6a0 g     F .text	00000034 adc_start
000286a0 g     F .text	00000140 __pow5mult
00029950 g     F .text	0000135c ___vfiprintf_internal_r
00033780 g     O .bss	00000004 __nlocale_changed
0002251c g     F .text	00000008 .hidden __umodsi3
000338d8 g       *ABS*	00000000 end
0002d9d8 g     F .text	000000c4 altera_avalon_jtag_uart_init
000201cc g     F .exceptions	00000074 alt_instruction_exception_entry
0002fd10 g       *ABS*	00000000 __CTOR_LIST__
0003f400 g       *ABS*	00000000 __alt_stack_pointer
0002e334 g     F .text	00000088 alt_avalon_timer_sc_init
00022394 g     F .text	00000064 .hidden __clzsi2
0002e0a8 g     F .text	00000218 altera_avalon_jtag_uart_write
00026720 g     F .text	00000004 __sfp_lock_acquire
00027bc8 g     F .text	000000e8 memchr
000226f0 g     F .text	00001ffc ___vfprintf_internal_r
00026884 g     F .text	000002f0 _free_r
00027210 g     F .text	00000010 __locale_mb_cur_max
0002fb48 g     F .text	00000194 __call_exitprocs
0003377c g     O .bss	00000004 __mlocale_changed
00031bd0 g     O .rwdata	00000004 __malloc_sbrk_base
00020240 g     F .text	0000004c _start
000337a4 g     O .bss	00000004 _alt_tick_rate
000287e0 g     F .text	00000148 __lshift
000337a8 g     O .bss	00000004 _alt_nticks
0002d3fc g     F .text	000000fc read
0002d7ec g     F .text	00000088 alt_sys_init
00020670 g     F .text	00000134 .hidden __floatsisf
0002fa34 g     F .text	00000114 __register_exitproc
000284a4 g     F .text	000001fc __multiply
0002dd48 g     F .text	00000068 altera_avalon_jtag_uart_close
000300a0 g       *ABS*	00000000 __ram_rwdata_start
0002fd10 g       *ABS*	00000000 __ram_rodata_start
000337b0 g     O .bss	00000028 __malloc_current_mallinfo
00028c9c g     F .text	0000013c __d2b
0002d874 g     F .text	00000060 altera_avalon_jtag_uart_read_fd
0002f790 g     F .text	000000b4 alt_get_fd
0002ea3c g     F .text	00000158 alt_busy_sleep
0002ad2c g     F .text	00000054 _close_r
0002f9b8 g     F .text	0000007c memcmp
0002d934 g     F .text	00000050 altera_avalon_jtag_uart_close_fd
000338d8 g       *ABS*	00000000 __alt_stack_base
0002d984 g     F .text	00000054 altera_avalon_jtag_uart_ioctl_fd
00024710 g     F .text	00000130 __swsetup_r
0002e7c0 g     F .text	00000040 adc_interrupt_enable
000207a4 g     F .text	000008cc .hidden __divdf3
000265e0 g     F .text	00000118 __sfp
00028ef0 g     F .text	00000078 __copybits
0003053c g     O .rwdata	00000408 __malloc_av_
0002672c g     F .text	00000004 __sinit_lock_release
00021070 g     F .text	00000724 .hidden __muldf3
0002965c g     F .text	00000054 __sread
0002f67c g     F .text	00000114 alt_find_file
0002ec28 g     F .text	000000a4 alt_dev_llist_insert
0002d36c g     F .text	00000020 __malloc_lock
0002d558 g     F .text	000000b0 sbrk
00026168 g     F .text	00000228 _fflush_r
0002ad80 g     F .text	000000c4 _calloc_r
00033778 g       *ABS*	00000000 __bss_start
00027f44 g     F .text	00000124 memset
0002028c g     F .text	000003e4 main
0003379c g     O .bss	00000004 alt_envp
00033784 g     O .bss	00000004 __malloc_max_total_mem
0002d8d4 g     F .text	00000060 altera_avalon_jtag_uart_write_fd
0002b3ec g     F .text	0000001c __swbuf
0002e460 g     F .text	000000ac alt_adc_word_read
00029790 g     F .text	00000008 __sclose
0003f400 g       *ABS*	00000000 __alt_heap_limit
0002af44 g     F .text	00000014 fclose
000221fc g     F .text	00000198 .hidden __truncdfsf2
00024a40 g     F .text	00001728 _dtoa_r
00027420 g     F .text	000007a8 _malloc_r
0002b57c g     F .text	00000030 __ascii_wctomb
00031bf0 g     O .rwdata	00000004 alt_errno
00027018 g     F .text	000000b8 _fwalk
00022464 g     F .text	00000054 .hidden __divsi3
00026760 g     F .text	00000124 _malloc_trim_r
0002fd10 g       *ABS*	00000000 __CTOR_END__
00029798 g     F .text	000000a4 strcmp
0002fd10 g       *ABS*	00000000 __flash_rodata_start
0002fd10 g       *ABS*	00000000 __DTOR_LIST__
0002c9f4 g     F .text	00000084 .hidden __nedf2
0002d7b8 g     F .text	00000034 alt_irq_init
0002d4f8 g     F .text	00000060 alt_release_fd
0002fd60 g     O .rodata	00000100 .hidden __clz_tab
00033778 g     O .bss	00000004 _PathLocale
0002f96c g     F .text	00000014 atexit
0002acd0 g     F .text	0000005c _write_r
00027240 g     F .text	0000001c setlocale
00031bc8 g     O .rwdata	00000004 _impure_ptr
00033794 g     O .bss	00000004 alt_argc
0002ed28 g     F .text	0000005c _do_dtors
0002722c g     F .text	00000008 __locale_cjk_lang
00020020 g       .exceptions	00000000 alt_irq_entry
00028b20 g     F .text	00000060 __ulp
00026748 g     F .text	00000018 __fp_unlock_all
00031bdc g     O .rwdata	00000008 alt_fs_list
00020020 g       *ABS*	00000000 __ram_exceptions_start
0002725c g     F .text	0000000c localeconv
00020000 g       *ABS*	00000000 __alt_mem_onchip_memory2
0002ee44 g     F .text	00000050 alt_ic_isr_register
00031c0c g       *ABS*	00000000 _edata
000338d8 g       *ABS*	00000000 _end
0002e884 g     F .text	00000040 adc_interrupt_asserted
00020240 g       *ABS*	00000000 __ram_exceptions_end
0002ddb0 g     F .text	000000ec altera_avalon_jtag_uart_ioctl
0002ef34 g     F .text	000000a4 alt_ic_irq_disable
000296b8 g     F .text	0000007c __swrite
00031bd4 g     O .rwdata	00000004 __malloc_trim_threshold
0002e844 g     F .text	00000040 adc_clear_interrupt_status
00027220 g     F .text	0000000c __locale_msgcharset
0002f980 g     F .text	00000038 exit
000270d0 g     F .text	000000b8 _fwalk_reent
00028988 g     F .text	00000198 __mdiff
000224b8 g     F .text	0000005c .hidden __modsi3
0003f400 g       *ABS*	00000000 __alt_data_end
00020020 g     F .exceptions	00000000 alt_exception
00026724 g     F .text	00000004 __sfp_lock_release
0002e614 g     F .text	00000040 altera_modular_adc_open
0002fcdc g     F .text	00000034 _exit
0002e8fc g     F .text	00000140 alt_alarm_start
00027268 g     F .text	000001b8 __smakebuf_r
00022658 g     F .text	00000098 strlen
0002f368 g     F .text	00000158 open
0002ca78 g     F .text	000000e0 .hidden __gedf2
0002e748 g     F .text	00000078 adc_recalibrate
00031bd8 g     O .rwdata	00000004 __wctomb
00029938 g     F .text	00000018 __sprint_r
0002ee14 g     F .text	00000030 alt_icache_flush_all
00031c00 g     O .rwdata	00000004 alt_priority_mask
0002ee94 g     F .text	000000a0 alt_ic_irq_enable
000246ec g     F .text	00000024 __vfprintf_internal
0002b5ac g     F .text	0000005c _wctomb_r
00021794 g     F .text	000008d0 .hidden __subdf3
000283b8 g     F .text	000000b0 __lo0bits
00031c04 g     O .rwdata	00000008 alt_alarm_list
0002eccc g     F .text	0000005c _do_ctors
0002b4a4 g     F .text	000000d8 wcrtomb
0002cdfc g     F .text	000000d0 close
0002d150 g     F .text	00000080 alt_load
0002b0dc g     F .text	00000058 fputwc
0002e57c g     F .text	00000098 alt_adc_register_callback
00000000  w      *UND*	00000000 free
00026728 g     F .text	00000004 __sinit_lock_acquire
00028138 g     F .text	00000114 __multadd
00028110 g     F .text	00000028 _Bfree



Disassembly of section .entry:

00020000 <__reset>:
#if NIOS2_ICACHE_SIZE > 0 && defined(ALT_ALLOW_CODE_AT_RESET) && (!defined(ALT_SIM_OPTIMIZE) || defined(NIOS2_ECC_PRESENT))
    /* Assume the instruction cache size is always a power of two. */
#if NIOS2_ICACHE_SIZE > 0x8000
    movhi r2, %hi(NIOS2_ICACHE_SIZE)
#else
    movui r2, NIOS2_ICACHE_SIZE
   20000:	00840014 	movui	r2,4096
#endif

0:
    initi r2
   20004:	1001483a 	initi	r2
    addi r2, r2, -NIOS2_ICACHE_LINE_SIZE
   20008:	10bff804 	addi	r2,r2,-32
    bgt r2, zero, 0b
   2000c:	00bffd16 	blt	zero,r2,20004 <__alt_data_end+0xfffe0c04>
 * Jump to the _start entry point in the .text section if reset code
 * is allowed or if optimizing for RTL simulation.
 */
#if defined(ALT_ALLOW_CODE_AT_RESET) || defined(ALT_SIM_OPTIMIZE)
    /* Jump to the _start entry point in the .text section. */
    movhi r1, %hi(_start)
   20010:	004000b4 	movhi	at,2
    ori r1, r1, %lo(_start)
   20014:	08409014 	ori	at,at,576
    jmp r1
   20018:	0800683a 	jmp	at
   2001c:	00000000 	call	0 <__reset-0x20000>

Disassembly of section .exceptions:

00020020 <alt_exception>:

#else /* ALT_EXCEPTION_STACK disabled */
        /* 
         * Reserve space on normal stack for registers about to be pushed.
         */
        addi  sp, sp, -76
   20020:	deffed04 	addi	sp,sp,-76
         * documentation for details).
         *
         * Leave a gap in the stack frame at 4(sp) for the muldiv handler to
         * store zero into.
         */
        stw   ra,  0(sp)
   20024:	dfc00015 	stw	ra,0(sp)
        stw   r1,   8(sp)
   20028:	d8400215 	stw	at,8(sp)
        stw   r2,  12(sp)
   2002c:	d8800315 	stw	r2,12(sp)
        stw   r3,  16(sp)
   20030:	d8c00415 	stw	r3,16(sp)
        stw   r4,  20(sp)
   20034:	d9000515 	stw	r4,20(sp)
        stw   r5,  24(sp)
   20038:	d9400615 	stw	r5,24(sp)
        stw   r6,  28(sp)
   2003c:	d9800715 	stw	r6,28(sp)
        stw   r7,  32(sp)
   20040:	d9c00815 	stw	r7,32(sp)
        rdctl r5, estatus   /* Read early to avoid usage stall */
   20044:	000b307a 	rdctl	r5,estatus
        stw   r8,  36(sp)
   20048:	da000915 	stw	r8,36(sp)
        stw   r9,  40(sp)
   2004c:	da400a15 	stw	r9,40(sp)
        stw   r10, 44(sp)
   20050:	da800b15 	stw	r10,44(sp)
        stw   r11, 48(sp)
   20054:	dac00c15 	stw	r11,48(sp)
        stw   r12, 52(sp)
   20058:	db000d15 	stw	r12,52(sp)
        stw   r13, 56(sp)
   2005c:	db400e15 	stw	r13,56(sp)
        stw   r14, 60(sp)
   20060:	db800f15 	stw	r14,60(sp)
        stw   r15, 64(sp)
   20064:	dbc01015 	stw	r15,64(sp)
        /*
         * ea-4 contains the address of the instruction being executed
         * when the exception occured. For interrupt exceptions, we will
         * will be re-issue the isntruction. Store it in 72(sp)
         */
        stw   r5,  68(sp)  /* estatus */
   20068:	d9401115 	stw	r5,68(sp)
        addi  r15, ea, -4  /* instruction that caused exception */
   2006c:	ebffff04 	addi	r15,ea,-4
        stw   r15,  72(sp)
   20070:	dbc01215 	stw	r15,72(sp)
#else
        /*
         * Test to see if the exception was a software exception or caused 
         * by an external interrupt, and vector accordingly.
         */
        rdctl r4, ipending
   20074:	0009313a 	rdctl	r4,ipending
        andi  r2, r5, 1
   20078:	2880004c 	andi	r2,r5,1
        beq   r2, zero, .Lnot_irq
   2007c:	10000326 	beq	r2,zero,2008c <alt_exception+0x6c>
        beq   r4, zero, .Lnot_irq
   20080:	20000226 	beq	r4,zero,2008c <alt_exception+0x6c>
        /*
         * Now that all necessary registers have been preserved, call 
         * alt_irq_handler() to process the interrupts.
         */

        call alt_irq_handler
   20084:	00200fc0 	call	200fc <alt_irq_handler>

        .section .exceptions.irqreturn, "xa"

        br    .Lexception_exit
   20088:	00000706 	br	200a8 <alt_exception+0x88>
         * upon completion, so we write ea (address of instruction *after*
         * the one where the exception occured) into 72(sp). The actual
         * instruction that caused the exception is written in r2, which these
         * handlers will utilize.
         */
        stw   ea,  72(sp)  /* Don't re-issue */
   2008c:	df401215 	stw	ea,72(sp)
        ldhu.n  r2, 0(r4)
        ldhu.n  r3, 2(r4)
        slli.n  r3, r3, 16
        or.n    r2, r2, r3 /* Instruction that caused exception */
#else
        ldw   r2, -4(ea)   /* Instruction that caused exception */
   20090:	e8bfff17 	ldw	r2,-4(ea)
         * debugger is present) or go into an infinite loop since the
         * handling behavior is undefined; in that case we will not return here.
         */

        /* Load exception-causing address as first argument (r4) */
        addi   r4, ea, -4
   20094:	e93fff04 	addi	r4,ea,-4

        /* Call the instruction-exception entry */
        call   alt_instruction_exception_entry
   20098:	00201cc0 	call	201cc <alt_instruction_exception_entry>
         * instruction
         *
         * Return code was 0: Skip. The instruction after the exception is
         * already stored in 72(sp).
         */
        bne   r2, r0, .Lexception_exit
   2009c:	1000021e 	bne	r2,zero,200a8 <alt_exception+0x88>

        /*
         * Otherwise, modify 72(sp) to re-issue the instruction that caused the
         * exception.
         */
        addi  r15, ea, -4  /* instruction that caused exception */
   200a0:	ebffff04 	addi	r15,ea,-4
        stw   r15,  72(sp)
   200a4:	dbc01215 	stw	r15,72(sp)
        /* 
         * Restore the saved registers, so that all general purpose registers 
         * have been restored to their state at the time the interrupt occured.
         */

        ldw   r5,  68(sp)
   200a8:	d9401117 	ldw	r5,68(sp)
        ldw   ea,  72(sp)  /* This becomes the PC once eret is executed */
   200ac:	df401217 	ldw	ea,72(sp)
        ldw   ra,   0(sp)
   200b0:	dfc00017 	ldw	ra,0(sp)

        wrctl estatus, r5
   200b4:	2801707a 	wrctl	estatus,r5

        ldw   r1,   8(sp)
   200b8:	d8400217 	ldw	at,8(sp)
        ldw   r2,  12(sp)
   200bc:	d8800317 	ldw	r2,12(sp)
        ldw   r3,  16(sp)
   200c0:	d8c00417 	ldw	r3,16(sp)
        ldw   r4,  20(sp)
   200c4:	d9000517 	ldw	r4,20(sp)
        ldw   r5,  24(sp)
   200c8:	d9400617 	ldw	r5,24(sp)
        ldw   r6,  28(sp)
   200cc:	d9800717 	ldw	r6,28(sp)
        ldw   r7,  32(sp)
   200d0:	d9c00817 	ldw	r7,32(sp)

#if defined(ALT_EXCEPTION_STACK) && defined(ALT_STACK_CHECK)
        ldw   et, %gprel(alt_exception_old_stack_limit)(gp)
#endif

        ldw   r8,  36(sp)
   200d4:	da000917 	ldw	r8,36(sp)
        ldw   r9,  40(sp)
   200d8:	da400a17 	ldw	r9,40(sp)
        ldw   r10, 44(sp)
   200dc:	da800b17 	ldw	r10,44(sp)
        ldw   r11, 48(sp)
   200e0:	dac00c17 	ldw	r11,48(sp)
        ldw   r12, 52(sp)
   200e4:	db000d17 	ldw	r12,52(sp)
        ldw   r13, 56(sp)
   200e8:	db400e17 	ldw	r13,56(sp)
        ldw   r14, 60(sp)
   200ec:	db800f17 	ldw	r14,60(sp)
        ldw   r15, 64(sp)
   200f0:	dbc01017 	ldw	r15,64(sp)
        stw   et, %gprel(alt_stack_limit_value)(gp)
        stw   zero, %gprel(alt_exception_old_stack_limit)(gp)
#endif /* ALT_STACK_CHECK */
        ldw   sp,  76(sp)
#else /* ALT_EXCEPTION_STACK disabled */
        addi  sp, sp, 76
   200f4:	dec01304 	addi	sp,sp,76

        /*
         * Return to the interrupted instruction.
         */

        eret
   200f8:	ef80083a 	eret

000200fc <alt_irq_handler>:
 * instruction is present if the macro ALT_CI_INTERRUPT_VECTOR defined.
 */

void alt_irq_handler (void) __attribute__ ((section (".exceptions")));
void alt_irq_handler (void)
{
   200fc:	defff904 	addi	sp,sp,-28
   20100:	dfc00615 	stw	ra,24(sp)
   20104:	df000515 	stw	fp,20(sp)
   20108:	df000504 	addi	fp,sp,20
  
  /*
   * Notify the operating system that we are at interrupt level.
   */ 
  
  ALT_OS_INT_ENTER();
   2010c:	0001883a 	nop
#ifndef NIOS2_EIC_PRESENT
static ALT_INLINE alt_u32 ALT_ALWAYS_INLINE alt_irq_pending (void)
{
  alt_u32 active;

  NIOS2_READ_IPENDING (active);
   20110:	0005313a 	rdctl	r2,ipending
   20114:	e0bffe15 	stw	r2,-8(fp)

  return active;
   20118:	e0bffe17 	ldw	r2,-8(fp)
   * Consider the case where the high priority interupt is asserted during
   * the interrupt entry sequence for a lower priority interrupt to see why
   * this is the case.
   */

  active = alt_irq_pending ();
   2011c:	e0bffb15 	stw	r2,-20(fp)

  do
  {
    i = 0;
   20120:	e03ffd15 	stw	zero,-12(fp)
    mask = 1;
   20124:	00800044 	movi	r2,1
   20128:	e0bffc15 	stw	r2,-16(fp)
     * called to clear the interrupt condition.
     */

    do
    {
      if (active & mask)
   2012c:	e0fffb17 	ldw	r3,-20(fp)
   20130:	e0bffc17 	ldw	r2,-16(fp)
   20134:	1884703a 	and	r2,r3,r2
   20138:	10001426 	beq	r2,zero,2018c <alt_irq_handler+0x90>
      { 
#ifdef ALT_ENHANCED_INTERRUPT_API_PRESENT
        alt_irq[i].handler(alt_irq[i].context); 
   2013c:	008000f4 	movhi	r2,3
   20140:	108df604 	addi	r2,r2,14296
   20144:	e0fffd17 	ldw	r3,-12(fp)
   20148:	180690fa 	slli	r3,r3,3
   2014c:	10c5883a 	add	r2,r2,r3
   20150:	10c00017 	ldw	r3,0(r2)
   20154:	008000f4 	movhi	r2,3
   20158:	108df604 	addi	r2,r2,14296
   2015c:	e13ffd17 	ldw	r4,-12(fp)
   20160:	200890fa 	slli	r4,r4,3
   20164:	1105883a 	add	r2,r2,r4
   20168:	10800104 	addi	r2,r2,4
   2016c:	10800017 	ldw	r2,0(r2)
   20170:	1009883a 	mov	r4,r2
   20174:	183ee83a 	callr	r3
#else
        alt_irq[i].handler(alt_irq[i].context, i); 
#endif
        break;
   20178:	0001883a 	nop
#ifndef NIOS2_EIC_PRESENT
static ALT_INLINE alt_u32 ALT_ALWAYS_INLINE alt_irq_pending (void)
{
  alt_u32 active;

  NIOS2_READ_IPENDING (active);
   2017c:	0005313a 	rdctl	r2,ipending
   20180:	e0bfff15 	stw	r2,-4(fp)

  return active;
   20184:	e0bfff17 	ldw	r2,-4(fp)
   20188:	00000706 	br	201a8 <alt_irq_handler+0xac>
      }
      mask <<= 1;
   2018c:	e0bffc17 	ldw	r2,-16(fp)
   20190:	1085883a 	add	r2,r2,r2
   20194:	e0bffc15 	stw	r2,-16(fp)
      i++;
   20198:	e0bffd17 	ldw	r2,-12(fp)
   2019c:	10800044 	addi	r2,r2,1
   201a0:	e0bffd15 	stw	r2,-12(fp)

    } while (1);
   201a4:	003fe106 	br	2012c <__alt_data_end+0xfffe0d2c>

    active = alt_irq_pending ();
   201a8:	e0bffb15 	stw	r2,-20(fp)
    
  } while (active);
   201ac:	e0bffb17 	ldw	r2,-20(fp)
   201b0:	103fdb1e 	bne	r2,zero,20120 <__alt_data_end+0xfffe0d20>

  /*
   * Notify the operating system that interrupt processing is complete.
   */ 

  ALT_OS_INT_EXIT();
   201b4:	0001883a 	nop
}
   201b8:	e037883a 	mov	sp,fp
   201bc:	dfc00117 	ldw	ra,4(sp)
   201c0:	df000017 	ldw	fp,0(sp)
   201c4:	dec00204 	addi	sp,sp,8
   201c8:	f800283a 	ret

000201cc <alt_instruction_exception_entry>:
 * that handler if it has been registered. Absent a handler, it will
 * break break or hang as discussed below.
 */
int 
alt_instruction_exception_entry (alt_u32 exception_pc)
{
   201cc:	defffb04 	addi	sp,sp,-20
   201d0:	dfc00415 	stw	ra,16(sp)
   201d4:	df000315 	stw	fp,12(sp)
   201d8:	df000304 	addi	fp,sp,12
   201dc:	e13fff15 	stw	r4,-4(fp)
 * NIOS2_EXCEPTION_CAUSE_NOT_PRESENT. Your handling routine should
 * check the validity of the cause argument before proceeding.
 */
#ifdef NIOS2_HAS_EXTRA_EXCEPTION_INFO
  /* Get exception cause & "badaddr" */
  NIOS2_READ_EXCEPTION(cause);
   201e0:	000531fa 	rdctl	r2,exception
   201e4:	e0bffd15 	stw	r2,-12(fp)
  cause = ( (cause & NIOS2_EXCEPTION_REG_CAUSE_MASK) >>
   201e8:	e0bffd17 	ldw	r2,-12(fp)
   201ec:	10801f0c 	andi	r2,r2,124
   201f0:	1004d0ba 	srli	r2,r2,2
   201f4:	e0bffd15 	stw	r2,-12(fp)
              NIOS2_EXCEPTION_REG_CAUSE_OFST );

  NIOS2_READ_BADADDR(badaddr);
   201f8:	0005333a 	rdctl	r2,badaddr
   201fc:	e0bffe15 	stw	r2,-8(fp)
#else
  cause = NIOS2_EXCEPTION_CAUSE_NOT_PRESENT;
  badaddr = 0;
#endif /* NIOS2_HAS_EXTRA_EXCEPTION_INFO */

  if(alt_instruction_exception_handler) {
   20200:	d0a6fa17 	ldw	r2,-25624(gp)
   20204:	10000726 	beq	r2,zero,20224 <alt_instruction_exception_entry+0x58>
     * Call handler. Its return value indicates whether the exception-causing
     * instruction should be re-issued. The code that called us,
     * alt_eceptions_entry.S, will look at this value and adjust the ea
     * register as necessary
     */
    return alt_instruction_exception_handler(cause, exception_pc, badaddr);
   20208:	d0a6fa17 	ldw	r2,-25624(gp)
   2020c:	e0fffd17 	ldw	r3,-12(fp)
   20210:	1809883a 	mov	r4,r3
   20214:	e17fff17 	ldw	r5,-4(fp)
   20218:	e1bffe17 	ldw	r6,-8(fp)
   2021c:	103ee83a 	callr	r2
   20220:	00000206 	br	2022c <alt_instruction_exception_entry+0x60>
   *    (a peripheral which negates its interrupt output before its
   *    interrupt handler has been executed will cause spurious interrupts)
   */
  else {
#ifdef NIOS2_HAS_DEBUG_STUB
    NIOS2_BREAK();
   20224:	003da03a 	break	0
      ;
#endif /* NIOS2_HAS_DEBUG_STUB */
  }

  /* We should not get here. Remove compiler warning. */
  return NIOS2_EXCEPTION_RETURN_REISSUE_INST;
   20228:	0005883a 	mov	r2,zero
}
   2022c:	e037883a 	mov	sp,fp
   20230:	dfc00117 	ldw	ra,4(sp)
   20234:	df000017 	ldw	fp,0(sp)
   20238:	dec00204 	addi	sp,sp,8
   2023c:	f800283a 	ret

Disassembly of section .text:

00020240 <_start>:

    /* Assume the data cache size is always a power of two. */
#if NIOS2_DCACHE_SIZE > 0x8000
    movhi r2, %hi(NIOS2_DCACHE_SIZE)
#else
    movui r2, NIOS2_DCACHE_SIZE
   20240:	00820014 	movui	r2,2048
#endif

0:
    initd 0(r2)
   20244:	10000033 	initd	0(r2)
#ifdef NIOS2_ECC_PRESENT
    addi r2, r2, -4
#else
    addi r2, r2, -NIOS2_DCACHE_LINE_SIZE
   20248:	10bff804 	addi	r2,r2,-32
#endif
    bgt r2, zero, 0b
   2024c:	00bffd16 	blt	zero,r2,20244 <__alt_data_end+0xfffe0e44>

    /*
     * Now that the caches are initialized, set up the stack pointer and global pointer.
     * The values provided by the linker are assumed to be correctly aligned.
     */
    movhi sp, %hi(__alt_stack_pointer)
   20250:	06c000f4 	movhi	sp,3
    ori sp, sp, %lo(__alt_stack_pointer)
   20254:	defd0014 	ori	sp,sp,62464
    movhi gp, %hi(_gp)
   20258:	068000f4 	movhi	gp,3
    ori gp, gp, %lo(_gp)
   2025c:	d6a6f114 	ori	gp,gp,39876
 */
#ifndef ALT_SIM_OPTIMIZE
    /* Log that the BSS is about to be cleared. */
    ALT_LOG_PUTS(alt_log_msg_bss)

    movhi r2, %hi(__bss_start)
   20260:	008000f4 	movhi	r2,3
    ori r2, r2, %lo(__bss_start)
   20264:	108dde14 	ori	r2,r2,14200

    movhi r3, %hi(__bss_end)
   20268:	00c000f4 	movhi	r3,3
    ori r3, r3, %lo(__bss_end)
   2026c:	18ce3614 	ori	r3,r3,14552

    beq r2, r3, 1f
   20270:	10c00326 	beq	r2,r3,20280 <_start+0x40>

0:
    stw zero, (r2)
   20274:	10000015 	stw	zero,0(r2)
    addi r2, r2, 4
   20278:	10800104 	addi	r2,r2,4
    bltu r2, r3, 0b
   2027c:	10fffd36 	bltu	r2,r3,20274 <__alt_data_end+0xfffe0e74>
     * section aren't defined until alt_load() has been called).
     */
    mov   et, zero
#endif

    call alt_load
   20280:	002d1500 	call	2d150 <alt_load>

    /* Log that alt_main is about to be called. */
    ALT_LOG_PUTS(alt_log_msg_alt_main)

    /* Call the C entry point. It should never return. */
    call alt_main
   20284:	002d2f40 	call	2d2f4 <alt_main>

00020288 <alt_after_alt_main>:

    /* Wait in infinite loop in case alt_main does return. */
alt_after_alt_main:
    br alt_after_alt_main
   20288:	003fff06 	br	20288 <__alt_data_end+0xfffe0e88>

0002028c <main>:
#include "altera_modular_adc_sample_store_regs.h"
#include "altera_modular_adc.h"


int main()
{
   2028c:	defff104 	addi	sp,sp,-60
   20290:	dfc00e15 	stw	ra,56(sp)
   20294:	df000d15 	stw	fp,52(sp)
   20298:	dc800c15 	stw	r18,48(sp)
   2029c:	dc400b15 	stw	r17,44(sp)
   202a0:	dc000a15 	stw	r16,40(sp)
   202a4:	df000d04 	addi	fp,sp,52
	int value_0, value_1, Slot=0/* 0: ANAIN1_SMA(J18) adc channel */;
   202a8:	e03ff615 	stw	zero,-40(fp)
	float Vout_0, Vin_0, Vout_1, Vin_1;
	printf("SMA ADC Demo\n");
   202ac:	010000f4 	movhi	r4,3
   202b0:	213f4404 	addi	r4,r4,-752
   202b4:	00226440 	call	22644 <puts>

	IOWR(MODULAR_ADC_0_SEQUENCER_CSR_BASE, 0x00, 0x00); // Continued ADC
   202b8:	0007883a 	mov	r3,zero
   202bc:	00800134 	movhi	r2,4
   202c0:	10850e04 	addi	r2,r2,5176
   202c4:	10c00035 	stwio	r3,0(r2)
    IOWR(MODULAR_ADC_0_SEQUENCER_CSR_BASE, 0x00, 0x01); // run
   202c8:	00c00044 	movi	r3,1
   202cc:	00800134 	movhi	r2,4
   202d0:	10850e04 	addi	r2,r2,5176
   202d4:	10c00035 	stwio	r3,0(r2)

	IOWR(MODULAR_ADC_1_SEQUENCER_CSR_BASE, 0x00, 0x00); // Continued ADC
   202d8:	0007883a 	mov	r3,zero
   202dc:	00800134 	movhi	r2,4
   202e0:	10850c04 	addi	r2,r2,5168
   202e4:	10c00035 	stwio	r3,0(r2)
    IOWR(MODULAR_ADC_1_SEQUENCER_CSR_BASE, 0x00, 0x01); // run
   202e8:	00c00044 	movi	r3,1
   202ec:	00800134 	movhi	r2,4
   202f0:	10850c04 	addi	r2,r2,5168
   202f4:	10c00035 	stwio	r3,0(r2)

	usleep(10*1000);
   202f8:	0109c404 	movi	r4,10000
   202fc:	002d6080 	call	2d608 <usleep>

    while(1){
    	value_0 = IORD(MODULAR_ADC_0_SAMPLE_STORE_CSR_BASE, Slot) & 0xFFF; // 12-bit data
   20300:	e0bff617 	ldw	r2,-40(fp)
   20304:	1085883a 	add	r2,r2,r2
   20308:	1085883a 	add	r2,r2,r2
   2030c:	1007883a 	mov	r3,r2
   20310:	00800134 	movhi	r2,4
   20314:	10848004 	addi	r2,r2,4608
   20318:	1885883a 	add	r2,r3,r2
   2031c:	10800037 	ldwio	r2,0(r2)
   20320:	1083ffcc 	andi	r2,r2,4095
   20324:	e0bff715 	stw	r2,-36(fp)
    	value_1 = IORD(MODULAR_ADC_1_SAMPLE_STORE_CSR_BASE, Slot) & 0xFFF; // 12-bit data
   20328:	e0bff617 	ldw	r2,-40(fp)
   2032c:	1085883a 	add	r2,r2,r2
   20330:	1085883a 	add	r2,r2,r2
   20334:	1007883a 	mov	r3,r2
   20338:	00800134 	movhi	r2,4
   2033c:	10840004 	addi	r2,r2,4096
   20340:	1885883a 	add	r2,r3,r2
   20344:	10800037 	ldwio	r2,0(r2)
   20348:	1083ffcc 	andi	r2,r2,4095
   2034c:	e0bff815 	stw	r2,-32(fp)

    	// SMA input,calculate input voltage
    	//  Vout=(6.25+Vin)/5
    	//  Vin = 5xVout - 6.25

    	Vout_0 = (float)value_0/4095.0*2.5; // 0~4095 mapping to 0~2.5V
   20350:	e13ff717 	ldw	r4,-36(fp)
   20354:	00206700 	call	20670 <__floatsisf>
   20358:	1007883a 	mov	r3,r2
   2035c:	1809883a 	mov	r4,r3
   20360:	00220ec0 	call	220ec <__extendsfdf2>
   20364:	100b883a 	mov	r5,r2
   20368:	180d883a 	mov	r6,r3
   2036c:	2809883a 	mov	r4,r5
   20370:	300b883a 	mov	r5,r6
   20374:	000d883a 	mov	r6,zero
   20378:	01d02c34 	movhi	r7,16560
   2037c:	39ff8004 	addi	r7,r7,-512
   20380:	00207a40 	call	207a4 <__divdf3>
   20384:	1009883a 	mov	r4,r2
   20388:	180b883a 	mov	r5,r3
   2038c:	2005883a 	mov	r2,r4
   20390:	2807883a 	mov	r3,r5
   20394:	1009883a 	mov	r4,r2
   20398:	180b883a 	mov	r5,r3
   2039c:	000d883a 	mov	r6,zero
   203a0:	01d00134 	movhi	r7,16388
   203a4:	00210700 	call	21070 <__muldf3>
   203a8:	1009883a 	mov	r4,r2
   203ac:	180b883a 	mov	r5,r3
   203b0:	2005883a 	mov	r2,r4
   203b4:	2807883a 	mov	r3,r5
   203b8:	1009883a 	mov	r4,r2
   203bc:	180b883a 	mov	r5,r3
   203c0:	00221fc0 	call	221fc <__truncdfsf2>
   203c4:	1007883a 	mov	r3,r2
   203c8:	e0fff915 	stw	r3,-28(fp)
    	Vin_0 = 5.0* Vout_0 - 6.25;
   203cc:	e13ff917 	ldw	r4,-28(fp)
   203d0:	00220ec0 	call	220ec <__extendsfdf2>
   203d4:	100b883a 	mov	r5,r2
   203d8:	180d883a 	mov	r6,r3
   203dc:	2809883a 	mov	r4,r5
   203e0:	300b883a 	mov	r5,r6
   203e4:	000d883a 	mov	r6,zero
   203e8:	01d00534 	movhi	r7,16404
   203ec:	00210700 	call	21070 <__muldf3>
   203f0:	1009883a 	mov	r4,r2
   203f4:	180b883a 	mov	r5,r3
   203f8:	2005883a 	mov	r2,r4
   203fc:	2807883a 	mov	r3,r5
   20400:	1009883a 	mov	r4,r2
   20404:	180b883a 	mov	r5,r3
   20408:	000d883a 	mov	r6,zero
   2040c:	01d00674 	movhi	r7,16409
   20410:	00217940 	call	21794 <__subdf3>
   20414:	1009883a 	mov	r4,r2
   20418:	180b883a 	mov	r5,r3
   2041c:	2005883a 	mov	r2,r4
   20420:	2807883a 	mov	r3,r5
   20424:	1009883a 	mov	r4,r2
   20428:	180b883a 	mov	r5,r3
   2042c:	00221fc0 	call	221fc <__truncdfsf2>
   20430:	1007883a 	mov	r3,r2
   20434:	e0fffa15 	stw	r3,-24(fp)

    	Vout_1 = (float)value_1/4095.0*2.5; // 0~4095 mapping to 0~2.5V
   20438:	e13ff817 	ldw	r4,-32(fp)
   2043c:	00206700 	call	20670 <__floatsisf>
   20440:	1007883a 	mov	r3,r2
   20444:	1809883a 	mov	r4,r3
   20448:	00220ec0 	call	220ec <__extendsfdf2>
   2044c:	100b883a 	mov	r5,r2
   20450:	180d883a 	mov	r6,r3
   20454:	2809883a 	mov	r4,r5
   20458:	300b883a 	mov	r5,r6
   2045c:	000d883a 	mov	r6,zero
   20460:	01d02c34 	movhi	r7,16560
   20464:	39ff8004 	addi	r7,r7,-512
   20468:	00207a40 	call	207a4 <__divdf3>
   2046c:	1009883a 	mov	r4,r2
   20470:	180b883a 	mov	r5,r3
   20474:	2005883a 	mov	r2,r4
   20478:	2807883a 	mov	r3,r5
   2047c:	1009883a 	mov	r4,r2
   20480:	180b883a 	mov	r5,r3
   20484:	000d883a 	mov	r6,zero
   20488:	01d00134 	movhi	r7,16388
   2048c:	00210700 	call	21070 <__muldf3>
   20490:	1009883a 	mov	r4,r2
   20494:	180b883a 	mov	r5,r3
   20498:	2005883a 	mov	r2,r4
   2049c:	2807883a 	mov	r3,r5
   204a0:	1009883a 	mov	r4,r2
   204a4:	180b883a 	mov	r5,r3
   204a8:	00221fc0 	call	221fc <__truncdfsf2>
   204ac:	1007883a 	mov	r3,r2
   204b0:	e0fffb15 	stw	r3,-20(fp)
    	Vin_1 = 5.0* Vout_1 - 6.25;
   204b4:	e13ffb17 	ldw	r4,-20(fp)
   204b8:	00220ec0 	call	220ec <__extendsfdf2>
   204bc:	100b883a 	mov	r5,r2
   204c0:	180d883a 	mov	r6,r3
   204c4:	2809883a 	mov	r4,r5
   204c8:	300b883a 	mov	r5,r6
   204cc:	000d883a 	mov	r6,zero
   204d0:	01d00534 	movhi	r7,16404
   204d4:	00210700 	call	21070 <__muldf3>
   204d8:	1009883a 	mov	r4,r2
   204dc:	180b883a 	mov	r5,r3
   204e0:	2005883a 	mov	r2,r4
   204e4:	2807883a 	mov	r3,r5
   204e8:	1009883a 	mov	r4,r2
   204ec:	180b883a 	mov	r5,r3
   204f0:	000d883a 	mov	r6,zero
   204f4:	01d00674 	movhi	r7,16409
   204f8:	00217940 	call	21794 <__subdf3>
   204fc:	1009883a 	mov	r4,r2
   20500:	180b883a 	mov	r5,r3
   20504:	2005883a 	mov	r2,r4
   20508:	2807883a 	mov	r3,r5
   2050c:	1009883a 	mov	r4,r2
   20510:	180b883a 	mov	r5,r3
   20514:	00221fc0 	call	221fc <__truncdfsf2>
   20518:	1007883a 	mov	r3,r2
   2051c:	e0fffc15 	stw	r3,-16(fp)

    	printf("Vin_0=%dmV, Vout_0=%dmV(%xh). Vin_1=%dmV, Vout_1=%dmV(%xh)\r\n", (int)(Vin_0*1000.0), (int)(Vout_0*1000.0), value_0, (int)(Vin_1*1000.0), (int)(Vout_1*1000.0), value_1);
   20520:	e13ffa17 	ldw	r4,-24(fp)
   20524:	00220ec0 	call	220ec <__extendsfdf2>
   20528:	100b883a 	mov	r5,r2
   2052c:	180d883a 	mov	r6,r3
   20530:	2809883a 	mov	r4,r5
   20534:	300b883a 	mov	r5,r6
   20538:	000d883a 	mov	r6,zero
   2053c:	01d023f4 	movhi	r7,16527
   20540:	39d00004 	addi	r7,r7,16384
   20544:	00210700 	call	21070 <__muldf3>
   20548:	1009883a 	mov	r4,r2
   2054c:	180b883a 	mov	r5,r3
   20550:	2005883a 	mov	r2,r4
   20554:	2807883a 	mov	r3,r5
   20558:	1009883a 	mov	r4,r2
   2055c:	180b883a 	mov	r5,r3
   20560:	00220640 	call	22064 <__fixdfsi>
   20564:	1025883a 	mov	r18,r2
   20568:	e13ff917 	ldw	r4,-28(fp)
   2056c:	00220ec0 	call	220ec <__extendsfdf2>
   20570:	100b883a 	mov	r5,r2
   20574:	180d883a 	mov	r6,r3
   20578:	2809883a 	mov	r4,r5
   2057c:	300b883a 	mov	r5,r6
   20580:	000d883a 	mov	r6,zero
   20584:	01d023f4 	movhi	r7,16527
   20588:	39d00004 	addi	r7,r7,16384
   2058c:	00210700 	call	21070 <__muldf3>
   20590:	1009883a 	mov	r4,r2
   20594:	180b883a 	mov	r5,r3
   20598:	2005883a 	mov	r2,r4
   2059c:	2807883a 	mov	r3,r5
   205a0:	1009883a 	mov	r4,r2
   205a4:	180b883a 	mov	r5,r3
   205a8:	00220640 	call	22064 <__fixdfsi>
   205ac:	1023883a 	mov	r17,r2
   205b0:	e13ffc17 	ldw	r4,-16(fp)
   205b4:	00220ec0 	call	220ec <__extendsfdf2>
   205b8:	100b883a 	mov	r5,r2
   205bc:	180d883a 	mov	r6,r3
   205c0:	2809883a 	mov	r4,r5
   205c4:	300b883a 	mov	r5,r6
   205c8:	000d883a 	mov	r6,zero
   205cc:	01d023f4 	movhi	r7,16527
   205d0:	39d00004 	addi	r7,r7,16384
   205d4:	00210700 	call	21070 <__muldf3>
   205d8:	1009883a 	mov	r4,r2
   205dc:	180b883a 	mov	r5,r3
   205e0:	2005883a 	mov	r2,r4
   205e4:	2807883a 	mov	r3,r5
   205e8:	1009883a 	mov	r4,r2
   205ec:	180b883a 	mov	r5,r3
   205f0:	00220640 	call	22064 <__fixdfsi>
   205f4:	1021883a 	mov	r16,r2
   205f8:	e13ffb17 	ldw	r4,-20(fp)
   205fc:	00220ec0 	call	220ec <__extendsfdf2>
   20600:	100b883a 	mov	r5,r2
   20604:	180d883a 	mov	r6,r3
   20608:	2809883a 	mov	r4,r5
   2060c:	300b883a 	mov	r5,r6
   20610:	000d883a 	mov	r6,zero
   20614:	01d023f4 	movhi	r7,16527
   20618:	39d00004 	addi	r7,r7,16384
   2061c:	00210700 	call	21070 <__muldf3>
   20620:	1009883a 	mov	r4,r2
   20624:	180b883a 	mov	r5,r3
   20628:	2005883a 	mov	r2,r4
   2062c:	2807883a 	mov	r3,r5
   20630:	1009883a 	mov	r4,r2
   20634:	180b883a 	mov	r5,r3
   20638:	00220640 	call	22064 <__fixdfsi>
   2063c:	dc000015 	stw	r16,0(sp)
   20640:	d8800115 	stw	r2,4(sp)
   20644:	e0bff817 	ldw	r2,-32(fp)
   20648:	d8800215 	stw	r2,8(sp)
   2064c:	010000f4 	movhi	r4,3
   20650:	213f4804 	addi	r4,r4,-736
   20654:	900b883a 	mov	r5,r18
   20658:	880d883a 	mov	r6,r17
   2065c:	e1fff717 	ldw	r7,-36(fp)
   20660:	00225500 	call	22550 <printf>
    	//printf("adc value=%xh\r\n", value);

    	//
    	usleep(10*1000); // 0.01 second
   20664:	0109c404 	movi	r4,10000
   20668:	002d6080 	call	2d608 <usleep>
    }
   2066c:	003f2406 	br	20300 <__alt_data_end+0xfffe0f00>

00020670 <__floatsisf>:
   20670:	defffd04 	addi	sp,sp,-12
   20674:	dc000015 	stw	r16,0(sp)
   20678:	dfc00215 	stw	ra,8(sp)
   2067c:	dc400115 	stw	r17,4(sp)
   20680:	2021883a 	mov	r16,r4
   20684:	20003a26 	beq	r4,zero,20770 <__floatsisf+0x100>
   20688:	2022d7fa 	srli	r17,r4,31
   2068c:	88000126 	beq	r17,zero,20694 <__floatsisf+0x24>
   20690:	0121c83a 	sub	r16,zero,r4
   20694:	8009883a 	mov	r4,r16
   20698:	00223940 	call	22394 <__clzsi2>
   2069c:	00c02784 	movi	r3,158
   206a0:	1887c83a 	sub	r3,r3,r2
   206a4:	01802584 	movi	r6,150
   206a8:	800b883a 	mov	r5,r16
   206ac:	30c01616 	blt	r6,r3,20708 <__floatsisf+0x98>
   206b0:	01000204 	movi	r4,8
   206b4:	2080020e 	bge	r4,r2,206c0 <__floatsisf+0x50>
   206b8:	10bffe04 	addi	r2,r2,-8
   206bc:	80a0983a 	sll	r16,r16,r2
   206c0:	00802034 	movhi	r2,128
   206c4:	10bfffc4 	addi	r2,r2,-1
   206c8:	8809883a 	mov	r4,r17
   206cc:	80a0703a 	and	r16,r16,r2
   206d0:	18803fcc 	andi	r2,r3,255
   206d4:	100695fa 	slli	r3,r2,23
   206d8:	20803fcc 	andi	r2,r4,255
   206dc:	100897fa 	slli	r4,r2,31
   206e0:	00802034 	movhi	r2,128
   206e4:	10bfffc4 	addi	r2,r2,-1
   206e8:	8084703a 	and	r2,r16,r2
   206ec:	10c4b03a 	or	r2,r2,r3
   206f0:	1104b03a 	or	r2,r2,r4
   206f4:	dfc00217 	ldw	ra,8(sp)
   206f8:	dc400117 	ldw	r17,4(sp)
   206fc:	dc000017 	ldw	r16,0(sp)
   20700:	dec00304 	addi	sp,sp,12
   20704:	f800283a 	ret
   20708:	01002644 	movi	r4,153
   2070c:	20c01c16 	blt	r4,r3,20780 <__floatsisf+0x110>
   20710:	01000144 	movi	r4,5
   20714:	2080020e 	bge	r4,r2,20720 <__floatsisf+0xb0>
   20718:	113ffec4 	addi	r4,r2,-5
   2071c:	290a983a 	sll	r5,r5,r4
   20720:	043f0034 	movhi	r16,64512
   20724:	843fffc4 	addi	r16,r16,-1
   20728:	298001cc 	andi	r6,r5,7
   2072c:	2c20703a 	and	r16,r5,r16
   20730:	30000426 	beq	r6,zero,20744 <__floatsisf+0xd4>
   20734:	294003cc 	andi	r5,r5,15
   20738:	01000104 	movi	r4,4
   2073c:	29000126 	beq	r5,r4,20744 <__floatsisf+0xd4>
   20740:	8121883a 	add	r16,r16,r4
   20744:	8101002c 	andhi	r4,r16,1024
   20748:	20000526 	beq	r4,zero,20760 <__floatsisf+0xf0>
   2074c:	00c027c4 	movi	r3,159
   20750:	1887c83a 	sub	r3,r3,r2
   20754:	00bf0034 	movhi	r2,64512
   20758:	10bfffc4 	addi	r2,r2,-1
   2075c:	80a0703a 	and	r16,r16,r2
   20760:	802091ba 	slli	r16,r16,6
   20764:	8809883a 	mov	r4,r17
   20768:	8020d27a 	srli	r16,r16,9
   2076c:	003fd806 	br	206d0 <__alt_data_end+0xfffe12d0>
   20770:	0009883a 	mov	r4,zero
   20774:	0007883a 	mov	r3,zero
   20778:	0021883a 	mov	r16,zero
   2077c:	003fd406 	br	206d0 <__alt_data_end+0xfffe12d0>
   20780:	01800144 	movi	r6,5
   20784:	110006c4 	addi	r4,r2,27
   20788:	8108983a 	sll	r4,r16,r4
   2078c:	308fc83a 	sub	r7,r6,r2
   20790:	81cad83a 	srl	r5,r16,r7
   20794:	2008c03a 	cmpne	r4,r4,zero
   20798:	214ab03a 	or	r5,r4,r5
   2079c:	30bfe00e 	bge	r6,r2,20720 <__alt_data_end+0xfffe1320>
   207a0:	003fdd06 	br	20718 <__alt_data_end+0xfffe1318>

000207a4 <__divdf3>:
   207a4:	defff204 	addi	sp,sp,-56
   207a8:	dd000815 	stw	r20,32(sp)
   207ac:	2828d53a 	srli	r20,r5,20
   207b0:	dd800a15 	stw	r22,40(sp)
   207b4:	282cd7fa 	srli	r22,r5,31
   207b8:	dc000415 	stw	r16,16(sp)
   207bc:	04000434 	movhi	r16,16
   207c0:	df000c15 	stw	fp,48(sp)
   207c4:	dcc00715 	stw	r19,28(sp)
   207c8:	dc800615 	stw	r18,24(sp)
   207cc:	dc400515 	stw	r17,20(sp)
   207d0:	843fffc4 	addi	r16,r16,-1
   207d4:	dfc00d15 	stw	ra,52(sp)
   207d8:	ddc00b15 	stw	r23,44(sp)
   207dc:	dd400915 	stw	r21,36(sp)
   207e0:	a501ffcc 	andi	r20,r20,2047
   207e4:	2025883a 	mov	r18,r4
   207e8:	2027883a 	mov	r19,r4
   207ec:	2c22703a 	and	r17,r5,r16
   207f0:	b7003fcc 	andi	fp,r22,255
   207f4:	a0005e26 	beq	r20,zero,20970 <__divdf3+0x1cc>
   207f8:	0081ffc4 	movi	r2,2047
   207fc:	a0803526 	beq	r20,r2,208d4 <__divdf3+0x130>
   20800:	8c000434 	orhi	r16,r17,16
   20804:	2004d77a 	srli	r2,r4,29
   20808:	802090fa 	slli	r16,r16,3
   2080c:	202690fa 	slli	r19,r4,3
   20810:	a53f0044 	addi	r20,r20,-1023
   20814:	80a2b03a 	or	r17,r16,r2
   20818:	0025883a 	mov	r18,zero
   2081c:	0011883a 	mov	r8,zero
   20820:	380ad53a 	srli	r5,r7,20
   20824:	382ed7fa 	srli	r23,r7,31
   20828:	04000434 	movhi	r16,16
   2082c:	843fffc4 	addi	r16,r16,-1
   20830:	2941ffcc 	andi	r5,r5,2047
   20834:	302b883a 	mov	r21,r6
   20838:	3c20703a 	and	r16,r7,r16
   2083c:	ba403fcc 	andi	r9,r23,255
   20840:	28006726 	beq	r5,zero,209e0 <__divdf3+0x23c>
   20844:	0081ffc4 	movi	r2,2047
   20848:	28805f26 	beq	r5,r2,209c8 <__divdf3+0x224>
   2084c:	84000434 	orhi	r16,r16,16
   20850:	3004d77a 	srli	r2,r6,29
   20854:	802090fa 	slli	r16,r16,3
   20858:	302a90fa 	slli	r21,r6,3
   2085c:	297f0044 	addi	r5,r5,-1023
   20860:	80a0b03a 	or	r16,r16,r2
   20864:	000f883a 	mov	r7,zero
   20868:	3c86b03a 	or	r3,r7,r18
   2086c:	180690ba 	slli	r3,r3,2
   20870:	008000b4 	movhi	r2,2
   20874:	10822504 	addi	r2,r2,2196
   20878:	1887883a 	add	r3,r3,r2
   2087c:	18c00017 	ldw	r3,0(r3)
   20880:	b5c8f03a 	xor	r4,r22,r23
   20884:	200d883a 	mov	r6,r4
   20888:	24803fcc 	andi	r18,r4,255
   2088c:	a169c83a 	sub	r20,r20,r5
   20890:	1800683a 	jmp	r3
   20894:	00020adc 	xori	zero,zero,2091
   20898:	0002090c 	andi	zero,zero,2084
   2089c:	00020aa0 	cmpeqi	zero,zero,2090
   208a0:	000208f0 	cmpltui	zero,zero,2083
   208a4:	00020aa0 	cmpeqi	zero,zero,2090
   208a8:	00020a74 	movhi	zero,2089
   208ac:	00020aa0 	cmpeqi	zero,zero,2090
   208b0:	000208f0 	cmpltui	zero,zero,2083
   208b4:	0002090c 	andi	zero,zero,2084
   208b8:	0002090c 	andi	zero,zero,2084
   208bc:	00020a74 	movhi	zero,2089
   208c0:	000208f0 	cmpltui	zero,zero,2083
   208c4:	00020900 	call	2090 <__reset-0x1df70>
   208c8:	00020900 	call	2090 <__reset-0x1df70>
   208cc:	00020900 	call	2090 <__reset-0x1df70>
   208d0:	00020ab0 	cmpltui	zero,zero,2090
   208d4:	8904b03a 	or	r2,r17,r4
   208d8:	1000631e 	bne	r2,zero,20a68 <__divdf3+0x2c4>
   208dc:	04800204 	movi	r18,8
   208e0:	0023883a 	mov	r17,zero
   208e4:	0027883a 	mov	r19,zero
   208e8:	02000084 	movi	r8,2
   208ec:	003fcc06 	br	20820 <__alt_data_end+0xfffe1420>
   208f0:	8023883a 	mov	r17,r16
   208f4:	a827883a 	mov	r19,r21
   208f8:	4839883a 	mov	fp,r9
   208fc:	3811883a 	mov	r8,r7
   20900:	00800084 	movi	r2,2
   20904:	40812a1e 	bne	r8,r2,20db0 <__divdf3+0x60c>
   20908:	e025883a 	mov	r18,fp
   2090c:	9180004c 	andi	r6,r18,1
   20910:	0101ffc4 	movi	r4,2047
   20914:	000b883a 	mov	r5,zero
   20918:	0027883a 	mov	r19,zero
   2091c:	2008953a 	slli	r4,r4,20
   20920:	30c03fcc 	andi	r3,r6,255
   20924:	04000434 	movhi	r16,16
   20928:	180697fa 	slli	r3,r3,31
   2092c:	843fffc4 	addi	r16,r16,-1
   20930:	2c20703a 	and	r16,r5,r16
   20934:	8120b03a 	or	r16,r16,r4
   20938:	80c6b03a 	or	r3,r16,r3
   2093c:	9805883a 	mov	r2,r19
   20940:	dfc00d17 	ldw	ra,52(sp)
   20944:	df000c17 	ldw	fp,48(sp)
   20948:	ddc00b17 	ldw	r23,44(sp)
   2094c:	dd800a17 	ldw	r22,40(sp)
   20950:	dd400917 	ldw	r21,36(sp)
   20954:	dd000817 	ldw	r20,32(sp)
   20958:	dcc00717 	ldw	r19,28(sp)
   2095c:	dc800617 	ldw	r18,24(sp)
   20960:	dc400517 	ldw	r17,20(sp)
   20964:	dc000417 	ldw	r16,16(sp)
   20968:	dec00e04 	addi	sp,sp,56
   2096c:	f800283a 	ret
   20970:	8904b03a 	or	r2,r17,r4
   20974:	10003726 	beq	r2,zero,20a54 <__divdf3+0x2b0>
   20978:	88011c26 	beq	r17,zero,20dec <__divdf3+0x648>
   2097c:	8809883a 	mov	r4,r17
   20980:	d9800315 	stw	r6,12(sp)
   20984:	d9c00115 	stw	r7,4(sp)
   20988:	00223940 	call	22394 <__clzsi2>
   2098c:	d9800317 	ldw	r6,12(sp)
   20990:	d9c00117 	ldw	r7,4(sp)
   20994:	1007883a 	mov	r3,r2
   20998:	01000a04 	movi	r4,40
   2099c:	1cfffe04 	addi	r19,r3,-8
   209a0:	20c9c83a 	sub	r4,r4,r3
   209a4:	8cca983a 	sll	r5,r17,r19
   209a8:	9108d83a 	srl	r4,r18,r4
   209ac:	94e6983a 	sll	r19,r18,r19
   209b0:	2162b03a 	or	r17,r4,r5
   209b4:	053f0344 	movi	r20,-1011
   209b8:	a0e9c83a 	sub	r20,r20,r3
   209bc:	0025883a 	mov	r18,zero
   209c0:	0011883a 	mov	r8,zero
   209c4:	003f9606 	br	20820 <__alt_data_end+0xfffe1420>
   209c8:	8184b03a 	or	r2,r16,r6
   209cc:	10001f1e 	bne	r2,zero,20a4c <__divdf3+0x2a8>
   209d0:	0021883a 	mov	r16,zero
   209d4:	002b883a 	mov	r21,zero
   209d8:	01c00084 	movi	r7,2
   209dc:	003fa206 	br	20868 <__alt_data_end+0xfffe1468>
   209e0:	8184b03a 	or	r2,r16,r6
   209e4:	10001526 	beq	r2,zero,20a3c <__divdf3+0x298>
   209e8:	80010c26 	beq	r16,zero,20e1c <__divdf3+0x678>
   209ec:	8009883a 	mov	r4,r16
   209f0:	d9800315 	stw	r6,12(sp)
   209f4:	da000215 	stw	r8,8(sp)
   209f8:	da400015 	stw	r9,0(sp)
   209fc:	00223940 	call	22394 <__clzsi2>
   20a00:	d9800317 	ldw	r6,12(sp)
   20a04:	da000217 	ldw	r8,8(sp)
   20a08:	da400017 	ldw	r9,0(sp)
   20a0c:	1007883a 	mov	r3,r2
   20a10:	01000a04 	movi	r4,40
   20a14:	1d7ffe04 	addi	r21,r3,-8
   20a18:	20c9c83a 	sub	r4,r4,r3
   20a1c:	8560983a 	sll	r16,r16,r21
   20a20:	3108d83a 	srl	r4,r6,r4
   20a24:	356a983a 	sll	r21,r6,r21
   20a28:	2420b03a 	or	r16,r4,r16
   20a2c:	017f0344 	movi	r5,-1011
   20a30:	28cbc83a 	sub	r5,r5,r3
   20a34:	000f883a 	mov	r7,zero
   20a38:	003f8b06 	br	20868 <__alt_data_end+0xfffe1468>
   20a3c:	0021883a 	mov	r16,zero
   20a40:	002b883a 	mov	r21,zero
   20a44:	01c00044 	movi	r7,1
   20a48:	003f8706 	br	20868 <__alt_data_end+0xfffe1468>
   20a4c:	01c000c4 	movi	r7,3
   20a50:	003f8506 	br	20868 <__alt_data_end+0xfffe1468>
   20a54:	04800104 	movi	r18,4
   20a58:	0023883a 	mov	r17,zero
   20a5c:	0027883a 	mov	r19,zero
   20a60:	02000044 	movi	r8,1
   20a64:	003f6e06 	br	20820 <__alt_data_end+0xfffe1420>
   20a68:	04800304 	movi	r18,12
   20a6c:	020000c4 	movi	r8,3
   20a70:	003f6b06 	br	20820 <__alt_data_end+0xfffe1420>
   20a74:	01400434 	movhi	r5,16
   20a78:	000d883a 	mov	r6,zero
   20a7c:	297fffc4 	addi	r5,r5,-1
   20a80:	04ffffc4 	movi	r19,-1
   20a84:	0101ffc4 	movi	r4,2047
   20a88:	003fa406 	br	2091c <__alt_data_end+0xfffe151c>
   20a8c:	043f0084 	movi	r16,-1022
   20a90:	8521c83a 	sub	r16,r16,r20
   20a94:	00800e04 	movi	r2,56
   20a98:	1401200e 	bge	r2,r16,20f1c <__divdf3+0x778>
   20a9c:	9180004c 	andi	r6,r18,1
   20aa0:	0009883a 	mov	r4,zero
   20aa4:	000b883a 	mov	r5,zero
   20aa8:	0027883a 	mov	r19,zero
   20aac:	003f9b06 	br	2091c <__alt_data_end+0xfffe151c>
   20ab0:	8880022c 	andhi	r2,r17,8
   20ab4:	1000c726 	beq	r2,zero,20dd4 <__divdf3+0x630>
   20ab8:	8080022c 	andhi	r2,r16,8
   20abc:	1000c51e 	bne	r2,zero,20dd4 <__divdf3+0x630>
   20ac0:	00800434 	movhi	r2,16
   20ac4:	81400234 	orhi	r5,r16,8
   20ac8:	10bfffc4 	addi	r2,r2,-1
   20acc:	b80d883a 	mov	r6,r23
   20ad0:	288a703a 	and	r5,r5,r2
   20ad4:	a827883a 	mov	r19,r21
   20ad8:	003fea06 	br	20a84 <__alt_data_end+0xfffe1684>
   20adc:	8440ea36 	bltu	r16,r17,20e88 <__divdf3+0x6e4>
   20ae0:	8c00e826 	beq	r17,r16,20e84 <__divdf3+0x6e0>
   20ae4:	a53fffc4 	addi	r20,r20,-1
   20ae8:	882d883a 	mov	r22,r17
   20aec:	000d883a 	mov	r6,zero
   20af0:	a804d63a 	srli	r2,r21,24
   20af4:	8020923a 	slli	r16,r16,8
   20af8:	b009883a 	mov	r4,r22
   20afc:	d9800315 	stw	r6,12(sp)
   20b00:	1420b03a 	or	r16,r2,r16
   20b04:	802ed43a 	srli	r23,r16,16
   20b08:	873fffcc 	andi	fp,r16,65535
   20b0c:	a82a923a 	slli	r21,r21,8
   20b10:	b80b883a 	mov	r5,r23
   20b14:	00225140 	call	22514 <__udivsi3>
   20b18:	b009883a 	mov	r4,r22
   20b1c:	b80b883a 	mov	r5,r23
   20b20:	1023883a 	mov	r17,r2
   20b24:	002251c0 	call	2251c <__umodsi3>
   20b28:	1004943a 	slli	r2,r2,16
   20b2c:	9808d43a 	srli	r4,r19,16
   20b30:	8f2d383a 	mul	r22,r17,fp
   20b34:	d9800317 	ldw	r6,12(sp)
   20b38:	1106b03a 	or	r3,r2,r4
   20b3c:	1d80062e 	bgeu	r3,r22,20b58 <__divdf3+0x3b4>
   20b40:	1c07883a 	add	r3,r3,r16
   20b44:	88bfffc4 	addi	r2,r17,-1
   20b48:	1c00dc36 	bltu	r3,r16,20ebc <__divdf3+0x718>
   20b4c:	1d80db2e 	bgeu	r3,r22,20ebc <__divdf3+0x718>
   20b50:	8c7fff84 	addi	r17,r17,-2
   20b54:	1c07883a 	add	r3,r3,r16
   20b58:	1dadc83a 	sub	r22,r3,r22
   20b5c:	b009883a 	mov	r4,r22
   20b60:	b80b883a 	mov	r5,r23
   20b64:	d9800315 	stw	r6,12(sp)
   20b68:	00225140 	call	22514 <__udivsi3>
   20b6c:	b009883a 	mov	r4,r22
   20b70:	b80b883a 	mov	r5,r23
   20b74:	d8800015 	stw	r2,0(sp)
   20b78:	002251c0 	call	2251c <__umodsi3>
   20b7c:	da400017 	ldw	r9,0(sp)
   20b80:	1004943a 	slli	r2,r2,16
   20b84:	9cffffcc 	andi	r19,r19,65535
   20b88:	4f07383a 	mul	r3,r9,fp
   20b8c:	14c8b03a 	or	r4,r2,r19
   20b90:	d9800317 	ldw	r6,12(sp)
   20b94:	20c0062e 	bgeu	r4,r3,20bb0 <__divdf3+0x40c>
   20b98:	2409883a 	add	r4,r4,r16
   20b9c:	48bfffc4 	addi	r2,r9,-1
   20ba0:	2400c436 	bltu	r4,r16,20eb4 <__divdf3+0x710>
   20ba4:	20c0c32e 	bgeu	r4,r3,20eb4 <__divdf3+0x710>
   20ba8:	4a7fff84 	addi	r9,r9,-2
   20bac:	2409883a 	add	r4,r4,r16
   20bb0:	8822943a 	slli	r17,r17,16
   20bb4:	a80ed43a 	srli	r7,r21,16
   20bb8:	aa3fffcc 	andi	r8,r21,65535
   20bbc:	4c62b03a 	or	r17,r9,r17
   20bc0:	8816d43a 	srli	r11,r17,16
   20bc4:	897fffcc 	andi	r5,r17,65535
   20bc8:	2a15383a 	mul	r10,r5,r8
   20bcc:	5a19383a 	mul	r12,r11,r8
   20bd0:	29cb383a 	mul	r5,r5,r7
   20bd4:	5012d43a 	srli	r9,r10,16
   20bd8:	20c5c83a 	sub	r2,r4,r3
   20bdc:	614b883a 	add	r5,r12,r5
   20be0:	2a4b883a 	add	r5,r5,r9
   20be4:	59c7383a 	mul	r3,r11,r7
   20be8:	2b00022e 	bgeu	r5,r12,20bf4 <__divdf3+0x450>
   20bec:	01000074 	movhi	r4,1
   20bf0:	1907883a 	add	r3,r3,r4
   20bf4:	2808d43a 	srli	r4,r5,16
   20bf8:	280a943a 	slli	r5,r5,16
   20bfc:	54ffffcc 	andi	r19,r10,65535
   20c00:	1907883a 	add	r3,r3,r4
   20c04:	2ccb883a 	add	r5,r5,r19
   20c08:	10c09336 	bltu	r2,r3,20e58 <__divdf3+0x6b4>
   20c0c:	10c0ad26 	beq	r2,r3,20ec4 <__divdf3+0x720>
   20c10:	10c7c83a 	sub	r3,r2,r3
   20c14:	3167c83a 	sub	r19,r6,r5
   20c18:	34ed803a 	cmpltu	r22,r6,r19
   20c1c:	1dadc83a 	sub	r22,r3,r22
   20c20:	b400b226 	beq	r22,r16,20eec <__divdf3+0x748>
   20c24:	b009883a 	mov	r4,r22
   20c28:	b80b883a 	mov	r5,r23
   20c2c:	d9c00115 	stw	r7,4(sp)
   20c30:	da000215 	stw	r8,8(sp)
   20c34:	00225140 	call	22514 <__udivsi3>
   20c38:	b009883a 	mov	r4,r22
   20c3c:	b80b883a 	mov	r5,r23
   20c40:	d8800315 	stw	r2,12(sp)
   20c44:	002251c0 	call	2251c <__umodsi3>
   20c48:	d9800317 	ldw	r6,12(sp)
   20c4c:	1004943a 	slli	r2,r2,16
   20c50:	9808d43a 	srli	r4,r19,16
   20c54:	372d383a 	mul	r22,r6,fp
   20c58:	d9c00117 	ldw	r7,4(sp)
   20c5c:	1106b03a 	or	r3,r2,r4
   20c60:	da000217 	ldw	r8,8(sp)
   20c64:	1d80062e 	bgeu	r3,r22,20c80 <__divdf3+0x4dc>
   20c68:	1c07883a 	add	r3,r3,r16
   20c6c:	30bfffc4 	addi	r2,r6,-1
   20c70:	1c00a036 	bltu	r3,r16,20ef4 <__divdf3+0x750>
   20c74:	1d809f2e 	bgeu	r3,r22,20ef4 <__divdf3+0x750>
   20c78:	31bfff84 	addi	r6,r6,-2
   20c7c:	1c07883a 	add	r3,r3,r16
   20c80:	1dadc83a 	sub	r22,r3,r22
   20c84:	b009883a 	mov	r4,r22
   20c88:	b80b883a 	mov	r5,r23
   20c8c:	d9800315 	stw	r6,12(sp)
   20c90:	d9c00115 	stw	r7,4(sp)
   20c94:	da000215 	stw	r8,8(sp)
   20c98:	00225140 	call	22514 <__udivsi3>
   20c9c:	b009883a 	mov	r4,r22
   20ca0:	b80b883a 	mov	r5,r23
   20ca4:	d8800015 	stw	r2,0(sp)
   20ca8:	002251c0 	call	2251c <__umodsi3>
   20cac:	da400017 	ldw	r9,0(sp)
   20cb0:	1004943a 	slli	r2,r2,16
   20cb4:	993fffcc 	andi	r4,r19,65535
   20cb8:	4f39383a 	mul	fp,r9,fp
   20cbc:	1106b03a 	or	r3,r2,r4
   20cc0:	d9800317 	ldw	r6,12(sp)
   20cc4:	d9c00117 	ldw	r7,4(sp)
   20cc8:	da000217 	ldw	r8,8(sp)
   20ccc:	1f00062e 	bgeu	r3,fp,20ce8 <__divdf3+0x544>
   20cd0:	1c07883a 	add	r3,r3,r16
   20cd4:	48bfffc4 	addi	r2,r9,-1
   20cd8:	1c008836 	bltu	r3,r16,20efc <__divdf3+0x758>
   20cdc:	1f00872e 	bgeu	r3,fp,20efc <__divdf3+0x758>
   20ce0:	4a7fff84 	addi	r9,r9,-2
   20ce4:	1c07883a 	add	r3,r3,r16
   20ce8:	3008943a 	slli	r4,r6,16
   20cec:	1f07c83a 	sub	r3,r3,fp
   20cf0:	4926b03a 	or	r19,r9,r4
   20cf4:	993fffcc 	andi	r4,r19,65535
   20cf8:	980cd43a 	srli	r6,r19,16
   20cfc:	220b383a 	mul	r5,r4,r8
   20d00:	21c5383a 	mul	r2,r4,r7
   20d04:	3211383a 	mul	r8,r6,r8
   20d08:	2808d43a 	srli	r4,r5,16
   20d0c:	31cf383a 	mul	r7,r6,r7
   20d10:	4085883a 	add	r2,r8,r2
   20d14:	1105883a 	add	r2,r2,r4
   20d18:	1200022e 	bgeu	r2,r8,20d24 <__divdf3+0x580>
   20d1c:	01000074 	movhi	r4,1
   20d20:	390f883a 	add	r7,r7,r4
   20d24:	1008d43a 	srli	r4,r2,16
   20d28:	1004943a 	slli	r2,r2,16
   20d2c:	297fffcc 	andi	r5,r5,65535
   20d30:	390f883a 	add	r7,r7,r4
   20d34:	1145883a 	add	r2,r2,r5
   20d38:	19c06536 	bltu	r3,r7,20ed0 <__divdf3+0x72c>
   20d3c:	19c09f26 	beq	r3,r7,20fbc <__divdf3+0x818>
   20d40:	9cc00054 	ori	r19,r19,1
   20d44:	a100ffc4 	addi	r4,r20,1023
   20d48:	013f500e 	bge	zero,r4,20a8c <__alt_data_end+0xfffe168c>
   20d4c:	988001cc 	andi	r2,r19,7
   20d50:	10000726 	beq	r2,zero,20d70 <__divdf3+0x5cc>
   20d54:	98c003cc 	andi	r3,r19,15
   20d58:	00800104 	movi	r2,4
   20d5c:	18800426 	beq	r3,r2,20d70 <__divdf3+0x5cc>
   20d60:	9885883a 	add	r2,r19,r2
   20d64:	14e1803a 	cmpltu	r16,r2,r19
   20d68:	8c23883a 	add	r17,r17,r16
   20d6c:	1027883a 	mov	r19,r2
   20d70:	8880402c 	andhi	r2,r17,256
   20d74:	10000426 	beq	r2,zero,20d88 <__divdf3+0x5e4>
   20d78:	00bfc034 	movhi	r2,65280
   20d7c:	10bfffc4 	addi	r2,r2,-1
   20d80:	a1010004 	addi	r4,r20,1024
   20d84:	88a2703a 	and	r17,r17,r2
   20d88:	0081ff84 	movi	r2,2046
   20d8c:	113edf16 	blt	r2,r4,2090c <__alt_data_end+0xfffe150c>
   20d90:	9826d0fa 	srli	r19,r19,3
   20d94:	8804977a 	slli	r2,r17,29
   20d98:	8820927a 	slli	r16,r17,9
   20d9c:	2101ffcc 	andi	r4,r4,2047
   20da0:	14e6b03a 	or	r19,r2,r19
   20da4:	800ad33a 	srli	r5,r16,12
   20da8:	9180004c 	andi	r6,r18,1
   20dac:	003edb06 	br	2091c <__alt_data_end+0xfffe151c>
   20db0:	008000c4 	movi	r2,3
   20db4:	4080a826 	beq	r8,r2,21058 <__divdf3+0x8b4>
   20db8:	00800044 	movi	r2,1
   20dbc:	4080551e 	bne	r8,r2,20f14 <__divdf3+0x770>
   20dc0:	e00d883a 	mov	r6,fp
   20dc4:	0009883a 	mov	r4,zero
   20dc8:	000b883a 	mov	r5,zero
   20dcc:	0027883a 	mov	r19,zero
   20dd0:	003ed206 	br	2091c <__alt_data_end+0xfffe151c>
   20dd4:	00800434 	movhi	r2,16
   20dd8:	89400234 	orhi	r5,r17,8
   20ddc:	10bfffc4 	addi	r2,r2,-1
   20de0:	b00d883a 	mov	r6,r22
   20de4:	288a703a 	and	r5,r5,r2
   20de8:	003f2606 	br	20a84 <__alt_data_end+0xfffe1684>
   20dec:	d9800315 	stw	r6,12(sp)
   20df0:	d9c00115 	stw	r7,4(sp)
   20df4:	00223940 	call	22394 <__clzsi2>
   20df8:	10c00804 	addi	r3,r2,32
   20dfc:	010009c4 	movi	r4,39
   20e00:	d9800317 	ldw	r6,12(sp)
   20e04:	d9c00117 	ldw	r7,4(sp)
   20e08:	20fee30e 	bge	r4,r3,20998 <__alt_data_end+0xfffe1598>
   20e0c:	117ffe04 	addi	r5,r2,-8
   20e10:	9162983a 	sll	r17,r18,r5
   20e14:	0027883a 	mov	r19,zero
   20e18:	003ee606 	br	209b4 <__alt_data_end+0xfffe15b4>
   20e1c:	3009883a 	mov	r4,r6
   20e20:	d9800315 	stw	r6,12(sp)
   20e24:	da000215 	stw	r8,8(sp)
   20e28:	da400015 	stw	r9,0(sp)
   20e2c:	00223940 	call	22394 <__clzsi2>
   20e30:	10c00804 	addi	r3,r2,32
   20e34:	010009c4 	movi	r4,39
   20e38:	d9800317 	ldw	r6,12(sp)
   20e3c:	da000217 	ldw	r8,8(sp)
   20e40:	da400017 	ldw	r9,0(sp)
   20e44:	20fef20e 	bge	r4,r3,20a10 <__alt_data_end+0xfffe1610>
   20e48:	10bffe04 	addi	r2,r2,-8
   20e4c:	a8a0983a 	sll	r16,r21,r2
   20e50:	002b883a 	mov	r21,zero
   20e54:	003ef506 	br	20a2c <__alt_data_end+0xfffe162c>
   20e58:	354d883a 	add	r6,r6,r21
   20e5c:	3549803a 	cmpltu	r4,r6,r21
   20e60:	2409883a 	add	r4,r4,r16
   20e64:	2089883a 	add	r4,r4,r2
   20e68:	88bfffc4 	addi	r2,r17,-1
   20e6c:	81000c2e 	bgeu	r16,r4,20ea0 <__divdf3+0x6fc>
   20e70:	20c04436 	bltu	r4,r3,20f84 <__divdf3+0x7e0>
   20e74:	19006f26 	beq	r3,r4,21034 <__divdf3+0x890>
   20e78:	20c7c83a 	sub	r3,r4,r3
   20e7c:	1023883a 	mov	r17,r2
   20e80:	003f6406 	br	20c14 <__alt_data_end+0xfffe1814>
   20e84:	9d7f1736 	bltu	r19,r21,20ae4 <__alt_data_end+0xfffe16e4>
   20e88:	9806d07a 	srli	r3,r19,1
   20e8c:	880497fa 	slli	r2,r17,31
   20e90:	980c97fa 	slli	r6,r19,31
   20e94:	882cd07a 	srli	r22,r17,1
   20e98:	18a6b03a 	or	r19,r3,r2
   20e9c:	003f1406 	br	20af0 <__alt_data_end+0xfffe16f0>
   20ea0:	243ff51e 	bne	r4,r16,20e78 <__alt_data_end+0xfffe1a78>
   20ea4:	357ff22e 	bgeu	r6,r21,20e70 <__alt_data_end+0xfffe1a70>
   20ea8:	80c7c83a 	sub	r3,r16,r3
   20eac:	1023883a 	mov	r17,r2
   20eb0:	003f5806 	br	20c14 <__alt_data_end+0xfffe1814>
   20eb4:	1013883a 	mov	r9,r2
   20eb8:	003f3d06 	br	20bb0 <__alt_data_end+0xfffe17b0>
   20ebc:	1023883a 	mov	r17,r2
   20ec0:	003f2506 	br	20b58 <__alt_data_end+0xfffe1758>
   20ec4:	317fe436 	bltu	r6,r5,20e58 <__alt_data_end+0xfffe1a58>
   20ec8:	0007883a 	mov	r3,zero
   20ecc:	003f5106 	br	20c14 <__alt_data_end+0xfffe1814>
   20ed0:	1c07883a 	add	r3,r3,r16
   20ed4:	993fffc4 	addi	r4,r19,-1
   20ed8:	1c000a2e 	bgeu	r3,r16,20f04 <__divdf3+0x760>
   20edc:	2027883a 	mov	r19,r4
   20ee0:	19ff971e 	bne	r3,r7,20d40 <__alt_data_end+0xfffe1940>
   20ee4:	a8bf961e 	bne	r21,r2,20d40 <__alt_data_end+0xfffe1940>
   20ee8:	003f9606 	br	20d44 <__alt_data_end+0xfffe1944>
   20eec:	04ffffc4 	movi	r19,-1
   20ef0:	003f9406 	br	20d44 <__alt_data_end+0xfffe1944>
   20ef4:	100d883a 	mov	r6,r2
   20ef8:	003f6106 	br	20c80 <__alt_data_end+0xfffe1880>
   20efc:	1013883a 	mov	r9,r2
   20f00:	003f7906 	br	20ce8 <__alt_data_end+0xfffe18e8>
   20f04:	19c02636 	bltu	r3,r7,20fa0 <__divdf3+0x7fc>
   20f08:	38c04d26 	beq	r7,r3,21040 <__divdf3+0x89c>
   20f0c:	2027883a 	mov	r19,r4
   20f10:	003f8b06 	br	20d40 <__alt_data_end+0xfffe1940>
   20f14:	e025883a 	mov	r18,fp
   20f18:	003f8a06 	br	20d44 <__alt_data_end+0xfffe1944>
   20f1c:	008007c4 	movi	r2,31
   20f20:	14002a16 	blt	r2,r16,20fcc <__divdf3+0x828>
   20f24:	a5010784 	addi	r20,r20,1054
   20f28:	8d04983a 	sll	r2,r17,r20
   20f2c:	9c06d83a 	srl	r3,r19,r16
   20f30:	9d28983a 	sll	r20,r19,r20
   20f34:	8c20d83a 	srl	r16,r17,r16
   20f38:	1886b03a 	or	r3,r3,r2
   20f3c:	a004c03a 	cmpne	r2,r20,zero
   20f40:	1884b03a 	or	r2,r3,r2
   20f44:	10c001cc 	andi	r3,r2,7
   20f48:	18000726 	beq	r3,zero,20f68 <__divdf3+0x7c4>
   20f4c:	110003cc 	andi	r4,r2,15
   20f50:	00c00104 	movi	r3,4
   20f54:	20c00426 	beq	r4,r3,20f68 <__divdf3+0x7c4>
   20f58:	10c00104 	addi	r3,r2,4
   20f5c:	1885803a 	cmpltu	r2,r3,r2
   20f60:	80a1883a 	add	r16,r16,r2
   20f64:	1805883a 	mov	r2,r3
   20f68:	80c0202c 	andhi	r3,r16,128
   20f6c:	18002d26 	beq	r3,zero,21024 <__divdf3+0x880>
   20f70:	9180004c 	andi	r6,r18,1
   20f74:	01000044 	movi	r4,1
   20f78:	000b883a 	mov	r5,zero
   20f7c:	0027883a 	mov	r19,zero
   20f80:	003e6606 	br	2091c <__alt_data_end+0xfffe151c>
   20f84:	354d883a 	add	r6,r6,r21
   20f88:	356d803a 	cmpltu	r22,r6,r21
   20f8c:	b42d883a 	add	r22,r22,r16
   20f90:	b12d883a 	add	r22,r22,r4
   20f94:	8c7fff84 	addi	r17,r17,-2
   20f98:	b0c7c83a 	sub	r3,r22,r3
   20f9c:	003f1d06 	br	20c14 <__alt_data_end+0xfffe1814>
   20fa0:	ad4b883a 	add	r5,r21,r21
   20fa4:	2d6b803a 	cmpltu	r21,r5,r21
   20fa8:	ac2b883a 	add	r21,r21,r16
   20fac:	1d47883a 	add	r3,r3,r21
   20fb0:	993fff84 	addi	r4,r19,-2
   20fb4:	282b883a 	mov	r21,r5
   20fb8:	003fc806 	br	20edc <__alt_data_end+0xfffe1adc>
   20fbc:	103fc41e 	bne	r2,zero,20ed0 <__alt_data_end+0xfffe1ad0>
   20fc0:	002b883a 	mov	r21,zero
   20fc4:	a8bf5e1e 	bne	r21,r2,20d40 <__alt_data_end+0xfffe1940>
   20fc8:	003f5e06 	br	20d44 <__alt_data_end+0xfffe1944>
   20fcc:	00bef884 	movi	r2,-1054
   20fd0:	1505c83a 	sub	r2,r2,r20
   20fd4:	00c00804 	movi	r3,32
   20fd8:	8884d83a 	srl	r2,r17,r2
   20fdc:	80c01c26 	beq	r16,r3,21050 <__divdf3+0x8ac>
   20fe0:	a0c10f84 	addi	r3,r20,1086
   20fe4:	88c6983a 	sll	r3,r17,r3
   20fe8:	1cc6b03a 	or	r3,r3,r19
   20fec:	1806c03a 	cmpne	r3,r3,zero
   20ff0:	1884b03a 	or	r2,r3,r2
   20ff4:	140001cc 	andi	r16,r2,7
   20ff8:	8000061e 	bne	r16,zero,21014 <__divdf3+0x870>
   20ffc:	000b883a 	mov	r5,zero
   21000:	1004d0fa 	srli	r2,r2,3
   21004:	9180004c 	andi	r6,r18,1
   21008:	0009883a 	mov	r4,zero
   2100c:	1426b03a 	or	r19,r2,r16
   21010:	003e4206 	br	2091c <__alt_data_end+0xfffe151c>
   21014:	110003cc 	andi	r4,r2,15
   21018:	00c00104 	movi	r3,4
   2101c:	0021883a 	mov	r16,zero
   21020:	20ffcd1e 	bne	r4,r3,20f58 <__alt_data_end+0xfffe1b58>
   21024:	800a927a 	slli	r5,r16,9
   21028:	8020977a 	slli	r16,r16,29
   2102c:	280ad33a 	srli	r5,r5,12
   21030:	003ff306 	br	21000 <__alt_data_end+0xfffe1c00>
   21034:	317fd336 	bltu	r6,r5,20f84 <__alt_data_end+0xfffe1b84>
   21038:	1023883a 	mov	r17,r2
   2103c:	003fa206 	br	20ec8 <__alt_data_end+0xfffe1ac8>
   21040:	a8bfd736 	bltu	r21,r2,20fa0 <__alt_data_end+0xfffe1ba0>
   21044:	2027883a 	mov	r19,r4
   21048:	a8bf3d1e 	bne	r21,r2,20d40 <__alt_data_end+0xfffe1940>
   2104c:	003f3d06 	br	20d44 <__alt_data_end+0xfffe1944>
   21050:	0007883a 	mov	r3,zero
   21054:	003fe406 	br	20fe8 <__alt_data_end+0xfffe1be8>
   21058:	00800434 	movhi	r2,16
   2105c:	89400234 	orhi	r5,r17,8
   21060:	10bfffc4 	addi	r2,r2,-1
   21064:	e00d883a 	mov	r6,fp
   21068:	288a703a 	and	r5,r5,r2
   2106c:	003e8506 	br	20a84 <__alt_data_end+0xfffe1684>

00021070 <__muldf3>:
   21070:	defff204 	addi	sp,sp,-56
   21074:	2804d53a 	srli	r2,r5,20
   21078:	dd800a15 	stw	r22,40(sp)
   2107c:	282cd7fa 	srli	r22,r5,31
   21080:	dc000415 	stw	r16,16(sp)
   21084:	04000434 	movhi	r16,16
   21088:	df000c15 	stw	fp,48(sp)
   2108c:	dd000815 	stw	r20,32(sp)
   21090:	dcc00715 	stw	r19,28(sp)
   21094:	dc800615 	stw	r18,24(sp)
   21098:	dc400515 	stw	r17,20(sp)
   2109c:	843fffc4 	addi	r16,r16,-1
   210a0:	dfc00d15 	stw	ra,52(sp)
   210a4:	ddc00b15 	stw	r23,44(sp)
   210a8:	dd400915 	stw	r21,36(sp)
   210ac:	1501ffcc 	andi	r20,r2,2047
   210b0:	2023883a 	mov	r17,r4
   210b4:	2025883a 	mov	r18,r4
   210b8:	2c20703a 	and	r16,r5,r16
   210bc:	b027883a 	mov	r19,r22
   210c0:	b7003fcc 	andi	fp,r22,255
   210c4:	a0005926 	beq	r20,zero,2122c <__muldf3+0x1bc>
   210c8:	0081ffc4 	movi	r2,2047
   210cc:	a0803426 	beq	r20,r2,211a0 <__muldf3+0x130>
   210d0:	84000434 	orhi	r16,r16,16
   210d4:	2004d77a 	srli	r2,r4,29
   210d8:	802090fa 	slli	r16,r16,3
   210dc:	202490fa 	slli	r18,r4,3
   210e0:	a53f0044 	addi	r20,r20,-1023
   210e4:	80a0b03a 	or	r16,r16,r2
   210e8:	002b883a 	mov	r21,zero
   210ec:	0015883a 	mov	r10,zero
   210f0:	3812d53a 	srli	r9,r7,20
   210f4:	3806d7fa 	srli	r3,r7,31
   210f8:	02000434 	movhi	r8,16
   210fc:	423fffc4 	addi	r8,r8,-1
   21100:	4941ffcc 	andi	r5,r9,2047
   21104:	302f883a 	mov	r23,r6
   21108:	3a22703a 	and	r17,r7,r8
   2110c:	1ac03fcc 	andi	r11,r3,255
   21110:	28006226 	beq	r5,zero,2129c <__muldf3+0x22c>
   21114:	0081ffc4 	movi	r2,2047
   21118:	28805a26 	beq	r5,r2,21284 <__muldf3+0x214>
   2111c:	8a000434 	orhi	r8,r17,16
   21120:	3004d77a 	srli	r2,r6,29
   21124:	401090fa 	slli	r8,r8,3
   21128:	302e90fa 	slli	r23,r6,3
   2112c:	297f0044 	addi	r5,r5,-1023
   21130:	40a2b03a 	or	r17,r8,r2
   21134:	0013883a 	mov	r9,zero
   21138:	4d4cb03a 	or	r6,r9,r21
   2113c:	300c90ba 	slli	r6,r6,2
   21140:	020000b4 	movhi	r8,2
   21144:	42045804 	addi	r8,r8,4448
   21148:	320d883a 	add	r6,r6,r8
   2114c:	31800017 	ldw	r6,0(r6)
   21150:	a14b883a 	add	r5,r20,r5
   21154:	1dacf03a 	xor	r22,r3,r22
   21158:	2b000044 	addi	r12,r5,1
   2115c:	3000683a 	jmp	r6
   21160:	0002139c 	xori	zero,zero,2126
   21164:	00021388 	cmpgei	zero,zero,2126
   21168:	00021388 	cmpgei	zero,zero,2126
   2116c:	00021374 	movhi	zero,2125
   21170:	000211bc 	xorhi	zero,zero,2118
   21174:	000211bc 	xorhi	zero,zero,2118
   21178:	0002135c 	xori	zero,zero,2125
   2117c:	00021374 	movhi	zero,2125
   21180:	000211bc 	xorhi	zero,zero,2118
   21184:	0002135c 	xori	zero,zero,2125
   21188:	000211bc 	xorhi	zero,zero,2118
   2118c:	00021374 	movhi	zero,2125
   21190:	000211c0 	call	211c <__reset-0x1dee4>
   21194:	000211c0 	call	211c <__reset-0x1dee4>
   21198:	000211c0 	call	211c <__reset-0x1dee4>
   2119c:	00021598 	cmpnei	zero,zero,2134
   211a0:	8104b03a 	or	r2,r16,r4
   211a4:	10006a1e 	bne	r2,zero,21350 <__muldf3+0x2e0>
   211a8:	05400204 	movi	r21,8
   211ac:	0021883a 	mov	r16,zero
   211b0:	0025883a 	mov	r18,zero
   211b4:	02800084 	movi	r10,2
   211b8:	003fcd06 	br	210f0 <__alt_data_end+0xfffe1cf0>
   211bc:	b039883a 	mov	fp,r22
   211c0:	00800084 	movi	r2,2
   211c4:	50804e1e 	bne	r10,r2,21300 <__muldf3+0x290>
   211c8:	e4c0004c 	andi	r19,fp,1
   211cc:	0101ffc4 	movi	r4,2047
   211d0:	0021883a 	mov	r16,zero
   211d4:	0025883a 	mov	r18,zero
   211d8:	2008953a 	slli	r4,r4,20
   211dc:	98c03fcc 	andi	r3,r19,255
   211e0:	01400434 	movhi	r5,16
   211e4:	297fffc4 	addi	r5,r5,-1
   211e8:	180697fa 	slli	r3,r3,31
   211ec:	8160703a 	and	r16,r16,r5
   211f0:	8120b03a 	or	r16,r16,r4
   211f4:	80c6b03a 	or	r3,r16,r3
   211f8:	9005883a 	mov	r2,r18
   211fc:	dfc00d17 	ldw	ra,52(sp)
   21200:	df000c17 	ldw	fp,48(sp)
   21204:	ddc00b17 	ldw	r23,44(sp)
   21208:	dd800a17 	ldw	r22,40(sp)
   2120c:	dd400917 	ldw	r21,36(sp)
   21210:	dd000817 	ldw	r20,32(sp)
   21214:	dcc00717 	ldw	r19,28(sp)
   21218:	dc800617 	ldw	r18,24(sp)
   2121c:	dc400517 	ldw	r17,20(sp)
   21220:	dc000417 	ldw	r16,16(sp)
   21224:	dec00e04 	addi	sp,sp,56
   21228:	f800283a 	ret
   2122c:	8104b03a 	or	r2,r16,r4
   21230:	10004226 	beq	r2,zero,2133c <__muldf3+0x2cc>
   21234:	8000f926 	beq	r16,zero,2161c <__muldf3+0x5ac>
   21238:	8009883a 	mov	r4,r16
   2123c:	d9800315 	stw	r6,12(sp)
   21240:	d9c00015 	stw	r7,0(sp)
   21244:	00223940 	call	22394 <__clzsi2>
   21248:	d9800317 	ldw	r6,12(sp)
   2124c:	d9c00017 	ldw	r7,0(sp)
   21250:	1007883a 	mov	r3,r2
   21254:	01000a04 	movi	r4,40
   21258:	18bffe04 	addi	r2,r3,-8
   2125c:	20c9c83a 	sub	r4,r4,r3
   21260:	80a0983a 	sll	r16,r16,r2
   21264:	8908d83a 	srl	r4,r17,r4
   21268:	88a4983a 	sll	r18,r17,r2
   2126c:	2420b03a 	or	r16,r4,r16
   21270:	017f0344 	movi	r5,-1011
   21274:	28e9c83a 	sub	r20,r5,r3
   21278:	002b883a 	mov	r21,zero
   2127c:	0015883a 	mov	r10,zero
   21280:	003f9b06 	br	210f0 <__alt_data_end+0xfffe1cf0>
   21284:	8984b03a 	or	r2,r17,r6
   21288:	10002a1e 	bne	r2,zero,21334 <__muldf3+0x2c4>
   2128c:	0023883a 	mov	r17,zero
   21290:	002f883a 	mov	r23,zero
   21294:	02400084 	movi	r9,2
   21298:	003fa706 	br	21138 <__alt_data_end+0xfffe1d38>
   2129c:	8984b03a 	or	r2,r17,r6
   212a0:	10002026 	beq	r2,zero,21324 <__muldf3+0x2b4>
   212a4:	8800cc26 	beq	r17,zero,215d8 <__muldf3+0x568>
   212a8:	8809883a 	mov	r4,r17
   212ac:	d8c00215 	stw	r3,8(sp)
   212b0:	d9800315 	stw	r6,12(sp)
   212b4:	da800015 	stw	r10,0(sp)
   212b8:	dac00115 	stw	r11,4(sp)
   212bc:	00223940 	call	22394 <__clzsi2>
   212c0:	d8c00217 	ldw	r3,8(sp)
   212c4:	d9800317 	ldw	r6,12(sp)
   212c8:	da800017 	ldw	r10,0(sp)
   212cc:	dac00117 	ldw	r11,4(sp)
   212d0:	1009883a 	mov	r4,r2
   212d4:	01400a04 	movi	r5,40
   212d8:	25fffe04 	addi	r23,r4,-8
   212dc:	290bc83a 	sub	r5,r5,r4
   212e0:	8dd0983a 	sll	r8,r17,r23
   212e4:	314ad83a 	srl	r5,r6,r5
   212e8:	35ee983a 	sll	r23,r6,r23
   212ec:	2a22b03a 	or	r17,r5,r8
   212f0:	017f0344 	movi	r5,-1011
   212f4:	290bc83a 	sub	r5,r5,r4
   212f8:	0013883a 	mov	r9,zero
   212fc:	003f8e06 	br	21138 <__alt_data_end+0xfffe1d38>
   21300:	008000c4 	movi	r2,3
   21304:	50811d26 	beq	r10,r2,2177c <__muldf3+0x70c>
   21308:	00800044 	movi	r2,1
   2130c:	5080e01e 	bne	r10,r2,21690 <__muldf3+0x620>
   21310:	e0a6703a 	and	r19,fp,r2
   21314:	0009883a 	mov	r4,zero
   21318:	0021883a 	mov	r16,zero
   2131c:	0025883a 	mov	r18,zero
   21320:	003fad06 	br	211d8 <__alt_data_end+0xfffe1dd8>
   21324:	0023883a 	mov	r17,zero
   21328:	002f883a 	mov	r23,zero
   2132c:	02400044 	movi	r9,1
   21330:	003f8106 	br	21138 <__alt_data_end+0xfffe1d38>
   21334:	024000c4 	movi	r9,3
   21338:	003f7f06 	br	21138 <__alt_data_end+0xfffe1d38>
   2133c:	05400104 	movi	r21,4
   21340:	0021883a 	mov	r16,zero
   21344:	0025883a 	mov	r18,zero
   21348:	02800044 	movi	r10,1
   2134c:	003f6806 	br	210f0 <__alt_data_end+0xfffe1cf0>
   21350:	05400304 	movi	r21,12
   21354:	028000c4 	movi	r10,3
   21358:	003f6506 	br	210f0 <__alt_data_end+0xfffe1cf0>
   2135c:	04000434 	movhi	r16,16
   21360:	0027883a 	mov	r19,zero
   21364:	843fffc4 	addi	r16,r16,-1
   21368:	04bfffc4 	movi	r18,-1
   2136c:	0101ffc4 	movi	r4,2047
   21370:	003f9906 	br	211d8 <__alt_data_end+0xfffe1dd8>
   21374:	8821883a 	mov	r16,r17
   21378:	b825883a 	mov	r18,r23
   2137c:	5839883a 	mov	fp,r11
   21380:	4815883a 	mov	r10,r9
   21384:	003f8e06 	br	211c0 <__alt_data_end+0xfffe1dc0>
   21388:	8821883a 	mov	r16,r17
   2138c:	b825883a 	mov	r18,r23
   21390:	b039883a 	mov	fp,r22
   21394:	4815883a 	mov	r10,r9
   21398:	003f8906 	br	211c0 <__alt_data_end+0xfffe1dc0>
   2139c:	b80cd43a 	srli	r6,r23,16
   213a0:	9006d43a 	srli	r3,r18,16
   213a4:	90bfffcc 	andi	r2,r18,65535
   213a8:	bdffffcc 	andi	r23,r23,65535
   213ac:	b891383a 	mul	r8,r23,r2
   213b0:	b8c9383a 	mul	r4,r23,r3
   213b4:	309b383a 	mul	r13,r6,r2
   213b8:	400ed43a 	srli	r7,r8,16
   213bc:	30df383a 	mul	r15,r6,r3
   213c0:	235b883a 	add	r13,r4,r13
   213c4:	69db883a 	add	r13,r13,r7
   213c8:	6900022e 	bgeu	r13,r4,213d4 <__muldf3+0x364>
   213cc:	01000074 	movhi	r4,1
   213d0:	791f883a 	add	r15,r15,r4
   213d4:	8828d43a 	srli	r20,r17,16
   213d8:	8c7fffcc 	andi	r17,r17,65535
   213dc:	888f383a 	mul	r7,r17,r2
   213e0:	88d3383a 	mul	r9,r17,r3
   213e4:	a0a5383a 	mul	r18,r20,r2
   213e8:	3816d43a 	srli	r11,r7,16
   213ec:	6814943a 	slli	r10,r13,16
   213f0:	4ca5883a 	add	r18,r9,r18
   213f4:	423fffcc 	andi	r8,r8,65535
   213f8:	92e5883a 	add	r18,r18,r11
   213fc:	6808d43a 	srli	r4,r13,16
   21400:	5215883a 	add	r10,r10,r8
   21404:	a0c7383a 	mul	r3,r20,r3
   21408:	9240022e 	bgeu	r18,r9,21414 <__muldf3+0x3a4>
   2140c:	00800074 	movhi	r2,1
   21410:	1887883a 	add	r3,r3,r2
   21414:	802ad43a 	srli	r21,r16,16
   21418:	80bfffcc 	andi	r2,r16,65535
   2141c:	b893383a 	mul	r9,r23,r2
   21420:	3091383a 	mul	r8,r6,r2
   21424:	bd6f383a 	mul	r23,r23,r21
   21428:	9026943a 	slli	r19,r18,16
   2142c:	481ad43a 	srli	r13,r9,16
   21430:	9024d43a 	srli	r18,r18,16
   21434:	39ffffcc 	andi	r7,r7,65535
   21438:	ba11883a 	add	r8,r23,r8
   2143c:	99e7883a 	add	r19,r19,r7
   21440:	4351883a 	add	r8,r8,r13
   21444:	1c97883a 	add	r11,r3,r18
   21448:	354d383a 	mul	r6,r6,r21
   2144c:	9925883a 	add	r18,r19,r4
   21450:	45c0022e 	bgeu	r8,r23,2145c <__muldf3+0x3ec>
   21454:	00c00074 	movhi	r3,1
   21458:	30cd883a 	add	r6,r6,r3
   2145c:	8889383a 	mul	r4,r17,r2
   21460:	8d63383a 	mul	r17,r17,r21
   21464:	a085383a 	mul	r2,r20,r2
   21468:	200ed43a 	srli	r7,r4,16
   2146c:	401cd43a 	srli	r14,r8,16
   21470:	401a943a 	slli	r13,r8,16
   21474:	8885883a 	add	r2,r17,r2
   21478:	4a3fffcc 	andi	r8,r9,65535
   2147c:	11c5883a 	add	r2,r2,r7
   21480:	339d883a 	add	r14,r6,r14
   21484:	6a11883a 	add	r8,r13,r8
   21488:	a561383a 	mul	r16,r20,r21
   2148c:	1440022e 	bgeu	r2,r17,21498 <__muldf3+0x428>
   21490:	00c00074 	movhi	r3,1
   21494:	80e1883a 	add	r16,r16,r3
   21498:	1006943a 	slli	r3,r2,16
   2149c:	213fffcc 	andi	r4,r4,65535
   214a0:	93db883a 	add	r13,r18,r15
   214a4:	1909883a 	add	r4,r3,r4
   214a8:	22c7883a 	add	r3,r4,r11
   214ac:	6cd3803a 	cmpltu	r9,r13,r19
   214b0:	6a09883a 	add	r4,r13,r8
   214b4:	1a5b883a 	add	r13,r3,r9
   214b8:	2211803a 	cmpltu	r8,r4,r8
   214bc:	734d883a 	add	r6,r14,r13
   214c0:	100ed43a 	srli	r7,r2,16
   214c4:	6a53803a 	cmpltu	r9,r13,r9
   214c8:	3205883a 	add	r2,r6,r8
   214cc:	1ac7803a 	cmpltu	r3,r3,r11
   214d0:	1211803a 	cmpltu	r8,r2,r8
   214d4:	48c6b03a 	or	r3,r9,r3
   214d8:	338d803a 	cmpltu	r6,r6,r14
   214dc:	19c7883a 	add	r3,r3,r7
   214e0:	418cb03a 	or	r6,r8,r6
   214e4:	1987883a 	add	r3,r3,r6
   214e8:	2024927a 	slli	r18,r4,9
   214ec:	1c07883a 	add	r3,r3,r16
   214f0:	1806927a 	slli	r3,r3,9
   214f4:	1020d5fa 	srli	r16,r2,23
   214f8:	2008d5fa 	srli	r4,r4,23
   214fc:	9294b03a 	or	r10,r18,r10
   21500:	1004927a 	slli	r2,r2,9
   21504:	5024c03a 	cmpne	r18,r10,zero
   21508:	1c20b03a 	or	r16,r3,r16
   2150c:	9108b03a 	or	r4,r18,r4
   21510:	80c0402c 	andhi	r3,r16,256
   21514:	20a4b03a 	or	r18,r4,r2
   21518:	18000726 	beq	r3,zero,21538 <__muldf3+0x4c8>
   2151c:	9006d07a 	srli	r3,r18,1
   21520:	800897fa 	slli	r4,r16,31
   21524:	9080004c 	andi	r2,r18,1
   21528:	8020d07a 	srli	r16,r16,1
   2152c:	10c4b03a 	or	r2,r2,r3
   21530:	1124b03a 	or	r18,r2,r4
   21534:	600b883a 	mov	r5,r12
   21538:	2900ffc4 	addi	r4,r5,1023
   2153c:	01004b0e 	bge	zero,r4,2166c <__muldf3+0x5fc>
   21540:	908001cc 	andi	r2,r18,7
   21544:	10000726 	beq	r2,zero,21564 <__muldf3+0x4f4>
   21548:	90c003cc 	andi	r3,r18,15
   2154c:	00800104 	movi	r2,4
   21550:	18800426 	beq	r3,r2,21564 <__muldf3+0x4f4>
   21554:	9087883a 	add	r3,r18,r2
   21558:	1c85803a 	cmpltu	r2,r3,r18
   2155c:	80a1883a 	add	r16,r16,r2
   21560:	1825883a 	mov	r18,r3
   21564:	8080402c 	andhi	r2,r16,256
   21568:	10000426 	beq	r2,zero,2157c <__muldf3+0x50c>
   2156c:	00bfc034 	movhi	r2,65280
   21570:	10bfffc4 	addi	r2,r2,-1
   21574:	29010004 	addi	r4,r5,1024
   21578:	80a0703a 	and	r16,r16,r2
   2157c:	0081ff84 	movi	r2,2046
   21580:	1100320e 	bge	r2,r4,2164c <__muldf3+0x5dc>
   21584:	b4c0004c 	andi	r19,r22,1
   21588:	0101ffc4 	movi	r4,2047
   2158c:	0021883a 	mov	r16,zero
   21590:	0025883a 	mov	r18,zero
   21594:	003f1006 	br	211d8 <__alt_data_end+0xfffe1dd8>
   21598:	8080022c 	andhi	r2,r16,8
   2159c:	10000926 	beq	r2,zero,215c4 <__muldf3+0x554>
   215a0:	8880022c 	andhi	r2,r17,8
   215a4:	1000071e 	bne	r2,zero,215c4 <__muldf3+0x554>
   215a8:	00800434 	movhi	r2,16
   215ac:	8c000234 	orhi	r16,r17,8
   215b0:	10bfffc4 	addi	r2,r2,-1
   215b4:	1827883a 	mov	r19,r3
   215b8:	80a0703a 	and	r16,r16,r2
   215bc:	b825883a 	mov	r18,r23
   215c0:	003f6a06 	br	2136c <__alt_data_end+0xfffe1f6c>
   215c4:	00800434 	movhi	r2,16
   215c8:	84000234 	orhi	r16,r16,8
   215cc:	10bfffc4 	addi	r2,r2,-1
   215d0:	80a0703a 	and	r16,r16,r2
   215d4:	003f6506 	br	2136c <__alt_data_end+0xfffe1f6c>
   215d8:	3009883a 	mov	r4,r6
   215dc:	d8c00215 	stw	r3,8(sp)
   215e0:	d9800315 	stw	r6,12(sp)
   215e4:	da800015 	stw	r10,0(sp)
   215e8:	dac00115 	stw	r11,4(sp)
   215ec:	00223940 	call	22394 <__clzsi2>
   215f0:	11000804 	addi	r4,r2,32
   215f4:	014009c4 	movi	r5,39
   215f8:	d8c00217 	ldw	r3,8(sp)
   215fc:	d9800317 	ldw	r6,12(sp)
   21600:	da800017 	ldw	r10,0(sp)
   21604:	dac00117 	ldw	r11,4(sp)
   21608:	293f320e 	bge	r5,r4,212d4 <__alt_data_end+0xfffe1ed4>
   2160c:	10bffe04 	addi	r2,r2,-8
   21610:	b8a2983a 	sll	r17,r23,r2
   21614:	002f883a 	mov	r23,zero
   21618:	003f3506 	br	212f0 <__alt_data_end+0xfffe1ef0>
   2161c:	d9800315 	stw	r6,12(sp)
   21620:	d9c00015 	stw	r7,0(sp)
   21624:	00223940 	call	22394 <__clzsi2>
   21628:	10c00804 	addi	r3,r2,32
   2162c:	010009c4 	movi	r4,39
   21630:	d9800317 	ldw	r6,12(sp)
   21634:	d9c00017 	ldw	r7,0(sp)
   21638:	20ff060e 	bge	r4,r3,21254 <__alt_data_end+0xfffe1e54>
   2163c:	10bffe04 	addi	r2,r2,-8
   21640:	88a0983a 	sll	r16,r17,r2
   21644:	0025883a 	mov	r18,zero
   21648:	003f0906 	br	21270 <__alt_data_end+0xfffe1e70>
   2164c:	9004d0fa 	srli	r2,r18,3
   21650:	8024977a 	slli	r18,r16,29
   21654:	8020927a 	slli	r16,r16,9
   21658:	2101ffcc 	andi	r4,r4,2047
   2165c:	90a4b03a 	or	r18,r18,r2
   21660:	8020d33a 	srli	r16,r16,12
   21664:	b4c0004c 	andi	r19,r22,1
   21668:	003edb06 	br	211d8 <__alt_data_end+0xfffe1dd8>
   2166c:	00ff0084 	movi	r3,-1022
   21670:	1947c83a 	sub	r3,r3,r5
   21674:	00800e04 	movi	r2,56
   21678:	10c0080e 	bge	r2,r3,2169c <__muldf3+0x62c>
   2167c:	b4c0004c 	andi	r19,r22,1
   21680:	0009883a 	mov	r4,zero
   21684:	0021883a 	mov	r16,zero
   21688:	0025883a 	mov	r18,zero
   2168c:	003ed206 	br	211d8 <__alt_data_end+0xfffe1dd8>
   21690:	600b883a 	mov	r5,r12
   21694:	e02d883a 	mov	r22,fp
   21698:	003fa706 	br	21538 <__alt_data_end+0xfffe2138>
   2169c:	008007c4 	movi	r2,31
   216a0:	10c01816 	blt	r2,r3,21704 <__muldf3+0x694>
   216a4:	29410784 	addi	r5,r5,1054
   216a8:	8144983a 	sll	r2,r16,r5
   216ac:	90c8d83a 	srl	r4,r18,r3
   216b0:	914a983a 	sll	r5,r18,r5
   216b4:	80c6d83a 	srl	r3,r16,r3
   216b8:	2088b03a 	or	r4,r4,r2
   216bc:	2804c03a 	cmpne	r2,r5,zero
   216c0:	2084b03a 	or	r2,r4,r2
   216c4:	110001cc 	andi	r4,r2,7
   216c8:	20000726 	beq	r4,zero,216e8 <__muldf3+0x678>
   216cc:	114003cc 	andi	r5,r2,15
   216d0:	01000104 	movi	r4,4
   216d4:	29000426 	beq	r5,r4,216e8 <__muldf3+0x678>
   216d8:	11000104 	addi	r4,r2,4
   216dc:	2085803a 	cmpltu	r2,r4,r2
   216e0:	1887883a 	add	r3,r3,r2
   216e4:	2005883a 	mov	r2,r4
   216e8:	1900202c 	andhi	r4,r3,128
   216ec:	20001826 	beq	r4,zero,21750 <__muldf3+0x6e0>
   216f0:	b4c0004c 	andi	r19,r22,1
   216f4:	01000044 	movi	r4,1
   216f8:	0021883a 	mov	r16,zero
   216fc:	0025883a 	mov	r18,zero
   21700:	003eb506 	br	211d8 <__alt_data_end+0xfffe1dd8>
   21704:	00bef884 	movi	r2,-1054
   21708:	1145c83a 	sub	r2,r2,r5
   2170c:	8088d83a 	srl	r4,r16,r2
   21710:	00800804 	movi	r2,32
   21714:	18801726 	beq	r3,r2,21774 <__muldf3+0x704>
   21718:	28810f84 	addi	r2,r5,1086
   2171c:	8084983a 	sll	r2,r16,r2
   21720:	1484b03a 	or	r2,r2,r18
   21724:	1004c03a 	cmpne	r2,r2,zero
   21728:	1104b03a 	or	r2,r2,r4
   2172c:	10c001cc 	andi	r3,r2,7
   21730:	18000b1e 	bne	r3,zero,21760 <__muldf3+0x6f0>
   21734:	0021883a 	mov	r16,zero
   21738:	1004d0fa 	srli	r2,r2,3
   2173c:	b4c0004c 	andi	r19,r22,1
   21740:	0009883a 	mov	r4,zero
   21744:	10e4b03a 	or	r18,r2,r3
   21748:	003ea306 	br	211d8 <__alt_data_end+0xfffe1dd8>
   2174c:	0007883a 	mov	r3,zero
   21750:	1820927a 	slli	r16,r3,9
   21754:	1806977a 	slli	r3,r3,29
   21758:	8020d33a 	srli	r16,r16,12
   2175c:	003ff606 	br	21738 <__alt_data_end+0xfffe2338>
   21760:	110003cc 	andi	r4,r2,15
   21764:	00c00104 	movi	r3,4
   21768:	20fff826 	beq	r4,r3,2174c <__alt_data_end+0xfffe234c>
   2176c:	0007883a 	mov	r3,zero
   21770:	003fd906 	br	216d8 <__alt_data_end+0xfffe22d8>
   21774:	0005883a 	mov	r2,zero
   21778:	003fe906 	br	21720 <__alt_data_end+0xfffe2320>
   2177c:	00800434 	movhi	r2,16
   21780:	84000234 	orhi	r16,r16,8
   21784:	10bfffc4 	addi	r2,r2,-1
   21788:	e4c0004c 	andi	r19,fp,1
   2178c:	80a0703a 	and	r16,r16,r2
   21790:	003ef606 	br	2136c <__alt_data_end+0xfffe1f6c>

00021794 <__subdf3>:
   21794:	00c00434 	movhi	r3,16
   21798:	18ffffc4 	addi	r3,r3,-1
   2179c:	defffb04 	addi	sp,sp,-20
   217a0:	28d2703a 	and	r9,r5,r3
   217a4:	3814d53a 	srli	r10,r7,20
   217a8:	38c6703a 	and	r3,r7,r3
   217ac:	3004d77a 	srli	r2,r6,29
   217b0:	dc800215 	stw	r18,8(sp)
   217b4:	dc000015 	stw	r16,0(sp)
   217b8:	2824d7fa 	srli	r18,r5,31
   217bc:	2820d53a 	srli	r16,r5,20
   217c0:	481290fa 	slli	r9,r9,3
   217c4:	200ad77a 	srli	r5,r4,29
   217c8:	180690fa 	slli	r3,r3,3
   217cc:	dc400115 	stw	r17,4(sp)
   217d0:	dfc00415 	stw	ra,16(sp)
   217d4:	202290fa 	slli	r17,r4,3
   217d8:	dcc00315 	stw	r19,12(sp)
   217dc:	5281ffcc 	andi	r10,r10,2047
   217e0:	0101ffc4 	movi	r4,2047
   217e4:	9011883a 	mov	r8,r18
   217e8:	8401ffcc 	andi	r16,r16,2047
   217ec:	94803fcc 	andi	r18,r18,255
   217f0:	494ab03a 	or	r5,r9,r5
   217f4:	380ed7fa 	srli	r7,r7,31
   217f8:	1886b03a 	or	r3,r3,r2
   217fc:	300c90fa 	slli	r6,r6,3
   21800:	51009026 	beq	r10,r4,21a44 <__subdf3+0x2b0>
   21804:	39c0005c 	xori	r7,r7,1
   21808:	8285c83a 	sub	r2,r16,r10
   2180c:	91c06f26 	beq	r18,r7,219cc <__subdf3+0x238>
   21810:	0080b10e 	bge	zero,r2,21ad8 <__subdf3+0x344>
   21814:	50002a1e 	bne	r10,zero,218c0 <__subdf3+0x12c>
   21818:	1988b03a 	or	r4,r3,r6
   2181c:	2000941e 	bne	r4,zero,21a70 <__subdf3+0x2dc>
   21820:	888001cc 	andi	r2,r17,7
   21824:	10005b26 	beq	r2,zero,21994 <__subdf3+0x200>
   21828:	88c003cc 	andi	r3,r17,15
   2182c:	00800104 	movi	r2,4
   21830:	18805826 	beq	r3,r2,21994 <__subdf3+0x200>
   21834:	88c00104 	addi	r3,r17,4
   21838:	1c63803a 	cmpltu	r17,r3,r17
   2183c:	2c4b883a 	add	r5,r5,r17
   21840:	2880202c 	andhi	r2,r5,128
   21844:	9200004c 	andi	r8,r18,1
   21848:	1823883a 	mov	r17,r3
   2184c:	10005426 	beq	r2,zero,219a0 <__subdf3+0x20c>
   21850:	84000044 	addi	r16,r16,1
   21854:	0081ffc4 	movi	r2,2047
   21858:	8080bf26 	beq	r16,r2,21b58 <__subdf3+0x3c4>
   2185c:	013fe034 	movhi	r4,65408
   21860:	213fffc4 	addi	r4,r4,-1
   21864:	290a703a 	and	r5,r5,r4
   21868:	2804977a 	slli	r2,r5,29
   2186c:	280a927a 	slli	r5,r5,9
   21870:	8822d0fa 	srli	r17,r17,3
   21874:	8401ffcc 	andi	r16,r16,2047
   21878:	2808d33a 	srli	r4,r5,12
   2187c:	1444b03a 	or	r2,r2,r17
   21880:	8401ffcc 	andi	r16,r16,2047
   21884:	800a953a 	slli	r5,r16,20
   21888:	40c03fcc 	andi	r3,r8,255
   2188c:	04000434 	movhi	r16,16
   21890:	180697fa 	slli	r3,r3,31
   21894:	843fffc4 	addi	r16,r16,-1
   21898:	2420703a 	and	r16,r4,r16
   2189c:	8160b03a 	or	r16,r16,r5
   218a0:	80c6b03a 	or	r3,r16,r3
   218a4:	dfc00417 	ldw	ra,16(sp)
   218a8:	dcc00317 	ldw	r19,12(sp)
   218ac:	dc800217 	ldw	r18,8(sp)
   218b0:	dc400117 	ldw	r17,4(sp)
   218b4:	dc000017 	ldw	r16,0(sp)
   218b8:	dec00504 	addi	sp,sp,20
   218bc:	f800283a 	ret
   218c0:	0101ffc4 	movi	r4,2047
   218c4:	813fd626 	beq	r16,r4,21820 <__alt_data_end+0xfffe2420>
   218c8:	18c02034 	orhi	r3,r3,128
   218cc:	01000e04 	movi	r4,56
   218d0:	2080a416 	blt	r4,r2,21b64 <__subdf3+0x3d0>
   218d4:	010007c4 	movi	r4,31
   218d8:	2080c716 	blt	r4,r2,21bf8 <__subdf3+0x464>
   218dc:	01000804 	movi	r4,32
   218e0:	2089c83a 	sub	r4,r4,r2
   218e4:	1910983a 	sll	r8,r3,r4
   218e8:	308ed83a 	srl	r7,r6,r2
   218ec:	3108983a 	sll	r4,r6,r4
   218f0:	1884d83a 	srl	r2,r3,r2
   218f4:	41ccb03a 	or	r6,r8,r7
   218f8:	2008c03a 	cmpne	r4,r4,zero
   218fc:	310cb03a 	or	r6,r6,r4
   21900:	898dc83a 	sub	r6,r17,r6
   21904:	89a3803a 	cmpltu	r17,r17,r6
   21908:	288bc83a 	sub	r5,r5,r2
   2190c:	2c4bc83a 	sub	r5,r5,r17
   21910:	3023883a 	mov	r17,r6
   21914:	2880202c 	andhi	r2,r5,128
   21918:	10006b26 	beq	r2,zero,21ac8 <__subdf3+0x334>
   2191c:	04c02034 	movhi	r19,128
   21920:	9cffffc4 	addi	r19,r19,-1
   21924:	2ce6703a 	and	r19,r5,r19
   21928:	98007c26 	beq	r19,zero,21b1c <__subdf3+0x388>
   2192c:	9809883a 	mov	r4,r19
   21930:	00223940 	call	22394 <__clzsi2>
   21934:	10fffe04 	addi	r3,r2,-8
   21938:	010007c4 	movi	r4,31
   2193c:	20c07d16 	blt	r4,r3,21b34 <__subdf3+0x3a0>
   21940:	01400a04 	movi	r5,40
   21944:	2885c83a 	sub	r2,r5,r2
   21948:	888ad83a 	srl	r5,r17,r2
   2194c:	98e6983a 	sll	r19,r19,r3
   21950:	88e2983a 	sll	r17,r17,r3
   21954:	2ce6b03a 	or	r19,r5,r19
   21958:	1c007a16 	blt	r3,r16,21b44 <__subdf3+0x3b0>
   2195c:	1c21c83a 	sub	r16,r3,r16
   21960:	81400044 	addi	r5,r16,1
   21964:	00c007c4 	movi	r3,31
   21968:	19409616 	blt	r3,r5,21bc4 <__subdf3+0x430>
   2196c:	1c21c83a 	sub	r16,r3,r16
   21970:	8c08983a 	sll	r4,r17,r16
   21974:	8946d83a 	srl	r3,r17,r5
   21978:	9c20983a 	sll	r16,r19,r16
   2197c:	2008c03a 	cmpne	r4,r4,zero
   21980:	994ad83a 	srl	r5,r19,r5
   21984:	1c06b03a 	or	r3,r3,r16
   21988:	1922b03a 	or	r17,r3,r4
   2198c:	0021883a 	mov	r16,zero
   21990:	003fa306 	br	21820 <__alt_data_end+0xfffe2420>
   21994:	2880202c 	andhi	r2,r5,128
   21998:	9200004c 	andi	r8,r18,1
   2199c:	103fac1e 	bne	r2,zero,21850 <__alt_data_end+0xfffe2450>
   219a0:	2804977a 	slli	r2,r5,29
   219a4:	8822d0fa 	srli	r17,r17,3
   219a8:	00c1ffc4 	movi	r3,2047
   219ac:	280ad0fa 	srli	r5,r5,3
   219b0:	1444b03a 	or	r2,r2,r17
   219b4:	80c02726 	beq	r16,r3,21a54 <__subdf3+0x2c0>
   219b8:	01000434 	movhi	r4,16
   219bc:	213fffc4 	addi	r4,r4,-1
   219c0:	80e0703a 	and	r16,r16,r3
   219c4:	2908703a 	and	r4,r5,r4
   219c8:	003fad06 	br	21880 <__alt_data_end+0xfffe2480>
   219cc:	0080690e 	bge	zero,r2,21b74 <__subdf3+0x3e0>
   219d0:	50002f26 	beq	r10,zero,21a90 <__subdf3+0x2fc>
   219d4:	0101ffc4 	movi	r4,2047
   219d8:	813f9126 	beq	r16,r4,21820 <__alt_data_end+0xfffe2420>
   219dc:	18c02034 	orhi	r3,r3,128
   219e0:	01000e04 	movi	r4,56
   219e4:	2080b00e 	bge	r4,r2,21ca8 <__subdf3+0x514>
   219e8:	198cb03a 	or	r6,r3,r6
   219ec:	300ec03a 	cmpne	r7,r6,zero
   219f0:	0005883a 	mov	r2,zero
   219f4:	3c4f883a 	add	r7,r7,r17
   219f8:	3c63803a 	cmpltu	r17,r7,r17
   219fc:	114b883a 	add	r5,r2,r5
   21a00:	2c4b883a 	add	r5,r5,r17
   21a04:	3823883a 	mov	r17,r7
   21a08:	2880202c 	andhi	r2,r5,128
   21a0c:	10002e26 	beq	r2,zero,21ac8 <__subdf3+0x334>
   21a10:	84000044 	addi	r16,r16,1
   21a14:	0081ffc4 	movi	r2,2047
   21a18:	8080de26 	beq	r16,r2,21d94 <__subdf3+0x600>
   21a1c:	00bfe034 	movhi	r2,65408
   21a20:	10bfffc4 	addi	r2,r2,-1
   21a24:	288a703a 	and	r5,r5,r2
   21a28:	880cd07a 	srli	r6,r17,1
   21a2c:	280897fa 	slli	r4,r5,31
   21a30:	88c0004c 	andi	r3,r17,1
   21a34:	30e2b03a 	or	r17,r6,r3
   21a38:	280ad07a 	srli	r5,r5,1
   21a3c:	8922b03a 	or	r17,r17,r4
   21a40:	003f7706 	br	21820 <__alt_data_end+0xfffe2420>
   21a44:	1984b03a 	or	r2,r3,r6
   21a48:	103f6e26 	beq	r2,zero,21804 <__alt_data_end+0xfffe2404>
   21a4c:	39c03fcc 	andi	r7,r7,255
   21a50:	003f6d06 	br	21808 <__alt_data_end+0xfffe2408>
   21a54:	1146b03a 	or	r3,r2,r5
   21a58:	18003f26 	beq	r3,zero,21b58 <__subdf3+0x3c4>
   21a5c:	00c00434 	movhi	r3,16
   21a60:	29000234 	orhi	r4,r5,8
   21a64:	18ffffc4 	addi	r3,r3,-1
   21a68:	20c8703a 	and	r4,r4,r3
   21a6c:	003f8406 	br	21880 <__alt_data_end+0xfffe2480>
   21a70:	10bfffc4 	addi	r2,r2,-1
   21a74:	1000501e 	bne	r2,zero,21bb8 <__subdf3+0x424>
   21a78:	898fc83a 	sub	r7,r17,r6
   21a7c:	89e3803a 	cmpltu	r17,r17,r7
   21a80:	28cbc83a 	sub	r5,r5,r3
   21a84:	2c4bc83a 	sub	r5,r5,r17
   21a88:	3823883a 	mov	r17,r7
   21a8c:	003fa106 	br	21914 <__alt_data_end+0xfffe2514>
   21a90:	1988b03a 	or	r4,r3,r6
   21a94:	203f6226 	beq	r4,zero,21820 <__alt_data_end+0xfffe2420>
   21a98:	10bfffc4 	addi	r2,r2,-1
   21a9c:	10009b1e 	bne	r2,zero,21d0c <__subdf3+0x578>
   21aa0:	344d883a 	add	r6,r6,r17
   21aa4:	3463803a 	cmpltu	r17,r6,r17
   21aa8:	194b883a 	add	r5,r3,r5
   21aac:	2c4b883a 	add	r5,r5,r17
   21ab0:	3023883a 	mov	r17,r6
   21ab4:	003fd406 	br	21a08 <__alt_data_end+0xfffe2608>
   21ab8:	1106b03a 	or	r3,r2,r4
   21abc:	1800b426 	beq	r3,zero,21d90 <__subdf3+0x5fc>
   21ac0:	100b883a 	mov	r5,r2
   21ac4:	2023883a 	mov	r17,r4
   21ac8:	888001cc 	andi	r2,r17,7
   21acc:	103f561e 	bne	r2,zero,21828 <__alt_data_end+0xfffe2428>
   21ad0:	9200004c 	andi	r8,r18,1
   21ad4:	003fb206 	br	219a0 <__alt_data_end+0xfffe25a0>
   21ad8:	1000531e 	bne	r2,zero,21c28 <__subdf3+0x494>
   21adc:	80800044 	addi	r2,r16,1
   21ae0:	1081ffcc 	andi	r2,r2,2047
   21ae4:	01000044 	movi	r4,1
   21ae8:	2080a00e 	bge	r4,r2,21d6c <__subdf3+0x5d8>
   21aec:	8985c83a 	sub	r2,r17,r6
   21af0:	8889803a 	cmpltu	r4,r17,r2
   21af4:	28e7c83a 	sub	r19,r5,r3
   21af8:	9927c83a 	sub	r19,r19,r4
   21afc:	9900202c 	andhi	r4,r19,128
   21b00:	20006226 	beq	r4,zero,21c8c <__subdf3+0x4f8>
   21b04:	3463c83a 	sub	r17,r6,r17
   21b08:	194bc83a 	sub	r5,r3,r5
   21b0c:	344d803a 	cmpltu	r6,r6,r17
   21b10:	29a7c83a 	sub	r19,r5,r6
   21b14:	3825883a 	mov	r18,r7
   21b18:	983f841e 	bne	r19,zero,2192c <__alt_data_end+0xfffe252c>
   21b1c:	8809883a 	mov	r4,r17
   21b20:	00223940 	call	22394 <__clzsi2>
   21b24:	10800804 	addi	r2,r2,32
   21b28:	10fffe04 	addi	r3,r2,-8
   21b2c:	010007c4 	movi	r4,31
   21b30:	20ff830e 	bge	r4,r3,21940 <__alt_data_end+0xfffe2540>
   21b34:	14fff604 	addi	r19,r2,-40
   21b38:	8ce6983a 	sll	r19,r17,r19
   21b3c:	0023883a 	mov	r17,zero
   21b40:	1c3f860e 	bge	r3,r16,2195c <__alt_data_end+0xfffe255c>
   21b44:	017fe034 	movhi	r5,65408
   21b48:	297fffc4 	addi	r5,r5,-1
   21b4c:	80e1c83a 	sub	r16,r16,r3
   21b50:	994a703a 	and	r5,r19,r5
   21b54:	003f3206 	br	21820 <__alt_data_end+0xfffe2420>
   21b58:	0009883a 	mov	r4,zero
   21b5c:	0005883a 	mov	r2,zero
   21b60:	003f4706 	br	21880 <__alt_data_end+0xfffe2480>
   21b64:	198cb03a 	or	r6,r3,r6
   21b68:	300cc03a 	cmpne	r6,r6,zero
   21b6c:	0005883a 	mov	r2,zero
   21b70:	003f6306 	br	21900 <__alt_data_end+0xfffe2500>
   21b74:	10009d1e 	bne	r2,zero,21dec <__subdf3+0x658>
   21b78:	81c00044 	addi	r7,r16,1
   21b7c:	3881ffcc 	andi	r2,r7,2047
   21b80:	02400044 	movi	r9,1
   21b84:	4880680e 	bge	r9,r2,21d28 <__subdf3+0x594>
   21b88:	0081ffc4 	movi	r2,2047
   21b8c:	3880ae26 	beq	r7,r2,21e48 <__subdf3+0x6b4>
   21b90:	344d883a 	add	r6,r6,r17
   21b94:	3463803a 	cmpltu	r17,r6,r17
   21b98:	194b883a 	add	r5,r3,r5
   21b9c:	2c4b883a 	add	r5,r5,r17
   21ba0:	282297fa 	slli	r17,r5,31
   21ba4:	300cd07a 	srli	r6,r6,1
   21ba8:	280ad07a 	srli	r5,r5,1
   21bac:	3821883a 	mov	r16,r7
   21bb0:	89a2b03a 	or	r17,r17,r6
   21bb4:	003f1a06 	br	21820 <__alt_data_end+0xfffe2420>
   21bb8:	0101ffc4 	movi	r4,2047
   21bbc:	813f431e 	bne	r16,r4,218cc <__alt_data_end+0xfffe24cc>
   21bc0:	003f1706 	br	21820 <__alt_data_end+0xfffe2420>
   21bc4:	80bff844 	addi	r2,r16,-31
   21bc8:	00c00804 	movi	r3,32
   21bcc:	9884d83a 	srl	r2,r19,r2
   21bd0:	28c05126 	beq	r5,r3,21d18 <__subdf3+0x584>
   21bd4:	00c00fc4 	movi	r3,63
   21bd8:	1c21c83a 	sub	r16,r3,r16
   21bdc:	9c26983a 	sll	r19,r19,r16
   21be0:	9c62b03a 	or	r17,r19,r17
   21be4:	8822c03a 	cmpne	r17,r17,zero
   21be8:	88a2b03a 	or	r17,r17,r2
   21bec:	000b883a 	mov	r5,zero
   21bf0:	0021883a 	mov	r16,zero
   21bf4:	003fb406 	br	21ac8 <__alt_data_end+0xfffe26c8>
   21bf8:	113ff804 	addi	r4,r2,-32
   21bfc:	01c00804 	movi	r7,32
   21c00:	1908d83a 	srl	r4,r3,r4
   21c04:	11c04626 	beq	r2,r7,21d20 <__subdf3+0x58c>
   21c08:	01c01004 	movi	r7,64
   21c0c:	3885c83a 	sub	r2,r7,r2
   21c10:	1884983a 	sll	r2,r3,r2
   21c14:	118cb03a 	or	r6,r2,r6
   21c18:	300cc03a 	cmpne	r6,r6,zero
   21c1c:	310cb03a 	or	r6,r6,r4
   21c20:	0005883a 	mov	r2,zero
   21c24:	003f3606 	br	21900 <__alt_data_end+0xfffe2500>
   21c28:	80002b26 	beq	r16,zero,21cd8 <__subdf3+0x544>
   21c2c:	0101ffc4 	movi	r4,2047
   21c30:	51006926 	beq	r10,r4,21dd8 <__subdf3+0x644>
   21c34:	0085c83a 	sub	r2,zero,r2
   21c38:	29402034 	orhi	r5,r5,128
   21c3c:	01000e04 	movi	r4,56
   21c40:	20807d16 	blt	r4,r2,21e38 <__subdf3+0x6a4>
   21c44:	010007c4 	movi	r4,31
   21c48:	2080d916 	blt	r4,r2,21fb0 <__subdf3+0x81c>
   21c4c:	01000804 	movi	r4,32
   21c50:	2089c83a 	sub	r4,r4,r2
   21c54:	2912983a 	sll	r9,r5,r4
   21c58:	8890d83a 	srl	r8,r17,r2
   21c5c:	8908983a 	sll	r4,r17,r4
   21c60:	2884d83a 	srl	r2,r5,r2
   21c64:	4a22b03a 	or	r17,r9,r8
   21c68:	2008c03a 	cmpne	r4,r4,zero
   21c6c:	8922b03a 	or	r17,r17,r4
   21c70:	3463c83a 	sub	r17,r6,r17
   21c74:	1885c83a 	sub	r2,r3,r2
   21c78:	344d803a 	cmpltu	r6,r6,r17
   21c7c:	118bc83a 	sub	r5,r2,r6
   21c80:	5021883a 	mov	r16,r10
   21c84:	3825883a 	mov	r18,r7
   21c88:	003f2206 	br	21914 <__alt_data_end+0xfffe2514>
   21c8c:	9886b03a 	or	r3,r19,r2
   21c90:	18001c1e 	bne	r3,zero,21d04 <__subdf3+0x570>
   21c94:	0011883a 	mov	r8,zero
   21c98:	000b883a 	mov	r5,zero
   21c9c:	0023883a 	mov	r17,zero
   21ca0:	0021883a 	mov	r16,zero
   21ca4:	003f3e06 	br	219a0 <__alt_data_end+0xfffe25a0>
   21ca8:	010007c4 	movi	r4,31
   21cac:	20803c16 	blt	r4,r2,21da0 <__subdf3+0x60c>
   21cb0:	01000804 	movi	r4,32
   21cb4:	2089c83a 	sub	r4,r4,r2
   21cb8:	1912983a 	sll	r9,r3,r4
   21cbc:	308ed83a 	srl	r7,r6,r2
   21cc0:	3108983a 	sll	r4,r6,r4
   21cc4:	1884d83a 	srl	r2,r3,r2
   21cc8:	49ceb03a 	or	r7,r9,r7
   21ccc:	2008c03a 	cmpne	r4,r4,zero
   21cd0:	390eb03a 	or	r7,r7,r4
   21cd4:	003f4706 	br	219f4 <__alt_data_end+0xfffe25f4>
   21cd8:	2c48b03a 	or	r4,r5,r17
   21cdc:	20003e26 	beq	r4,zero,21dd8 <__subdf3+0x644>
   21ce0:	0084303a 	nor	r2,zero,r2
   21ce4:	10003a1e 	bne	r2,zero,21dd0 <__subdf3+0x63c>
   21ce8:	3463c83a 	sub	r17,r6,r17
   21cec:	194bc83a 	sub	r5,r3,r5
   21cf0:	344d803a 	cmpltu	r6,r6,r17
   21cf4:	298bc83a 	sub	r5,r5,r6
   21cf8:	5021883a 	mov	r16,r10
   21cfc:	3825883a 	mov	r18,r7
   21d00:	003f0406 	br	21914 <__alt_data_end+0xfffe2514>
   21d04:	1023883a 	mov	r17,r2
   21d08:	003f0706 	br	21928 <__alt_data_end+0xfffe2528>
   21d0c:	0101ffc4 	movi	r4,2047
   21d10:	813f331e 	bne	r16,r4,219e0 <__alt_data_end+0xfffe25e0>
   21d14:	003ec206 	br	21820 <__alt_data_end+0xfffe2420>
   21d18:	0027883a 	mov	r19,zero
   21d1c:	003fb006 	br	21be0 <__alt_data_end+0xfffe27e0>
   21d20:	0005883a 	mov	r2,zero
   21d24:	003fbb06 	br	21c14 <__alt_data_end+0xfffe2814>
   21d28:	2c44b03a 	or	r2,r5,r17
   21d2c:	80008b1e 	bne	r16,zero,21f5c <__subdf3+0x7c8>
   21d30:	1000b526 	beq	r2,zero,22008 <__subdf3+0x874>
   21d34:	1984b03a 	or	r2,r3,r6
   21d38:	103eb926 	beq	r2,zero,21820 <__alt_data_end+0xfffe2420>
   21d3c:	3449883a 	add	r4,r6,r17
   21d40:	2463803a 	cmpltu	r17,r4,r17
   21d44:	194b883a 	add	r5,r3,r5
   21d48:	2c4b883a 	add	r5,r5,r17
   21d4c:	2880202c 	andhi	r2,r5,128
   21d50:	2023883a 	mov	r17,r4
   21d54:	103f5c26 	beq	r2,zero,21ac8 <__alt_data_end+0xfffe26c8>
   21d58:	00bfe034 	movhi	r2,65408
   21d5c:	10bfffc4 	addi	r2,r2,-1
   21d60:	4821883a 	mov	r16,r9
   21d64:	288a703a 	and	r5,r5,r2
   21d68:	003ead06 	br	21820 <__alt_data_end+0xfffe2420>
   21d6c:	2c44b03a 	or	r2,r5,r17
   21d70:	8000291e 	bne	r16,zero,21e18 <__subdf3+0x684>
   21d74:	10004f1e 	bne	r2,zero,21eb4 <__subdf3+0x720>
   21d78:	1984b03a 	or	r2,r3,r6
   21d7c:	10000426 	beq	r2,zero,21d90 <__subdf3+0x5fc>
   21d80:	180b883a 	mov	r5,r3
   21d84:	3023883a 	mov	r17,r6
   21d88:	3825883a 	mov	r18,r7
   21d8c:	003ea406 	br	21820 <__alt_data_end+0xfffe2420>
   21d90:	0011883a 	mov	r8,zero
   21d94:	000b883a 	mov	r5,zero
   21d98:	0023883a 	mov	r17,zero
   21d9c:	003f0006 	br	219a0 <__alt_data_end+0xfffe25a0>
   21da0:	11fff804 	addi	r7,r2,-32
   21da4:	19c8d83a 	srl	r4,r3,r7
   21da8:	01c00804 	movi	r7,32
   21dac:	11c07e26 	beq	r2,r7,21fa8 <__subdf3+0x814>
   21db0:	01c01004 	movi	r7,64
   21db4:	3885c83a 	sub	r2,r7,r2
   21db8:	1884983a 	sll	r2,r3,r2
   21dbc:	118cb03a 	or	r6,r2,r6
   21dc0:	300ec03a 	cmpne	r7,r6,zero
   21dc4:	390eb03a 	or	r7,r7,r4
   21dc8:	0005883a 	mov	r2,zero
   21dcc:	003f0906 	br	219f4 <__alt_data_end+0xfffe25f4>
   21dd0:	0101ffc4 	movi	r4,2047
   21dd4:	513f991e 	bne	r10,r4,21c3c <__alt_data_end+0xfffe283c>
   21dd8:	180b883a 	mov	r5,r3
   21ddc:	3023883a 	mov	r17,r6
   21de0:	5021883a 	mov	r16,r10
   21de4:	3825883a 	mov	r18,r7
   21de8:	003e8d06 	br	21820 <__alt_data_end+0xfffe2420>
   21dec:	80001a1e 	bne	r16,zero,21e58 <__subdf3+0x6c4>
   21df0:	2c48b03a 	or	r4,r5,r17
   21df4:	20005526 	beq	r4,zero,21f4c <__subdf3+0x7b8>
   21df8:	0084303a 	nor	r2,zero,r2
   21dfc:	1000511e 	bne	r2,zero,21f44 <__subdf3+0x7b0>
   21e00:	89a3883a 	add	r17,r17,r6
   21e04:	194b883a 	add	r5,r3,r5
   21e08:	898d803a 	cmpltu	r6,r17,r6
   21e0c:	298b883a 	add	r5,r5,r6
   21e10:	5021883a 	mov	r16,r10
   21e14:	003efc06 	br	21a08 <__alt_data_end+0xfffe2608>
   21e18:	1000341e 	bne	r2,zero,21eec <__subdf3+0x758>
   21e1c:	1984b03a 	or	r2,r3,r6
   21e20:	10006f26 	beq	r2,zero,21fe0 <__subdf3+0x84c>
   21e24:	180b883a 	mov	r5,r3
   21e28:	3023883a 	mov	r17,r6
   21e2c:	3825883a 	mov	r18,r7
   21e30:	0401ffc4 	movi	r16,2047
   21e34:	003e7a06 	br	21820 <__alt_data_end+0xfffe2420>
   21e38:	2c62b03a 	or	r17,r5,r17
   21e3c:	8822c03a 	cmpne	r17,r17,zero
   21e40:	0005883a 	mov	r2,zero
   21e44:	003f8a06 	br	21c70 <__alt_data_end+0xfffe2870>
   21e48:	3821883a 	mov	r16,r7
   21e4c:	000b883a 	mov	r5,zero
   21e50:	0023883a 	mov	r17,zero
   21e54:	003ed206 	br	219a0 <__alt_data_end+0xfffe25a0>
   21e58:	0101ffc4 	movi	r4,2047
   21e5c:	51003b26 	beq	r10,r4,21f4c <__subdf3+0x7b8>
   21e60:	0085c83a 	sub	r2,zero,r2
   21e64:	29402034 	orhi	r5,r5,128
   21e68:	01000e04 	movi	r4,56
   21e6c:	20806216 	blt	r4,r2,21ff8 <__subdf3+0x864>
   21e70:	010007c4 	movi	r4,31
   21e74:	20806b16 	blt	r4,r2,22024 <__subdf3+0x890>
   21e78:	01000804 	movi	r4,32
   21e7c:	2089c83a 	sub	r4,r4,r2
   21e80:	2912983a 	sll	r9,r5,r4
   21e84:	888ed83a 	srl	r7,r17,r2
   21e88:	8908983a 	sll	r4,r17,r4
   21e8c:	2884d83a 	srl	r2,r5,r2
   21e90:	49e2b03a 	or	r17,r9,r7
   21e94:	2008c03a 	cmpne	r4,r4,zero
   21e98:	8922b03a 	or	r17,r17,r4
   21e9c:	89a3883a 	add	r17,r17,r6
   21ea0:	10c5883a 	add	r2,r2,r3
   21ea4:	898d803a 	cmpltu	r6,r17,r6
   21ea8:	118b883a 	add	r5,r2,r6
   21eac:	5021883a 	mov	r16,r10
   21eb0:	003ed506 	br	21a08 <__alt_data_end+0xfffe2608>
   21eb4:	1984b03a 	or	r2,r3,r6
   21eb8:	103e5926 	beq	r2,zero,21820 <__alt_data_end+0xfffe2420>
   21ebc:	8989c83a 	sub	r4,r17,r6
   21ec0:	8911803a 	cmpltu	r8,r17,r4
   21ec4:	28c5c83a 	sub	r2,r5,r3
   21ec8:	1205c83a 	sub	r2,r2,r8
   21ecc:	1200202c 	andhi	r8,r2,128
   21ed0:	403ef926 	beq	r8,zero,21ab8 <__alt_data_end+0xfffe26b8>
   21ed4:	3463c83a 	sub	r17,r6,r17
   21ed8:	194bc83a 	sub	r5,r3,r5
   21edc:	344d803a 	cmpltu	r6,r6,r17
   21ee0:	298bc83a 	sub	r5,r5,r6
   21ee4:	3825883a 	mov	r18,r7
   21ee8:	003e4d06 	br	21820 <__alt_data_end+0xfffe2420>
   21eec:	1984b03a 	or	r2,r3,r6
   21ef0:	10002b26 	beq	r2,zero,21fa0 <__subdf3+0x80c>
   21ef4:	2808d0fa 	srli	r4,r5,3
   21ef8:	8822d0fa 	srli	r17,r17,3
   21efc:	280a977a 	slli	r5,r5,29
   21f00:	2080022c 	andhi	r2,r4,8
   21f04:	2c62b03a 	or	r17,r5,r17
   21f08:	10000826 	beq	r2,zero,21f2c <__subdf3+0x798>
   21f0c:	1810d0fa 	srli	r8,r3,3
   21f10:	4080022c 	andhi	r2,r8,8
   21f14:	1000051e 	bne	r2,zero,21f2c <__subdf3+0x798>
   21f18:	300cd0fa 	srli	r6,r6,3
   21f1c:	1804977a 	slli	r2,r3,29
   21f20:	4009883a 	mov	r4,r8
   21f24:	3825883a 	mov	r18,r7
   21f28:	11a2b03a 	or	r17,r2,r6
   21f2c:	880ad77a 	srli	r5,r17,29
   21f30:	200890fa 	slli	r4,r4,3
   21f34:	882290fa 	slli	r17,r17,3
   21f38:	0401ffc4 	movi	r16,2047
   21f3c:	290ab03a 	or	r5,r5,r4
   21f40:	003e3706 	br	21820 <__alt_data_end+0xfffe2420>
   21f44:	0101ffc4 	movi	r4,2047
   21f48:	513fc71e 	bne	r10,r4,21e68 <__alt_data_end+0xfffe2a68>
   21f4c:	180b883a 	mov	r5,r3
   21f50:	3023883a 	mov	r17,r6
   21f54:	5021883a 	mov	r16,r10
   21f58:	003e3106 	br	21820 <__alt_data_end+0xfffe2420>
   21f5c:	10002d26 	beq	r2,zero,22014 <__subdf3+0x880>
   21f60:	1984b03a 	or	r2,r3,r6
   21f64:	10000e26 	beq	r2,zero,21fa0 <__subdf3+0x80c>
   21f68:	2808d0fa 	srli	r4,r5,3
   21f6c:	8822d0fa 	srli	r17,r17,3
   21f70:	280a977a 	slli	r5,r5,29
   21f74:	2080022c 	andhi	r2,r4,8
   21f78:	2c62b03a 	or	r17,r5,r17
   21f7c:	103feb26 	beq	r2,zero,21f2c <__alt_data_end+0xfffe2b2c>
   21f80:	180ed0fa 	srli	r7,r3,3
   21f84:	3880022c 	andhi	r2,r7,8
   21f88:	103fe81e 	bne	r2,zero,21f2c <__alt_data_end+0xfffe2b2c>
   21f8c:	300cd0fa 	srli	r6,r6,3
   21f90:	1804977a 	slli	r2,r3,29
   21f94:	3809883a 	mov	r4,r7
   21f98:	11a2b03a 	or	r17,r2,r6
   21f9c:	003fe306 	br	21f2c <__alt_data_end+0xfffe2b2c>
   21fa0:	0401ffc4 	movi	r16,2047
   21fa4:	003e1e06 	br	21820 <__alt_data_end+0xfffe2420>
   21fa8:	0005883a 	mov	r2,zero
   21fac:	003f8306 	br	21dbc <__alt_data_end+0xfffe29bc>
   21fb0:	113ff804 	addi	r4,r2,-32
   21fb4:	02000804 	movi	r8,32
   21fb8:	2908d83a 	srl	r4,r5,r4
   21fbc:	12002526 	beq	r2,r8,22054 <__subdf3+0x8c0>
   21fc0:	02001004 	movi	r8,64
   21fc4:	4085c83a 	sub	r2,r8,r2
   21fc8:	288a983a 	sll	r5,r5,r2
   21fcc:	2c62b03a 	or	r17,r5,r17
   21fd0:	8822c03a 	cmpne	r17,r17,zero
   21fd4:	8922b03a 	or	r17,r17,r4
   21fd8:	0005883a 	mov	r2,zero
   21fdc:	003f2406 	br	21c70 <__alt_data_end+0xfffe2870>
   21fe0:	01402034 	movhi	r5,128
   21fe4:	0011883a 	mov	r8,zero
   21fe8:	297fffc4 	addi	r5,r5,-1
   21fec:	047ffe04 	movi	r17,-8
   21ff0:	0401ffc4 	movi	r16,2047
   21ff4:	003e6a06 	br	219a0 <__alt_data_end+0xfffe25a0>
   21ff8:	2c62b03a 	or	r17,r5,r17
   21ffc:	8822c03a 	cmpne	r17,r17,zero
   22000:	0005883a 	mov	r2,zero
   22004:	003fa506 	br	21e9c <__alt_data_end+0xfffe2a9c>
   22008:	180b883a 	mov	r5,r3
   2200c:	3023883a 	mov	r17,r6
   22010:	003e0306 	br	21820 <__alt_data_end+0xfffe2420>
   22014:	180b883a 	mov	r5,r3
   22018:	3023883a 	mov	r17,r6
   2201c:	0401ffc4 	movi	r16,2047
   22020:	003dff06 	br	21820 <__alt_data_end+0xfffe2420>
   22024:	113ff804 	addi	r4,r2,-32
   22028:	01c00804 	movi	r7,32
   2202c:	2908d83a 	srl	r4,r5,r4
   22030:	11c00a26 	beq	r2,r7,2205c <__subdf3+0x8c8>
   22034:	01c01004 	movi	r7,64
   22038:	3885c83a 	sub	r2,r7,r2
   2203c:	288a983a 	sll	r5,r5,r2
   22040:	2c62b03a 	or	r17,r5,r17
   22044:	8822c03a 	cmpne	r17,r17,zero
   22048:	8922b03a 	or	r17,r17,r4
   2204c:	0005883a 	mov	r2,zero
   22050:	003f9206 	br	21e9c <__alt_data_end+0xfffe2a9c>
   22054:	000b883a 	mov	r5,zero
   22058:	003fdc06 	br	21fcc <__alt_data_end+0xfffe2bcc>
   2205c:	000b883a 	mov	r5,zero
   22060:	003ff706 	br	22040 <__alt_data_end+0xfffe2c40>

00022064 <__fixdfsi>:
   22064:	2806d53a 	srli	r3,r5,20
   22068:	00800434 	movhi	r2,16
   2206c:	10bfffc4 	addi	r2,r2,-1
   22070:	18c1ffcc 	andi	r3,r3,2047
   22074:	0180ff84 	movi	r6,1022
   22078:	2884703a 	and	r2,r5,r2
   2207c:	280ad7fa 	srli	r5,r5,31
   22080:	30c0130e 	bge	r6,r3,220d0 <__fixdfsi+0x6c>
   22084:	01810744 	movi	r6,1053
   22088:	30c00d16 	blt	r6,r3,220c0 <__fixdfsi+0x5c>
   2208c:	01810cc4 	movi	r6,1075
   22090:	30cdc83a 	sub	r6,r6,r3
   22094:	01c007c4 	movi	r7,31
   22098:	10800434 	orhi	r2,r2,16
   2209c:	39800e0e 	bge	r7,r6,220d8 <__fixdfsi+0x74>
   220a0:	010104c4 	movi	r4,1043
   220a4:	20c7c83a 	sub	r3,r4,r3
   220a8:	10c6d83a 	srl	r3,r2,r3
   220ac:	29403fcc 	andi	r5,r5,255
   220b0:	0145c83a 	sub	r2,zero,r5
   220b4:	1884f03a 	xor	r2,r3,r2
   220b8:	1145883a 	add	r2,r2,r5
   220bc:	f800283a 	ret
   220c0:	00a00034 	movhi	r2,32768
   220c4:	10bfffc4 	addi	r2,r2,-1
   220c8:	2885883a 	add	r2,r5,r2
   220cc:	f800283a 	ret
   220d0:	0005883a 	mov	r2,zero
   220d4:	f800283a 	ret
   220d8:	18fefb44 	addi	r3,r3,-1043
   220dc:	2188d83a 	srl	r4,r4,r6
   220e0:	10c6983a 	sll	r3,r2,r3
   220e4:	20c6b03a 	or	r3,r4,r3
   220e8:	003ff006 	br	220ac <__alt_data_end+0xfffe2cac>

000220ec <__extendsfdf2>:
   220ec:	200ad5fa 	srli	r5,r4,23
   220f0:	defffd04 	addi	sp,sp,-12
   220f4:	dc400115 	stw	r17,4(sp)
   220f8:	29403fcc 	andi	r5,r5,255
   220fc:	29800044 	addi	r6,r5,1
   22100:	04402034 	movhi	r17,128
   22104:	dc000015 	stw	r16,0(sp)
   22108:	8c7fffc4 	addi	r17,r17,-1
   2210c:	dfc00215 	stw	ra,8(sp)
   22110:	31803fcc 	andi	r6,r6,255
   22114:	00800044 	movi	r2,1
   22118:	8922703a 	and	r17,r17,r4
   2211c:	2020d7fa 	srli	r16,r4,31
   22120:	1180110e 	bge	r2,r6,22168 <__extendsfdf2+0x7c>
   22124:	880ed0fa 	srli	r7,r17,3
   22128:	8822977a 	slli	r17,r17,29
   2212c:	2940e004 	addi	r5,r5,896
   22130:	2941ffcc 	andi	r5,r5,2047
   22134:	280c953a 	slli	r6,r5,20
   22138:	01400434 	movhi	r5,16
   2213c:	800697fa 	slli	r3,r16,31
   22140:	297fffc4 	addi	r5,r5,-1
   22144:	394a703a 	and	r5,r7,r5
   22148:	298ab03a 	or	r5,r5,r6
   2214c:	8805883a 	mov	r2,r17
   22150:	28c6b03a 	or	r3,r5,r3
   22154:	dfc00217 	ldw	ra,8(sp)
   22158:	dc400117 	ldw	r17,4(sp)
   2215c:	dc000017 	ldw	r16,0(sp)
   22160:	dec00304 	addi	sp,sp,12
   22164:	f800283a 	ret
   22168:	2800111e 	bne	r5,zero,221b0 <__extendsfdf2+0xc4>
   2216c:	88001c26 	beq	r17,zero,221e0 <__extendsfdf2+0xf4>
   22170:	8809883a 	mov	r4,r17
   22174:	00223940 	call	22394 <__clzsi2>
   22178:	00c00284 	movi	r3,10
   2217c:	18801b16 	blt	r3,r2,221ec <__extendsfdf2+0x100>
   22180:	01c002c4 	movi	r7,11
   22184:	388fc83a 	sub	r7,r7,r2
   22188:	10c00544 	addi	r3,r2,21
   2218c:	89ced83a 	srl	r7,r17,r7
   22190:	88e2983a 	sll	r17,r17,r3
   22194:	0180e244 	movi	r6,905
   22198:	308bc83a 	sub	r5,r6,r2
   2219c:	01800434 	movhi	r6,16
   221a0:	31bfffc4 	addi	r6,r6,-1
   221a4:	398e703a 	and	r7,r7,r6
   221a8:	2941ffcc 	andi	r5,r5,2047
   221ac:	003fe006 	br	22130 <__alt_data_end+0xfffe2d30>
   221b0:	88000826 	beq	r17,zero,221d4 <__extendsfdf2+0xe8>
   221b4:	880ed0fa 	srli	r7,r17,3
   221b8:	00800434 	movhi	r2,16
   221bc:	10bfffc4 	addi	r2,r2,-1
   221c0:	39c00234 	orhi	r7,r7,8
   221c4:	8822977a 	slli	r17,r17,29
   221c8:	388e703a 	and	r7,r7,r2
   221cc:	0141ffc4 	movi	r5,2047
   221d0:	003fd706 	br	22130 <__alt_data_end+0xfffe2d30>
   221d4:	0141ffc4 	movi	r5,2047
   221d8:	000f883a 	mov	r7,zero
   221dc:	003fd406 	br	22130 <__alt_data_end+0xfffe2d30>
   221e0:	000b883a 	mov	r5,zero
   221e4:	000f883a 	mov	r7,zero
   221e8:	003fd106 	br	22130 <__alt_data_end+0xfffe2d30>
   221ec:	11fffd44 	addi	r7,r2,-11
   221f0:	89ce983a 	sll	r7,r17,r7
   221f4:	0023883a 	mov	r17,zero
   221f8:	003fe606 	br	22194 <__alt_data_end+0xfffe2d94>

000221fc <__truncdfsf2>:
   221fc:	2810d53a 	srli	r8,r5,20
   22200:	01c00434 	movhi	r7,16
   22204:	39ffffc4 	addi	r7,r7,-1
   22208:	29ce703a 	and	r7,r5,r7
   2220c:	380e90fa 	slli	r7,r7,3
   22210:	4201ffcc 	andi	r8,r8,2047
   22214:	200cd77a 	srli	r6,r4,29
   22218:	42400044 	addi	r9,r8,1
   2221c:	4a41ffcc 	andi	r9,r9,2047
   22220:	00800044 	movi	r2,1
   22224:	398cb03a 	or	r6,r7,r6
   22228:	280ad7fa 	srli	r5,r5,31
   2222c:	200e90fa 	slli	r7,r4,3
   22230:	1240230e 	bge	r2,r9,222c0 <__truncdfsf2+0xc4>
   22234:	40ff2004 	addi	r3,r8,-896
   22238:	00803f84 	movi	r2,254
   2223c:	10c01516 	blt	r2,r3,22294 <__truncdfsf2+0x98>
   22240:	00c02d0e 	bge	zero,r3,222f8 <__truncdfsf2+0xfc>
   22244:	200891ba 	slli	r4,r4,6
   22248:	300c90fa 	slli	r6,r6,3
   2224c:	380ed77a 	srli	r7,r7,29
   22250:	2008c03a 	cmpne	r4,r4,zero
   22254:	310cb03a 	or	r6,r6,r4
   22258:	31ccb03a 	or	r6,r6,r7
   2225c:	308001cc 	andi	r2,r6,7
   22260:	10000426 	beq	r2,zero,22274 <__truncdfsf2+0x78>
   22264:	310003cc 	andi	r4,r6,15
   22268:	00800104 	movi	r2,4
   2226c:	20800126 	beq	r4,r2,22274 <__truncdfsf2+0x78>
   22270:	31800104 	addi	r6,r6,4
   22274:	3081002c 	andhi	r2,r6,1024
   22278:	10002326 	beq	r2,zero,22308 <__truncdfsf2+0x10c>
   2227c:	18c00044 	addi	r3,r3,1
   22280:	00803fc4 	movi	r2,255
   22284:	18800326 	beq	r3,r2,22294 <__truncdfsf2+0x98>
   22288:	300c91ba 	slli	r6,r6,6
   2228c:	300cd27a 	srli	r6,r6,9
   22290:	00000206 	br	2229c <__truncdfsf2+0xa0>
   22294:	00ffffc4 	movi	r3,-1
   22298:	000d883a 	mov	r6,zero
   2229c:	18c03fcc 	andi	r3,r3,255
   222a0:	180895fa 	slli	r4,r3,23
   222a4:	00c02034 	movhi	r3,128
   222a8:	280a97fa 	slli	r5,r5,31
   222ac:	18ffffc4 	addi	r3,r3,-1
   222b0:	30c6703a 	and	r3,r6,r3
   222b4:	1906b03a 	or	r3,r3,r4
   222b8:	1944b03a 	or	r2,r3,r5
   222bc:	f800283a 	ret
   222c0:	4000071e 	bne	r8,zero,222e0 <__truncdfsf2+0xe4>
   222c4:	31ccb03a 	or	r6,r6,r7
   222c8:	30000d1e 	bne	r6,zero,22300 <__truncdfsf2+0x104>
   222cc:	0007883a 	mov	r3,zero
   222d0:	00802034 	movhi	r2,128
   222d4:	10bfffc4 	addi	r2,r2,-1
   222d8:	308c703a 	and	r6,r6,r2
   222dc:	003fef06 	br	2229c <__alt_data_end+0xfffe2e9c>
   222e0:	31c8b03a 	or	r4,r6,r7
   222e4:	203feb26 	beq	r4,zero,22294 <__alt_data_end+0xfffe2e94>
   222e8:	300c90fa 	slli	r6,r6,3
   222ec:	00c03fc4 	movi	r3,255
   222f0:	31808034 	orhi	r6,r6,512
   222f4:	003fd906 	br	2225c <__alt_data_end+0xfffe2e5c>
   222f8:	00bffa44 	movi	r2,-23
   222fc:	1880090e 	bge	r3,r2,22324 <__truncdfsf2+0x128>
   22300:	01800144 	movi	r6,5
   22304:	0007883a 	mov	r3,zero
   22308:	00803fc4 	movi	r2,255
   2230c:	300cd0fa 	srli	r6,r6,3
   22310:	18bfef1e 	bne	r3,r2,222d0 <__alt_data_end+0xfffe2ed0>
   22314:	303fdf26 	beq	r6,zero,22294 <__alt_data_end+0xfffe2e94>
   22318:	31801034 	orhi	r6,r6,64
   2231c:	00ffffc4 	movi	r3,-1
   22320:	003feb06 	br	222d0 <__alt_data_end+0xfffe2ed0>
   22324:	0080e784 	movi	r2,926
   22328:	1205c83a 	sub	r2,r2,r8
   2232c:	00c007c4 	movi	r3,31
   22330:	31802034 	orhi	r6,r6,128
   22334:	18800916 	blt	r3,r2,2235c <__truncdfsf2+0x160>
   22338:	423f2084 	addi	r8,r8,-894
   2233c:	3a06983a 	sll	r3,r7,r8
   22340:	3210983a 	sll	r8,r6,r8
   22344:	388ed83a 	srl	r7,r7,r2
   22348:	180cc03a 	cmpne	r6,r3,zero
   2234c:	418cb03a 	or	r6,r8,r6
   22350:	31ccb03a 	or	r6,r6,r7
   22354:	0007883a 	mov	r3,zero
   22358:	003fc006 	br	2225c <__alt_data_end+0xfffe2e5c>
   2235c:	00c0df84 	movi	r3,894
   22360:	1a07c83a 	sub	r3,r3,r8
   22364:	01000804 	movi	r4,32
   22368:	30c6d83a 	srl	r3,r6,r3
   2236c:	11000726 	beq	r2,r4,2238c <__truncdfsf2+0x190>
   22370:	423f2884 	addi	r8,r8,-862
   22374:	3210983a 	sll	r8,r6,r8
   22378:	41ceb03a 	or	r7,r8,r7
   2237c:	380ec03a 	cmpne	r7,r7,zero
   22380:	38ccb03a 	or	r6,r7,r3
   22384:	0007883a 	mov	r3,zero
   22388:	003fb406 	br	2225c <__alt_data_end+0xfffe2e5c>
   2238c:	0011883a 	mov	r8,zero
   22390:	003ff906 	br	22378 <__alt_data_end+0xfffe2f78>

00022394 <__clzsi2>:
   22394:	00bfffd4 	movui	r2,65535
   22398:	11000b36 	bltu	r2,r4,223c8 <__clzsi2+0x34>
   2239c:	00803fc4 	movi	r2,255
   223a0:	1100122e 	bgeu	r2,r4,223ec <__clzsi2+0x58>
   223a4:	00c00204 	movi	r3,8
   223a8:	01400604 	movi	r5,24
   223ac:	20c8d83a 	srl	r4,r4,r3
   223b0:	008000f4 	movhi	r2,3
   223b4:	10bf5804 	addi	r2,r2,-672
   223b8:	1109883a 	add	r4,r2,r4
   223bc:	20800003 	ldbu	r2,0(r4)
   223c0:	2885c83a 	sub	r2,r5,r2
   223c4:	f800283a 	ret
   223c8:	00804034 	movhi	r2,256
   223cc:	10bfffc4 	addi	r2,r2,-1
   223d0:	11000336 	bltu	r2,r4,223e0 <__clzsi2+0x4c>
   223d4:	00c00404 	movi	r3,16
   223d8:	180b883a 	mov	r5,r3
   223dc:	003ff306 	br	223ac <__alt_data_end+0xfffe2fac>
   223e0:	00c00604 	movi	r3,24
   223e4:	01400204 	movi	r5,8
   223e8:	003ff006 	br	223ac <__alt_data_end+0xfffe2fac>
   223ec:	0007883a 	mov	r3,zero
   223f0:	01400804 	movi	r5,32
   223f4:	003fed06 	br	223ac <__alt_data_end+0xfffe2fac>

000223f8 <udivmodsi4>:
   223f8:	2900182e 	bgeu	r5,r4,2245c <udivmodsi4+0x64>
   223fc:	28001716 	blt	r5,zero,2245c <udivmodsi4+0x64>
   22400:	00800804 	movi	r2,32
   22404:	00c00044 	movi	r3,1
   22408:	00000206 	br	22414 <udivmodsi4+0x1c>
   2240c:	10001126 	beq	r2,zero,22454 <udivmodsi4+0x5c>
   22410:	28000516 	blt	r5,zero,22428 <udivmodsi4+0x30>
   22414:	294b883a 	add	r5,r5,r5
   22418:	10bfffc4 	addi	r2,r2,-1
   2241c:	18c7883a 	add	r3,r3,r3
   22420:	293ffa36 	bltu	r5,r4,2240c <__alt_data_end+0xfffe300c>
   22424:	18000b26 	beq	r3,zero,22454 <udivmodsi4+0x5c>
   22428:	0005883a 	mov	r2,zero
   2242c:	21400236 	bltu	r4,r5,22438 <udivmodsi4+0x40>
   22430:	2149c83a 	sub	r4,r4,r5
   22434:	10c4b03a 	or	r2,r2,r3
   22438:	1806d07a 	srli	r3,r3,1
   2243c:	280ad07a 	srli	r5,r5,1
   22440:	183ffa1e 	bne	r3,zero,2242c <__alt_data_end+0xfffe302c>
   22444:	3000011e 	bne	r6,zero,2244c <udivmodsi4+0x54>
   22448:	f800283a 	ret
   2244c:	2005883a 	mov	r2,r4
   22450:	f800283a 	ret
   22454:	0005883a 	mov	r2,zero
   22458:	003ffa06 	br	22444 <__alt_data_end+0xfffe3044>
   2245c:	00c00044 	movi	r3,1
   22460:	003ff106 	br	22428 <__alt_data_end+0xfffe3028>

00022464 <__divsi3>:
   22464:	defffe04 	addi	sp,sp,-8
   22468:	dfc00115 	stw	ra,4(sp)
   2246c:	dc000015 	stw	r16,0(sp)
   22470:	20000b16 	blt	r4,zero,224a0 <__divsi3+0x3c>
   22474:	0021883a 	mov	r16,zero
   22478:	28000c16 	blt	r5,zero,224ac <__divsi3+0x48>
   2247c:	000d883a 	mov	r6,zero
   22480:	00223f80 	call	223f8 <udivmodsi4>
   22484:	0407c83a 	sub	r3,zero,r16
   22488:	1884f03a 	xor	r2,r3,r2
   2248c:	1405883a 	add	r2,r2,r16
   22490:	dfc00117 	ldw	ra,4(sp)
   22494:	dc000017 	ldw	r16,0(sp)
   22498:	dec00204 	addi	sp,sp,8
   2249c:	f800283a 	ret
   224a0:	0109c83a 	sub	r4,zero,r4
   224a4:	04000044 	movi	r16,1
   224a8:	283ff40e 	bge	r5,zero,2247c <__alt_data_end+0xfffe307c>
   224ac:	014bc83a 	sub	r5,zero,r5
   224b0:	8400005c 	xori	r16,r16,1
   224b4:	003ff106 	br	2247c <__alt_data_end+0xfffe307c>

000224b8 <__modsi3>:
   224b8:	defffd04 	addi	sp,sp,-12
   224bc:	dfc00215 	stw	ra,8(sp)
   224c0:	dc400115 	stw	r17,4(sp)
   224c4:	dc000015 	stw	r16,0(sp)
   224c8:	20000c16 	blt	r4,zero,224fc <__modsi3+0x44>
   224cc:	0023883a 	mov	r17,zero
   224d0:	0021883a 	mov	r16,zero
   224d4:	28000d16 	blt	r5,zero,2250c <__modsi3+0x54>
   224d8:	01800044 	movi	r6,1
   224dc:	00223f80 	call	223f8 <udivmodsi4>
   224e0:	1404f03a 	xor	r2,r2,r16
   224e4:	8885883a 	add	r2,r17,r2
   224e8:	dfc00217 	ldw	ra,8(sp)
   224ec:	dc400117 	ldw	r17,4(sp)
   224f0:	dc000017 	ldw	r16,0(sp)
   224f4:	dec00304 	addi	sp,sp,12
   224f8:	f800283a 	ret
   224fc:	0109c83a 	sub	r4,zero,r4
   22500:	04400044 	movi	r17,1
   22504:	043fffc4 	movi	r16,-1
   22508:	283ff30e 	bge	r5,zero,224d8 <__alt_data_end+0xfffe30d8>
   2250c:	014bc83a 	sub	r5,zero,r5
   22510:	003ff106 	br	224d8 <__alt_data_end+0xfffe30d8>

00022514 <__udivsi3>:
   22514:	000d883a 	mov	r6,zero
   22518:	00223f81 	jmpi	223f8 <udivmodsi4>

0002251c <__umodsi3>:
   2251c:	01800044 	movi	r6,1
   22520:	00223f81 	jmpi	223f8 <udivmodsi4>

00022524 <_printf_r>:
   22524:	defffd04 	addi	sp,sp,-12
   22528:	dfc00015 	stw	ra,0(sp)
   2252c:	d9800115 	stw	r6,4(sp)
   22530:	d9c00215 	stw	r7,8(sp)
   22534:	280d883a 	mov	r6,r5
   22538:	21400217 	ldw	r5,8(r4)
   2253c:	d9c00104 	addi	r7,sp,4
   22540:	00226f00 	call	226f0 <___vfprintf_internal_r>
   22544:	dfc00017 	ldw	ra,0(sp)
   22548:	dec00304 	addi	sp,sp,12
   2254c:	f800283a 	ret

00022550 <printf>:
   22550:	defffc04 	addi	sp,sp,-16
   22554:	dfc00015 	stw	ra,0(sp)
   22558:	d9400115 	stw	r5,4(sp)
   2255c:	d9800215 	stw	r6,8(sp)
   22560:	d9c00315 	stw	r7,12(sp)
   22564:	008000f4 	movhi	r2,3
   22568:	1086f204 	addi	r2,r2,7112
   2256c:	10800017 	ldw	r2,0(r2)
   22570:	200b883a 	mov	r5,r4
   22574:	d9800104 	addi	r6,sp,4
   22578:	11000217 	ldw	r4,8(r2)
   2257c:	00246ec0 	call	246ec <__vfprintf_internal>
   22580:	dfc00017 	ldw	ra,0(sp)
   22584:	dec00404 	addi	sp,sp,16
   22588:	f800283a 	ret

0002258c <_puts_r>:
   2258c:	defff604 	addi	sp,sp,-40
   22590:	dc000715 	stw	r16,28(sp)
   22594:	2021883a 	mov	r16,r4
   22598:	2809883a 	mov	r4,r5
   2259c:	dc400815 	stw	r17,32(sp)
   225a0:	dfc00915 	stw	ra,36(sp)
   225a4:	2823883a 	mov	r17,r5
   225a8:	00226580 	call	22658 <strlen>
   225ac:	00c000f4 	movhi	r3,3
   225b0:	18c6f204 	addi	r3,r3,7112
   225b4:	18c00017 	ldw	r3,0(r3)
   225b8:	11000044 	addi	r4,r2,1
   225bc:	d8800115 	stw	r2,4(sp)
   225c0:	18c00217 	ldw	r3,8(r3)
   225c4:	014000f4 	movhi	r5,3
   225c8:	297f9804 	addi	r5,r5,-416
   225cc:	1880030b 	ldhu	r2,12(r3)
   225d0:	d9400215 	stw	r5,8(sp)
   225d4:	d9000615 	stw	r4,24(sp)
   225d8:	01400044 	movi	r5,1
   225dc:	01000084 	movi	r4,2
   225e0:	d9000515 	stw	r4,20(sp)
   225e4:	dc400015 	stw	r17,0(sp)
   225e8:	d9400315 	stw	r5,12(sp)
   225ec:	dec00415 	stw	sp,16(sp)
   225f0:	1108000c 	andi	r4,r2,8192
   225f4:	2000061e 	bne	r4,zero,22610 <_puts_r+0x84>
   225f8:	19401917 	ldw	r5,100(r3)
   225fc:	0137ffc4 	movi	r4,-8193
   22600:	10880014 	ori	r2,r2,8192
   22604:	2908703a 	and	r4,r5,r4
   22608:	1880030d 	sth	r2,12(r3)
   2260c:	19001915 	stw	r4,100(r3)
   22610:	81400217 	ldw	r5,8(r16)
   22614:	8009883a 	mov	r4,r16
   22618:	d9800404 	addi	r6,sp,16
   2261c:	0026b740 	call	26b74 <__sfvwrite_r>
   22620:	1000061e 	bne	r2,zero,2263c <_puts_r+0xb0>
   22624:	00800284 	movi	r2,10
   22628:	dfc00917 	ldw	ra,36(sp)
   2262c:	dc400817 	ldw	r17,32(sp)
   22630:	dc000717 	ldw	r16,28(sp)
   22634:	dec00a04 	addi	sp,sp,40
   22638:	f800283a 	ret
   2263c:	00bfffc4 	movi	r2,-1
   22640:	003ff906 	br	22628 <__alt_data_end+0xfffe3228>

00022644 <puts>:
   22644:	008000f4 	movhi	r2,3
   22648:	1086f204 	addi	r2,r2,7112
   2264c:	200b883a 	mov	r5,r4
   22650:	11000017 	ldw	r4,0(r2)
   22654:	002258c1 	jmpi	2258c <_puts_r>

00022658 <strlen>:
   22658:	208000cc 	andi	r2,r4,3
   2265c:	10002026 	beq	r2,zero,226e0 <strlen+0x88>
   22660:	20800007 	ldb	r2,0(r4)
   22664:	10002026 	beq	r2,zero,226e8 <strlen+0x90>
   22668:	2005883a 	mov	r2,r4
   2266c:	00000206 	br	22678 <strlen+0x20>
   22670:	10c00007 	ldb	r3,0(r2)
   22674:	18001826 	beq	r3,zero,226d8 <strlen+0x80>
   22678:	10800044 	addi	r2,r2,1
   2267c:	10c000cc 	andi	r3,r2,3
   22680:	183ffb1e 	bne	r3,zero,22670 <__alt_data_end+0xfffe3270>
   22684:	10c00017 	ldw	r3,0(r2)
   22688:	01ffbff4 	movhi	r7,65279
   2268c:	39ffbfc4 	addi	r7,r7,-257
   22690:	00ca303a 	nor	r5,zero,r3
   22694:	01a02074 	movhi	r6,32897
   22698:	19c7883a 	add	r3,r3,r7
   2269c:	31a02004 	addi	r6,r6,-32640
   226a0:	1946703a 	and	r3,r3,r5
   226a4:	1986703a 	and	r3,r3,r6
   226a8:	1800091e 	bne	r3,zero,226d0 <strlen+0x78>
   226ac:	10800104 	addi	r2,r2,4
   226b0:	10c00017 	ldw	r3,0(r2)
   226b4:	19cb883a 	add	r5,r3,r7
   226b8:	00c6303a 	nor	r3,zero,r3
   226bc:	28c6703a 	and	r3,r5,r3
   226c0:	1986703a 	and	r3,r3,r6
   226c4:	183ff926 	beq	r3,zero,226ac <__alt_data_end+0xfffe32ac>
   226c8:	00000106 	br	226d0 <strlen+0x78>
   226cc:	10800044 	addi	r2,r2,1
   226d0:	10c00007 	ldb	r3,0(r2)
   226d4:	183ffd1e 	bne	r3,zero,226cc <__alt_data_end+0xfffe32cc>
   226d8:	1105c83a 	sub	r2,r2,r4
   226dc:	f800283a 	ret
   226e0:	2005883a 	mov	r2,r4
   226e4:	003fe706 	br	22684 <__alt_data_end+0xfffe3284>
   226e8:	0005883a 	mov	r2,zero
   226ec:	f800283a 	ret

000226f0 <___vfprintf_internal_r>:
   226f0:	defeb604 	addi	sp,sp,-1320
   226f4:	dfc14915 	stw	ra,1316(sp)
   226f8:	ddc14715 	stw	r23,1308(sp)
   226fc:	dd814615 	stw	r22,1304(sp)
   22700:	282f883a 	mov	r23,r5
   22704:	202d883a 	mov	r22,r4
   22708:	d9812a15 	stw	r6,1192(sp)
   2270c:	d9c12d15 	stw	r7,1204(sp)
   22710:	df014815 	stw	fp,1312(sp)
   22714:	dd414515 	stw	r21,1300(sp)
   22718:	dd014415 	stw	r20,1296(sp)
   2271c:	dcc14315 	stw	r19,1292(sp)
   22720:	dc814215 	stw	r18,1288(sp)
   22724:	dc414115 	stw	r17,1284(sp)
   22728:	dc014015 	stw	r16,1280(sp)
   2272c:	00272340 	call	27234 <_localeconv_r>
   22730:	10800017 	ldw	r2,0(r2)
   22734:	1009883a 	mov	r4,r2
   22738:	d8813515 	stw	r2,1236(sp)
   2273c:	00226580 	call	22658 <strlen>
   22740:	d8813815 	stw	r2,1248(sp)
   22744:	b0000226 	beq	r22,zero,22750 <___vfprintf_internal_r+0x60>
   22748:	b0800e17 	ldw	r2,56(r22)
   2274c:	10010426 	beq	r2,zero,22b60 <___vfprintf_internal_r+0x470>
   22750:	b8c0030b 	ldhu	r3,12(r23)
   22754:	1908000c 	andi	r4,r3,8192
   22758:	1805883a 	mov	r2,r3
   2275c:	2000071e 	bne	r4,zero,2277c <___vfprintf_internal_r+0x8c>
   22760:	b9001917 	ldw	r4,100(r23)
   22764:	18880014 	ori	r2,r3,8192
   22768:	00f7ffc4 	movi	r3,-8193
   2276c:	20c8703a 	and	r4,r4,r3
   22770:	b880030d 	sth	r2,12(r23)
   22774:	1007883a 	mov	r3,r2
   22778:	b9001915 	stw	r4,100(r23)
   2277c:	1100020c 	andi	r4,r2,8
   22780:	2000a726 	beq	r4,zero,22a20 <___vfprintf_internal_r+0x330>
   22784:	b9000417 	ldw	r4,16(r23)
   22788:	2000a526 	beq	r4,zero,22a20 <___vfprintf_internal_r+0x330>
   2278c:	1080068c 	andi	r2,r2,26
   22790:	01000284 	movi	r4,10
   22794:	1100ab26 	beq	r2,r4,22a44 <___vfprintf_internal_r+0x354>
   22798:	dac10e04 	addi	r11,sp,1080
   2279c:	db010dc4 	addi	r12,sp,1079
   227a0:	d8800404 	addi	r2,sp,16
   227a4:	050000f4 	movhi	r20,3
   227a8:	dac12815 	stw	r11,1184(sp)
   227ac:	5b17c83a 	sub	r11,r11,r12
   227b0:	a53fa984 	addi	r20,r20,-346
   227b4:	db012915 	stw	r12,1188(sp)
   227b8:	d8811e15 	stw	r2,1144(sp)
   227bc:	d8012015 	stw	zero,1152(sp)
   227c0:	d8011f15 	stw	zero,1148(sp)
   227c4:	d8013315 	stw	zero,1228(sp)
   227c8:	d8013715 	stw	zero,1244(sp)
   227cc:	d8013915 	stw	zero,1252(sp)
   227d0:	d8013b15 	stw	zero,1260(sp)
   227d4:	d8013a15 	stw	zero,1256(sp)
   227d8:	d8012f15 	stw	zero,1212(sp)
   227dc:	1011883a 	mov	r8,r2
   227e0:	dac13c15 	stw	r11,1264(sp)
   227e4:	db012a17 	ldw	r12,1192(sp)
   227e8:	60800007 	ldb	r2,0(r12)
   227ec:	1000df26 	beq	r2,zero,22b6c <___vfprintf_internal_r+0x47c>
   227f0:	00c00944 	movi	r3,37
   227f4:	10c0dd26 	beq	r2,r3,22b6c <___vfprintf_internal_r+0x47c>
   227f8:	6021883a 	mov	r16,r12
   227fc:	00000106 	br	22804 <___vfprintf_internal_r+0x114>
   22800:	10c08426 	beq	r2,r3,22a14 <___vfprintf_internal_r+0x324>
   22804:	84000044 	addi	r16,r16,1
   22808:	80800007 	ldb	r2,0(r16)
   2280c:	103ffc1e 	bne	r2,zero,22800 <__alt_data_end+0xfffe3400>
   22810:	dac12a17 	ldw	r11,1192(sp)
   22814:	82e3c83a 	sub	r17,r16,r11
   22818:	88000f26 	beq	r17,zero,22858 <___vfprintf_internal_r+0x168>
   2281c:	d8c12017 	ldw	r3,1152(sp)
   22820:	d8811f17 	ldw	r2,1148(sp)
   22824:	dac12a17 	ldw	r11,1192(sp)
   22828:	1c47883a 	add	r3,r3,r17
   2282c:	10800044 	addi	r2,r2,1
   22830:	d8c12015 	stw	r3,1152(sp)
   22834:	42c00015 	stw	r11,0(r8)
   22838:	44400115 	stw	r17,4(r8)
   2283c:	d8811f15 	stw	r2,1148(sp)
   22840:	00c001c4 	movi	r3,7
   22844:	1880b416 	blt	r3,r2,22b18 <___vfprintf_internal_r+0x428>
   22848:	42000204 	addi	r8,r8,8
   2284c:	db012f17 	ldw	r12,1212(sp)
   22850:	6459883a 	add	r12,r12,r17
   22854:	db012f15 	stw	r12,1212(sp)
   22858:	80800007 	ldb	r2,0(r16)
   2285c:	1000b526 	beq	r2,zero,22b34 <___vfprintf_internal_r+0x444>
   22860:	80800044 	addi	r2,r16,1
   22864:	84000047 	ldb	r16,1(r16)
   22868:	d8012785 	stb	zero,1182(sp)
   2286c:	000d883a 	mov	r6,zero
   22870:	027fffc4 	movi	r9,-1
   22874:	d8012e15 	stw	zero,1208(sp)
   22878:	0023883a 	mov	r17,zero
   2287c:	01001604 	movi	r4,88
   22880:	01400244 	movi	r5,9
   22884:	02800a84 	movi	r10,42
   22888:	01c01b04 	movi	r7,108
   2288c:	10c00044 	addi	r3,r2,1
   22890:	80bff804 	addi	r2,r16,-32
   22894:	2082f236 	bltu	r4,r2,23460 <___vfprintf_internal_r+0xd70>
   22898:	100490ba 	slli	r2,r2,2
   2289c:	02c000b4 	movhi	r11,2
   228a0:	5aca2c04 	addi	r11,r11,10416
   228a4:	12c5883a 	add	r2,r2,r11
   228a8:	10800017 	ldw	r2,0(r2)
   228ac:	1000683a 	jmp	r2
   228b0:	000232a8 	cmpgeui	zero,zero,2250
   228b4:	00023460 	cmpeqi	zero,zero,2257
   228b8:	00023460 	cmpeqi	zero,zero,2257
   228bc:	000232c8 	cmpgei	zero,zero,2251
   228c0:	00023460 	cmpeqi	zero,zero,2257
   228c4:	00023460 	cmpeqi	zero,zero,2257
   228c8:	00023460 	cmpeqi	zero,zero,2257
   228cc:	00023460 	cmpeqi	zero,zero,2257
   228d0:	00023460 	cmpeqi	zero,zero,2257
   228d4:	00023460 	cmpeqi	zero,zero,2257
   228d8:	00023424 	muli	zero,zero,2256
   228dc:	00023450 	cmplti	zero,zero,2257
   228e0:	00023460 	cmpeqi	zero,zero,2257
   228e4:	00022b74 	movhi	zero,2221
   228e8:	00022b84 	movi	zero,2222
   228ec:	00023460 	cmpeqi	zero,zero,2257
   228f0:	00022bc4 	movi	zero,2223
   228f4:	000230b8 	rdprs	zero,zero,2242
   228f8:	000230b8 	rdprs	zero,zero,2242
   228fc:	000230b8 	rdprs	zero,zero,2242
   22900:	000230b8 	rdprs	zero,zero,2242
   22904:	000230b8 	rdprs	zero,zero,2242
   22908:	000230b8 	rdprs	zero,zero,2242
   2290c:	000230b8 	rdprs	zero,zero,2242
   22910:	000230b8 	rdprs	zero,zero,2242
   22914:	000230b8 	rdprs	zero,zero,2242
   22918:	00023460 	cmpeqi	zero,zero,2257
   2291c:	00023460 	cmpeqi	zero,zero,2257
   22920:	00023460 	cmpeqi	zero,zero,2257
   22924:	00023460 	cmpeqi	zero,zero,2257
   22928:	00023460 	cmpeqi	zero,zero,2257
   2292c:	00023460 	cmpeqi	zero,zero,2257
   22930:	00023460 	cmpeqi	zero,zero,2257
   22934:	00023460 	cmpeqi	zero,zero,2257
   22938:	00023460 	cmpeqi	zero,zero,2257
   2293c:	00023460 	cmpeqi	zero,zero,2257
   22940:	000230ec 	andhi	zero,zero,2243
   22944:	00022bd4 	movui	zero,2223
   22948:	00023460 	cmpeqi	zero,zero,2257
   2294c:	00022bd4 	movui	zero,2223
   22950:	00023460 	cmpeqi	zero,zero,2257
   22954:	00023460 	cmpeqi	zero,zero,2257
   22958:	00023460 	cmpeqi	zero,zero,2257
   2295c:	00023460 	cmpeqi	zero,zero,2257
   22960:	00022c78 	rdprs	zero,zero,2225
   22964:	00023460 	cmpeqi	zero,zero,2257
   22968:	00023460 	cmpeqi	zero,zero,2257
   2296c:	00022c88 	cmpgei	zero,zero,2226
   22970:	00023460 	cmpeqi	zero,zero,2257
   22974:	00023460 	cmpeqi	zero,zero,2257
   22978:	00023460 	cmpeqi	zero,zero,2257
   2297c:	00023460 	cmpeqi	zero,zero,2257
   22980:	00023460 	cmpeqi	zero,zero,2257
   22984:	00023084 	movi	zero,2242
   22988:	00023460 	cmpeqi	zero,zero,2257
   2298c:	00023460 	cmpeqi	zero,zero,2257
   22990:	00023134 	movhi	zero,2244
   22994:	00023460 	cmpeqi	zero,zero,2257
   22998:	00023460 	cmpeqi	zero,zero,2257
   2299c:	00023460 	cmpeqi	zero,zero,2257
   229a0:	00023460 	cmpeqi	zero,zero,2257
   229a4:	00023460 	cmpeqi	zero,zero,2257
   229a8:	00023460 	cmpeqi	zero,zero,2257
   229ac:	00023460 	cmpeqi	zero,zero,2257
   229b0:	00023460 	cmpeqi	zero,zero,2257
   229b4:	00023460 	cmpeqi	zero,zero,2257
   229b8:	00023460 	cmpeqi	zero,zero,2257
   229bc:	00023328 	cmpgeui	zero,zero,2252
   229c0:	000232d8 	cmpnei	zero,zero,2251
   229c4:	00022bd4 	movui	zero,2223
   229c8:	00022bd4 	movui	zero,2223
   229cc:	00022bd4 	movui	zero,2223
   229d0:	00023318 	cmpnei	zero,zero,2252
   229d4:	000232d8 	cmpnei	zero,zero,2251
   229d8:	00023460 	cmpeqi	zero,zero,2257
   229dc:	00023460 	cmpeqi	zero,zero,2257
   229e0:	00023220 	cmpeqi	zero,zero,2248
   229e4:	00023460 	cmpeqi	zero,zero,2257
   229e8:	00023234 	movhi	zero,2248
   229ec:	00023268 	cmpgeui	zero,zero,2249
   229f0:	00023368 	cmpgeui	zero,zero,2253
   229f4:	00023190 	cmplti	zero,zero,2246
   229f8:	00023460 	cmpeqi	zero,zero,2257
   229fc:	000233b0 	cmpltui	zero,zero,2254
   22a00:	00023460 	cmpeqi	zero,zero,2257
   22a04:	000231a0 	cmpeqi	zero,zero,2246
   22a08:	00023460 	cmpeqi	zero,zero,2257
   22a0c:	00023460 	cmpeqi	zero,zero,2257
   22a10:	000231e0 	cmpeqi	zero,zero,2247
   22a14:	db012a17 	ldw	r12,1192(sp)
   22a18:	8323c83a 	sub	r17,r16,r12
   22a1c:	003f7e06 	br	22818 <__alt_data_end+0xfffe3418>
   22a20:	b009883a 	mov	r4,r22
   22a24:	b80b883a 	mov	r5,r23
   22a28:	00247100 	call	24710 <__swsetup_r>
   22a2c:	10002d1e 	bne	r2,zero,22ae4 <___vfprintf_internal_r+0x3f4>
   22a30:	b8c0030b 	ldhu	r3,12(r23)
   22a34:	01000284 	movi	r4,10
   22a38:	1805883a 	mov	r2,r3
   22a3c:	1080068c 	andi	r2,r2,26
   22a40:	113f551e 	bne	r2,r4,22798 <__alt_data_end+0xfffe3398>
   22a44:	b880038b 	ldhu	r2,14(r23)
   22a48:	113fffcc 	andi	r4,r2,65535
   22a4c:	2120001c 	xori	r4,r4,32768
   22a50:	21200004 	addi	r4,r4,-32768
   22a54:	203f5016 	blt	r4,zero,22798 <__alt_data_end+0xfffe3398>
   22a58:	bac01917 	ldw	r11,100(r23)
   22a5c:	ba800717 	ldw	r10,28(r23)
   22a60:	ba400917 	ldw	r9,36(r23)
   22a64:	d9812a17 	ldw	r6,1192(sp)
   22a68:	d9c12d17 	ldw	r7,1204(sp)
   22a6c:	02010004 	movi	r8,1024
   22a70:	18ffff4c 	andi	r3,r3,65533
   22a74:	d881078d 	sth	r2,1054(sp)
   22a78:	b009883a 	mov	r4,r22
   22a7c:	d8800404 	addi	r2,sp,16
   22a80:	d9410404 	addi	r5,sp,1040
   22a84:	d8c1070d 	sth	r3,1052(sp)
   22a88:	dac11d15 	stw	r11,1140(sp)
   22a8c:	da810b15 	stw	r10,1068(sp)
   22a90:	da410d15 	stw	r9,1076(sp)
   22a94:	d8810415 	stw	r2,1040(sp)
   22a98:	d8810815 	stw	r2,1056(sp)
   22a9c:	da010615 	stw	r8,1048(sp)
   22aa0:	da010915 	stw	r8,1060(sp)
   22aa4:	d8010a15 	stw	zero,1064(sp)
   22aa8:	00226f00 	call	226f0 <___vfprintf_internal_r>
   22aac:	1021883a 	mov	r16,r2
   22ab0:	10000416 	blt	r2,zero,22ac4 <___vfprintf_internal_r+0x3d4>
   22ab4:	b009883a 	mov	r4,r22
   22ab8:	d9410404 	addi	r5,sp,1040
   22abc:	00261680 	call	26168 <_fflush_r>
   22ac0:	1006ee1e 	bne	r2,zero,2467c <___vfprintf_internal_r+0x1f8c>
   22ac4:	d881070b 	ldhu	r2,1052(sp)
   22ac8:	1080100c 	andi	r2,r2,64
   22acc:	10000326 	beq	r2,zero,22adc <___vfprintf_internal_r+0x3ec>
   22ad0:	b880030b 	ldhu	r2,12(r23)
   22ad4:	10801014 	ori	r2,r2,64
   22ad8:	b880030d 	sth	r2,12(r23)
   22adc:	8005883a 	mov	r2,r16
   22ae0:	00000106 	br	22ae8 <___vfprintf_internal_r+0x3f8>
   22ae4:	00bfffc4 	movi	r2,-1
   22ae8:	dfc14917 	ldw	ra,1316(sp)
   22aec:	df014817 	ldw	fp,1312(sp)
   22af0:	ddc14717 	ldw	r23,1308(sp)
   22af4:	dd814617 	ldw	r22,1304(sp)
   22af8:	dd414517 	ldw	r21,1300(sp)
   22afc:	dd014417 	ldw	r20,1296(sp)
   22b00:	dcc14317 	ldw	r19,1292(sp)
   22b04:	dc814217 	ldw	r18,1288(sp)
   22b08:	dc414117 	ldw	r17,1284(sp)
   22b0c:	dc014017 	ldw	r16,1280(sp)
   22b10:	dec14a04 	addi	sp,sp,1320
   22b14:	f800283a 	ret
   22b18:	b009883a 	mov	r4,r22
   22b1c:	b80b883a 	mov	r5,r23
   22b20:	d9811e04 	addi	r6,sp,1144
   22b24:	00299380 	call	29938 <__sprint_r>
   22b28:	1000081e 	bne	r2,zero,22b4c <___vfprintf_internal_r+0x45c>
   22b2c:	da000404 	addi	r8,sp,16
   22b30:	003f4606 	br	2284c <__alt_data_end+0xfffe344c>
   22b34:	d8812017 	ldw	r2,1152(sp)
   22b38:	10000426 	beq	r2,zero,22b4c <___vfprintf_internal_r+0x45c>
   22b3c:	b009883a 	mov	r4,r22
   22b40:	b80b883a 	mov	r5,r23
   22b44:	d9811e04 	addi	r6,sp,1144
   22b48:	00299380 	call	29938 <__sprint_r>
   22b4c:	b880030b 	ldhu	r2,12(r23)
   22b50:	1080100c 	andi	r2,r2,64
   22b54:	103fe31e 	bne	r2,zero,22ae4 <__alt_data_end+0xfffe36e4>
   22b58:	d8812f17 	ldw	r2,1212(sp)
   22b5c:	003fe206 	br	22ae8 <__alt_data_end+0xfffe36e8>
   22b60:	b009883a 	mov	r4,r22
   22b64:	00267100 	call	26710 <__sinit>
   22b68:	003ef906 	br	22750 <__alt_data_end+0xfffe3350>
   22b6c:	dc012a17 	ldw	r16,1192(sp)
   22b70:	003f3906 	br	22858 <__alt_data_end+0xfffe3458>
   22b74:	1805883a 	mov	r2,r3
   22b78:	8c400114 	ori	r17,r17,4
   22b7c:	1c000007 	ldb	r16,0(r3)
   22b80:	003f4206 	br	2288c <__alt_data_end+0xfffe348c>
   22b84:	1c000007 	ldb	r16,0(r3)
   22b88:	18800044 	addi	r2,r3,1
   22b8c:	8286b326 	beq	r16,r10,2465c <___vfprintf_internal_r+0x1f6c>
   22b90:	82fff404 	addi	r11,r16,-48
   22b94:	1007883a 	mov	r3,r2
   22b98:	0013883a 	mov	r9,zero
   22b9c:	2aff3c36 	bltu	r5,r11,22890 <__alt_data_end+0xfffe3490>
   22ba0:	1c000007 	ldb	r16,0(r3)
   22ba4:	4a4002a4 	muli	r9,r9,10
   22ba8:	18c00044 	addi	r3,r3,1
   22bac:	5a53883a 	add	r9,r11,r9
   22bb0:	82fff404 	addi	r11,r16,-48
   22bb4:	2afffa2e 	bgeu	r5,r11,22ba0 <__alt_data_end+0xfffe37a0>
   22bb8:	483f350e 	bge	r9,zero,22890 <__alt_data_end+0xfffe3490>
   22bbc:	027fffc4 	movi	r9,-1
   22bc0:	003f3306 	br	22890 <__alt_data_end+0xfffe3490>
   22bc4:	8c402014 	ori	r17,r17,128
   22bc8:	1805883a 	mov	r2,r3
   22bcc:	1c000007 	ldb	r16,0(r3)
   22bd0:	003f2e06 	br	2288c <__alt_data_end+0xfffe348c>
   22bd4:	db012d17 	ldw	r12,1204(sp)
   22bd8:	dac12d17 	ldw	r11,1204(sp)
   22bdc:	d8c12a15 	stw	r3,1192(sp)
   22be0:	63000017 	ldw	r12,0(r12)
   22be4:	5ac00117 	ldw	r11,4(r11)
   22be8:	d9812785 	stb	r6,1182(sp)
   22bec:	6009883a 	mov	r4,r12
   22bf0:	580b883a 	mov	r5,r11
   22bf4:	db013715 	stw	r12,1244(sp)
   22bf8:	da013f15 	stw	r8,1276(sp)
   22bfc:	da413e15 	stw	r9,1272(sp)
   22c00:	dac13915 	stw	r11,1252(sp)
   22c04:	00295940 	call	29594 <__fpclassifyd>
   22c08:	db012d17 	ldw	r12,1204(sp)
   22c0c:	04800044 	movi	r18,1
   22c10:	da013f17 	ldw	r8,1276(sp)
   22c14:	64c00204 	addi	r19,r12,8
   22c18:	da413e17 	ldw	r9,1272(sp)
   22c1c:	d9013717 	ldw	r4,1244(sp)
   22c20:	d9413917 	ldw	r5,1252(sp)
   22c24:	1484581e 	bne	r2,r18,23d88 <___vfprintf_internal_r+0x1698>
   22c28:	000d883a 	mov	r6,zero
   22c2c:	000f883a 	mov	r7,zero
   22c30:	002cb580 	call	2cb58 <__ledf2>
   22c34:	da013f17 	ldw	r8,1276(sp)
   22c38:	1005ef16 	blt	r2,zero,243f8 <___vfprintf_internal_r+0x1d08>
   22c3c:	dd412783 	ldbu	r21,1182(sp)
   22c40:	008011c4 	movi	r2,71
   22c44:	14053b0e 	bge	r2,r16,24134 <___vfprintf_internal_r+0x1a44>
   22c48:	00c000f4 	movhi	r3,3
   22c4c:	18ff9a04 	addi	r3,r3,-408
   22c50:	d8c13115 	stw	r3,1220(sp)
   22c54:	02c000c4 	movi	r11,3
   22c58:	00bfdfc4 	movi	r2,-129
   22c5c:	dac12b15 	stw	r11,1196(sp)
   22c60:	88a2703a 	and	r17,r17,r2
   22c64:	dcc12d15 	stw	r19,1204(sp)
   22c68:	5825883a 	mov	r18,r11
   22c6c:	d8013215 	stw	zero,1224(sp)
   22c70:	d8013415 	stw	zero,1232(sp)
   22c74:	00003206 	br	22d40 <___vfprintf_internal_r+0x650>
   22c78:	8c400214 	ori	r17,r17,8
   22c7c:	1805883a 	mov	r2,r3
   22c80:	1c000007 	ldb	r16,0(r3)
   22c84:	003f0106 	br	2288c <__alt_data_end+0xfffe348c>
   22c88:	8c400414 	ori	r17,r17,16
   22c8c:	d8c12a15 	stw	r3,1192(sp)
   22c90:	88c0080c 	andi	r3,r17,32
   22c94:	d8812d17 	ldw	r2,1204(sp)
   22c98:	18017726 	beq	r3,zero,23278 <___vfprintf_internal_r+0xb88>
   22c9c:	db012d17 	ldw	r12,1204(sp)
   22ca0:	14c00017 	ldw	r19,0(r2)
   22ca4:	17000117 	ldw	fp,4(r2)
   22ca8:	63000204 	addi	r12,r12,8
   22cac:	db012d15 	stw	r12,1204(sp)
   22cb0:	0005883a 	mov	r2,zero
   22cb4:	9f06b03a 	or	r3,r19,fp
   22cb8:	d8012785 	stb	zero,1182(sp)
   22cbc:	da413215 	stw	r9,1224(sp)
   22cc0:	002b883a 	mov	r21,zero
   22cc4:	48000216 	blt	r9,zero,22cd0 <___vfprintf_internal_r+0x5e0>
   22cc8:	013fdfc4 	movi	r4,-129
   22ccc:	8922703a 	and	r17,r17,r4
   22cd0:	1801ed1e 	bne	r3,zero,23488 <___vfprintf_internal_r+0xd98>
   22cd4:	4802e026 	beq	r9,zero,23858 <___vfprintf_internal_r+0x1168>
   22cd8:	10803fcc 	andi	r2,r2,255
   22cdc:	00c00044 	movi	r3,1
   22ce0:	10c20f26 	beq	r2,r3,23520 <___vfprintf_internal_r+0xe30>
   22ce4:	00c00084 	movi	r3,2
   22ce8:	10c2fd26 	beq	r2,r3,238e0 <___vfprintf_internal_r+0x11f0>
   22cec:	d8c10e04 	addi	r3,sp,1080
   22cf0:	9808d0fa 	srli	r4,r19,3
   22cf4:	e00a977a 	slli	r5,fp,29
   22cf8:	e038d0fa 	srli	fp,fp,3
   22cfc:	9cc001cc 	andi	r19,r19,7
   22d00:	98800c04 	addi	r2,r19,48
   22d04:	18ffffc4 	addi	r3,r3,-1
   22d08:	2926b03a 	or	r19,r5,r4
   22d0c:	18800005 	stb	r2,0(r3)
   22d10:	9f08b03a 	or	r4,r19,fp
   22d14:	203ff61e 	bne	r4,zero,22cf0 <__alt_data_end+0xfffe38f0>
   22d18:	8900004c 	andi	r4,r17,1
   22d1c:	d8c13115 	stw	r3,1220(sp)
   22d20:	2003791e 	bne	r4,zero,23b08 <___vfprintf_internal_r+0x1418>
   22d24:	dac12817 	ldw	r11,1184(sp)
   22d28:	58e5c83a 	sub	r18,r11,r3
   22d2c:	9005883a 	mov	r2,r18
   22d30:	9240010e 	bge	r18,r9,22d38 <___vfprintf_internal_r+0x648>
   22d34:	4805883a 	mov	r2,r9
   22d38:	d8812b15 	stw	r2,1196(sp)
   22d3c:	d8013415 	stw	zero,1232(sp)
   22d40:	a8803fcc 	andi	r2,r21,255
   22d44:	1080201c 	xori	r2,r2,128
   22d48:	10bfe004 	addi	r2,r2,-128
   22d4c:	10000326 	beq	r2,zero,22d5c <___vfprintf_internal_r+0x66c>
   22d50:	db012b17 	ldw	r12,1196(sp)
   22d54:	63000044 	addi	r12,r12,1
   22d58:	db012b15 	stw	r12,1196(sp)
   22d5c:	88c0008c 	andi	r3,r17,2
   22d60:	d8c12c15 	stw	r3,1200(sp)
   22d64:	18000326 	beq	r3,zero,22d74 <___vfprintf_internal_r+0x684>
   22d68:	dac12b17 	ldw	r11,1196(sp)
   22d6c:	5ac00084 	addi	r11,r11,2
   22d70:	dac12b15 	stw	r11,1196(sp)
   22d74:	8b00210c 	andi	r12,r17,132
   22d78:	db013015 	stw	r12,1216(sp)
   22d7c:	6001c01e 	bne	r12,zero,23480 <___vfprintf_internal_r+0xd90>
   22d80:	dac12e17 	ldw	r11,1208(sp)
   22d84:	db012b17 	ldw	r12,1196(sp)
   22d88:	5b39c83a 	sub	fp,r11,r12
   22d8c:	0701bc0e 	bge	zero,fp,23480 <___vfprintf_internal_r+0xd90>
   22d90:	02400404 	movi	r9,16
   22d94:	d8c12017 	ldw	r3,1152(sp)
   22d98:	d8811f17 	ldw	r2,1148(sp)
   22d9c:	4f05220e 	bge	r9,fp,24228 <___vfprintf_internal_r+0x1b38>
   22da0:	014000f4 	movhi	r5,3
   22da4:	297fad84 	addi	r5,r5,-330
   22da8:	d9413615 	stw	r5,1240(sp)
   22dac:	482b883a 	mov	r21,r9
   22db0:	04c001c4 	movi	r19,7
   22db4:	00000306 	br	22dc4 <___vfprintf_internal_r+0x6d4>
   22db8:	e73ffc04 	addi	fp,fp,-16
   22dbc:	42000204 	addi	r8,r8,8
   22dc0:	af00130e 	bge	r21,fp,22e10 <___vfprintf_internal_r+0x720>
   22dc4:	02c000f4 	movhi	r11,3
   22dc8:	18c00404 	addi	r3,r3,16
   22dcc:	10800044 	addi	r2,r2,1
   22dd0:	5affad84 	addi	r11,r11,-330
   22dd4:	42c00015 	stw	r11,0(r8)
   22dd8:	45400115 	stw	r21,4(r8)
   22ddc:	d8c12015 	stw	r3,1152(sp)
   22de0:	d8811f15 	stw	r2,1148(sp)
   22de4:	98bff40e 	bge	r19,r2,22db8 <__alt_data_end+0xfffe39b8>
   22de8:	b009883a 	mov	r4,r22
   22dec:	b80b883a 	mov	r5,r23
   22df0:	d9811e04 	addi	r6,sp,1144
   22df4:	00299380 	call	29938 <__sprint_r>
   22df8:	103f541e 	bne	r2,zero,22b4c <__alt_data_end+0xfffe374c>
   22dfc:	e73ffc04 	addi	fp,fp,-16
   22e00:	d8c12017 	ldw	r3,1152(sp)
   22e04:	d8811f17 	ldw	r2,1148(sp)
   22e08:	da000404 	addi	r8,sp,16
   22e0c:	af3fed16 	blt	r21,fp,22dc4 <__alt_data_end+0xfffe39c4>
   22e10:	db013617 	ldw	r12,1240(sp)
   22e14:	e0c7883a 	add	r3,fp,r3
   22e18:	10800044 	addi	r2,r2,1
   22e1c:	43000015 	stw	r12,0(r8)
   22e20:	47000115 	stw	fp,4(r8)
   22e24:	d8c12015 	stw	r3,1152(sp)
   22e28:	d8811f15 	stw	r2,1148(sp)
   22e2c:	010001c4 	movi	r4,7
   22e30:	2082f416 	blt	r4,r2,23a04 <___vfprintf_internal_r+0x1314>
   22e34:	d8812787 	ldb	r2,1182(sp)
   22e38:	42000204 	addi	r8,r8,8
   22e3c:	10000c26 	beq	r2,zero,22e70 <___vfprintf_internal_r+0x780>
   22e40:	d8811f17 	ldw	r2,1148(sp)
   22e44:	d9012784 	addi	r4,sp,1182
   22e48:	18c00044 	addi	r3,r3,1
   22e4c:	10800044 	addi	r2,r2,1
   22e50:	41000015 	stw	r4,0(r8)
   22e54:	01000044 	movi	r4,1
   22e58:	41000115 	stw	r4,4(r8)
   22e5c:	d8c12015 	stw	r3,1152(sp)
   22e60:	d8811f15 	stw	r2,1148(sp)
   22e64:	010001c4 	movi	r4,7
   22e68:	20828d16 	blt	r4,r2,238a0 <___vfprintf_internal_r+0x11b0>
   22e6c:	42000204 	addi	r8,r8,8
   22e70:	dac12c17 	ldw	r11,1200(sp)
   22e74:	58000c26 	beq	r11,zero,22ea8 <___vfprintf_internal_r+0x7b8>
   22e78:	d8811f17 	ldw	r2,1148(sp)
   22e7c:	d9012704 	addi	r4,sp,1180
   22e80:	18c00084 	addi	r3,r3,2
   22e84:	10800044 	addi	r2,r2,1
   22e88:	41000015 	stw	r4,0(r8)
   22e8c:	01000084 	movi	r4,2
   22e90:	41000115 	stw	r4,4(r8)
   22e94:	d8c12015 	stw	r3,1152(sp)
   22e98:	d8811f15 	stw	r2,1148(sp)
   22e9c:	010001c4 	movi	r4,7
   22ea0:	20828716 	blt	r4,r2,238c0 <___vfprintf_internal_r+0x11d0>
   22ea4:	42000204 	addi	r8,r8,8
   22ea8:	db013017 	ldw	r12,1216(sp)
   22eac:	00802004 	movi	r2,128
   22eb0:	6081e926 	beq	r12,r2,23658 <___vfprintf_internal_r+0xf68>
   22eb4:	db013217 	ldw	r12,1224(sp)
   22eb8:	64abc83a 	sub	r21,r12,r18
   22ebc:	0540260e 	bge	zero,r21,22f58 <___vfprintf_internal_r+0x868>
   22ec0:	07000404 	movi	fp,16
   22ec4:	d8811f17 	ldw	r2,1148(sp)
   22ec8:	e5443d0e 	bge	fp,r21,23fc0 <___vfprintf_internal_r+0x18d0>
   22ecc:	014000f4 	movhi	r5,3
   22ed0:	297fa984 	addi	r5,r5,-346
   22ed4:	d9412c15 	stw	r5,1200(sp)
   22ed8:	04c001c4 	movi	r19,7
   22edc:	00000306 	br	22eec <___vfprintf_internal_r+0x7fc>
   22ee0:	ad7ffc04 	addi	r21,r21,-16
   22ee4:	42000204 	addi	r8,r8,8
   22ee8:	e540110e 	bge	fp,r21,22f30 <___vfprintf_internal_r+0x840>
   22eec:	18c00404 	addi	r3,r3,16
   22ef0:	10800044 	addi	r2,r2,1
   22ef4:	45000015 	stw	r20,0(r8)
   22ef8:	47000115 	stw	fp,4(r8)
   22efc:	d8c12015 	stw	r3,1152(sp)
   22f00:	d8811f15 	stw	r2,1148(sp)
   22f04:	98bff60e 	bge	r19,r2,22ee0 <__alt_data_end+0xfffe3ae0>
   22f08:	b009883a 	mov	r4,r22
   22f0c:	b80b883a 	mov	r5,r23
   22f10:	d9811e04 	addi	r6,sp,1144
   22f14:	00299380 	call	29938 <__sprint_r>
   22f18:	103f0c1e 	bne	r2,zero,22b4c <__alt_data_end+0xfffe374c>
   22f1c:	ad7ffc04 	addi	r21,r21,-16
   22f20:	d8c12017 	ldw	r3,1152(sp)
   22f24:	d8811f17 	ldw	r2,1148(sp)
   22f28:	da000404 	addi	r8,sp,16
   22f2c:	e57fef16 	blt	fp,r21,22eec <__alt_data_end+0xfffe3aec>
   22f30:	dac12c17 	ldw	r11,1200(sp)
   22f34:	1d47883a 	add	r3,r3,r21
   22f38:	10800044 	addi	r2,r2,1
   22f3c:	42c00015 	stw	r11,0(r8)
   22f40:	45400115 	stw	r21,4(r8)
   22f44:	d8c12015 	stw	r3,1152(sp)
   22f48:	d8811f15 	stw	r2,1148(sp)
   22f4c:	010001c4 	movi	r4,7
   22f50:	20824b16 	blt	r4,r2,23880 <___vfprintf_internal_r+0x1190>
   22f54:	42000204 	addi	r8,r8,8
   22f58:	8880400c 	andi	r2,r17,256
   22f5c:	1001761e 	bne	r2,zero,23538 <___vfprintf_internal_r+0xe48>
   22f60:	d8811f17 	ldw	r2,1148(sp)
   22f64:	db013117 	ldw	r12,1220(sp)
   22f68:	1c87883a 	add	r3,r3,r18
   22f6c:	10800044 	addi	r2,r2,1
   22f70:	43000015 	stw	r12,0(r8)
   22f74:	44800115 	stw	r18,4(r8)
   22f78:	d8c12015 	stw	r3,1152(sp)
   22f7c:	d8811f15 	stw	r2,1148(sp)
   22f80:	010001c4 	movi	r4,7
   22f84:	20822616 	blt	r4,r2,23820 <___vfprintf_internal_r+0x1130>
   22f88:	42000204 	addi	r8,r8,8
   22f8c:	8c40010c 	andi	r17,r17,4
   22f90:	88003126 	beq	r17,zero,23058 <___vfprintf_internal_r+0x968>
   22f94:	db012e17 	ldw	r12,1208(sp)
   22f98:	dac12b17 	ldw	r11,1196(sp)
   22f9c:	62e1c83a 	sub	r16,r12,r11
   22fa0:	04002d0e 	bge	zero,r16,23058 <___vfprintf_internal_r+0x968>
   22fa4:	04400404 	movi	r17,16
   22fa8:	d8811f17 	ldw	r2,1148(sp)
   22fac:	8c04df0e 	bge	r17,r16,2432c <___vfprintf_internal_r+0x1c3c>
   22fb0:	010000f4 	movhi	r4,3
   22fb4:	213fad84 	addi	r4,r4,-330
   22fb8:	d9013615 	stw	r4,1240(sp)
   22fbc:	048001c4 	movi	r18,7
   22fc0:	00000306 	br	22fd0 <___vfprintf_internal_r+0x8e0>
   22fc4:	843ffc04 	addi	r16,r16,-16
   22fc8:	42000204 	addi	r8,r8,8
   22fcc:	8c00130e 	bge	r17,r16,2301c <___vfprintf_internal_r+0x92c>
   22fd0:	014000f4 	movhi	r5,3
   22fd4:	18c00404 	addi	r3,r3,16
   22fd8:	10800044 	addi	r2,r2,1
   22fdc:	297fad84 	addi	r5,r5,-330
   22fe0:	41400015 	stw	r5,0(r8)
   22fe4:	44400115 	stw	r17,4(r8)
   22fe8:	d8c12015 	stw	r3,1152(sp)
   22fec:	d8811f15 	stw	r2,1148(sp)
   22ff0:	90bff40e 	bge	r18,r2,22fc4 <__alt_data_end+0xfffe3bc4>
   22ff4:	b009883a 	mov	r4,r22
   22ff8:	b80b883a 	mov	r5,r23
   22ffc:	d9811e04 	addi	r6,sp,1144
   23000:	00299380 	call	29938 <__sprint_r>
   23004:	103ed11e 	bne	r2,zero,22b4c <__alt_data_end+0xfffe374c>
   23008:	843ffc04 	addi	r16,r16,-16
   2300c:	d8c12017 	ldw	r3,1152(sp)
   23010:	d8811f17 	ldw	r2,1148(sp)
   23014:	da000404 	addi	r8,sp,16
   23018:	8c3fed16 	blt	r17,r16,22fd0 <__alt_data_end+0xfffe3bd0>
   2301c:	dac13617 	ldw	r11,1240(sp)
   23020:	1c07883a 	add	r3,r3,r16
   23024:	10800044 	addi	r2,r2,1
   23028:	42c00015 	stw	r11,0(r8)
   2302c:	44000115 	stw	r16,4(r8)
   23030:	d8c12015 	stw	r3,1152(sp)
   23034:	d8811f15 	stw	r2,1148(sp)
   23038:	010001c4 	movi	r4,7
   2303c:	2080060e 	bge	r4,r2,23058 <___vfprintf_internal_r+0x968>
   23040:	b009883a 	mov	r4,r22
   23044:	b80b883a 	mov	r5,r23
   23048:	d9811e04 	addi	r6,sp,1144
   2304c:	00299380 	call	29938 <__sprint_r>
   23050:	103ebe1e 	bne	r2,zero,22b4c <__alt_data_end+0xfffe374c>
   23054:	d8c12017 	ldw	r3,1152(sp)
   23058:	d8812b17 	ldw	r2,1196(sp)
   2305c:	db012e17 	ldw	r12,1208(sp)
   23060:	1300010e 	bge	r2,r12,23068 <___vfprintf_internal_r+0x978>
   23064:	6005883a 	mov	r2,r12
   23068:	dac12f17 	ldw	r11,1212(sp)
   2306c:	5897883a 	add	r11,r11,r2
   23070:	dac12f15 	stw	r11,1212(sp)
   23074:	1801f21e 	bne	r3,zero,23840 <___vfprintf_internal_r+0x1150>
   23078:	d8011f15 	stw	zero,1148(sp)
   2307c:	da000404 	addi	r8,sp,16
   23080:	003dd806 	br	227e4 <__alt_data_end+0xfffe33e4>
   23084:	8c400414 	ori	r17,r17,16
   23088:	d8c12a15 	stw	r3,1192(sp)
   2308c:	88c0080c 	andi	r3,r17,32
   23090:	d8812d17 	ldw	r2,1204(sp)
   23094:	18004626 	beq	r3,zero,231b0 <___vfprintf_internal_r+0xac0>
   23098:	dac12d17 	ldw	r11,1204(sp)
   2309c:	14c00017 	ldw	r19,0(r2)
   230a0:	17000117 	ldw	fp,4(r2)
   230a4:	5ac00204 	addi	r11,r11,8
   230a8:	dac12d15 	stw	r11,1204(sp)
   230ac:	00800044 	movi	r2,1
   230b0:	9f06b03a 	or	r3,r19,fp
   230b4:	003f0006 	br	22cb8 <__alt_data_end+0xfffe38b8>
   230b8:	1805883a 	mov	r2,r3
   230bc:	d8012e15 	stw	zero,1208(sp)
   230c0:	82fff404 	addi	r11,r16,-48
   230c4:	0019883a 	mov	r12,zero
   230c8:	14000007 	ldb	r16,0(r2)
   230cc:	630002a4 	muli	r12,r12,10
   230d0:	18c00044 	addi	r3,r3,1
   230d4:	1805883a 	mov	r2,r3
   230d8:	62d9883a 	add	r12,r12,r11
   230dc:	82fff404 	addi	r11,r16,-48
   230e0:	2afff92e 	bgeu	r5,r11,230c8 <__alt_data_end+0xfffe3cc8>
   230e4:	db012e15 	stw	r12,1208(sp)
   230e8:	003de906 	br	22890 <__alt_data_end+0xfffe3490>
   230ec:	8c400414 	ori	r17,r17,16
   230f0:	d8c12a15 	stw	r3,1192(sp)
   230f4:	d9812785 	stb	r6,1182(sp)
   230f8:	8880080c 	andi	r2,r17,32
   230fc:	d8c12d17 	ldw	r3,1204(sp)
   23100:	10007a26 	beq	r2,zero,232ec <___vfprintf_internal_r+0xbfc>
   23104:	db012d17 	ldw	r12,1204(sp)
   23108:	18800117 	ldw	r2,4(r3)
   2310c:	1cc00017 	ldw	r19,0(r3)
   23110:	63000204 	addi	r12,r12,8
   23114:	db012d15 	stw	r12,1204(sp)
   23118:	1039883a 	mov	fp,r2
   2311c:	10031016 	blt	r2,zero,23d60 <___vfprintf_internal_r+0x1670>
   23120:	dd412783 	ldbu	r21,1182(sp)
   23124:	da413215 	stw	r9,1224(sp)
   23128:	00800044 	movi	r2,1
   2312c:	9f06b03a 	or	r3,r19,fp
   23130:	003ee406 	br	22cc4 <__alt_data_end+0xfffe38c4>
   23134:	030000f4 	movhi	r12,3
   23138:	633f9d04 	addi	r12,r12,-396
   2313c:	d8c12a15 	stw	r3,1192(sp)
   23140:	d9812785 	stb	r6,1182(sp)
   23144:	db013b15 	stw	r12,1260(sp)
   23148:	88c0080c 	andi	r3,r17,32
   2314c:	d8812d17 	ldw	r2,1204(sp)
   23150:	18002b26 	beq	r3,zero,23200 <___vfprintf_internal_r+0xb10>
   23154:	dac12d17 	ldw	r11,1204(sp)
   23158:	14c00017 	ldw	r19,0(r2)
   2315c:	17000117 	ldw	fp,4(r2)
   23160:	5ac00204 	addi	r11,r11,8
   23164:	dac12d15 	stw	r11,1204(sp)
   23168:	8880004c 	andi	r2,r17,1
   2316c:	10025b26 	beq	r2,zero,23adc <___vfprintf_internal_r+0x13ec>
   23170:	9f06b03a 	or	r3,r19,fp
   23174:	18037026 	beq	r3,zero,23f38 <___vfprintf_internal_r+0x1848>
   23178:	00800c04 	movi	r2,48
   2317c:	d8812705 	stb	r2,1180(sp)
   23180:	dc012745 	stb	r16,1181(sp)
   23184:	8c400094 	ori	r17,r17,2
   23188:	00800084 	movi	r2,2
   2318c:	003eca06 	br	22cb8 <__alt_data_end+0xfffe38b8>
   23190:	8c400814 	ori	r17,r17,32
   23194:	1805883a 	mov	r2,r3
   23198:	1c000007 	ldb	r16,0(r3)
   2319c:	003dbb06 	br	2288c <__alt_data_end+0xfffe348c>
   231a0:	d8c12a15 	stw	r3,1192(sp)
   231a4:	88c0080c 	andi	r3,r17,32
   231a8:	d8812d17 	ldw	r2,1204(sp)
   231ac:	183fba1e 	bne	r3,zero,23098 <__alt_data_end+0xfffe3c98>
   231b0:	88c0040c 	andi	r3,r17,16
   231b4:	18024c1e 	bne	r3,zero,23ae8 <___vfprintf_internal_r+0x13f8>
   231b8:	88c0100c 	andi	r3,r17,64
   231bc:	18024a26 	beq	r3,zero,23ae8 <___vfprintf_internal_r+0x13f8>
   231c0:	dac12d17 	ldw	r11,1204(sp)
   231c4:	14c0000b 	ldhu	r19,0(r2)
   231c8:	0039883a 	mov	fp,zero
   231cc:	5ac00104 	addi	r11,r11,4
   231d0:	dac12d15 	stw	r11,1204(sp)
   231d4:	00800044 	movi	r2,1
   231d8:	9807883a 	mov	r3,r19
   231dc:	003eb606 	br	22cb8 <__alt_data_end+0xfffe38b8>
   231e0:	008000f4 	movhi	r2,3
   231e4:	10bfa204 	addi	r2,r2,-376
   231e8:	d8c12a15 	stw	r3,1192(sp)
   231ec:	d8813b15 	stw	r2,1260(sp)
   231f0:	d9812785 	stb	r6,1182(sp)
   231f4:	88c0080c 	andi	r3,r17,32
   231f8:	d8812d17 	ldw	r2,1204(sp)
   231fc:	183fd51e 	bne	r3,zero,23154 <__alt_data_end+0xfffe3d54>
   23200:	88c0040c 	andi	r3,r17,16
   23204:	18034126 	beq	r3,zero,23f0c <___vfprintf_internal_r+0x181c>
   23208:	db012d17 	ldw	r12,1204(sp)
   2320c:	14c00017 	ldw	r19,0(r2)
   23210:	0039883a 	mov	fp,zero
   23214:	63000104 	addi	r12,r12,4
   23218:	db012d15 	stw	r12,1204(sp)
   2321c:	003fd206 	br	23168 <__alt_data_end+0xfffe3d68>
   23220:	1c000007 	ldb	r16,0(r3)
   23224:	81c3d626 	beq	r16,r7,24180 <___vfprintf_internal_r+0x1a90>
   23228:	8c400414 	ori	r17,r17,16
   2322c:	1805883a 	mov	r2,r3
   23230:	003d9606 	br	2288c <__alt_data_end+0xfffe348c>
   23234:	d8c12a15 	stw	r3,1192(sp)
   23238:	d9812785 	stb	r6,1182(sp)
   2323c:	8880080c 	andi	r2,r17,32
   23240:	10033f26 	beq	r2,zero,23f40 <___vfprintf_internal_r+0x1850>
   23244:	db012d17 	ldw	r12,1204(sp)
   23248:	dac12f17 	ldw	r11,1212(sp)
   2324c:	60800017 	ldw	r2,0(r12)
   23250:	5807d7fa 	srai	r3,r11,31
   23254:	63000104 	addi	r12,r12,4
   23258:	db012d15 	stw	r12,1204(sp)
   2325c:	12c00015 	stw	r11,0(r2)
   23260:	10c00115 	stw	r3,4(r2)
   23264:	003d5f06 	br	227e4 <__alt_data_end+0xfffe33e4>
   23268:	d8c12a15 	stw	r3,1192(sp)
   2326c:	88c0080c 	andi	r3,r17,32
   23270:	d8812d17 	ldw	r2,1204(sp)
   23274:	183e891e 	bne	r3,zero,22c9c <__alt_data_end+0xfffe389c>
   23278:	88c0040c 	andi	r3,r17,16
   2327c:	1801ea1e 	bne	r3,zero,23a28 <___vfprintf_internal_r+0x1338>
   23280:	88c0100c 	andi	r3,r17,64
   23284:	1801e826 	beq	r3,zero,23a28 <___vfprintf_internal_r+0x1338>
   23288:	db012d17 	ldw	r12,1204(sp)
   2328c:	14c0000b 	ldhu	r19,0(r2)
   23290:	0039883a 	mov	fp,zero
   23294:	63000104 	addi	r12,r12,4
   23298:	db012d15 	stw	r12,1204(sp)
   2329c:	0005883a 	mov	r2,zero
   232a0:	9807883a 	mov	r3,r19
   232a4:	003e8406 	br	22cb8 <__alt_data_end+0xfffe38b8>
   232a8:	30803fcc 	andi	r2,r6,255
   232ac:	1080201c 	xori	r2,r2,128
   232b0:	10bfe004 	addi	r2,r2,-128
   232b4:	10031d1e 	bne	r2,zero,23f2c <___vfprintf_internal_r+0x183c>
   232b8:	1805883a 	mov	r2,r3
   232bc:	01800804 	movi	r6,32
   232c0:	1c000007 	ldb	r16,0(r3)
   232c4:	003d7106 	br	2288c <__alt_data_end+0xfffe348c>
   232c8:	8c400054 	ori	r17,r17,1
   232cc:	1805883a 	mov	r2,r3
   232d0:	1c000007 	ldb	r16,0(r3)
   232d4:	003d6d06 	br	2288c <__alt_data_end+0xfffe348c>
   232d8:	d8c12a15 	stw	r3,1192(sp)
   232dc:	d9812785 	stb	r6,1182(sp)
   232e0:	8880080c 	andi	r2,r17,32
   232e4:	d8c12d17 	ldw	r3,1204(sp)
   232e8:	103f861e 	bne	r2,zero,23104 <__alt_data_end+0xfffe3d04>
   232ec:	8880040c 	andi	r2,r17,16
   232f0:	1001f31e 	bne	r2,zero,23ac0 <___vfprintf_internal_r+0x13d0>
   232f4:	8880100c 	andi	r2,r17,64
   232f8:	1001f126 	beq	r2,zero,23ac0 <___vfprintf_internal_r+0x13d0>
   232fc:	1cc0000f 	ldh	r19,0(r3)
   23300:	db012d17 	ldw	r12,1204(sp)
   23304:	9839d7fa 	srai	fp,r19,31
   23308:	63000104 	addi	r12,r12,4
   2330c:	db012d15 	stw	r12,1204(sp)
   23310:	e005883a 	mov	r2,fp
   23314:	003f8106 	br	2311c <__alt_data_end+0xfffe3d1c>
   23318:	8c401014 	ori	r17,r17,64
   2331c:	1805883a 	mov	r2,r3
   23320:	1c000007 	ldb	r16,0(r3)
   23324:	003d5906 	br	2288c <__alt_data_end+0xfffe348c>
   23328:	db012d17 	ldw	r12,1204(sp)
   2332c:	d8c12a15 	stw	r3,1192(sp)
   23330:	00c00044 	movi	r3,1
   23334:	60800017 	ldw	r2,0(r12)
   23338:	63000104 	addi	r12,r12,4
   2333c:	d8c12b15 	stw	r3,1196(sp)
   23340:	d8012785 	stb	zero,1182(sp)
   23344:	d8810405 	stb	r2,1040(sp)
   23348:	db012d15 	stw	r12,1204(sp)
   2334c:	dac10404 	addi	r11,sp,1040
   23350:	1825883a 	mov	r18,r3
   23354:	d8013215 	stw	zero,1224(sp)
   23358:	d8013415 	stw	zero,1232(sp)
   2335c:	dac13115 	stw	r11,1220(sp)
   23360:	0005883a 	mov	r2,zero
   23364:	003e7d06 	br	22d5c <__alt_data_end+0xfffe395c>
   23368:	db012d17 	ldw	r12,1204(sp)
   2336c:	00800c04 	movi	r2,48
   23370:	d8812705 	stb	r2,1180(sp)
   23374:	64c00017 	ldw	r19,0(r12)
   23378:	00801e04 	movi	r2,120
   2337c:	d8812745 	stb	r2,1181(sp)
   23380:	008000f4 	movhi	r2,3
   23384:	10bfa204 	addi	r2,r2,-376
   23388:	63000104 	addi	r12,r12,4
   2338c:	d8c12a15 	stw	r3,1192(sp)
   23390:	d8813b15 	stw	r2,1260(sp)
   23394:	0039883a 	mov	fp,zero
   23398:	8c400094 	ori	r17,r17,2
   2339c:	db012d15 	stw	r12,1204(sp)
   233a0:	00800084 	movi	r2,2
   233a4:	04001e04 	movi	r16,120
   233a8:	9807883a 	mov	r3,r19
   233ac:	003e4206 	br	22cb8 <__alt_data_end+0xfffe38b8>
   233b0:	dac12d17 	ldw	r11,1204(sp)
   233b4:	db012d17 	ldw	r12,1204(sp)
   233b8:	d8c12a15 	stw	r3,1192(sp)
   233bc:	5ac00017 	ldw	r11,0(r11)
   233c0:	d8012785 	stb	zero,1182(sp)
   233c4:	64c00104 	addi	r19,r12,4
   233c8:	dac13115 	stw	r11,1220(sp)
   233cc:	5803e826 	beq	r11,zero,24370 <___vfprintf_internal_r+0x1c80>
   233d0:	d9013117 	ldw	r4,1220(sp)
   233d4:	48037a16 	blt	r9,zero,241c0 <___vfprintf_internal_r+0x1ad0>
   233d8:	480d883a 	mov	r6,r9
   233dc:	000b883a 	mov	r5,zero
   233e0:	da013f15 	stw	r8,1276(sp)
   233e4:	da413e15 	stw	r9,1272(sp)
   233e8:	0027bc80 	call	27bc8 <memchr>
   233ec:	da013f17 	ldw	r8,1276(sp)
   233f0:	da413e17 	ldw	r9,1272(sp)
   233f4:	10044426 	beq	r2,zero,24508 <___vfprintf_internal_r+0x1e18>
   233f8:	d8c13117 	ldw	r3,1220(sp)
   233fc:	10e5c83a 	sub	r18,r2,r3
   23400:	4c834416 	blt	r9,r18,24114 <___vfprintf_internal_r+0x1a24>
   23404:	9005883a 	mov	r2,r18
   23408:	90037216 	blt	r18,zero,241d4 <___vfprintf_internal_r+0x1ae4>
   2340c:	dd412783 	ldbu	r21,1182(sp)
   23410:	d8812b15 	stw	r2,1196(sp)
   23414:	dcc12d15 	stw	r19,1204(sp)
   23418:	d8013215 	stw	zero,1224(sp)
   2341c:	d8013415 	stw	zero,1232(sp)
   23420:	003e4706 	br	22d40 <__alt_data_end+0xfffe3940>
   23424:	dac12d17 	ldw	r11,1204(sp)
   23428:	db012d17 	ldw	r12,1204(sp)
   2342c:	5ac00017 	ldw	r11,0(r11)
   23430:	dac12e15 	stw	r11,1208(sp)
   23434:	62c00104 	addi	r11,r12,4
   23438:	db012e17 	ldw	r12,1208(sp)
   2343c:	60034a16 	blt	r12,zero,24168 <___vfprintf_internal_r+0x1a78>
   23440:	dac12d15 	stw	r11,1204(sp)
   23444:	1805883a 	mov	r2,r3
   23448:	1c000007 	ldb	r16,0(r3)
   2344c:	003d0f06 	br	2288c <__alt_data_end+0xfffe348c>
   23450:	1805883a 	mov	r2,r3
   23454:	01800ac4 	movi	r6,43
   23458:	1c000007 	ldb	r16,0(r3)
   2345c:	003d0b06 	br	2288c <__alt_data_end+0xfffe348c>
   23460:	d8c12a15 	stw	r3,1192(sp)
   23464:	d9812785 	stb	r6,1182(sp)
   23468:	803db226 	beq	r16,zero,22b34 <__alt_data_end+0xfffe3734>
   2346c:	00c00044 	movi	r3,1
   23470:	d8c12b15 	stw	r3,1196(sp)
   23474:	dc010405 	stb	r16,1040(sp)
   23478:	d8012785 	stb	zero,1182(sp)
   2347c:	003fb306 	br	2334c <__alt_data_end+0xfffe3f4c>
   23480:	d8c12017 	ldw	r3,1152(sp)
   23484:	003e6d06 	br	22e3c <__alt_data_end+0xfffe3a3c>
   23488:	10803fcc 	andi	r2,r2,255
   2348c:	00c00044 	movi	r3,1
   23490:	10fe141e 	bne	r2,r3,22ce4 <__alt_data_end+0xfffe38e4>
   23494:	e000021e 	bne	fp,zero,234a0 <___vfprintf_internal_r+0xdb0>
   23498:	00800244 	movi	r2,9
   2349c:	14c0202e 	bgeu	r2,r19,23520 <___vfprintf_internal_r+0xe30>
   234a0:	dc012b15 	stw	r16,1196(sp)
   234a4:	dc412c15 	stw	r17,1200(sp)
   234a8:	9821883a 	mov	r16,r19
   234ac:	e023883a 	mov	r17,fp
   234b0:	dc810e04 	addi	r18,sp,1080
   234b4:	4027883a 	mov	r19,r8
   234b8:	4839883a 	mov	fp,r9
   234bc:	8009883a 	mov	r4,r16
   234c0:	880b883a 	mov	r5,r17
   234c4:	01800284 	movi	r6,10
   234c8:	000f883a 	mov	r7,zero
   234cc:	002bbc80 	call	2bbc8 <__umoddi3>
   234d0:	10800c04 	addi	r2,r2,48
   234d4:	94bfffc4 	addi	r18,r18,-1
   234d8:	8009883a 	mov	r4,r16
   234dc:	880b883a 	mov	r5,r17
   234e0:	01800284 	movi	r6,10
   234e4:	000f883a 	mov	r7,zero
   234e8:	90800005 	stb	r2,0(r18)
   234ec:	002b6080 	call	2b608 <__udivdi3>
   234f0:	1021883a 	mov	r16,r2
   234f4:	10c4b03a 	or	r2,r2,r3
   234f8:	1823883a 	mov	r17,r3
   234fc:	103fef1e 	bne	r2,zero,234bc <__alt_data_end+0xfffe40bc>
   23500:	dac12817 	ldw	r11,1184(sp)
   23504:	dc813115 	stw	r18,1220(sp)
   23508:	dc012b17 	ldw	r16,1196(sp)
   2350c:	9811883a 	mov	r8,r19
   23510:	dc412c17 	ldw	r17,1200(sp)
   23514:	e013883a 	mov	r9,fp
   23518:	5ca5c83a 	sub	r18,r11,r18
   2351c:	003e0306 	br	22d2c <__alt_data_end+0xfffe392c>
   23520:	9cc00c04 	addi	r19,r19,48
   23524:	d8c10dc4 	addi	r3,sp,1079
   23528:	dcc10dc5 	stb	r19,1079(sp)
   2352c:	dc813c17 	ldw	r18,1264(sp)
   23530:	d8c13115 	stw	r3,1220(sp)
   23534:	003dfd06 	br	22d2c <__alt_data_end+0xfffe392c>
   23538:	00801944 	movi	r2,101
   2353c:	1400710e 	bge	r2,r16,23704 <___vfprintf_internal_r+0x1014>
   23540:	d9013717 	ldw	r4,1244(sp)
   23544:	d9413917 	ldw	r5,1252(sp)
   23548:	000d883a 	mov	r6,zero
   2354c:	000f883a 	mov	r7,zero
   23550:	d8c13d15 	stw	r3,1268(sp)
   23554:	da013f15 	stw	r8,1276(sp)
   23558:	002c9f40 	call	2c9f4 <__eqdf2>
   2355c:	d8c13d17 	ldw	r3,1268(sp)
   23560:	da013f17 	ldw	r8,1276(sp)
   23564:	1000ef1e 	bne	r2,zero,23924 <___vfprintf_internal_r+0x1234>
   23568:	d8811f17 	ldw	r2,1148(sp)
   2356c:	010000f4 	movhi	r4,3
   23570:	213fa904 	addi	r4,r4,-348
   23574:	18c00044 	addi	r3,r3,1
   23578:	10800044 	addi	r2,r2,1
   2357c:	41000015 	stw	r4,0(r8)
   23580:	01000044 	movi	r4,1
   23584:	41000115 	stw	r4,4(r8)
   23588:	d8c12015 	stw	r3,1152(sp)
   2358c:	d8811f15 	stw	r2,1148(sp)
   23590:	010001c4 	movi	r4,7
   23594:	20828e16 	blt	r4,r2,23fd0 <___vfprintf_internal_r+0x18e0>
   23598:	42000204 	addi	r8,r8,8
   2359c:	d8812617 	ldw	r2,1176(sp)
   235a0:	dac13317 	ldw	r11,1228(sp)
   235a4:	12c00216 	blt	r2,r11,235b0 <___vfprintf_internal_r+0xec0>
   235a8:	8880004c 	andi	r2,r17,1
   235ac:	103e7726 	beq	r2,zero,22f8c <__alt_data_end+0xfffe3b8c>
   235b0:	db013817 	ldw	r12,1248(sp)
   235b4:	d8811f17 	ldw	r2,1148(sp)
   235b8:	dac13517 	ldw	r11,1236(sp)
   235bc:	1b07883a 	add	r3,r3,r12
   235c0:	10800044 	addi	r2,r2,1
   235c4:	42c00015 	stw	r11,0(r8)
   235c8:	43000115 	stw	r12,4(r8)
   235cc:	d8c12015 	stw	r3,1152(sp)
   235d0:	d8811f15 	stw	r2,1148(sp)
   235d4:	010001c4 	movi	r4,7
   235d8:	2082ed16 	blt	r4,r2,24190 <___vfprintf_internal_r+0x1aa0>
   235dc:	42000204 	addi	r8,r8,8
   235e0:	db013317 	ldw	r12,1228(sp)
   235e4:	643fffc4 	addi	r16,r12,-1
   235e8:	043e680e 	bge	zero,r16,22f8c <__alt_data_end+0xfffe3b8c>
   235ec:	04800404 	movi	r18,16
   235f0:	d8811f17 	ldw	r2,1148(sp)
   235f4:	94007e0e 	bge	r18,r16,237f0 <___vfprintf_internal_r+0x1100>
   235f8:	014000f4 	movhi	r5,3
   235fc:	297fa984 	addi	r5,r5,-346
   23600:	d9412c15 	stw	r5,1200(sp)
   23604:	054001c4 	movi	r21,7
   23608:	00000306 	br	23618 <___vfprintf_internal_r+0xf28>
   2360c:	42000204 	addi	r8,r8,8
   23610:	843ffc04 	addi	r16,r16,-16
   23614:	9400790e 	bge	r18,r16,237fc <___vfprintf_internal_r+0x110c>
   23618:	18c00404 	addi	r3,r3,16
   2361c:	10800044 	addi	r2,r2,1
   23620:	45000015 	stw	r20,0(r8)
   23624:	44800115 	stw	r18,4(r8)
   23628:	d8c12015 	stw	r3,1152(sp)
   2362c:	d8811f15 	stw	r2,1148(sp)
   23630:	a8bff60e 	bge	r21,r2,2360c <__alt_data_end+0xfffe420c>
   23634:	b009883a 	mov	r4,r22
   23638:	b80b883a 	mov	r5,r23
   2363c:	d9811e04 	addi	r6,sp,1144
   23640:	00299380 	call	29938 <__sprint_r>
   23644:	103d411e 	bne	r2,zero,22b4c <__alt_data_end+0xfffe374c>
   23648:	d8c12017 	ldw	r3,1152(sp)
   2364c:	d8811f17 	ldw	r2,1148(sp)
   23650:	da000404 	addi	r8,sp,16
   23654:	003fee06 	br	23610 <__alt_data_end+0xfffe4210>
   23658:	dac12e17 	ldw	r11,1208(sp)
   2365c:	db012b17 	ldw	r12,1196(sp)
   23660:	5b2bc83a 	sub	r21,r11,r12
   23664:	057e130e 	bge	zero,r21,22eb4 <__alt_data_end+0xfffe3ab4>
   23668:	07000404 	movi	fp,16
   2366c:	d8811f17 	ldw	r2,1148(sp)
   23670:	e543640e 	bge	fp,r21,24404 <___vfprintf_internal_r+0x1d14>
   23674:	014000f4 	movhi	r5,3
   23678:	297fa984 	addi	r5,r5,-346
   2367c:	d9412c15 	stw	r5,1200(sp)
   23680:	04c001c4 	movi	r19,7
   23684:	00000306 	br	23694 <___vfprintf_internal_r+0xfa4>
   23688:	ad7ffc04 	addi	r21,r21,-16
   2368c:	42000204 	addi	r8,r8,8
   23690:	e540110e 	bge	fp,r21,236d8 <___vfprintf_internal_r+0xfe8>
   23694:	18c00404 	addi	r3,r3,16
   23698:	10800044 	addi	r2,r2,1
   2369c:	45000015 	stw	r20,0(r8)
   236a0:	47000115 	stw	fp,4(r8)
   236a4:	d8c12015 	stw	r3,1152(sp)
   236a8:	d8811f15 	stw	r2,1148(sp)
   236ac:	98bff60e 	bge	r19,r2,23688 <__alt_data_end+0xfffe4288>
   236b0:	b009883a 	mov	r4,r22
   236b4:	b80b883a 	mov	r5,r23
   236b8:	d9811e04 	addi	r6,sp,1144
   236bc:	00299380 	call	29938 <__sprint_r>
   236c0:	103d221e 	bne	r2,zero,22b4c <__alt_data_end+0xfffe374c>
   236c4:	ad7ffc04 	addi	r21,r21,-16
   236c8:	d8c12017 	ldw	r3,1152(sp)
   236cc:	d8811f17 	ldw	r2,1148(sp)
   236d0:	da000404 	addi	r8,sp,16
   236d4:	e57fef16 	blt	fp,r21,23694 <__alt_data_end+0xfffe4294>
   236d8:	dac12c17 	ldw	r11,1200(sp)
   236dc:	1d47883a 	add	r3,r3,r21
   236e0:	10800044 	addi	r2,r2,1
   236e4:	42c00015 	stw	r11,0(r8)
   236e8:	45400115 	stw	r21,4(r8)
   236ec:	d8c12015 	stw	r3,1152(sp)
   236f0:	d8811f15 	stw	r2,1148(sp)
   236f4:	010001c4 	movi	r4,7
   236f8:	20819116 	blt	r4,r2,23d40 <___vfprintf_internal_r+0x1650>
   236fc:	42000204 	addi	r8,r8,8
   23700:	003dec06 	br	22eb4 <__alt_data_end+0xfffe3ab4>
   23704:	db013317 	ldw	r12,1228(sp)
   23708:	00800044 	movi	r2,1
   2370c:	18c00044 	addi	r3,r3,1
   23710:	1301530e 	bge	r2,r12,23c60 <___vfprintf_internal_r+0x1570>
   23714:	dc011f17 	ldw	r16,1148(sp)
   23718:	dac13117 	ldw	r11,1220(sp)
   2371c:	00800044 	movi	r2,1
   23720:	84000044 	addi	r16,r16,1
   23724:	40800115 	stw	r2,4(r8)
   23728:	42c00015 	stw	r11,0(r8)
   2372c:	d8c12015 	stw	r3,1152(sp)
   23730:	dc011f15 	stw	r16,1148(sp)
   23734:	008001c4 	movi	r2,7
   23738:	14016b16 	blt	r2,r16,23ce8 <___vfprintf_internal_r+0x15f8>
   2373c:	42000204 	addi	r8,r8,8
   23740:	db013817 	ldw	r12,1248(sp)
   23744:	dac13517 	ldw	r11,1236(sp)
   23748:	84000044 	addi	r16,r16,1
   2374c:	1b07883a 	add	r3,r3,r12
   23750:	42c00015 	stw	r11,0(r8)
   23754:	43000115 	stw	r12,4(r8)
   23758:	d8c12015 	stw	r3,1152(sp)
   2375c:	dc011f15 	stw	r16,1148(sp)
   23760:	008001c4 	movi	r2,7
   23764:	14016916 	blt	r2,r16,23d0c <___vfprintf_internal_r+0x161c>
   23768:	44800204 	addi	r18,r8,8
   2376c:	d9013717 	ldw	r4,1244(sp)
   23770:	d9413917 	ldw	r5,1252(sp)
   23774:	000d883a 	mov	r6,zero
   23778:	000f883a 	mov	r7,zero
   2377c:	d8c13d15 	stw	r3,1268(sp)
   23780:	002c9f40 	call	2c9f4 <__eqdf2>
   23784:	d8c13d17 	ldw	r3,1268(sp)
   23788:	db013317 	ldw	r12,1228(sp)
   2378c:	1000ae26 	beq	r2,zero,23a48 <___vfprintf_internal_r+0x1358>
   23790:	dac13117 	ldw	r11,1220(sp)
   23794:	60bfffc4 	addi	r2,r12,-1
   23798:	1887883a 	add	r3,r3,r2
   2379c:	59000044 	addi	r4,r11,1
   237a0:	84000044 	addi	r16,r16,1
   237a4:	90800115 	stw	r2,4(r18)
   237a8:	91000015 	stw	r4,0(r18)
   237ac:	d8c12015 	stw	r3,1152(sp)
   237b0:	dc011f15 	stw	r16,1148(sp)
   237b4:	008001c4 	movi	r2,7
   237b8:	14014216 	blt	r2,r16,23cc4 <___vfprintf_internal_r+0x15d4>
   237bc:	94800204 	addi	r18,r18,8
   237c0:	dac13a17 	ldw	r11,1256(sp)
   237c4:	dd4122c4 	addi	r21,sp,1163
   237c8:	84000044 	addi	r16,r16,1
   237cc:	58c7883a 	add	r3,r11,r3
   237d0:	95400015 	stw	r21,0(r18)
   237d4:	92c00115 	stw	r11,4(r18)
   237d8:	d8c12015 	stw	r3,1152(sp)
   237dc:	dc011f15 	stw	r16,1148(sp)
   237e0:	008001c4 	movi	r2,7
   237e4:	14000e16 	blt	r2,r16,23820 <___vfprintf_internal_r+0x1130>
   237e8:	92000204 	addi	r8,r18,8
   237ec:	003de706 	br	22f8c <__alt_data_end+0xfffe3b8c>
   237f0:	010000f4 	movhi	r4,3
   237f4:	213fa984 	addi	r4,r4,-346
   237f8:	d9012c15 	stw	r4,1200(sp)
   237fc:	dac12c17 	ldw	r11,1200(sp)
   23800:	1c07883a 	add	r3,r3,r16
   23804:	44000115 	stw	r16,4(r8)
   23808:	42c00015 	stw	r11,0(r8)
   2380c:	10800044 	addi	r2,r2,1
   23810:	d8c12015 	stw	r3,1152(sp)
   23814:	d8811f15 	stw	r2,1148(sp)
   23818:	010001c4 	movi	r4,7
   2381c:	20bdda0e 	bge	r4,r2,22f88 <__alt_data_end+0xfffe3b88>
   23820:	b009883a 	mov	r4,r22
   23824:	b80b883a 	mov	r5,r23
   23828:	d9811e04 	addi	r6,sp,1144
   2382c:	00299380 	call	29938 <__sprint_r>
   23830:	103cc61e 	bne	r2,zero,22b4c <__alt_data_end+0xfffe374c>
   23834:	d8c12017 	ldw	r3,1152(sp)
   23838:	da000404 	addi	r8,sp,16
   2383c:	003dd306 	br	22f8c <__alt_data_end+0xfffe3b8c>
   23840:	b009883a 	mov	r4,r22
   23844:	b80b883a 	mov	r5,r23
   23848:	d9811e04 	addi	r6,sp,1144
   2384c:	00299380 	call	29938 <__sprint_r>
   23850:	103e0926 	beq	r2,zero,23078 <__alt_data_end+0xfffe3c78>
   23854:	003cbd06 	br	22b4c <__alt_data_end+0xfffe374c>
   23858:	10803fcc 	andi	r2,r2,255
   2385c:	1000651e 	bne	r2,zero,239f4 <___vfprintf_internal_r+0x1304>
   23860:	8880004c 	andi	r2,r17,1
   23864:	10013226 	beq	r2,zero,23d30 <___vfprintf_internal_r+0x1640>
   23868:	00800c04 	movi	r2,48
   2386c:	d8c10dc4 	addi	r3,sp,1079
   23870:	d8810dc5 	stb	r2,1079(sp)
   23874:	dc813c17 	ldw	r18,1264(sp)
   23878:	d8c13115 	stw	r3,1220(sp)
   2387c:	003d2b06 	br	22d2c <__alt_data_end+0xfffe392c>
   23880:	b009883a 	mov	r4,r22
   23884:	b80b883a 	mov	r5,r23
   23888:	d9811e04 	addi	r6,sp,1144
   2388c:	00299380 	call	29938 <__sprint_r>
   23890:	103cae1e 	bne	r2,zero,22b4c <__alt_data_end+0xfffe374c>
   23894:	d8c12017 	ldw	r3,1152(sp)
   23898:	da000404 	addi	r8,sp,16
   2389c:	003dae06 	br	22f58 <__alt_data_end+0xfffe3b58>
   238a0:	b009883a 	mov	r4,r22
   238a4:	b80b883a 	mov	r5,r23
   238a8:	d9811e04 	addi	r6,sp,1144
   238ac:	00299380 	call	29938 <__sprint_r>
   238b0:	103ca61e 	bne	r2,zero,22b4c <__alt_data_end+0xfffe374c>
   238b4:	d8c12017 	ldw	r3,1152(sp)
   238b8:	da000404 	addi	r8,sp,16
   238bc:	003d6c06 	br	22e70 <__alt_data_end+0xfffe3a70>
   238c0:	b009883a 	mov	r4,r22
   238c4:	b80b883a 	mov	r5,r23
   238c8:	d9811e04 	addi	r6,sp,1144
   238cc:	00299380 	call	29938 <__sprint_r>
   238d0:	103c9e1e 	bne	r2,zero,22b4c <__alt_data_end+0xfffe374c>
   238d4:	d8c12017 	ldw	r3,1152(sp)
   238d8:	da000404 	addi	r8,sp,16
   238dc:	003d7206 	br	22ea8 <__alt_data_end+0xfffe3aa8>
   238e0:	d9413b17 	ldw	r5,1260(sp)
   238e4:	d8c10e04 	addi	r3,sp,1080
   238e8:	988003cc 	andi	r2,r19,15
   238ec:	e008973a 	slli	r4,fp,28
   238f0:	2885883a 	add	r2,r5,r2
   238f4:	9826d13a 	srli	r19,r19,4
   238f8:	10800003 	ldbu	r2,0(r2)
   238fc:	e038d13a 	srli	fp,fp,4
   23900:	18ffffc4 	addi	r3,r3,-1
   23904:	24e6b03a 	or	r19,r4,r19
   23908:	18800005 	stb	r2,0(r3)
   2390c:	9f04b03a 	or	r2,r19,fp
   23910:	103ff51e 	bne	r2,zero,238e8 <__alt_data_end+0xfffe44e8>
   23914:	db012817 	ldw	r12,1184(sp)
   23918:	d8c13115 	stw	r3,1220(sp)
   2391c:	60e5c83a 	sub	r18,r12,r3
   23920:	003d0206 	br	22d2c <__alt_data_end+0xfffe392c>
   23924:	dc012617 	ldw	r16,1176(sp)
   23928:	0401b10e 	bge	zero,r16,23ff0 <___vfprintf_internal_r+0x1900>
   2392c:	db013117 	ldw	r12,1220(sp)
   23930:	dac13317 	ldw	r11,1228(sp)
   23934:	62e1883a 	add	r16,r12,r11
   23938:	db013417 	ldw	r12,1232(sp)
   2393c:	5825883a 	mov	r18,r11
   23940:	62c0010e 	bge	r12,r11,23948 <___vfprintf_internal_r+0x1258>
   23944:	6025883a 	mov	r18,r12
   23948:	04800b0e 	bge	zero,r18,23978 <___vfprintf_internal_r+0x1288>
   2394c:	d8811f17 	ldw	r2,1148(sp)
   23950:	dac13117 	ldw	r11,1220(sp)
   23954:	1c87883a 	add	r3,r3,r18
   23958:	10800044 	addi	r2,r2,1
   2395c:	42c00015 	stw	r11,0(r8)
   23960:	44800115 	stw	r18,4(r8)
   23964:	d8c12015 	stw	r3,1152(sp)
   23968:	d8811f15 	stw	r2,1148(sp)
   2396c:	010001c4 	movi	r4,7
   23970:	20824f16 	blt	r4,r2,242b0 <___vfprintf_internal_r+0x1bc0>
   23974:	42000204 	addi	r8,r8,8
   23978:	90024b16 	blt	r18,zero,242a8 <___vfprintf_internal_r+0x1bb8>
   2397c:	db013417 	ldw	r12,1232(sp)
   23980:	64a5c83a 	sub	r18,r12,r18
   23984:	0480730e 	bge	zero,r18,23b54 <___vfprintf_internal_r+0x1464>
   23988:	05400404 	movi	r21,16
   2398c:	d8811f17 	ldw	r2,1148(sp)
   23990:	ac817d0e 	bge	r21,r18,23f88 <___vfprintf_internal_r+0x1898>
   23994:	014000f4 	movhi	r5,3
   23998:	297fa984 	addi	r5,r5,-346
   2399c:	d9412c15 	stw	r5,1200(sp)
   239a0:	070001c4 	movi	fp,7
   239a4:	00000306 	br	239b4 <___vfprintf_internal_r+0x12c4>
   239a8:	42000204 	addi	r8,r8,8
   239ac:	94bffc04 	addi	r18,r18,-16
   239b0:	ac81780e 	bge	r21,r18,23f94 <___vfprintf_internal_r+0x18a4>
   239b4:	18c00404 	addi	r3,r3,16
   239b8:	10800044 	addi	r2,r2,1
   239bc:	45000015 	stw	r20,0(r8)
   239c0:	45400115 	stw	r21,4(r8)
   239c4:	d8c12015 	stw	r3,1152(sp)
   239c8:	d8811f15 	stw	r2,1148(sp)
   239cc:	e0bff60e 	bge	fp,r2,239a8 <__alt_data_end+0xfffe45a8>
   239d0:	b009883a 	mov	r4,r22
   239d4:	b80b883a 	mov	r5,r23
   239d8:	d9811e04 	addi	r6,sp,1144
   239dc:	00299380 	call	29938 <__sprint_r>
   239e0:	103c5a1e 	bne	r2,zero,22b4c <__alt_data_end+0xfffe374c>
   239e4:	d8c12017 	ldw	r3,1152(sp)
   239e8:	d8811f17 	ldw	r2,1148(sp)
   239ec:	da000404 	addi	r8,sp,16
   239f0:	003fee06 	br	239ac <__alt_data_end+0xfffe45ac>
   239f4:	dac10e04 	addi	r11,sp,1080
   239f8:	0025883a 	mov	r18,zero
   239fc:	dac13115 	stw	r11,1220(sp)
   23a00:	003cca06 	br	22d2c <__alt_data_end+0xfffe392c>
   23a04:	b009883a 	mov	r4,r22
   23a08:	b80b883a 	mov	r5,r23
   23a0c:	d9811e04 	addi	r6,sp,1144
   23a10:	00299380 	call	29938 <__sprint_r>
   23a14:	103c4d1e 	bne	r2,zero,22b4c <__alt_data_end+0xfffe374c>
   23a18:	d8c12017 	ldw	r3,1152(sp)
   23a1c:	d8812787 	ldb	r2,1182(sp)
   23a20:	da000404 	addi	r8,sp,16
   23a24:	003d0506 	br	22e3c <__alt_data_end+0xfffe3a3c>
   23a28:	dac12d17 	ldw	r11,1204(sp)
   23a2c:	14c00017 	ldw	r19,0(r2)
   23a30:	0039883a 	mov	fp,zero
   23a34:	5ac00104 	addi	r11,r11,4
   23a38:	dac12d15 	stw	r11,1204(sp)
   23a3c:	0005883a 	mov	r2,zero
   23a40:	9807883a 	mov	r3,r19
   23a44:	003c9c06 	br	22cb8 <__alt_data_end+0xfffe38b8>
   23a48:	657fffc4 	addi	r21,r12,-1
   23a4c:	057f5c0e 	bge	zero,r21,237c0 <__alt_data_end+0xfffe43c0>
   23a50:	07000404 	movi	fp,16
   23a54:	e5408f0e 	bge	fp,r21,23c94 <___vfprintf_internal_r+0x15a4>
   23a58:	010000f4 	movhi	r4,3
   23a5c:	213fa984 	addi	r4,r4,-346
   23a60:	d9012c15 	stw	r4,1200(sp)
   23a64:	01c001c4 	movi	r7,7
   23a68:	00000306 	br	23a78 <___vfprintf_internal_r+0x1388>
   23a6c:	94800204 	addi	r18,r18,8
   23a70:	ad7ffc04 	addi	r21,r21,-16
   23a74:	e5408a0e 	bge	fp,r21,23ca0 <___vfprintf_internal_r+0x15b0>
   23a78:	18c00404 	addi	r3,r3,16
   23a7c:	84000044 	addi	r16,r16,1
   23a80:	95000015 	stw	r20,0(r18)
   23a84:	97000115 	stw	fp,4(r18)
   23a88:	d8c12015 	stw	r3,1152(sp)
   23a8c:	dc011f15 	stw	r16,1148(sp)
   23a90:	3c3ff60e 	bge	r7,r16,23a6c <__alt_data_end+0xfffe466c>
   23a94:	b009883a 	mov	r4,r22
   23a98:	b80b883a 	mov	r5,r23
   23a9c:	d9811e04 	addi	r6,sp,1144
   23aa0:	d9c13d15 	stw	r7,1268(sp)
   23aa4:	00299380 	call	29938 <__sprint_r>
   23aa8:	d9c13d17 	ldw	r7,1268(sp)
   23aac:	103c271e 	bne	r2,zero,22b4c <__alt_data_end+0xfffe374c>
   23ab0:	d8c12017 	ldw	r3,1152(sp)
   23ab4:	dc011f17 	ldw	r16,1148(sp)
   23ab8:	dc800404 	addi	r18,sp,16
   23abc:	003fec06 	br	23a70 <__alt_data_end+0xfffe4670>
   23ac0:	1cc00017 	ldw	r19,0(r3)
   23ac4:	dac12d17 	ldw	r11,1204(sp)
   23ac8:	9839d7fa 	srai	fp,r19,31
   23acc:	5ac00104 	addi	r11,r11,4
   23ad0:	dac12d15 	stw	r11,1204(sp)
   23ad4:	e005883a 	mov	r2,fp
   23ad8:	003d9006 	br	2311c <__alt_data_end+0xfffe3d1c>
   23adc:	00800084 	movi	r2,2
   23ae0:	9f06b03a 	or	r3,r19,fp
   23ae4:	003c7406 	br	22cb8 <__alt_data_end+0xfffe38b8>
   23ae8:	db012d17 	ldw	r12,1204(sp)
   23aec:	14c00017 	ldw	r19,0(r2)
   23af0:	0039883a 	mov	fp,zero
   23af4:	63000104 	addi	r12,r12,4
   23af8:	db012d15 	stw	r12,1204(sp)
   23afc:	00800044 	movi	r2,1
   23b00:	9807883a 	mov	r3,r19
   23b04:	003c6c06 	br	22cb8 <__alt_data_end+0xfffe38b8>
   23b08:	10803fcc 	andi	r2,r2,255
   23b0c:	1080201c 	xori	r2,r2,128
   23b10:	10bfe004 	addi	r2,r2,-128
   23b14:	01000c04 	movi	r4,48
   23b18:	1101a526 	beq	r2,r4,241b0 <___vfprintf_internal_r+0x1ac0>
   23b1c:	dac13117 	ldw	r11,1220(sp)
   23b20:	db012817 	ldw	r12,1184(sp)
   23b24:	193fffc5 	stb	r4,-1(r3)
   23b28:	5affffc4 	addi	r11,r11,-1
   23b2c:	dac13115 	stw	r11,1220(sp)
   23b30:	62e5c83a 	sub	r18,r12,r11
   23b34:	003c7d06 	br	22d2c <__alt_data_end+0xfffe392c>
   23b38:	b009883a 	mov	r4,r22
   23b3c:	b80b883a 	mov	r5,r23
   23b40:	d9811e04 	addi	r6,sp,1144
   23b44:	00299380 	call	29938 <__sprint_r>
   23b48:	103c001e 	bne	r2,zero,22b4c <__alt_data_end+0xfffe374c>
   23b4c:	d8c12017 	ldw	r3,1152(sp)
   23b50:	da000404 	addi	r8,sp,16
   23b54:	db013117 	ldw	r12,1220(sp)
   23b58:	dac13417 	ldw	r11,1232(sp)
   23b5c:	d8812617 	ldw	r2,1176(sp)
   23b60:	62e5883a 	add	r18,r12,r11
   23b64:	db013317 	ldw	r12,1228(sp)
   23b68:	13000216 	blt	r2,r12,23b74 <___vfprintf_internal_r+0x1484>
   23b6c:	8900004c 	andi	r4,r17,1
   23b70:	20000c26 	beq	r4,zero,23ba4 <___vfprintf_internal_r+0x14b4>
   23b74:	dac13817 	ldw	r11,1248(sp)
   23b78:	d9011f17 	ldw	r4,1148(sp)
   23b7c:	db013517 	ldw	r12,1236(sp)
   23b80:	1ac7883a 	add	r3,r3,r11
   23b84:	21000044 	addi	r4,r4,1
   23b88:	43000015 	stw	r12,0(r8)
   23b8c:	42c00115 	stw	r11,4(r8)
   23b90:	d8c12015 	stw	r3,1152(sp)
   23b94:	d9011f15 	stw	r4,1148(sp)
   23b98:	014001c4 	movi	r5,7
   23b9c:	2901cc16 	blt	r5,r4,242d0 <___vfprintf_internal_r+0x1be0>
   23ba0:	42000204 	addi	r8,r8,8
   23ba4:	dac13317 	ldw	r11,1228(sp)
   23ba8:	8489c83a 	sub	r4,r16,r18
   23bac:	5885c83a 	sub	r2,r11,r2
   23bb0:	1021883a 	mov	r16,r2
   23bb4:	2080010e 	bge	r4,r2,23bbc <___vfprintf_internal_r+0x14cc>
   23bb8:	2021883a 	mov	r16,r4
   23bbc:	04000a0e 	bge	zero,r16,23be8 <___vfprintf_internal_r+0x14f8>
   23bc0:	d9011f17 	ldw	r4,1148(sp)
   23bc4:	1c07883a 	add	r3,r3,r16
   23bc8:	44800015 	stw	r18,0(r8)
   23bcc:	21000044 	addi	r4,r4,1
   23bd0:	44000115 	stw	r16,4(r8)
   23bd4:	d8c12015 	stw	r3,1152(sp)
   23bd8:	d9011f15 	stw	r4,1148(sp)
   23bdc:	014001c4 	movi	r5,7
   23be0:	2901d616 	blt	r5,r4,2433c <___vfprintf_internal_r+0x1c4c>
   23be4:	42000204 	addi	r8,r8,8
   23be8:	8001df16 	blt	r16,zero,24368 <___vfprintf_internal_r+0x1c78>
   23bec:	1421c83a 	sub	r16,r2,r16
   23bf0:	043ce60e 	bge	zero,r16,22f8c <__alt_data_end+0xfffe3b8c>
   23bf4:	04800404 	movi	r18,16
   23bf8:	d8811f17 	ldw	r2,1148(sp)
   23bfc:	943efc0e 	bge	r18,r16,237f0 <__alt_data_end+0xfffe43f0>
   23c00:	014000f4 	movhi	r5,3
   23c04:	297fa984 	addi	r5,r5,-346
   23c08:	d9412c15 	stw	r5,1200(sp)
   23c0c:	054001c4 	movi	r21,7
   23c10:	00000306 	br	23c20 <___vfprintf_internal_r+0x1530>
   23c14:	42000204 	addi	r8,r8,8
   23c18:	843ffc04 	addi	r16,r16,-16
   23c1c:	943ef70e 	bge	r18,r16,237fc <__alt_data_end+0xfffe43fc>
   23c20:	18c00404 	addi	r3,r3,16
   23c24:	10800044 	addi	r2,r2,1
   23c28:	45000015 	stw	r20,0(r8)
   23c2c:	44800115 	stw	r18,4(r8)
   23c30:	d8c12015 	stw	r3,1152(sp)
   23c34:	d8811f15 	stw	r2,1148(sp)
   23c38:	a8bff60e 	bge	r21,r2,23c14 <__alt_data_end+0xfffe4814>
   23c3c:	b009883a 	mov	r4,r22
   23c40:	b80b883a 	mov	r5,r23
   23c44:	d9811e04 	addi	r6,sp,1144
   23c48:	00299380 	call	29938 <__sprint_r>
   23c4c:	103bbf1e 	bne	r2,zero,22b4c <__alt_data_end+0xfffe374c>
   23c50:	d8c12017 	ldw	r3,1152(sp)
   23c54:	d8811f17 	ldw	r2,1148(sp)
   23c58:	da000404 	addi	r8,sp,16
   23c5c:	003fee06 	br	23c18 <__alt_data_end+0xfffe4818>
   23c60:	8888703a 	and	r4,r17,r2
   23c64:	203eab1e 	bne	r4,zero,23714 <__alt_data_end+0xfffe4314>
   23c68:	dc011f17 	ldw	r16,1148(sp)
   23c6c:	db013117 	ldw	r12,1220(sp)
   23c70:	40800115 	stw	r2,4(r8)
   23c74:	84000044 	addi	r16,r16,1
   23c78:	43000015 	stw	r12,0(r8)
   23c7c:	d8c12015 	stw	r3,1152(sp)
   23c80:	dc011f15 	stw	r16,1148(sp)
   23c84:	008001c4 	movi	r2,7
   23c88:	14000e16 	blt	r2,r16,23cc4 <___vfprintf_internal_r+0x15d4>
   23c8c:	44800204 	addi	r18,r8,8
   23c90:	003ecb06 	br	237c0 <__alt_data_end+0xfffe43c0>
   23c94:	008000f4 	movhi	r2,3
   23c98:	10bfa984 	addi	r2,r2,-346
   23c9c:	d8812c15 	stw	r2,1200(sp)
   23ca0:	dac12c17 	ldw	r11,1200(sp)
   23ca4:	1d47883a 	add	r3,r3,r21
   23ca8:	84000044 	addi	r16,r16,1
   23cac:	92c00015 	stw	r11,0(r18)
   23cb0:	95400115 	stw	r21,4(r18)
   23cb4:	d8c12015 	stw	r3,1152(sp)
   23cb8:	dc011f15 	stw	r16,1148(sp)
   23cbc:	008001c4 	movi	r2,7
   23cc0:	143ebe0e 	bge	r2,r16,237bc <__alt_data_end+0xfffe43bc>
   23cc4:	b009883a 	mov	r4,r22
   23cc8:	b80b883a 	mov	r5,r23
   23ccc:	d9811e04 	addi	r6,sp,1144
   23cd0:	00299380 	call	29938 <__sprint_r>
   23cd4:	103b9d1e 	bne	r2,zero,22b4c <__alt_data_end+0xfffe374c>
   23cd8:	d8c12017 	ldw	r3,1152(sp)
   23cdc:	dc011f17 	ldw	r16,1148(sp)
   23ce0:	dc800404 	addi	r18,sp,16
   23ce4:	003eb606 	br	237c0 <__alt_data_end+0xfffe43c0>
   23ce8:	b009883a 	mov	r4,r22
   23cec:	b80b883a 	mov	r5,r23
   23cf0:	d9811e04 	addi	r6,sp,1144
   23cf4:	00299380 	call	29938 <__sprint_r>
   23cf8:	103b941e 	bne	r2,zero,22b4c <__alt_data_end+0xfffe374c>
   23cfc:	d8c12017 	ldw	r3,1152(sp)
   23d00:	dc011f17 	ldw	r16,1148(sp)
   23d04:	da000404 	addi	r8,sp,16
   23d08:	003e8d06 	br	23740 <__alt_data_end+0xfffe4340>
   23d0c:	b009883a 	mov	r4,r22
   23d10:	b80b883a 	mov	r5,r23
   23d14:	d9811e04 	addi	r6,sp,1144
   23d18:	00299380 	call	29938 <__sprint_r>
   23d1c:	103b8b1e 	bne	r2,zero,22b4c <__alt_data_end+0xfffe374c>
   23d20:	d8c12017 	ldw	r3,1152(sp)
   23d24:	dc011f17 	ldw	r16,1148(sp)
   23d28:	dc800404 	addi	r18,sp,16
   23d2c:	003e8f06 	br	2376c <__alt_data_end+0xfffe436c>
   23d30:	db010e04 	addi	r12,sp,1080
   23d34:	0025883a 	mov	r18,zero
   23d38:	db013115 	stw	r12,1220(sp)
   23d3c:	003bfb06 	br	22d2c <__alt_data_end+0xfffe392c>
   23d40:	b009883a 	mov	r4,r22
   23d44:	b80b883a 	mov	r5,r23
   23d48:	d9811e04 	addi	r6,sp,1144
   23d4c:	00299380 	call	29938 <__sprint_r>
   23d50:	103b7e1e 	bne	r2,zero,22b4c <__alt_data_end+0xfffe374c>
   23d54:	d8c12017 	ldw	r3,1152(sp)
   23d58:	da000404 	addi	r8,sp,16
   23d5c:	003c5506 	br	22eb4 <__alt_data_end+0xfffe3ab4>
   23d60:	04e7c83a 	sub	r19,zero,r19
   23d64:	9804c03a 	cmpne	r2,r19,zero
   23d68:	0739c83a 	sub	fp,zero,fp
   23d6c:	e0b9c83a 	sub	fp,fp,r2
   23d70:	05400b44 	movi	r21,45
   23d74:	dd412785 	stb	r21,1182(sp)
   23d78:	da413215 	stw	r9,1224(sp)
   23d7c:	00800044 	movi	r2,1
   23d80:	9f06b03a 	or	r3,r19,fp
   23d84:	003bcf06 	br	22cc4 <__alt_data_end+0xfffe38c4>
   23d88:	da013f15 	stw	r8,1276(sp)
   23d8c:	da413e15 	stw	r9,1272(sp)
   23d90:	00295940 	call	29594 <__fpclassifyd>
   23d94:	da013f17 	ldw	r8,1276(sp)
   23d98:	da413e17 	ldw	r9,1272(sp)
   23d9c:	1000ce26 	beq	r2,zero,240d8 <___vfprintf_internal_r+0x19e8>
   23da0:	057ff7c4 	movi	r21,-33
   23da4:	00bfffc4 	movi	r2,-1
   23da8:	856a703a 	and	r21,r16,r21
   23dac:	4881f026 	beq	r9,r2,24570 <___vfprintf_internal_r+0x1e80>
   23db0:	008011c4 	movi	r2,71
   23db4:	a881e526 	beq	r21,r2,2454c <___vfprintf_internal_r+0x1e5c>
   23db8:	db013917 	ldw	r12,1252(sp)
   23dbc:	8ac04014 	ori	r11,r17,256
   23dc0:	dac12d15 	stw	r11,1204(sp)
   23dc4:	6001e416 	blt	r12,zero,24558 <___vfprintf_internal_r+0x1e68>
   23dc8:	dc813917 	ldw	r18,1252(sp)
   23dcc:	d8012b05 	stb	zero,1196(sp)
   23dd0:	00801984 	movi	r2,102
   23dd4:	80811826 	beq	r16,r2,24238 <___vfprintf_internal_r+0x1b48>
   23dd8:	00801184 	movi	r2,70
   23ddc:	80811626 	beq	r16,r2,24238 <___vfprintf_internal_r+0x1b48>
   23de0:	00801144 	movi	r2,69
   23de4:	a881e026 	beq	r21,r2,24568 <___vfprintf_internal_r+0x1e78>
   23de8:	4839883a 	mov	fp,r9
   23dec:	d8812604 	addi	r2,sp,1176
   23df0:	d8800115 	stw	r2,4(sp)
   23df4:	d9413717 	ldw	r5,1244(sp)
   23df8:	d8812504 	addi	r2,sp,1172
   23dfc:	d8800215 	stw	r2,8(sp)
   23e00:	d8812104 	addi	r2,sp,1156
   23e04:	df000015 	stw	fp,0(sp)
   23e08:	d8800315 	stw	r2,12(sp)
   23e0c:	b009883a 	mov	r4,r22
   23e10:	900d883a 	mov	r6,r18
   23e14:	01c00084 	movi	r7,2
   23e18:	da013f15 	stw	r8,1276(sp)
   23e1c:	da413e15 	stw	r9,1272(sp)
   23e20:	0024a400 	call	24a40 <_dtoa_r>
   23e24:	d8813115 	stw	r2,1220(sp)
   23e28:	008019c4 	movi	r2,103
   23e2c:	da013f17 	ldw	r8,1276(sp)
   23e30:	da413e17 	ldw	r9,1272(sp)
   23e34:	80800226 	beq	r16,r2,23e40 <___vfprintf_internal_r+0x1750>
   23e38:	008011c4 	movi	r2,71
   23e3c:	8081101e 	bne	r16,r2,24280 <___vfprintf_internal_r+0x1b90>
   23e40:	8880004c 	andi	r2,r17,1
   23e44:	1001df26 	beq	r2,zero,245c4 <___vfprintf_internal_r+0x1ed4>
   23e48:	db013117 	ldw	r12,1220(sp)
   23e4c:	6715883a 	add	r10,r12,fp
   23e50:	d9013717 	ldw	r4,1244(sp)
   23e54:	900b883a 	mov	r5,r18
   23e58:	000d883a 	mov	r6,zero
   23e5c:	000f883a 	mov	r7,zero
   23e60:	da013f15 	stw	r8,1276(sp)
   23e64:	da413e15 	stw	r9,1272(sp)
   23e68:	da813d15 	stw	r10,1268(sp)
   23e6c:	002c9f40 	call	2c9f4 <__eqdf2>
   23e70:	da013f17 	ldw	r8,1276(sp)
   23e74:	da413e17 	ldw	r9,1272(sp)
   23e78:	da813d17 	ldw	r10,1268(sp)
   23e7c:	10016526 	beq	r2,zero,24414 <___vfprintf_internal_r+0x1d24>
   23e80:	d8812117 	ldw	r2,1156(sp)
   23e84:	1280062e 	bgeu	r2,r10,23ea0 <___vfprintf_internal_r+0x17b0>
   23e88:	01000c04 	movi	r4,48
   23e8c:	10c00044 	addi	r3,r2,1
   23e90:	d8c12115 	stw	r3,1156(sp)
   23e94:	11000005 	stb	r4,0(r2)
   23e98:	d8812117 	ldw	r2,1156(sp)
   23e9c:	12bffb36 	bltu	r2,r10,23e8c <__alt_data_end+0xfffe4a8c>
   23ea0:	db013117 	ldw	r12,1220(sp)
   23ea4:	1305c83a 	sub	r2,r2,r12
   23ea8:	d8813315 	stw	r2,1228(sp)
   23eac:	008011c4 	movi	r2,71
   23eb0:	a8814a26 	beq	r21,r2,243dc <___vfprintf_internal_r+0x1cec>
   23eb4:	00801944 	movi	r2,101
   23eb8:	14020a0e 	bge	r2,r16,246e4 <___vfprintf_internal_r+0x1ff4>
   23ebc:	00801984 	movi	r2,102
   23ec0:	8081b626 	beq	r16,r2,2459c <___vfprintf_internal_r+0x1eac>
   23ec4:	db012617 	ldw	r12,1176(sp)
   23ec8:	db013415 	stw	r12,1232(sp)
   23ecc:	db013417 	ldw	r12,1232(sp)
   23ed0:	dac13317 	ldw	r11,1228(sp)
   23ed4:	62c1a816 	blt	r12,r11,24578 <___vfprintf_internal_r+0x1e88>
   23ed8:	8c40004c 	andi	r17,r17,1
   23edc:	8801ca1e 	bne	r17,zero,24608 <___vfprintf_internal_r+0x1f18>
   23ee0:	6005883a 	mov	r2,r12
   23ee4:	6001b516 	blt	r12,zero,245bc <___vfprintf_internal_r+0x1ecc>
   23ee8:	dc813417 	ldw	r18,1232(sp)
   23eec:	df012b07 	ldb	fp,1196(sp)
   23ef0:	e001321e 	bne	fp,zero,243bc <___vfprintf_internal_r+0x1ccc>
   23ef4:	dc412d17 	ldw	r17,1204(sp)
   23ef8:	dd412783 	ldbu	r21,1182(sp)
   23efc:	d8812b15 	stw	r2,1196(sp)
   23f00:	dcc12d15 	stw	r19,1204(sp)
   23f04:	d8013215 	stw	zero,1224(sp)
   23f08:	003b8d06 	br	22d40 <__alt_data_end+0xfffe3940>
   23f0c:	88c0100c 	andi	r3,r17,64
   23f10:	18008226 	beq	r3,zero,2411c <___vfprintf_internal_r+0x1a2c>
   23f14:	dac12d17 	ldw	r11,1204(sp)
   23f18:	14c0000b 	ldhu	r19,0(r2)
   23f1c:	0039883a 	mov	fp,zero
   23f20:	5ac00104 	addi	r11,r11,4
   23f24:	dac12d15 	stw	r11,1204(sp)
   23f28:	003c8f06 	br	23168 <__alt_data_end+0xfffe3d68>
   23f2c:	1c000007 	ldb	r16,0(r3)
   23f30:	1805883a 	mov	r2,r3
   23f34:	003a5506 	br	2288c <__alt_data_end+0xfffe348c>
   23f38:	00800084 	movi	r2,2
   23f3c:	003b5e06 	br	22cb8 <__alt_data_end+0xfffe38b8>
   23f40:	8880040c 	andi	r2,r17,16
   23f44:	1000091e 	bne	r2,zero,23f6c <___vfprintf_internal_r+0x187c>
   23f48:	8c40100c 	andi	r17,r17,64
   23f4c:	88000726 	beq	r17,zero,23f6c <___vfprintf_internal_r+0x187c>
   23f50:	db012d17 	ldw	r12,1204(sp)
   23f54:	dac12f17 	ldw	r11,1212(sp)
   23f58:	60800017 	ldw	r2,0(r12)
   23f5c:	63000104 	addi	r12,r12,4
   23f60:	db012d15 	stw	r12,1204(sp)
   23f64:	12c0000d 	sth	r11,0(r2)
   23f68:	003a1e06 	br	227e4 <__alt_data_end+0xfffe33e4>
   23f6c:	db012d17 	ldw	r12,1204(sp)
   23f70:	dac12f17 	ldw	r11,1212(sp)
   23f74:	60800017 	ldw	r2,0(r12)
   23f78:	63000104 	addi	r12,r12,4
   23f7c:	db012d15 	stw	r12,1204(sp)
   23f80:	12c00015 	stw	r11,0(r2)
   23f84:	003a1706 	br	227e4 <__alt_data_end+0xfffe33e4>
   23f88:	010000f4 	movhi	r4,3
   23f8c:	213fa984 	addi	r4,r4,-346
   23f90:	d9012c15 	stw	r4,1200(sp)
   23f94:	dac12c17 	ldw	r11,1200(sp)
   23f98:	1c87883a 	add	r3,r3,r18
   23f9c:	10800044 	addi	r2,r2,1
   23fa0:	42c00015 	stw	r11,0(r8)
   23fa4:	44800115 	stw	r18,4(r8)
   23fa8:	d8c12015 	stw	r3,1152(sp)
   23fac:	d8811f15 	stw	r2,1148(sp)
   23fb0:	010001c4 	movi	r4,7
   23fb4:	20bee016 	blt	r4,r2,23b38 <__alt_data_end+0xfffe4738>
   23fb8:	42000204 	addi	r8,r8,8
   23fbc:	003ee506 	br	23b54 <__alt_data_end+0xfffe4754>
   23fc0:	010000f4 	movhi	r4,3
   23fc4:	213fa984 	addi	r4,r4,-346
   23fc8:	d9012c15 	stw	r4,1200(sp)
   23fcc:	003bd806 	br	22f30 <__alt_data_end+0xfffe3b30>
   23fd0:	b009883a 	mov	r4,r22
   23fd4:	b80b883a 	mov	r5,r23
   23fd8:	d9811e04 	addi	r6,sp,1144
   23fdc:	00299380 	call	29938 <__sprint_r>
   23fe0:	103ada1e 	bne	r2,zero,22b4c <__alt_data_end+0xfffe374c>
   23fe4:	d8c12017 	ldw	r3,1152(sp)
   23fe8:	da000404 	addi	r8,sp,16
   23fec:	003d6b06 	br	2359c <__alt_data_end+0xfffe419c>
   23ff0:	d8811f17 	ldw	r2,1148(sp)
   23ff4:	030000f4 	movhi	r12,3
   23ff8:	01000044 	movi	r4,1
   23ffc:	18c00044 	addi	r3,r3,1
   24000:	10800044 	addi	r2,r2,1
   24004:	633fa904 	addi	r12,r12,-348
   24008:	41000115 	stw	r4,4(r8)
   2400c:	43000015 	stw	r12,0(r8)
   24010:	d8c12015 	stw	r3,1152(sp)
   24014:	d8811f15 	stw	r2,1148(sp)
   24018:	010001c4 	movi	r4,7
   2401c:	20804916 	blt	r4,r2,24144 <___vfprintf_internal_r+0x1a54>
   24020:	42000204 	addi	r8,r8,8
   24024:	8000041e 	bne	r16,zero,24038 <___vfprintf_internal_r+0x1948>
   24028:	dac13317 	ldw	r11,1228(sp)
   2402c:	5800021e 	bne	r11,zero,24038 <___vfprintf_internal_r+0x1948>
   24030:	8880004c 	andi	r2,r17,1
   24034:	103bd526 	beq	r2,zero,22f8c <__alt_data_end+0xfffe3b8c>
   24038:	db013817 	ldw	r12,1248(sp)
   2403c:	d8811f17 	ldw	r2,1148(sp)
   24040:	dac13517 	ldw	r11,1236(sp)
   24044:	1b07883a 	add	r3,r3,r12
   24048:	10800044 	addi	r2,r2,1
   2404c:	42c00015 	stw	r11,0(r8)
   24050:	43000115 	stw	r12,4(r8)
   24054:	d8c12015 	stw	r3,1152(sp)
   24058:	d8811f15 	stw	r2,1148(sp)
   2405c:	010001c4 	movi	r4,7
   24060:	20813016 	blt	r4,r2,24524 <___vfprintf_internal_r+0x1e34>
   24064:	42000204 	addi	r8,r8,8
   24068:	0421c83a 	sub	r16,zero,r16
   2406c:	0400630e 	bge	zero,r16,241fc <___vfprintf_internal_r+0x1b0c>
   24070:	04800404 	movi	r18,16
   24074:	94009f0e 	bge	r18,r16,242f4 <___vfprintf_internal_r+0x1c04>
   24078:	010000f4 	movhi	r4,3
   2407c:	213fa984 	addi	r4,r4,-346
   24080:	d9012c15 	stw	r4,1200(sp)
   24084:	054001c4 	movi	r21,7
   24088:	00000306 	br	24098 <___vfprintf_internal_r+0x19a8>
   2408c:	42000204 	addi	r8,r8,8
   24090:	843ffc04 	addi	r16,r16,-16
   24094:	94009a0e 	bge	r18,r16,24300 <___vfprintf_internal_r+0x1c10>
   24098:	18c00404 	addi	r3,r3,16
   2409c:	10800044 	addi	r2,r2,1
   240a0:	45000015 	stw	r20,0(r8)
   240a4:	44800115 	stw	r18,4(r8)
   240a8:	d8c12015 	stw	r3,1152(sp)
   240ac:	d8811f15 	stw	r2,1148(sp)
   240b0:	a8bff60e 	bge	r21,r2,2408c <__alt_data_end+0xfffe4c8c>
   240b4:	b009883a 	mov	r4,r22
   240b8:	b80b883a 	mov	r5,r23
   240bc:	d9811e04 	addi	r6,sp,1144
   240c0:	00299380 	call	29938 <__sprint_r>
   240c4:	103aa11e 	bne	r2,zero,22b4c <__alt_data_end+0xfffe374c>
   240c8:	d8c12017 	ldw	r3,1152(sp)
   240cc:	d8811f17 	ldw	r2,1148(sp)
   240d0:	da000404 	addi	r8,sp,16
   240d4:	003fee06 	br	24090 <__alt_data_end+0xfffe4c90>
   240d8:	008011c4 	movi	r2,71
   240dc:	1400b316 	blt	r2,r16,243ac <___vfprintf_internal_r+0x1cbc>
   240e0:	030000f4 	movhi	r12,3
   240e4:	633f9b04 	addi	r12,r12,-404
   240e8:	db013115 	stw	r12,1220(sp)
   240ec:	00c000c4 	movi	r3,3
   240f0:	00bfdfc4 	movi	r2,-129
   240f4:	d8c12b15 	stw	r3,1196(sp)
   240f8:	88a2703a 	and	r17,r17,r2
   240fc:	dd412783 	ldbu	r21,1182(sp)
   24100:	dcc12d15 	stw	r19,1204(sp)
   24104:	1825883a 	mov	r18,r3
   24108:	d8013215 	stw	zero,1224(sp)
   2410c:	d8013415 	stw	zero,1232(sp)
   24110:	003b0b06 	br	22d40 <__alt_data_end+0xfffe3940>
   24114:	4825883a 	mov	r18,r9
   24118:	003cba06 	br	23404 <__alt_data_end+0xfffe4004>
   2411c:	db012d17 	ldw	r12,1204(sp)
   24120:	14c00017 	ldw	r19,0(r2)
   24124:	0039883a 	mov	fp,zero
   24128:	63000104 	addi	r12,r12,4
   2412c:	db012d15 	stw	r12,1204(sp)
   24130:	003c0d06 	br	23168 <__alt_data_end+0xfffe3d68>
   24134:	008000f4 	movhi	r2,3
   24138:	10bf9904 	addi	r2,r2,-412
   2413c:	d8813115 	stw	r2,1220(sp)
   24140:	003ac406 	br	22c54 <__alt_data_end+0xfffe3854>
   24144:	b009883a 	mov	r4,r22
   24148:	b80b883a 	mov	r5,r23
   2414c:	d9811e04 	addi	r6,sp,1144
   24150:	00299380 	call	29938 <__sprint_r>
   24154:	103a7d1e 	bne	r2,zero,22b4c <__alt_data_end+0xfffe374c>
   24158:	dc012617 	ldw	r16,1176(sp)
   2415c:	d8c12017 	ldw	r3,1152(sp)
   24160:	da000404 	addi	r8,sp,16
   24164:	003faf06 	br	24024 <__alt_data_end+0xfffe4c24>
   24168:	db012e17 	ldw	r12,1208(sp)
   2416c:	1805883a 	mov	r2,r3
   24170:	dac12d15 	stw	r11,1204(sp)
   24174:	0319c83a 	sub	r12,zero,r12
   24178:	db012e15 	stw	r12,1208(sp)
   2417c:	003a7e06 	br	22b78 <__alt_data_end+0xfffe3778>
   24180:	18800044 	addi	r2,r3,1
   24184:	8c400814 	ori	r17,r17,32
   24188:	1c000047 	ldb	r16,1(r3)
   2418c:	0039bf06 	br	2288c <__alt_data_end+0xfffe348c>
   24190:	b009883a 	mov	r4,r22
   24194:	b80b883a 	mov	r5,r23
   24198:	d9811e04 	addi	r6,sp,1144
   2419c:	00299380 	call	29938 <__sprint_r>
   241a0:	103a6a1e 	bne	r2,zero,22b4c <__alt_data_end+0xfffe374c>
   241a4:	d8c12017 	ldw	r3,1152(sp)
   241a8:	da000404 	addi	r8,sp,16
   241ac:	003d0c06 	br	235e0 <__alt_data_end+0xfffe41e0>
   241b0:	db012817 	ldw	r12,1184(sp)
   241b4:	d8c13117 	ldw	r3,1220(sp)
   241b8:	60e5c83a 	sub	r18,r12,r3
   241bc:	003adb06 	br	22d2c <__alt_data_end+0xfffe392c>
   241c0:	da013f15 	stw	r8,1276(sp)
   241c4:	00226580 	call	22658 <strlen>
   241c8:	1025883a 	mov	r18,r2
   241cc:	da013f17 	ldw	r8,1276(sp)
   241d0:	903c8e0e 	bge	r18,zero,2340c <__alt_data_end+0xfffe400c>
   241d4:	0005883a 	mov	r2,zero
   241d8:	003c8c06 	br	2340c <__alt_data_end+0xfffe400c>
   241dc:	b009883a 	mov	r4,r22
   241e0:	b80b883a 	mov	r5,r23
   241e4:	d9811e04 	addi	r6,sp,1144
   241e8:	00299380 	call	29938 <__sprint_r>
   241ec:	103a571e 	bne	r2,zero,22b4c <__alt_data_end+0xfffe374c>
   241f0:	d8c12017 	ldw	r3,1152(sp)
   241f4:	d8811f17 	ldw	r2,1148(sp)
   241f8:	da000404 	addi	r8,sp,16
   241fc:	db013317 	ldw	r12,1228(sp)
   24200:	dac13117 	ldw	r11,1220(sp)
   24204:	10800044 	addi	r2,r2,1
   24208:	60c7883a 	add	r3,r12,r3
   2420c:	42c00015 	stw	r11,0(r8)
   24210:	43000115 	stw	r12,4(r8)
   24214:	d8c12015 	stw	r3,1152(sp)
   24218:	d8811f15 	stw	r2,1148(sp)
   2421c:	010001c4 	movi	r4,7
   24220:	20bb590e 	bge	r4,r2,22f88 <__alt_data_end+0xfffe3b88>
   24224:	003d7e06 	br	23820 <__alt_data_end+0xfffe4420>
   24228:	010000f4 	movhi	r4,3
   2422c:	213fad84 	addi	r4,r4,-330
   24230:	d9013615 	stw	r4,1240(sp)
   24234:	003af606 	br	22e10 <__alt_data_end+0xfffe3a10>
   24238:	d8812604 	addi	r2,sp,1176
   2423c:	d8800115 	stw	r2,4(sp)
   24240:	d9413717 	ldw	r5,1244(sp)
   24244:	d8812504 	addi	r2,sp,1172
   24248:	d8800215 	stw	r2,8(sp)
   2424c:	d8812104 	addi	r2,sp,1156
   24250:	da400015 	stw	r9,0(sp)
   24254:	d8800315 	stw	r2,12(sp)
   24258:	b009883a 	mov	r4,r22
   2425c:	900d883a 	mov	r6,r18
   24260:	01c000c4 	movi	r7,3
   24264:	da013f15 	stw	r8,1276(sp)
   24268:	da413e15 	stw	r9,1272(sp)
   2426c:	0024a400 	call	24a40 <_dtoa_r>
   24270:	da413e17 	ldw	r9,1272(sp)
   24274:	da013f17 	ldw	r8,1276(sp)
   24278:	d8813115 	stw	r2,1220(sp)
   2427c:	4839883a 	mov	fp,r9
   24280:	dac13117 	ldw	r11,1220(sp)
   24284:	00801184 	movi	r2,70
   24288:	5f15883a 	add	r10,r11,fp
   2428c:	a8bef01e 	bne	r21,r2,23e50 <__alt_data_end+0xfffe4a50>
   24290:	59000007 	ldb	r4,0(r11)
   24294:	00800c04 	movi	r2,48
   24298:	2080e026 	beq	r4,r2,2461c <___vfprintf_internal_r+0x1f2c>
   2429c:	d8c12617 	ldw	r3,1176(sp)
   242a0:	50d5883a 	add	r10,r10,r3
   242a4:	003eea06 	br	23e50 <__alt_data_end+0xfffe4a50>
   242a8:	0025883a 	mov	r18,zero
   242ac:	003db306 	br	2397c <__alt_data_end+0xfffe457c>
   242b0:	b009883a 	mov	r4,r22
   242b4:	b80b883a 	mov	r5,r23
   242b8:	d9811e04 	addi	r6,sp,1144
   242bc:	00299380 	call	29938 <__sprint_r>
   242c0:	103a221e 	bne	r2,zero,22b4c <__alt_data_end+0xfffe374c>
   242c4:	d8c12017 	ldw	r3,1152(sp)
   242c8:	da000404 	addi	r8,sp,16
   242cc:	003daa06 	br	23978 <__alt_data_end+0xfffe4578>
   242d0:	b009883a 	mov	r4,r22
   242d4:	b80b883a 	mov	r5,r23
   242d8:	d9811e04 	addi	r6,sp,1144
   242dc:	00299380 	call	29938 <__sprint_r>
   242e0:	103a1a1e 	bne	r2,zero,22b4c <__alt_data_end+0xfffe374c>
   242e4:	d8812617 	ldw	r2,1176(sp)
   242e8:	d8c12017 	ldw	r3,1152(sp)
   242ec:	da000404 	addi	r8,sp,16
   242f0:	003e2c06 	br	23ba4 <__alt_data_end+0xfffe47a4>
   242f4:	030000f4 	movhi	r12,3
   242f8:	633fa984 	addi	r12,r12,-346
   242fc:	db012c15 	stw	r12,1200(sp)
   24300:	dac12c17 	ldw	r11,1200(sp)
   24304:	1c07883a 	add	r3,r3,r16
   24308:	10800044 	addi	r2,r2,1
   2430c:	42c00015 	stw	r11,0(r8)
   24310:	44000115 	stw	r16,4(r8)
   24314:	d8c12015 	stw	r3,1152(sp)
   24318:	d8811f15 	stw	r2,1148(sp)
   2431c:	010001c4 	movi	r4,7
   24320:	20bfae16 	blt	r4,r2,241dc <__alt_data_end+0xfffe4ddc>
   24324:	42000204 	addi	r8,r8,8
   24328:	003fb406 	br	241fc <__alt_data_end+0xfffe4dfc>
   2432c:	030000f4 	movhi	r12,3
   24330:	633fad84 	addi	r12,r12,-330
   24334:	db013615 	stw	r12,1240(sp)
   24338:	003b3806 	br	2301c <__alt_data_end+0xfffe3c1c>
   2433c:	b009883a 	mov	r4,r22
   24340:	b80b883a 	mov	r5,r23
   24344:	d9811e04 	addi	r6,sp,1144
   24348:	00299380 	call	29938 <__sprint_r>
   2434c:	1039ff1e 	bne	r2,zero,22b4c <__alt_data_end+0xfffe374c>
   24350:	d8812617 	ldw	r2,1176(sp)
   24354:	db013317 	ldw	r12,1228(sp)
   24358:	d8c12017 	ldw	r3,1152(sp)
   2435c:	da000404 	addi	r8,sp,16
   24360:	6085c83a 	sub	r2,r12,r2
   24364:	003e2006 	br	23be8 <__alt_data_end+0xfffe47e8>
   24368:	0021883a 	mov	r16,zero
   2436c:	003e1f06 	br	23bec <__alt_data_end+0xfffe47ec>
   24370:	00800184 	movi	r2,6
   24374:	1240012e 	bgeu	r2,r9,2437c <___vfprintf_internal_r+0x1c8c>
   24378:	1013883a 	mov	r9,r2
   2437c:	4825883a 	mov	r18,r9
   24380:	4805883a 	mov	r2,r9
   24384:	48009e16 	blt	r9,zero,24600 <___vfprintf_internal_r+0x1f10>
   24388:	d8812b15 	stw	r2,1196(sp)
   2438c:	008000f4 	movhi	r2,3
   24390:	10bfa704 	addi	r2,r2,-356
   24394:	d8813115 	stw	r2,1220(sp)
   24398:	dcc12d15 	stw	r19,1204(sp)
   2439c:	d8013215 	stw	zero,1224(sp)
   243a0:	d8013415 	stw	zero,1232(sp)
   243a4:	0005883a 	mov	r2,zero
   243a8:	003a6c06 	br	22d5c <__alt_data_end+0xfffe395c>
   243ac:	008000f4 	movhi	r2,3
   243b0:	10bf9c04 	addi	r2,r2,-400
   243b4:	d8813115 	stw	r2,1220(sp)
   243b8:	003f4c06 	br	240ec <__alt_data_end+0xfffe4cec>
   243bc:	00c00b44 	movi	r3,45
   243c0:	d8812b15 	stw	r2,1196(sp)
   243c4:	dc412d17 	ldw	r17,1204(sp)
   243c8:	d8c12785 	stb	r3,1182(sp)
   243cc:	dcc12d15 	stw	r19,1204(sp)
   243d0:	d8013215 	stw	zero,1224(sp)
   243d4:	00800b44 	movi	r2,45
   243d8:	003a5d06 	br	22d50 <__alt_data_end+0xfffe3950>
   243dc:	d8c12617 	ldw	r3,1176(sp)
   243e0:	00bfff44 	movi	r2,-3
   243e4:	18800d16 	blt	r3,r2,2441c <___vfprintf_internal_r+0x1d2c>
   243e8:	48c00c16 	blt	r9,r3,2441c <___vfprintf_internal_r+0x1d2c>
   243ec:	d8c13415 	stw	r3,1232(sp)
   243f0:	040019c4 	movi	r16,103
   243f4:	003eb506 	br	23ecc <__alt_data_end+0xfffe4acc>
   243f8:	05400b44 	movi	r21,45
   243fc:	dd412785 	stb	r21,1182(sp)
   24400:	003a0f06 	br	22c40 <__alt_data_end+0xfffe3840>
   24404:	010000f4 	movhi	r4,3
   24408:	213fa984 	addi	r4,r4,-346
   2440c:	d9012c15 	stw	r4,1200(sp)
   24410:	003cb106 	br	236d8 <__alt_data_end+0xfffe42d8>
   24414:	5005883a 	mov	r2,r10
   24418:	003ea106 	br	23ea0 <__alt_data_end+0xfffe4aa0>
   2441c:	843fff84 	addi	r16,r16,-2
   24420:	1f3fffc4 	addi	fp,r3,-1
   24424:	df012615 	stw	fp,1176(sp)
   24428:	dc0122c5 	stb	r16,1163(sp)
   2442c:	e0009516 	blt	fp,zero,24684 <___vfprintf_internal_r+0x1f94>
   24430:	00800ac4 	movi	r2,43
   24434:	d8812305 	stb	r2,1164(sp)
   24438:	00800244 	movi	r2,9
   2443c:	1700690e 	bge	r2,fp,245e4 <___vfprintf_internal_r+0x1ef4>
   24440:	dd4122c4 	addi	r21,sp,1163
   24444:	dc012c15 	stw	r16,1200(sp)
   24448:	8825883a 	mov	r18,r17
   2444c:	a821883a 	mov	r16,r21
   24450:	4023883a 	mov	r17,r8
   24454:	e009883a 	mov	r4,fp
   24458:	01400284 	movi	r5,10
   2445c:	00224b80 	call	224b8 <__modsi3>
   24460:	10800c04 	addi	r2,r2,48
   24464:	843fffc4 	addi	r16,r16,-1
   24468:	e009883a 	mov	r4,fp
   2446c:	01400284 	movi	r5,10
   24470:	80800005 	stb	r2,0(r16)
   24474:	00224640 	call	22464 <__divsi3>
   24478:	1039883a 	mov	fp,r2
   2447c:	00800244 	movi	r2,9
   24480:	173ff416 	blt	r2,fp,24454 <__alt_data_end+0xfffe5054>
   24484:	8811883a 	mov	r8,r17
   24488:	e0800c04 	addi	r2,fp,48
   2448c:	9023883a 	mov	r17,r18
   24490:	8025883a 	mov	r18,r16
   24494:	913fffc4 	addi	r4,r18,-1
   24498:	90bfffc5 	stb	r2,-1(r18)
   2449c:	dc012c17 	ldw	r16,1200(sp)
   244a0:	25408e2e 	bgeu	r4,r21,246dc <___vfprintf_internal_r+0x1fec>
   244a4:	d9412384 	addi	r5,sp,1166
   244a8:	2c8bc83a 	sub	r5,r5,r18
   244ac:	d8c12344 	addi	r3,sp,1165
   244b0:	a94b883a 	add	r5,r21,r5
   244b4:	00000106 	br	244bc <___vfprintf_internal_r+0x1dcc>
   244b8:	20800003 	ldbu	r2,0(r4)
   244bc:	18800005 	stb	r2,0(r3)
   244c0:	18c00044 	addi	r3,r3,1
   244c4:	21000044 	addi	r4,r4,1
   244c8:	197ffb1e 	bne	r3,r5,244b8 <__alt_data_end+0xfffe50b8>
   244cc:	d8812304 	addi	r2,sp,1164
   244d0:	1485c83a 	sub	r2,r2,r18
   244d4:	d8c12344 	addi	r3,sp,1165
   244d8:	1885883a 	add	r2,r3,r2
   244dc:	dac13317 	ldw	r11,1228(sp)
   244e0:	156bc83a 	sub	r21,r2,r21
   244e4:	dd413a15 	stw	r21,1256(sp)
   244e8:	00800044 	movi	r2,1
   244ec:	5d65883a 	add	r18,r11,r21
   244f0:	12c0770e 	bge	r2,r11,246d0 <___vfprintf_internal_r+0x1fe0>
   244f4:	94800044 	addi	r18,r18,1
   244f8:	9005883a 	mov	r2,r18
   244fc:	90007216 	blt	r18,zero,246c8 <___vfprintf_internal_r+0x1fd8>
   24500:	d8013415 	stw	zero,1232(sp)
   24504:	003e7906 	br	23eec <__alt_data_end+0xfffe4aec>
   24508:	da412b15 	stw	r9,1196(sp)
   2450c:	dd412783 	ldbu	r21,1182(sp)
   24510:	4825883a 	mov	r18,r9
   24514:	dcc12d15 	stw	r19,1204(sp)
   24518:	d8013215 	stw	zero,1224(sp)
   2451c:	d8013415 	stw	zero,1232(sp)
   24520:	003a0706 	br	22d40 <__alt_data_end+0xfffe3940>
   24524:	b009883a 	mov	r4,r22
   24528:	b80b883a 	mov	r5,r23
   2452c:	d9811e04 	addi	r6,sp,1144
   24530:	00299380 	call	29938 <__sprint_r>
   24534:	1039851e 	bne	r2,zero,22b4c <__alt_data_end+0xfffe374c>
   24538:	dc012617 	ldw	r16,1176(sp)
   2453c:	d8c12017 	ldw	r3,1152(sp)
   24540:	d8811f17 	ldw	r2,1148(sp)
   24544:	da000404 	addi	r8,sp,16
   24548:	003ec706 	br	24068 <__alt_data_end+0xfffe4c68>
   2454c:	483e1a1e 	bne	r9,zero,23db8 <__alt_data_end+0xfffe49b8>
   24550:	9013883a 	mov	r9,r18
   24554:	003e1806 	br	23db8 <__alt_data_end+0xfffe49b8>
   24558:	00c00b44 	movi	r3,45
   2455c:	64a0003c 	xorhi	r18,r12,32768
   24560:	d8c12b05 	stb	r3,1196(sp)
   24564:	003e1a06 	br	23dd0 <__alt_data_end+0xfffe49d0>
   24568:	4f000044 	addi	fp,r9,1
   2456c:	003e1f06 	br	23dec <__alt_data_end+0xfffe49ec>
   24570:	02400184 	movi	r9,6
   24574:	003e1006 	br	23db8 <__alt_data_end+0xfffe49b8>
   24578:	d8c13417 	ldw	r3,1232(sp)
   2457c:	00c04b0e 	bge	zero,r3,246ac <___vfprintf_internal_r+0x1fbc>
   24580:	04800044 	movi	r18,1
   24584:	dac13317 	ldw	r11,1228(sp)
   24588:	92e5883a 	add	r18,r18,r11
   2458c:	9005883a 	mov	r2,r18
   24590:	903e560e 	bge	r18,zero,23eec <__alt_data_end+0xfffe4aec>
   24594:	0005883a 	mov	r2,zero
   24598:	003e5406 	br	23eec <__alt_data_end+0xfffe4aec>
   2459c:	d8c12617 	ldw	r3,1176(sp)
   245a0:	d8c13415 	stw	r3,1232(sp)
   245a4:	00c03b0e 	bge	zero,r3,24694 <___vfprintf_internal_r+0x1fa4>
   245a8:	4800081e 	bne	r9,zero,245cc <___vfprintf_internal_r+0x1edc>
   245ac:	8c40004c 	andi	r17,r17,1
   245b0:	8800061e 	bne	r17,zero,245cc <___vfprintf_internal_r+0x1edc>
   245b4:	1805883a 	mov	r2,r3
   245b8:	183e4b0e 	bge	r3,zero,23ee8 <__alt_data_end+0xfffe4ae8>
   245bc:	0005883a 	mov	r2,zero
   245c0:	003e4906 	br	23ee8 <__alt_data_end+0xfffe4ae8>
   245c4:	d8812117 	ldw	r2,1156(sp)
   245c8:	003e3506 	br	23ea0 <__alt_data_end+0xfffe4aa0>
   245cc:	dac13417 	ldw	r11,1232(sp)
   245d0:	4a400044 	addi	r9,r9,1
   245d4:	5a65883a 	add	r18,r11,r9
   245d8:	9005883a 	mov	r2,r18
   245dc:	903e430e 	bge	r18,zero,23eec <__alt_data_end+0xfffe4aec>
   245e0:	003fec06 	br	24594 <__alt_data_end+0xfffe5194>
   245e4:	00800c04 	movi	r2,48
   245e8:	e0c00c04 	addi	r3,fp,48
   245ec:	d8812345 	stb	r2,1165(sp)
   245f0:	d8c12385 	stb	r3,1166(sp)
   245f4:	d88123c4 	addi	r2,sp,1167
   245f8:	dd4122c4 	addi	r21,sp,1163
   245fc:	003fb706 	br	244dc <__alt_data_end+0xfffe50dc>
   24600:	0005883a 	mov	r2,zero
   24604:	003f6006 	br	24388 <__alt_data_end+0xfffe4f88>
   24608:	db013417 	ldw	r12,1232(sp)
   2460c:	64800044 	addi	r18,r12,1
   24610:	9005883a 	mov	r2,r18
   24614:	903e350e 	bge	r18,zero,23eec <__alt_data_end+0xfffe4aec>
   24618:	003fde06 	br	24594 <__alt_data_end+0xfffe5194>
   2461c:	d9013717 	ldw	r4,1244(sp)
   24620:	900b883a 	mov	r5,r18
   24624:	000d883a 	mov	r6,zero
   24628:	000f883a 	mov	r7,zero
   2462c:	da013f15 	stw	r8,1276(sp)
   24630:	da413e15 	stw	r9,1272(sp)
   24634:	da813d15 	stw	r10,1268(sp)
   24638:	002c9f40 	call	2c9f4 <__eqdf2>
   2463c:	da013f17 	ldw	r8,1276(sp)
   24640:	da413e17 	ldw	r9,1272(sp)
   24644:	da813d17 	ldw	r10,1268(sp)
   24648:	103f1426 	beq	r2,zero,2429c <__alt_data_end+0xfffe4e9c>
   2464c:	00800044 	movi	r2,1
   24650:	1707c83a 	sub	r3,r2,fp
   24654:	d8c12615 	stw	r3,1176(sp)
   24658:	003f1106 	br	242a0 <__alt_data_end+0xfffe4ea0>
   2465c:	dac12d17 	ldw	r11,1204(sp)
   24660:	5a400017 	ldw	r9,0(r11)
   24664:	5ac00104 	addi	r11,r11,4
   24668:	dac12d15 	stw	r11,1204(sp)
   2466c:	483ec60e 	bge	r9,zero,24188 <__alt_data_end+0xfffe4d88>
   24670:	027fffc4 	movi	r9,-1
   24674:	1c000047 	ldb	r16,1(r3)
   24678:	00388406 	br	2288c <__alt_data_end+0xfffe348c>
   2467c:	043fffc4 	movi	r16,-1
   24680:	00391006 	br	22ac4 <__alt_data_end+0xfffe36c4>
   24684:	00800b44 	movi	r2,45
   24688:	0739c83a 	sub	fp,zero,fp
   2468c:	d8812305 	stb	r2,1164(sp)
   24690:	003f6906 	br	24438 <__alt_data_end+0xfffe5038>
   24694:	4800081e 	bne	r9,zero,246b8 <___vfprintf_internal_r+0x1fc8>
   24698:	8c40004c 	andi	r17,r17,1
   2469c:	8800061e 	bne	r17,zero,246b8 <___vfprintf_internal_r+0x1fc8>
   246a0:	00800044 	movi	r2,1
   246a4:	1025883a 	mov	r18,r2
   246a8:	003e1006 	br	23eec <__alt_data_end+0xfffe4aec>
   246ac:	04800084 	movi	r18,2
   246b0:	90e5c83a 	sub	r18,r18,r3
   246b4:	003fb306 	br	24584 <__alt_data_end+0xfffe5184>
   246b8:	4c800084 	addi	r18,r9,2
   246bc:	9005883a 	mov	r2,r18
   246c0:	903e0a0e 	bge	r18,zero,23eec <__alt_data_end+0xfffe4aec>
   246c4:	003fb306 	br	24594 <__alt_data_end+0xfffe5194>
   246c8:	0005883a 	mov	r2,zero
   246cc:	003f8c06 	br	24500 <__alt_data_end+0xfffe5100>
   246d0:	88a2703a 	and	r17,r17,r2
   246d4:	883f8826 	beq	r17,zero,244f8 <__alt_data_end+0xfffe50f8>
   246d8:	003f8606 	br	244f4 <__alt_data_end+0xfffe50f4>
   246dc:	d8812344 	addi	r2,sp,1165
   246e0:	003f7e06 	br	244dc <__alt_data_end+0xfffe50dc>
   246e4:	d8c12617 	ldw	r3,1176(sp)
   246e8:	003f4d06 	br	24420 <__alt_data_end+0xfffe5020>

000246ec <__vfprintf_internal>:
   246ec:	2007883a 	mov	r3,r4
   246f0:	010000f4 	movhi	r4,3
   246f4:	2106f204 	addi	r4,r4,7112
   246f8:	21000017 	ldw	r4,0(r4)
   246fc:	2805883a 	mov	r2,r5
   24700:	300f883a 	mov	r7,r6
   24704:	180b883a 	mov	r5,r3
   24708:	100d883a 	mov	r6,r2
   2470c:	00226f01 	jmpi	226f0 <___vfprintf_internal_r>

00024710 <__swsetup_r>:
   24710:	008000f4 	movhi	r2,3
   24714:	defffd04 	addi	sp,sp,-12
   24718:	1086f204 	addi	r2,r2,7112
   2471c:	dc400115 	stw	r17,4(sp)
   24720:	2023883a 	mov	r17,r4
   24724:	11000017 	ldw	r4,0(r2)
   24728:	dc000015 	stw	r16,0(sp)
   2472c:	dfc00215 	stw	ra,8(sp)
   24730:	2821883a 	mov	r16,r5
   24734:	20000226 	beq	r4,zero,24740 <__swsetup_r+0x30>
   24738:	20c00e17 	ldw	r3,56(r4)
   2473c:	18002e26 	beq	r3,zero,247f8 <__swsetup_r+0xe8>
   24740:	8080030b 	ldhu	r2,12(r16)
   24744:	10c0020c 	andi	r3,r2,8
   24748:	100d883a 	mov	r6,r2
   2474c:	18000f26 	beq	r3,zero,2478c <__swsetup_r+0x7c>
   24750:	80c00417 	ldw	r3,16(r16)
   24754:	18001526 	beq	r3,zero,247ac <__swsetup_r+0x9c>
   24758:	1100004c 	andi	r4,r2,1
   2475c:	20001c1e 	bne	r4,zero,247d0 <__swsetup_r+0xc0>
   24760:	1080008c 	andi	r2,r2,2
   24764:	1000261e 	bne	r2,zero,24800 <__swsetup_r+0xf0>
   24768:	80800517 	ldw	r2,20(r16)
   2476c:	80800215 	stw	r2,8(r16)
   24770:	18001c26 	beq	r3,zero,247e4 <__swsetup_r+0xd4>
   24774:	0005883a 	mov	r2,zero
   24778:	dfc00217 	ldw	ra,8(sp)
   2477c:	dc400117 	ldw	r17,4(sp)
   24780:	dc000017 	ldw	r16,0(sp)
   24784:	dec00304 	addi	sp,sp,12
   24788:	f800283a 	ret
   2478c:	3080040c 	andi	r2,r6,16
   24790:	10001726 	beq	r2,zero,247f0 <__swsetup_r+0xe0>
   24794:	3080010c 	andi	r2,r6,4
   24798:	10001b1e 	bne	r2,zero,24808 <__swsetup_r+0xf8>
   2479c:	80c00417 	ldw	r3,16(r16)
   247a0:	30800214 	ori	r2,r6,8
   247a4:	8080030d 	sth	r2,12(r16)
   247a8:	183feb1e 	bne	r3,zero,24758 <__alt_data_end+0xfffe5358>
   247ac:	1140a00c 	andi	r5,r2,640
   247b0:	01008004 	movi	r4,512
   247b4:	293fe826 	beq	r5,r4,24758 <__alt_data_end+0xfffe5358>
   247b8:	8809883a 	mov	r4,r17
   247bc:	800b883a 	mov	r5,r16
   247c0:	00272680 	call	27268 <__smakebuf_r>
   247c4:	8080030b 	ldhu	r2,12(r16)
   247c8:	80c00417 	ldw	r3,16(r16)
   247cc:	003fe206 	br	24758 <__alt_data_end+0xfffe5358>
   247d0:	80800517 	ldw	r2,20(r16)
   247d4:	80000215 	stw	zero,8(r16)
   247d8:	0085c83a 	sub	r2,zero,r2
   247dc:	80800615 	stw	r2,24(r16)
   247e0:	183fe41e 	bne	r3,zero,24774 <__alt_data_end+0xfffe5374>
   247e4:	8080030b 	ldhu	r2,12(r16)
   247e8:	1080200c 	andi	r2,r2,128
   247ec:	103fe226 	beq	r2,zero,24778 <__alt_data_end+0xfffe5378>
   247f0:	00bfffc4 	movi	r2,-1
   247f4:	003fe006 	br	24778 <__alt_data_end+0xfffe5378>
   247f8:	00267100 	call	26710 <__sinit>
   247fc:	003fd006 	br	24740 <__alt_data_end+0xfffe5340>
   24800:	0005883a 	mov	r2,zero
   24804:	003fd906 	br	2476c <__alt_data_end+0xfffe536c>
   24808:	81400c17 	ldw	r5,48(r16)
   2480c:	28000626 	beq	r5,zero,24828 <__swsetup_r+0x118>
   24810:	80801004 	addi	r2,r16,64
   24814:	28800326 	beq	r5,r2,24824 <__swsetup_r+0x114>
   24818:	8809883a 	mov	r4,r17
   2481c:	00268840 	call	26884 <_free_r>
   24820:	8180030b 	ldhu	r6,12(r16)
   24824:	80000c15 	stw	zero,48(r16)
   24828:	80c00417 	ldw	r3,16(r16)
   2482c:	00bff6c4 	movi	r2,-37
   24830:	118c703a 	and	r6,r2,r6
   24834:	80000115 	stw	zero,4(r16)
   24838:	80c00015 	stw	r3,0(r16)
   2483c:	003fd806 	br	247a0 <__alt_data_end+0xfffe53a0>

00024840 <quorem>:
   24840:	defff704 	addi	sp,sp,-36
   24844:	dc800215 	stw	r18,8(sp)
   24848:	20800417 	ldw	r2,16(r4)
   2484c:	2c800417 	ldw	r18,16(r5)
   24850:	dfc00815 	stw	ra,32(sp)
   24854:	ddc00715 	stw	r23,28(sp)
   24858:	dd800615 	stw	r22,24(sp)
   2485c:	dd400515 	stw	r21,20(sp)
   24860:	dd000415 	stw	r20,16(sp)
   24864:	dcc00315 	stw	r19,12(sp)
   24868:	dc400115 	stw	r17,4(sp)
   2486c:	dc000015 	stw	r16,0(sp)
   24870:	14807116 	blt	r2,r18,24a38 <quorem+0x1f8>
   24874:	94bfffc4 	addi	r18,r18,-1
   24878:	94ad883a 	add	r22,r18,r18
   2487c:	b5ad883a 	add	r22,r22,r22
   24880:	2c400504 	addi	r17,r5,20
   24884:	8da9883a 	add	r20,r17,r22
   24888:	25400504 	addi	r21,r4,20
   2488c:	282f883a 	mov	r23,r5
   24890:	adad883a 	add	r22,r21,r22
   24894:	a1400017 	ldw	r5,0(r20)
   24898:	2021883a 	mov	r16,r4
   2489c:	b1000017 	ldw	r4,0(r22)
   248a0:	29400044 	addi	r5,r5,1
   248a4:	00225140 	call	22514 <__udivsi3>
   248a8:	1027883a 	mov	r19,r2
   248ac:	10002c26 	beq	r2,zero,24960 <quorem+0x120>
   248b0:	a813883a 	mov	r9,r21
   248b4:	8811883a 	mov	r8,r17
   248b8:	0009883a 	mov	r4,zero
   248bc:	000d883a 	mov	r6,zero
   248c0:	41c00017 	ldw	r7,0(r8)
   248c4:	49400017 	ldw	r5,0(r9)
   248c8:	42000104 	addi	r8,r8,4
   248cc:	38bfffcc 	andi	r2,r7,65535
   248d0:	14c5383a 	mul	r2,r2,r19
   248d4:	380ed43a 	srli	r7,r7,16
   248d8:	28ffffcc 	andi	r3,r5,65535
   248dc:	2085883a 	add	r2,r4,r2
   248e0:	1008d43a 	srli	r4,r2,16
   248e4:	3ccf383a 	mul	r7,r7,r19
   248e8:	198d883a 	add	r6,r3,r6
   248ec:	10ffffcc 	andi	r3,r2,65535
   248f0:	30c7c83a 	sub	r3,r6,r3
   248f4:	280ad43a 	srli	r5,r5,16
   248f8:	21c9883a 	add	r4,r4,r7
   248fc:	180dd43a 	srai	r6,r3,16
   24900:	20bfffcc 	andi	r2,r4,65535
   24904:	288bc83a 	sub	r5,r5,r2
   24908:	298b883a 	add	r5,r5,r6
   2490c:	280e943a 	slli	r7,r5,16
   24910:	18ffffcc 	andi	r3,r3,65535
   24914:	2008d43a 	srli	r4,r4,16
   24918:	38ceb03a 	or	r7,r7,r3
   2491c:	49c00015 	stw	r7,0(r9)
   24920:	280dd43a 	srai	r6,r5,16
   24924:	4a400104 	addi	r9,r9,4
   24928:	a23fe52e 	bgeu	r20,r8,248c0 <__alt_data_end+0xfffe54c0>
   2492c:	b0800017 	ldw	r2,0(r22)
   24930:	10000b1e 	bne	r2,zero,24960 <quorem+0x120>
   24934:	b0bfff04 	addi	r2,r22,-4
   24938:	a880082e 	bgeu	r21,r2,2495c <quorem+0x11c>
   2493c:	b0ffff17 	ldw	r3,-4(r22)
   24940:	18000326 	beq	r3,zero,24950 <quorem+0x110>
   24944:	00000506 	br	2495c <quorem+0x11c>
   24948:	10c00017 	ldw	r3,0(r2)
   2494c:	1800031e 	bne	r3,zero,2495c <quorem+0x11c>
   24950:	10bfff04 	addi	r2,r2,-4
   24954:	94bfffc4 	addi	r18,r18,-1
   24958:	a8bffb36 	bltu	r21,r2,24948 <__alt_data_end+0xfffe5548>
   2495c:	84800415 	stw	r18,16(r16)
   24960:	8009883a 	mov	r4,r16
   24964:	b80b883a 	mov	r5,r23
   24968:	00289280 	call	28928 <__mcmp>
   2496c:	10002616 	blt	r2,zero,24a08 <quorem+0x1c8>
   24970:	9cc00044 	addi	r19,r19,1
   24974:	a80d883a 	mov	r6,r21
   24978:	000b883a 	mov	r5,zero
   2497c:	31000017 	ldw	r4,0(r6)
   24980:	88800017 	ldw	r2,0(r17)
   24984:	31800104 	addi	r6,r6,4
   24988:	20ffffcc 	andi	r3,r4,65535
   2498c:	194b883a 	add	r5,r3,r5
   24990:	10ffffcc 	andi	r3,r2,65535
   24994:	28c7c83a 	sub	r3,r5,r3
   24998:	1004d43a 	srli	r2,r2,16
   2499c:	2008d43a 	srli	r4,r4,16
   249a0:	180bd43a 	srai	r5,r3,16
   249a4:	18ffffcc 	andi	r3,r3,65535
   249a8:	2089c83a 	sub	r4,r4,r2
   249ac:	2149883a 	add	r4,r4,r5
   249b0:	2004943a 	slli	r2,r4,16
   249b4:	8c400104 	addi	r17,r17,4
   249b8:	200bd43a 	srai	r5,r4,16
   249bc:	10c6b03a 	or	r3,r2,r3
   249c0:	30ffff15 	stw	r3,-4(r6)
   249c4:	a47fed2e 	bgeu	r20,r17,2497c <__alt_data_end+0xfffe557c>
   249c8:	9485883a 	add	r2,r18,r18
   249cc:	1085883a 	add	r2,r2,r2
   249d0:	a887883a 	add	r3,r21,r2
   249d4:	18800017 	ldw	r2,0(r3)
   249d8:	10000b1e 	bne	r2,zero,24a08 <quorem+0x1c8>
   249dc:	18bfff04 	addi	r2,r3,-4
   249e0:	a880082e 	bgeu	r21,r2,24a04 <quorem+0x1c4>
   249e4:	18ffff17 	ldw	r3,-4(r3)
   249e8:	18000326 	beq	r3,zero,249f8 <quorem+0x1b8>
   249ec:	00000506 	br	24a04 <quorem+0x1c4>
   249f0:	10c00017 	ldw	r3,0(r2)
   249f4:	1800031e 	bne	r3,zero,24a04 <quorem+0x1c4>
   249f8:	10bfff04 	addi	r2,r2,-4
   249fc:	94bfffc4 	addi	r18,r18,-1
   24a00:	a8bffb36 	bltu	r21,r2,249f0 <__alt_data_end+0xfffe55f0>
   24a04:	84800415 	stw	r18,16(r16)
   24a08:	9805883a 	mov	r2,r19
   24a0c:	dfc00817 	ldw	ra,32(sp)
   24a10:	ddc00717 	ldw	r23,28(sp)
   24a14:	dd800617 	ldw	r22,24(sp)
   24a18:	dd400517 	ldw	r21,20(sp)
   24a1c:	dd000417 	ldw	r20,16(sp)
   24a20:	dcc00317 	ldw	r19,12(sp)
   24a24:	dc800217 	ldw	r18,8(sp)
   24a28:	dc400117 	ldw	r17,4(sp)
   24a2c:	dc000017 	ldw	r16,0(sp)
   24a30:	dec00904 	addi	sp,sp,36
   24a34:	f800283a 	ret
   24a38:	0005883a 	mov	r2,zero
   24a3c:	003ff306 	br	24a0c <__alt_data_end+0xfffe560c>

00024a40 <_dtoa_r>:
   24a40:	20801017 	ldw	r2,64(r4)
   24a44:	deffde04 	addi	sp,sp,-136
   24a48:	dd401d15 	stw	r21,116(sp)
   24a4c:	dcc01b15 	stw	r19,108(sp)
   24a50:	dc801a15 	stw	r18,104(sp)
   24a54:	dc401915 	stw	r17,100(sp)
   24a58:	dc001815 	stw	r16,96(sp)
   24a5c:	dfc02115 	stw	ra,132(sp)
   24a60:	df002015 	stw	fp,128(sp)
   24a64:	ddc01f15 	stw	r23,124(sp)
   24a68:	dd801e15 	stw	r22,120(sp)
   24a6c:	dd001c15 	stw	r20,112(sp)
   24a70:	d9c00315 	stw	r7,12(sp)
   24a74:	2021883a 	mov	r16,r4
   24a78:	302b883a 	mov	r21,r6
   24a7c:	2825883a 	mov	r18,r5
   24a80:	dc402417 	ldw	r17,144(sp)
   24a84:	3027883a 	mov	r19,r6
   24a88:	10000826 	beq	r2,zero,24aac <_dtoa_r+0x6c>
   24a8c:	21801117 	ldw	r6,68(r4)
   24a90:	00c00044 	movi	r3,1
   24a94:	100b883a 	mov	r5,r2
   24a98:	1986983a 	sll	r3,r3,r6
   24a9c:	11800115 	stw	r6,4(r2)
   24aa0:	10c00215 	stw	r3,8(r2)
   24aa4:	00281100 	call	28110 <_Bfree>
   24aa8:	80001015 	stw	zero,64(r16)
   24aac:	a8002d16 	blt	r21,zero,24b64 <_dtoa_r+0x124>
   24ab0:	88000015 	stw	zero,0(r17)
   24ab4:	a8dffc2c 	andhi	r3,r21,32752
   24ab8:	009ffc34 	movhi	r2,32752
   24abc:	18801b26 	beq	r3,r2,24b2c <_dtoa_r+0xec>
   24ac0:	9009883a 	mov	r4,r18
   24ac4:	980b883a 	mov	r5,r19
   24ac8:	000d883a 	mov	r6,zero
   24acc:	000f883a 	mov	r7,zero
   24ad0:	002c9f40 	call	2c9f4 <__eqdf2>
   24ad4:	10002a1e 	bne	r2,zero,24b80 <_dtoa_r+0x140>
   24ad8:	d8c02317 	ldw	r3,140(sp)
   24adc:	d9002517 	ldw	r4,148(sp)
   24ae0:	00800044 	movi	r2,1
   24ae4:	18800015 	stw	r2,0(r3)
   24ae8:	2001a226 	beq	r4,zero,25174 <_dtoa_r+0x734>
   24aec:	008000f4 	movhi	r2,3
   24af0:	10bfa944 	addi	r2,r2,-347
   24af4:	20800015 	stw	r2,0(r4)
   24af8:	10bfffc4 	addi	r2,r2,-1
   24afc:	dfc02117 	ldw	ra,132(sp)
   24b00:	df002017 	ldw	fp,128(sp)
   24b04:	ddc01f17 	ldw	r23,124(sp)
   24b08:	dd801e17 	ldw	r22,120(sp)
   24b0c:	dd401d17 	ldw	r21,116(sp)
   24b10:	dd001c17 	ldw	r20,112(sp)
   24b14:	dcc01b17 	ldw	r19,108(sp)
   24b18:	dc801a17 	ldw	r18,104(sp)
   24b1c:	dc401917 	ldw	r17,100(sp)
   24b20:	dc001817 	ldw	r16,96(sp)
   24b24:	dec02204 	addi	sp,sp,136
   24b28:	f800283a 	ret
   24b2c:	d8c02317 	ldw	r3,140(sp)
   24b30:	0089c3c4 	movi	r2,9999
   24b34:	18800015 	stw	r2,0(r3)
   24b38:	90017c26 	beq	r18,zero,2512c <_dtoa_r+0x6ec>
   24b3c:	008000f4 	movhi	r2,3
   24b40:	10bfb504 	addi	r2,r2,-300
   24b44:	d9002517 	ldw	r4,148(sp)
   24b48:	203fec26 	beq	r4,zero,24afc <__alt_data_end+0xfffe56fc>
   24b4c:	10c000c7 	ldb	r3,3(r2)
   24b50:	18017d1e 	bne	r3,zero,25148 <_dtoa_r+0x708>
   24b54:	10c000c4 	addi	r3,r2,3
   24b58:	d9802517 	ldw	r6,148(sp)
   24b5c:	30c00015 	stw	r3,0(r6)
   24b60:	003fe606 	br	24afc <__alt_data_end+0xfffe56fc>
   24b64:	04e00034 	movhi	r19,32768
   24b68:	9cffffc4 	addi	r19,r19,-1
   24b6c:	00800044 	movi	r2,1
   24b70:	ace6703a 	and	r19,r21,r19
   24b74:	88800015 	stw	r2,0(r17)
   24b78:	982b883a 	mov	r21,r19
   24b7c:	003fcd06 	br	24ab4 <__alt_data_end+0xfffe56b4>
   24b80:	d8800204 	addi	r2,sp,8
   24b84:	a822d53a 	srli	r17,r21,20
   24b88:	d8800015 	stw	r2,0(sp)
   24b8c:	8009883a 	mov	r4,r16
   24b90:	900b883a 	mov	r5,r18
   24b94:	980d883a 	mov	r6,r19
   24b98:	d9c00104 	addi	r7,sp,4
   24b9c:	0028c9c0 	call	28c9c <__d2b>
   24ba0:	1039883a 	mov	fp,r2
   24ba4:	88016a1e 	bne	r17,zero,25150 <_dtoa_r+0x710>
   24ba8:	dd000217 	ldw	r20,8(sp)
   24bac:	dc400117 	ldw	r17,4(sp)
   24bb0:	00befbc4 	movi	r2,-1041
   24bb4:	a463883a 	add	r17,r20,r17
   24bb8:	8882ea16 	blt	r17,r2,25764 <_dtoa_r+0xd24>
   24bbc:	00bf0384 	movi	r2,-1010
   24bc0:	1445c83a 	sub	r2,r2,r17
   24bc4:	89010484 	addi	r4,r17,1042
   24bc8:	a8aa983a 	sll	r21,r21,r2
   24bcc:	9108d83a 	srl	r4,r18,r4
   24bd0:	a908b03a 	or	r4,r21,r4
   24bd4:	002cd080 	call	2cd08 <__floatunsidf>
   24bd8:	017f8434 	movhi	r5,65040
   24bdc:	01800044 	movi	r6,1
   24be0:	1009883a 	mov	r4,r2
   24be4:	194b883a 	add	r5,r3,r5
   24be8:	8c7fffc4 	addi	r17,r17,-1
   24bec:	d9800f15 	stw	r6,60(sp)
   24bf0:	000d883a 	mov	r6,zero
   24bf4:	01cffe34 	movhi	r7,16376
   24bf8:	00217940 	call	21794 <__subdf3>
   24bfc:	0198dbf4 	movhi	r6,25455
   24c00:	01cff4f4 	movhi	r7,16339
   24c04:	1009883a 	mov	r4,r2
   24c08:	180b883a 	mov	r5,r3
   24c0c:	3190d844 	addi	r6,r6,17249
   24c10:	39e1e9c4 	addi	r7,r7,-30809
   24c14:	00210700 	call	21070 <__muldf3>
   24c18:	01a2d874 	movhi	r6,35681
   24c1c:	01cff1f4 	movhi	r7,16327
   24c20:	180b883a 	mov	r5,r3
   24c24:	31b22cc4 	addi	r6,r6,-14157
   24c28:	39e28a04 	addi	r7,r7,-30168
   24c2c:	1009883a 	mov	r4,r2
   24c30:	002c1580 	call	2c158 <__adddf3>
   24c34:	8809883a 	mov	r4,r17
   24c38:	102d883a 	mov	r22,r2
   24c3c:	182b883a 	mov	r21,r3
   24c40:	002cc380 	call	2cc38 <__floatsidf>
   24c44:	019427f4 	movhi	r6,20639
   24c48:	01cff4f4 	movhi	r7,16339
   24c4c:	1009883a 	mov	r4,r2
   24c50:	180b883a 	mov	r5,r3
   24c54:	319e7ec4 	addi	r6,r6,31227
   24c58:	39d104c4 	addi	r7,r7,17427
   24c5c:	00210700 	call	21070 <__muldf3>
   24c60:	b009883a 	mov	r4,r22
   24c64:	a80b883a 	mov	r5,r21
   24c68:	100d883a 	mov	r6,r2
   24c6c:	180f883a 	mov	r7,r3
   24c70:	002c1580 	call	2c158 <__adddf3>
   24c74:	1009883a 	mov	r4,r2
   24c78:	180b883a 	mov	r5,r3
   24c7c:	102d883a 	mov	r22,r2
   24c80:	182b883a 	mov	r21,r3
   24c84:	00220640 	call	22064 <__fixdfsi>
   24c88:	b009883a 	mov	r4,r22
   24c8c:	a80b883a 	mov	r5,r21
   24c90:	000d883a 	mov	r6,zero
   24c94:	000f883a 	mov	r7,zero
   24c98:	d8800515 	stw	r2,20(sp)
   24c9c:	002cb580 	call	2cb58 <__ledf2>
   24ca0:	10023116 	blt	r2,zero,25568 <_dtoa_r+0xb28>
   24ca4:	d8c00517 	ldw	r3,20(sp)
   24ca8:	00800584 	movi	r2,22
   24cac:	10c21f36 	bltu	r2,r3,2552c <_dtoa_r+0xaec>
   24cb0:	180490fa 	slli	r2,r3,3
   24cb4:	00c000f4 	movhi	r3,3
   24cb8:	18ffd104 	addi	r3,r3,-188
   24cbc:	1885883a 	add	r2,r3,r2
   24cc0:	11000017 	ldw	r4,0(r2)
   24cc4:	11400117 	ldw	r5,4(r2)
   24cc8:	900d883a 	mov	r6,r18
   24ccc:	980f883a 	mov	r7,r19
   24cd0:	002ca780 	call	2ca78 <__gedf2>
   24cd4:	0082a70e 	bge	zero,r2,25774 <_dtoa_r+0xd34>
   24cd8:	d9000517 	ldw	r4,20(sp)
   24cdc:	d8000c15 	stw	zero,48(sp)
   24ce0:	213fffc4 	addi	r4,r4,-1
   24ce4:	d9000515 	stw	r4,20(sp)
   24ce8:	a463c83a 	sub	r17,r20,r17
   24cec:	8dbfffc4 	addi	r22,r17,-1
   24cf0:	b0021916 	blt	r22,zero,25558 <_dtoa_r+0xb18>
   24cf4:	d8000815 	stw	zero,32(sp)
   24cf8:	d8800517 	ldw	r2,20(sp)
   24cfc:	10020e16 	blt	r2,zero,25538 <_dtoa_r+0xaf8>
   24d00:	b0ad883a 	add	r22,r22,r2
   24d04:	d8800a15 	stw	r2,40(sp)
   24d08:	d8000915 	stw	zero,36(sp)
   24d0c:	d8c00317 	ldw	r3,12(sp)
   24d10:	00800244 	movi	r2,9
   24d14:	10c11a36 	bltu	r2,r3,25180 <_dtoa_r+0x740>
   24d18:	00800144 	movi	r2,5
   24d1c:	10c4fc0e 	bge	r2,r3,26110 <_dtoa_r+0x16d0>
   24d20:	18ffff04 	addi	r3,r3,-4
   24d24:	d8c00315 	stw	r3,12(sp)
   24d28:	0029883a 	mov	r20,zero
   24d2c:	d9800317 	ldw	r6,12(sp)
   24d30:	008000c4 	movi	r2,3
   24d34:	3083bd26 	beq	r6,r2,25c2c <_dtoa_r+0x11ec>
   24d38:	1183670e 	bge	r2,r6,25ad8 <_dtoa_r+0x1098>
   24d3c:	d8c00317 	ldw	r3,12(sp)
   24d40:	00800104 	movi	r2,4
   24d44:	1882e726 	beq	r3,r2,258e4 <_dtoa_r+0xea4>
   24d48:	00800144 	movi	r2,5
   24d4c:	1884f21e 	bne	r3,r2,26118 <_dtoa_r+0x16d8>
   24d50:	00800044 	movi	r2,1
   24d54:	d8800b15 	stw	r2,44(sp)
   24d58:	d8c02217 	ldw	r3,136(sp)
   24d5c:	d9000517 	ldw	r4,20(sp)
   24d60:	1907883a 	add	r3,r3,r4
   24d64:	19800044 	addi	r6,r3,1
   24d68:	d8c00d15 	stw	r3,52(sp)
   24d6c:	d9800615 	stw	r6,24(sp)
   24d70:	0183c30e 	bge	zero,r6,25c80 <_dtoa_r+0x1240>
   24d74:	d9800617 	ldw	r6,24(sp)
   24d78:	3023883a 	mov	r17,r6
   24d7c:	80001115 	stw	zero,68(r16)
   24d80:	008005c4 	movi	r2,23
   24d84:	1184f62e 	bgeu	r2,r6,26160 <_dtoa_r+0x1720>
   24d88:	00c00044 	movi	r3,1
   24d8c:	00800104 	movi	r2,4
   24d90:	1085883a 	add	r2,r2,r2
   24d94:	11000504 	addi	r4,r2,20
   24d98:	180b883a 	mov	r5,r3
   24d9c:	18c00044 	addi	r3,r3,1
   24da0:	313ffb2e 	bgeu	r6,r4,24d90 <__alt_data_end+0xfffe5990>
   24da4:	81401115 	stw	r5,68(r16)
   24da8:	8009883a 	mov	r4,r16
   24dac:	00280680 	call	28068 <_Balloc>
   24db0:	d8800715 	stw	r2,28(sp)
   24db4:	80801015 	stw	r2,64(r16)
   24db8:	00800384 	movi	r2,14
   24dbc:	1440fd36 	bltu	r2,r17,251b4 <_dtoa_r+0x774>
   24dc0:	a000fc26 	beq	r20,zero,251b4 <_dtoa_r+0x774>
   24dc4:	d8800517 	ldw	r2,20(sp)
   24dc8:	0083b90e 	bge	zero,r2,25cb0 <_dtoa_r+0x1270>
   24dcc:	d8c00517 	ldw	r3,20(sp)
   24dd0:	108003cc 	andi	r2,r2,15
   24dd4:	100490fa 	slli	r2,r2,3
   24dd8:	182fd13a 	srai	r23,r3,4
   24ddc:	00c000f4 	movhi	r3,3
   24de0:	18ffd104 	addi	r3,r3,-188
   24de4:	1885883a 	add	r2,r3,r2
   24de8:	b8c0040c 	andi	r3,r23,16
   24dec:	12c00017 	ldw	r11,0(r2)
   24df0:	12800117 	ldw	r10,4(r2)
   24df4:	18039726 	beq	r3,zero,25c54 <_dtoa_r+0x1214>
   24df8:	008000f4 	movhi	r2,3
   24dfc:	10bfc704 	addi	r2,r2,-228
   24e00:	11800817 	ldw	r6,32(r2)
   24e04:	11c00917 	ldw	r7,36(r2)
   24e08:	9009883a 	mov	r4,r18
   24e0c:	980b883a 	mov	r5,r19
   24e10:	da801615 	stw	r10,88(sp)
   24e14:	dac01515 	stw	r11,84(sp)
   24e18:	00207a40 	call	207a4 <__divdf3>
   24e1c:	da801617 	ldw	r10,88(sp)
   24e20:	dac01517 	ldw	r11,84(sp)
   24e24:	bdc003cc 	andi	r23,r23,15
   24e28:	044000c4 	movi	r17,3
   24e2c:	d8800e15 	stw	r2,56(sp)
   24e30:	182b883a 	mov	r21,r3
   24e34:	b8001126 	beq	r23,zero,24e7c <_dtoa_r+0x43c>
   24e38:	050000f4 	movhi	r20,3
   24e3c:	a53fc704 	addi	r20,r20,-228
   24e40:	5805883a 	mov	r2,r11
   24e44:	5007883a 	mov	r3,r10
   24e48:	b980004c 	andi	r6,r23,1
   24e4c:	1009883a 	mov	r4,r2
   24e50:	b82fd07a 	srai	r23,r23,1
   24e54:	180b883a 	mov	r5,r3
   24e58:	30000426 	beq	r6,zero,24e6c <_dtoa_r+0x42c>
   24e5c:	a1800017 	ldw	r6,0(r20)
   24e60:	a1c00117 	ldw	r7,4(r20)
   24e64:	8c400044 	addi	r17,r17,1
   24e68:	00210700 	call	21070 <__muldf3>
   24e6c:	a5000204 	addi	r20,r20,8
   24e70:	b83ff51e 	bne	r23,zero,24e48 <__alt_data_end+0xfffe5a48>
   24e74:	1017883a 	mov	r11,r2
   24e78:	1815883a 	mov	r10,r3
   24e7c:	d9000e17 	ldw	r4,56(sp)
   24e80:	a80b883a 	mov	r5,r21
   24e84:	580d883a 	mov	r6,r11
   24e88:	500f883a 	mov	r7,r10
   24e8c:	00207a40 	call	207a4 <__divdf3>
   24e90:	1029883a 	mov	r20,r2
   24e94:	182b883a 	mov	r21,r3
   24e98:	d9800c17 	ldw	r6,48(sp)
   24e9c:	30000626 	beq	r6,zero,24eb8 <_dtoa_r+0x478>
   24ea0:	a009883a 	mov	r4,r20
   24ea4:	a80b883a 	mov	r5,r21
   24ea8:	000d883a 	mov	r6,zero
   24eac:	01cffc34 	movhi	r7,16368
   24eb0:	002cb580 	call	2cb58 <__ledf2>
   24eb4:	10043216 	blt	r2,zero,25f80 <_dtoa_r+0x1540>
   24eb8:	8809883a 	mov	r4,r17
   24ebc:	002cc380 	call	2cc38 <__floatsidf>
   24ec0:	1009883a 	mov	r4,r2
   24ec4:	180b883a 	mov	r5,r3
   24ec8:	a00d883a 	mov	r6,r20
   24ecc:	a80f883a 	mov	r7,r21
   24ed0:	00210700 	call	21070 <__muldf3>
   24ed4:	000d883a 	mov	r6,zero
   24ed8:	1009883a 	mov	r4,r2
   24edc:	180b883a 	mov	r5,r3
   24ee0:	01d00734 	movhi	r7,16412
   24ee4:	002c1580 	call	2c158 <__adddf3>
   24ee8:	1023883a 	mov	r17,r2
   24eec:	d9800617 	ldw	r6,24(sp)
   24ef0:	00bf3034 	movhi	r2,64704
   24ef4:	1885883a 	add	r2,r3,r2
   24ef8:	d8800e15 	stw	r2,56(sp)
   24efc:	30032e26 	beq	r6,zero,25bb8 <_dtoa_r+0x1178>
   24f00:	d8c00517 	ldw	r3,20(sp)
   24f04:	da800617 	ldw	r10,24(sp)
   24f08:	d8c01215 	stw	r3,72(sp)
   24f0c:	d9000b17 	ldw	r4,44(sp)
   24f10:	2003b026 	beq	r4,zero,25dd4 <_dtoa_r+0x1394>
   24f14:	50bfffc4 	addi	r2,r10,-1
   24f18:	100490fa 	slli	r2,r2,3
   24f1c:	00c000f4 	movhi	r3,3
   24f20:	18ffd104 	addi	r3,r3,-188
   24f24:	1885883a 	add	r2,r3,r2
   24f28:	11800017 	ldw	r6,0(r2)
   24f2c:	11c00117 	ldw	r7,4(r2)
   24f30:	d8800717 	ldw	r2,28(sp)
   24f34:	0009883a 	mov	r4,zero
   24f38:	014ff834 	movhi	r5,16352
   24f3c:	da801615 	stw	r10,88(sp)
   24f40:	15c00044 	addi	r23,r2,1
   24f44:	00207a40 	call	207a4 <__divdf3>
   24f48:	d9c00e17 	ldw	r7,56(sp)
   24f4c:	880d883a 	mov	r6,r17
   24f50:	1009883a 	mov	r4,r2
   24f54:	180b883a 	mov	r5,r3
   24f58:	00217940 	call	21794 <__subdf3>
   24f5c:	a80b883a 	mov	r5,r21
   24f60:	a009883a 	mov	r4,r20
   24f64:	d8c01015 	stw	r3,64(sp)
   24f68:	d8800e15 	stw	r2,56(sp)
   24f6c:	00220640 	call	22064 <__fixdfsi>
   24f70:	1009883a 	mov	r4,r2
   24f74:	d8801715 	stw	r2,92(sp)
   24f78:	002cc380 	call	2cc38 <__floatsidf>
   24f7c:	a009883a 	mov	r4,r20
   24f80:	a80b883a 	mov	r5,r21
   24f84:	100d883a 	mov	r6,r2
   24f88:	180f883a 	mov	r7,r3
   24f8c:	00217940 	call	21794 <__subdf3>
   24f90:	da001717 	ldw	r8,92(sp)
   24f94:	1829883a 	mov	r20,r3
   24f98:	d8c00717 	ldw	r3,28(sp)
   24f9c:	d9000e17 	ldw	r4,56(sp)
   24fa0:	d9401017 	ldw	r5,64(sp)
   24fa4:	42000c04 	addi	r8,r8,48
   24fa8:	1023883a 	mov	r17,r2
   24fac:	1a000005 	stb	r8,0(r3)
   24fb0:	880d883a 	mov	r6,r17
   24fb4:	a00f883a 	mov	r7,r20
   24fb8:	402b883a 	mov	r21,r8
   24fbc:	002ca780 	call	2ca78 <__gedf2>
   24fc0:	00844516 	blt	zero,r2,260d8 <_dtoa_r+0x1698>
   24fc4:	0009883a 	mov	r4,zero
   24fc8:	014ffc34 	movhi	r5,16368
   24fcc:	880d883a 	mov	r6,r17
   24fd0:	a00f883a 	mov	r7,r20
   24fd4:	00217940 	call	21794 <__subdf3>
   24fd8:	d9000e17 	ldw	r4,56(sp)
   24fdc:	d9401017 	ldw	r5,64(sp)
   24fe0:	100d883a 	mov	r6,r2
   24fe4:	180f883a 	mov	r7,r3
   24fe8:	002ca780 	call	2ca78 <__gedf2>
   24fec:	da801617 	ldw	r10,88(sp)
   24ff0:	00843616 	blt	zero,r2,260cc <_dtoa_r+0x168c>
   24ff4:	00800044 	movi	r2,1
   24ff8:	12806e0e 	bge	r2,r10,251b4 <_dtoa_r+0x774>
   24ffc:	d9000717 	ldw	r4,28(sp)
   25000:	dd801315 	stw	r22,76(sp)
   25004:	dc001115 	stw	r16,68(sp)
   25008:	2295883a 	add	r10,r4,r10
   2500c:	dcc01415 	stw	r19,80(sp)
   25010:	502d883a 	mov	r22,r10
   25014:	dcc01017 	ldw	r19,64(sp)
   25018:	b821883a 	mov	r16,r23
   2501c:	dc801015 	stw	r18,64(sp)
   25020:	dc800e17 	ldw	r18,56(sp)
   25024:	00000906 	br	2504c <_dtoa_r+0x60c>
   25028:	00217940 	call	21794 <__subdf3>
   2502c:	1009883a 	mov	r4,r2
   25030:	180b883a 	mov	r5,r3
   25034:	900d883a 	mov	r6,r18
   25038:	980f883a 	mov	r7,r19
   2503c:	002cb580 	call	2cb58 <__ledf2>
   25040:	10040e16 	blt	r2,zero,2607c <_dtoa_r+0x163c>
   25044:	b821883a 	mov	r16,r23
   25048:	bd841026 	beq	r23,r22,2608c <_dtoa_r+0x164c>
   2504c:	9009883a 	mov	r4,r18
   25050:	980b883a 	mov	r5,r19
   25054:	000d883a 	mov	r6,zero
   25058:	01d00934 	movhi	r7,16420
   2505c:	00210700 	call	21070 <__muldf3>
   25060:	000d883a 	mov	r6,zero
   25064:	01d00934 	movhi	r7,16420
   25068:	8809883a 	mov	r4,r17
   2506c:	a00b883a 	mov	r5,r20
   25070:	1025883a 	mov	r18,r2
   25074:	1827883a 	mov	r19,r3
   25078:	00210700 	call	21070 <__muldf3>
   2507c:	180b883a 	mov	r5,r3
   25080:	1009883a 	mov	r4,r2
   25084:	1823883a 	mov	r17,r3
   25088:	1029883a 	mov	r20,r2
   2508c:	00220640 	call	22064 <__fixdfsi>
   25090:	1009883a 	mov	r4,r2
   25094:	102b883a 	mov	r21,r2
   25098:	002cc380 	call	2cc38 <__floatsidf>
   2509c:	a009883a 	mov	r4,r20
   250a0:	880b883a 	mov	r5,r17
   250a4:	100d883a 	mov	r6,r2
   250a8:	180f883a 	mov	r7,r3
   250ac:	00217940 	call	21794 <__subdf3>
   250b0:	ad400c04 	addi	r21,r21,48
   250b4:	1009883a 	mov	r4,r2
   250b8:	180b883a 	mov	r5,r3
   250bc:	900d883a 	mov	r6,r18
   250c0:	980f883a 	mov	r7,r19
   250c4:	85400005 	stb	r21,0(r16)
   250c8:	1023883a 	mov	r17,r2
   250cc:	1829883a 	mov	r20,r3
   250d0:	002cb580 	call	2cb58 <__ledf2>
   250d4:	bdc00044 	addi	r23,r23,1
   250d8:	0009883a 	mov	r4,zero
   250dc:	014ffc34 	movhi	r5,16368
   250e0:	880d883a 	mov	r6,r17
   250e4:	a00f883a 	mov	r7,r20
   250e8:	103fcf0e 	bge	r2,zero,25028 <__alt_data_end+0xfffe5c28>
   250ec:	d9801217 	ldw	r6,72(sp)
   250f0:	dc001117 	ldw	r16,68(sp)
   250f4:	d9800515 	stw	r6,20(sp)
   250f8:	8009883a 	mov	r4,r16
   250fc:	e00b883a 	mov	r5,fp
   25100:	00281100 	call	28110 <_Bfree>
   25104:	d8c00517 	ldw	r3,20(sp)
   25108:	d9002317 	ldw	r4,140(sp)
   2510c:	d9802517 	ldw	r6,148(sp)
   25110:	b8000005 	stb	zero,0(r23)
   25114:	18800044 	addi	r2,r3,1
   25118:	20800015 	stw	r2,0(r4)
   2511c:	30027226 	beq	r6,zero,25ae8 <_dtoa_r+0x10a8>
   25120:	35c00015 	stw	r23,0(r6)
   25124:	d8800717 	ldw	r2,28(sp)
   25128:	003e7406 	br	24afc <__alt_data_end+0xfffe56fc>
   2512c:	00800434 	movhi	r2,16
   25130:	10bfffc4 	addi	r2,r2,-1
   25134:	a8aa703a 	and	r21,r21,r2
   25138:	a83e801e 	bne	r21,zero,24b3c <__alt_data_end+0xfffe573c>
   2513c:	008000f4 	movhi	r2,3
   25140:	10bfb204 	addi	r2,r2,-312
   25144:	003e7f06 	br	24b44 <__alt_data_end+0xfffe5744>
   25148:	10c00204 	addi	r3,r2,8
   2514c:	003e8206 	br	24b58 <__alt_data_end+0xfffe5758>
   25150:	01400434 	movhi	r5,16
   25154:	297fffc4 	addi	r5,r5,-1
   25158:	994a703a 	and	r5,r19,r5
   2515c:	9009883a 	mov	r4,r18
   25160:	8c7f0044 	addi	r17,r17,-1023
   25164:	294ffc34 	orhi	r5,r5,16368
   25168:	dd000217 	ldw	r20,8(sp)
   2516c:	d8000f15 	stw	zero,60(sp)
   25170:	003e9f06 	br	24bf0 <__alt_data_end+0xfffe57f0>
   25174:	008000f4 	movhi	r2,3
   25178:	10bfa904 	addi	r2,r2,-348
   2517c:	003e5f06 	br	24afc <__alt_data_end+0xfffe56fc>
   25180:	80001115 	stw	zero,68(r16)
   25184:	8009883a 	mov	r4,r16
   25188:	000b883a 	mov	r5,zero
   2518c:	00280680 	call	28068 <_Balloc>
   25190:	01bfffc4 	movi	r6,-1
   25194:	d8800715 	stw	r2,28(sp)
   25198:	80801015 	stw	r2,64(r16)
   2519c:	00800044 	movi	r2,1
   251a0:	d9800615 	stw	r6,24(sp)
   251a4:	d8800b15 	stw	r2,44(sp)
   251a8:	d8002215 	stw	zero,136(sp)
   251ac:	d9800d15 	stw	r6,52(sp)
   251b0:	d8000315 	stw	zero,12(sp)
   251b4:	d8800117 	ldw	r2,4(sp)
   251b8:	10008e16 	blt	r2,zero,253f4 <_dtoa_r+0x9b4>
   251bc:	d9000517 	ldw	r4,20(sp)
   251c0:	00c00384 	movi	r3,14
   251c4:	19008b16 	blt	r3,r4,253f4 <_dtoa_r+0x9b4>
   251c8:	200490fa 	slli	r2,r4,3
   251cc:	00c000f4 	movhi	r3,3
   251d0:	d9802217 	ldw	r6,136(sp)
   251d4:	18ffd104 	addi	r3,r3,-188
   251d8:	1885883a 	add	r2,r3,r2
   251dc:	14400017 	ldw	r17,0(r2)
   251e0:	15000117 	ldw	r20,4(r2)
   251e4:	3001c716 	blt	r6,zero,25904 <_dtoa_r+0xec4>
   251e8:	880d883a 	mov	r6,r17
   251ec:	a00f883a 	mov	r7,r20
   251f0:	9009883a 	mov	r4,r18
   251f4:	980b883a 	mov	r5,r19
   251f8:	00207a40 	call	207a4 <__divdf3>
   251fc:	180b883a 	mov	r5,r3
   25200:	1009883a 	mov	r4,r2
   25204:	00220640 	call	22064 <__fixdfsi>
   25208:	1009883a 	mov	r4,r2
   2520c:	102d883a 	mov	r22,r2
   25210:	002cc380 	call	2cc38 <__floatsidf>
   25214:	1009883a 	mov	r4,r2
   25218:	180b883a 	mov	r5,r3
   2521c:	880d883a 	mov	r6,r17
   25220:	a00f883a 	mov	r7,r20
   25224:	00210700 	call	21070 <__muldf3>
   25228:	9009883a 	mov	r4,r18
   2522c:	980b883a 	mov	r5,r19
   25230:	100d883a 	mov	r6,r2
   25234:	180f883a 	mov	r7,r3
   25238:	00217940 	call	21794 <__subdf3>
   2523c:	d9000717 	ldw	r4,28(sp)
   25240:	d9800617 	ldw	r6,24(sp)
   25244:	180b883a 	mov	r5,r3
   25248:	b0c00c04 	addi	r3,r22,48
   2524c:	20c00005 	stb	r3,0(r4)
   25250:	25c00044 	addi	r23,r4,1
   25254:	01000044 	movi	r4,1
   25258:	1011883a 	mov	r8,r2
   2525c:	2807883a 	mov	r3,r5
   25260:	31003d26 	beq	r6,r4,25358 <_dtoa_r+0x918>
   25264:	000d883a 	mov	r6,zero
   25268:	01d00934 	movhi	r7,16420
   2526c:	1009883a 	mov	r4,r2
   25270:	00210700 	call	21070 <__muldf3>
   25274:	1009883a 	mov	r4,r2
   25278:	180b883a 	mov	r5,r3
   2527c:	000d883a 	mov	r6,zero
   25280:	000f883a 	mov	r7,zero
   25284:	1027883a 	mov	r19,r2
   25288:	182b883a 	mov	r21,r3
   2528c:	002c9f40 	call	2c9f4 <__eqdf2>
   25290:	103f9926 	beq	r2,zero,250f8 <__alt_data_end+0xfffe5cf8>
   25294:	d8c00617 	ldw	r3,24(sp)
   25298:	d9000717 	ldw	r4,28(sp)
   2529c:	b825883a 	mov	r18,r23
   252a0:	18bfffc4 	addi	r2,r3,-1
   252a4:	20ad883a 	add	r22,r4,r2
   252a8:	dc000315 	stw	r16,12(sp)
   252ac:	00000a06 	br	252d8 <_dtoa_r+0x898>
   252b0:	00210700 	call	21070 <__muldf3>
   252b4:	1009883a 	mov	r4,r2
   252b8:	180b883a 	mov	r5,r3
   252bc:	000d883a 	mov	r6,zero
   252c0:	000f883a 	mov	r7,zero
   252c4:	1027883a 	mov	r19,r2
   252c8:	182b883a 	mov	r21,r3
   252cc:	b825883a 	mov	r18,r23
   252d0:	002c9f40 	call	2c9f4 <__eqdf2>
   252d4:	10022626 	beq	r2,zero,25b70 <_dtoa_r+0x1130>
   252d8:	880d883a 	mov	r6,r17
   252dc:	a00f883a 	mov	r7,r20
   252e0:	9809883a 	mov	r4,r19
   252e4:	a80b883a 	mov	r5,r21
   252e8:	00207a40 	call	207a4 <__divdf3>
   252ec:	180b883a 	mov	r5,r3
   252f0:	1009883a 	mov	r4,r2
   252f4:	00220640 	call	22064 <__fixdfsi>
   252f8:	1009883a 	mov	r4,r2
   252fc:	1021883a 	mov	r16,r2
   25300:	002cc380 	call	2cc38 <__floatsidf>
   25304:	1009883a 	mov	r4,r2
   25308:	180b883a 	mov	r5,r3
   2530c:	880d883a 	mov	r6,r17
   25310:	a00f883a 	mov	r7,r20
   25314:	00210700 	call	21070 <__muldf3>
   25318:	9809883a 	mov	r4,r19
   2531c:	a80b883a 	mov	r5,r21
   25320:	100d883a 	mov	r6,r2
   25324:	180f883a 	mov	r7,r3
   25328:	00217940 	call	21794 <__subdf3>
   2532c:	82000c04 	addi	r8,r16,48
   25330:	92000005 	stb	r8,0(r18)
   25334:	1009883a 	mov	r4,r2
   25338:	180b883a 	mov	r5,r3
   2533c:	000d883a 	mov	r6,zero
   25340:	01d00934 	movhi	r7,16420
   25344:	1011883a 	mov	r8,r2
   25348:	bdc00044 	addi	r23,r23,1
   2534c:	95bfd81e 	bne	r18,r22,252b0 <__alt_data_end+0xfffe5eb0>
   25350:	802d883a 	mov	r22,r16
   25354:	dc000317 	ldw	r16,12(sp)
   25358:	4009883a 	mov	r4,r8
   2535c:	180b883a 	mov	r5,r3
   25360:	400d883a 	mov	r6,r8
   25364:	180f883a 	mov	r7,r3
   25368:	002c1580 	call	2c158 <__adddf3>
   2536c:	8809883a 	mov	r4,r17
   25370:	a00b883a 	mov	r5,r20
   25374:	100d883a 	mov	r6,r2
   25378:	180f883a 	mov	r7,r3
   2537c:	1027883a 	mov	r19,r2
   25380:	1825883a 	mov	r18,r3
   25384:	002cb580 	call	2cb58 <__ledf2>
   25388:	10000816 	blt	r2,zero,253ac <_dtoa_r+0x96c>
   2538c:	8809883a 	mov	r4,r17
   25390:	a00b883a 	mov	r5,r20
   25394:	980d883a 	mov	r6,r19
   25398:	900f883a 	mov	r7,r18
   2539c:	002c9f40 	call	2c9f4 <__eqdf2>
   253a0:	103f551e 	bne	r2,zero,250f8 <__alt_data_end+0xfffe5cf8>
   253a4:	b580004c 	andi	r22,r22,1
   253a8:	b03f5326 	beq	r22,zero,250f8 <__alt_data_end+0xfffe5cf8>
   253ac:	bd7fffc3 	ldbu	r21,-1(r23)
   253b0:	b8bfffc4 	addi	r2,r23,-1
   253b4:	1007883a 	mov	r3,r2
   253b8:	01400e44 	movi	r5,57
   253bc:	d9800717 	ldw	r6,28(sp)
   253c0:	00000506 	br	253d8 <_dtoa_r+0x998>
   253c4:	18ffffc4 	addi	r3,r3,-1
   253c8:	30825e26 	beq	r6,r2,25d44 <_dtoa_r+0x1304>
   253cc:	1d400003 	ldbu	r21,0(r3)
   253d0:	102f883a 	mov	r23,r2
   253d4:	10bfffc4 	addi	r2,r2,-1
   253d8:	a9003fcc 	andi	r4,r21,255
   253dc:	2100201c 	xori	r4,r4,128
   253e0:	213fe004 	addi	r4,r4,-128
   253e4:	217ff726 	beq	r4,r5,253c4 <__alt_data_end+0xfffe5fc4>
   253e8:	aa000044 	addi	r8,r21,1
   253ec:	12000005 	stb	r8,0(r2)
   253f0:	003f4106 	br	250f8 <__alt_data_end+0xfffe5cf8>
   253f4:	d8c00b17 	ldw	r3,44(sp)
   253f8:	18006726 	beq	r3,zero,25598 <_dtoa_r+0xb58>
   253fc:	d9000317 	ldw	r4,12(sp)
   25400:	00c00044 	movi	r3,1
   25404:	19016a0e 	bge	r3,r4,259b0 <_dtoa_r+0xf70>
   25408:	d8800617 	ldw	r2,24(sp)
   2540c:	d8c00917 	ldw	r3,36(sp)
   25410:	157fffc4 	addi	r21,r2,-1
   25414:	1d420716 	blt	r3,r21,25c34 <_dtoa_r+0x11f4>
   25418:	1d6bc83a 	sub	r21,r3,r21
   2541c:	d8800617 	ldw	r2,24(sp)
   25420:	1002c716 	blt	r2,zero,25f40 <_dtoa_r+0x1500>
   25424:	dd000817 	ldw	r20,32(sp)
   25428:	d8800617 	ldw	r2,24(sp)
   2542c:	d9800817 	ldw	r6,32(sp)
   25430:	8009883a 	mov	r4,r16
   25434:	01400044 	movi	r5,1
   25438:	308d883a 	add	r6,r6,r2
   2543c:	d9800815 	stw	r6,32(sp)
   25440:	b0ad883a 	add	r22,r22,r2
   25444:	00284680 	call	28468 <__i2b>
   25448:	1023883a 	mov	r17,r2
   2544c:	a0000826 	beq	r20,zero,25470 <_dtoa_r+0xa30>
   25450:	0580070e 	bge	zero,r22,25470 <_dtoa_r+0xa30>
   25454:	b005883a 	mov	r2,r22
   25458:	a5812016 	blt	r20,r22,258dc <_dtoa_r+0xe9c>
   2545c:	d8c00817 	ldw	r3,32(sp)
   25460:	a0a9c83a 	sub	r20,r20,r2
   25464:	b0adc83a 	sub	r22,r22,r2
   25468:	1887c83a 	sub	r3,r3,r2
   2546c:	d8c00815 	stw	r3,32(sp)
   25470:	d9000917 	ldw	r4,36(sp)
   25474:	0100140e 	bge	zero,r4,254c8 <_dtoa_r+0xa88>
   25478:	d9800b17 	ldw	r6,44(sp)
   2547c:	3001e526 	beq	r6,zero,25c14 <_dtoa_r+0x11d4>
   25480:	05400e0e 	bge	zero,r21,254bc <_dtoa_r+0xa7c>
   25484:	880b883a 	mov	r5,r17
   25488:	8009883a 	mov	r4,r16
   2548c:	a80d883a 	mov	r6,r21
   25490:	00286a00 	call	286a0 <__pow5mult>
   25494:	e00d883a 	mov	r6,fp
   25498:	8009883a 	mov	r4,r16
   2549c:	100b883a 	mov	r5,r2
   254a0:	1023883a 	mov	r17,r2
   254a4:	00284a40 	call	284a4 <__multiply>
   254a8:	102f883a 	mov	r23,r2
   254ac:	e00b883a 	mov	r5,fp
   254b0:	8009883a 	mov	r4,r16
   254b4:	00281100 	call	28110 <_Bfree>
   254b8:	b839883a 	mov	fp,r23
   254bc:	d8800917 	ldw	r2,36(sp)
   254c0:	154dc83a 	sub	r6,r2,r21
   254c4:	3001281e 	bne	r6,zero,25968 <_dtoa_r+0xf28>
   254c8:	05c00044 	movi	r23,1
   254cc:	8009883a 	mov	r4,r16
   254d0:	b80b883a 	mov	r5,r23
   254d4:	00284680 	call	28468 <__i2b>
   254d8:	d8c00a17 	ldw	r3,40(sp)
   254dc:	102b883a 	mov	r21,r2
   254e0:	00c0310e 	bge	zero,r3,255a8 <_dtoa_r+0xb68>
   254e4:	8009883a 	mov	r4,r16
   254e8:	100b883a 	mov	r5,r2
   254ec:	180d883a 	mov	r6,r3
   254f0:	00286a00 	call	286a0 <__pow5mult>
   254f4:	d9000317 	ldw	r4,12(sp)
