
usb_stream_demo.elf:     file format elf32-littlenios2
usb_stream_demo.elf
architecture: nios2:r1, flags 0x00000112:
EXEC_P, HAS_SYMS, D_PAGED
start address 0x010001bc

Program Header:
    LOAD off    0x00001000 vaddr 0x01000000 paddr 0x01000000 align 2**12
         filesz 0x00000020 memsz 0x00000020 flags r-x
    LOAD off    0x00001020 vaddr 0x01000020 paddr 0x01000020 align 2**12
         filesz 0x00009f64 memsz 0x00009f64 flags r-x
    LOAD off    0x0000af84 vaddr 0x01009f84 paddr 0x0100a750 align 2**12
         filesz 0x000007cc memsz 0x000007cc flags rw-
    LOAD off    0x0000bf1c vaddr 0x0100af1c paddr 0x0100af1c align 2**12
         filesz 0x00000000 memsz 0x00000814 flags rw-

Sections:
Idx Name          Size      VMA       LMA       File off  Algn
  0 .entry        00000020  01000000  01000000  00001000  2**5
                  CONTENTS, ALLOC, LOAD, READONLY, CODE
  1 .exceptions   0000019c  01000020  01000020  00001020  2**2
                  CONTENTS, ALLOC, LOAD, READONLY, CODE
  2 .text         00009c3c  010001bc  010001bc  000011bc  2**2
                  CONTENTS, ALLOC, LOAD, READONLY, CODE
  3 .rodata       0000018c  01009df8  01009df8  0000adf8  2**2
                  CONTENTS, ALLOC, LOAD, READONLY, DATA
  4 .rwdata       000007cc  01009f84  0100a750  0000af84  2**2
                  CONTENTS, ALLOC, LOAD, DATA, SMALL_DATA
  5 .bss          00000814  0100af1c  0100af1c  0000bf1c  2**2
                  ALLOC, SMALL_DATA
  6 .onchip_memory 00000000  0100b730  0100b730  0000b750  2**0
                  CONTENTS
  7 .comment      00000049  00000000  00000000  0000b750  2**0
                  CONTENTS, READONLY
  8 .debug_aranges 000006f0  00000000  00000000  0000b7a0  2**3
                  CONTENTS, READONLY, DEBUGGING
  9 .debug_info   0000a45a  00000000  00000000  0000be90  2**0
                  CONTENTS, READONLY, DEBUGGING
 10 .debug_abbrev 000036b4  00000000  00000000  000162ea  2**0
                  CONTENTS, READONLY, DEBUGGING
 11 .debug_line   000038eb  00000000  00000000  0001999e  2**0
                  CONTENTS, READONLY, DEBUGGING
 12 .debug_frame  000010c0  00000000  00000000  0001d28c  2**2
                  CONTENTS, READONLY, DEBUGGING
 13 .debug_str    000025bf  00000000  00000000  0001e34c  2**0
                  CONTENTS, READONLY, DEBUGGING
 14 .debug_loc    000011d7  00000000  00000000  0002090b  2**0
                  CONTENTS, READONLY, DEBUGGING
 15 .debug_alt_sim_info 00000060  00000000  00000000  00021ae4  2**2
                  CONTENTS, READONLY, DEBUGGING
 16 .debug_ranges 00000158  00000000  00000000  00021b48  2**3
                  CONTENTS, READONLY, DEBUGGING
 17 .thread_model 00000003  00000000  00000000  00024553  2**0
                  CONTENTS, READONLY
 18 .cpu          0000000c  00000000  00000000  00024556  2**0
                  CONTENTS, READONLY
 19 .qsys         00000001  00000000  00000000  00024562  2**0
                  CONTENTS, READONLY
 20 .simulation_enabled 00000001  00000000  00000000  00024563  2**0
                  CONTENTS, READONLY
 21 .stderr_dev   0000000b  00000000  00000000  00024564  2**0
                  CONTENTS, READONLY
 22 .stdin_dev    0000000b  00000000  00000000  0002456f  2**0
                  CONTENTS, READONLY
 23 .stdout_dev   0000000b  00000000  00000000  0002457a  2**0
                  CONTENTS, READONLY
 24 .sopc_system_name 0000000e  00000000  00000000  00024585  2**0
                  CONTENTS, READONLY
 25 .quartus_project_dir 00000038  00000000  00000000  00024593  2**0
                  CONTENTS, READONLY
 26 .jdi          00004399  00000000  00000000  000245cb  2**0
                  CONTENTS, READONLY
 27 .sopcinfo     00073d5b  00000000  00000000  00028964  2**0
                  CONTENTS, READONLY
SYMBOL TABLE:
01000000 l    d  .entry	00000000 .entry
01000020 l    d  .exceptions	00000000 .exceptions
010001bc l    d  .text	00000000 .text
01009df8 l    d  .rodata	00000000 .rodata
01009f84 l    d  .rwdata	00000000 .rwdata
0100af1c l    d  .bss	00000000 .bss
0100b730 l    d  .onchip_memory	00000000 .onchip_memory
00000000 l    d  .comment	00000000 .comment
00000000 l    d  .debug_aranges	00000000 .debug_aranges
00000000 l    d  .debug_info	00000000 .debug_info
00000000 l    d  .debug_abbrev	00000000 .debug_abbrev
00000000 l    d  .debug_line	00000000 .debug_line
00000000 l    d  .debug_frame	00000000 .debug_frame
00000000 l    d  .debug_str	00000000 .debug_str
00000000 l    d  .debug_loc	00000000 .debug_loc
00000000 l    d  .debug_alt_sim_info	00000000 .debug_alt_sim_info
00000000 l    d  .debug_ranges	00000000 .debug_ranges
00000000 l    df *ABS*	00000000 ../usb_stream_demo_bsp//obj/HAL/src/crt0.o
01000204 l       .text	00000000 alt_after_alt_main
00000000 l    df *ABS*	00000000 alt_exception_entry.o
01000094 l       .exceptions	00000000 alt_exception_unknown
00000000 l    df *ABS*	00000000 alt_irq_handler.c
00000000 l    df *ABS*	00000000 stream.c
00000000 l    df *ABS*	00000000 sls_avalon_usb20.c
0100a710 l     O .rwdata	00000004 speed_changed.3975
01001bf4 l     F .text	00003068 sls_avalon_usb20_irq
00000000 l    df *ABS*	00000000 lib2-divmod.c
01006b00 l     F .text	0000006c udivmodsi4
00000000 l    df *ABS*	00000000 printf.c
00000000 l    df *ABS*	00000000 puts.c
00000000 l    df *ABS*	00000000 strlen.c
00000000 l    df *ABS*	00000000 vfprintf.c
01006d64 l     F .text	0000006c print_repeat
00000000 l    df *ABS*	00000000 fvwrite_small_dev.c
00000000 l    df *ABS*	00000000 impure.c
0100a37c l     O .rwdata	000000e0 impure_data
00000000 l    df *ABS*	00000000 writer.c
00000000 l    df *ABS*	00000000 int_errno.c
00000000 l    df *ABS*	00000000 alt_dcache_flush.c
00000000 l    df *ABS*	00000000 alt_irq_register.c
00000000 l    df *ABS*	00000000 alt_irq_vars.c
00000000 l    df *ABS*	00000000 alt_load.c
01007660 l     F .text	00000064 alt_load_section
00000000 l    df *ABS*	00000000 alt_main.c
00000000 l    df *ABS*	00000000 alt_usleep.c
00000000 l    df *ABS*	00000000 alt_write.c
010077ec l     F .text	00000050 alt_get_errno
00000000 l    df *ABS*	00000000 alt_sys_init.c
01007934 l     F .text	00000038 alt_dev_reg
0100a45c l     O .rwdata	000000a4 dma_0_priv
0100a500 l     O .rwdata	0000001c dma_0_tx
0100a51c l     O .rwdata	0000001c dma_0_rx
0100a538 l     O .rwdata	0000002c jtag_uart_0
00000000 l    df *ABS*	00000000 altera_avalon_dma.c
01007a0c l     F .text	00000038 alt_dma_txchan_reg
01007a44 l     F .text	00000038 alt_dma_rxchan_reg
01007b70 l     F .text	00000098 alt_avalon_dma_launch_txonly
01007c08 l     F .text	00000098 alt_avalon_dma_launch_rxonly
01007ca0 l     F .text	00000344 alt_avalon_dma_ioctl
01008358 l     F .text	000001bc alt_avalon_dma_irq
00000000 l    df *ABS*	00000000 altera_avalon_jtag_uart_fd.c
00000000 l    df *ABS*	00000000 altera_avalon_jtag_uart_read.c
00000000 l    df *ABS*	00000000 altera_avalon_jtag_uart_write.c
00000000 l    df *ABS*	00000000 altera_avalon_timer_sc.c
010087fc l     F .text	00000074 alt_avalon_timer_sc_irq
00000000 l    df *ABS*	00000000 alt_busy_sleep.c
00000000 l    df *ABS*	00000000 alt_close.c
01008a50 l     F .text	00000050 alt_get_errno
00000000 l    df *ABS*	00000000 alt_dcache_flush_all.c
00000000 l    df *ABS*	00000000 alt_dev.c
01008bb4 l     F .text	0000002c alt_dev_null_write
00000000 l    df *ABS*	00000000 alt_dev_llist_insert.c
01008be0 l     F .text	00000050 alt_get_errno
00000000 l    df *ABS*	00000000 alt_dma_rxchan_open.c
01008cd4 l     F .text	00000050 alt_get_errno
00000000 l    df *ABS*	00000000 alt_dma_txchan_open.c
01008d78 l     F .text	00000050 alt_get_errno
00000000 l    df *ABS*	00000000 alt_do_ctors.c
00000000 l    df *ABS*	00000000 alt_do_dtors.c
00000000 l    df *ABS*	00000000 alt_errno.c
00000000 l    df *ABS*	00000000 alt_find_dev.c
00000000 l    df *ABS*	00000000 alt_icache_flush_all.c
00000000 l    df *ABS*	00000000 alt_iic.c
00000000 l    df *ABS*	00000000 alt_iic_isr_register.c
00000000 l    df *ABS*	00000000 alt_io_redirect.c
01009264 l     F .text	000000c0 alt_open_fd
00000000 l    df *ABS*	00000000 alt_open.c
0100939c l     F .text	00000050 alt_get_errno
010093ec l     F .text	000000cc alt_file_locked
00000000 l    df *ABS*	00000000 alt_release_fd.c
00000000 l    df *ABS*	00000000 alt_tick.c
00000000 l    df *ABS*	00000000 altera_nios2_qsys_irq.c
00000000 l    df *ABS*	00000000 alt_find_file.c
00000000 l    df *ABS*	00000000 alt_get_fd.c
00000000 l    df *ABS*	00000000 alt_icache_flush.c
00000000 l    df *ABS*	00000000 atexit.c
00000000 l    df *ABS*	00000000 exit.c
00000000 l    df *ABS*	00000000 memcmp.c
00000000 l    df *ABS*	00000000 __atexit.c
00000000 l    df *ABS*	00000000 __call_atexit.c
00000000 l    df *ABS*	00000000 alt_exit.c
01006138 g     F .text	00000798 usb20sr_with_dma_read
01007744 g     F .text	00000078 alt_main
01006cb4 g     F .text	00000080 _puts_r
0100b630 g     O .bss	00000100 alt_irq
0100a750 g       *ABS*	00000000 __flash_rwdata_start
0100a2c8 g     O .rwdata	0000003c ep_ip_int_hs
0100a340 g     O .rwdata	0000003c ep_ip_int_ls
01006c68 g     F .text	0000004c printf
01008514 g     F .text	000000b0 alt_avalon_dma_init
010068d0 g     F .text	00000174 usb20sr_check_bo_ready
01000b00 g     F .text	00000028 get_current_config
01005544 g     F .text	00000530 usb20sr_without_dma_write
00000000  w      *UND*	00000000 __errno
01000000 g     F .entry	0000001c __reset
01000894 g     F .text	00000030 usb20sr_phy_register_disable
0100a124 g     O .rwdata	0000003c ep_ip_csr_ls_
01000020 g       *ABS*	00000000 __flash_exceptions_start
0100af20 g     O .bss	00000004 errno
0100af2c g     O .bss	00000004 alt_argv
0101270c g       *ABS*	00000000 _gp
010077bc g     F .text	00000030 usleep
01000b50 g     F .text	00000028 get_current_alt_settings
01008dc8 g     F .text	00000054 alt_dma_txchan_open
0100a58c g     O .rwdata	00000180 alt_fd_list
01006a44 g     F .text	000000bc usb20sr_check_bi_ready
0100065c g     F .text	0000002c HandleClassSpecificControlRequests
01008ed4 g     F .text	00000090 alt_find_dev
01009324 g     F .text	00000078 alt_io_redirect
01009df8 g       *ABS*	00000000 __DTOR_END__
01006d34 g     F .text	00000014 puts
01008684 g     F .text	000000e4 altera_avalon_jtag_uart_read
00000000  w      *UND*	00000000 malloc
01006c2c g     F .text	0000003c _printf_r
01006c1c g     F .text	00000008 .hidden __udivsi3
010099f4 g     F .text	0000008c alt_icache_flush
01000620 g     F .text	0000003c USB_WakeUpCfg_Event
010019d0 g     F .text	00000180 USB_DisableEP
0100743c g     F .text	00000074 alt_dcache_flush
0100a730 g     O .rwdata	00000004 alt_max_fd
01000208 g     F .text	000001f0 configure_usb20sr
010074b0 g     F .text	000001b0 alt_irq_register
01001b50 g     F .text	00000068 usb20sr_connect
01000bf0 g     F .text	0000007c USB_SetStallEP
01000a5c g     F .text	00000038 get_current_micro_frame_no
01007a7c g     F .text	000000f4 alt_avalon_dma_launch_bidir
01008d24 g     F .text	00000054 alt_dma_rxchan_open
01004c5c g     F .text	0000014c usb20sr_config
0100a714 g     O .rwdata	00000004 _global_impure_ptr
0100b730 g       *ABS*	00000000 __bss_end
01009174 g     F .text	000000f0 alt_iic_isr_register
01009708 g     F .text	00000104 alt_tick
0100a0ac g     O .rwdata	0000003c ep_ip_csr_hs_
01009128 g     F .text	0000004c alt_ic_irq_enabled
0100a060 g     O .rwdata	0000000a device_quali_desc_
01009670 g     F .text	00000098 alt_alarm_stop
0100af24 g     O .bss	00000004 alt_irq_active
01004e1c g     F .text	00000728 usb20sr_with_dma_write
010000ec g     F .exceptions	000000d0 alt_irq_handler
0100a564 g     O .rwdata	00000028 alt_dev_null
01001bb8 g     F .text	0000003c usb20sr_disconnect
01008b70 g     F .text	00000044 alt_dcache_flush_all
0100a750 g       *ABS*	00000000 __ram_rwdata_end
01000000 g       *ABS*	00000000 __alt_mem_onchip_memory
010008c4 g     F .text	0000003c usb20sr_set_dev_speed
0100a728 g     O .rwdata	00000008 alt_dev_list
010081ac g     F .text	00000074 alt_avalon_dma_space
0100783c g     F .text	000000f8 write
0100085c g     F .text	00000038 usb20sr_phy_register_enable
01005a74 g     F .text	00000154 slsmemcpy
01009f84 g       *ABS*	00000000 __ram_rodata_end
01000550 g     F .text	00000034 USB_Detached_Event
01006c24 g     F .text	00000008 .hidden __umodsi3
01000a94 g     F .text	00000038 get_current_frame_no
010009a0 g     F .text	00000080 usb20sr_phy_register_read
0100b730 g       *ABS*	00000000 end
01000a20 g     F .text	0000003c usb20sr_set_low_power_mode
01009df8 g       *ABS*	00000000 __CTOR_LIST__
01020f58 g       *ABS*	00000000 __alt_stack_pointer
01008870 g     F .text	00000088 alt_avalon_timer_sc_init
01008768 g     F .text	00000094 altera_avalon_jtag_uart_write
0100a160 g     O .rwdata	0000003c ep_buf0_sz_hs_
01006dd0 g     F .text	00000544 ___vfprintf_internal_r
01000584 g     F .text	00000034 USB_Reset_Event
01008220 g     F .text	00000138 alt_avalon_dma_send
01009c28 g     F .text	0000019c __call_exitprocs
0100a73c g     O .rwdata	00000008 alt_dma_txchan_list
010006b4 g     F .text	000001a8 usb20sr_error_event
010001bc g     F .text	0000004c _start
0100af34 g     O .bss	00000004 _alt_tick_rate
0100af38 g     O .bss	00000004 _alt_nticks
010079a0 g     F .text	0000006c alt_sys_init
01009ae4 g     F .text	00000144 __register_exitproc
01000b28 g     F .text	00000028 get_current_interface
0100a250 g     O .rwdata	0000003c ep_buf0_sz_ls_
01009f84 g       *ABS*	00000000 __ram_rwdata_start
01009df8 g       *ABS*	00000000 __ram_rodata_start
01009f84 g     O .rwdata	00000012 device_desc_
0100a70c g     O .rwdata	00000004 supported_ep_
010085c4 g     F .text	00000060 altera_avalon_jtag_uart_read_fd
01009940 g     F .text	000000b4 alt_get_fd
010088f8 g     F .text	00000158 alt_busy_sleep
01000e0c g     F .text	00000104 usb_ep_config
0100a08a g     O .rwdata	00000020 other_speed_conf_desc_fs_
01009ab4 g     F .text	00000030 memcmp
0100b730 g       *ABS*	00000000 __alt_stack_base
01004da8 g     F .text	00000074 usb20_event_isr
0100051c g     F .text	00000034 USB_Attached_Event
0100a010 g     O .rwdata	00000050 str_desc_
0100a1d8 g     O .rwdata	0000003c ep_buf0_sz_fs_
01005bc8 g     F .text	00000570 usb20sr_without_dma_read
0100982c g     F .text	00000114 alt_find_file
01008c30 g     F .text	000000a4 alt_dev_llist_insert
01007338 g     F .text	000000ac __sfvwrite_small_dev
0100a28c g     O .rwdata	0000003c ep_buf1_sz_ls_
0100af1c g       *ABS*	00000000 __bss_start
010003f8 g     F .text	00000124 main
0100802c g     F .text	00000048 alt_avalon_dma_rx_ioctl
0100af30 g     O .bss	00000004 alt_envp
01009ff8 g     O .rwdata	00000018 str_desc_indexes_
01009fd6 g     O .rwdata	00000020 conf_desc_ls_
01008624 g     F .text	00000060 altera_avalon_jtag_uart_write_fd
0100a06a g     O .rwdata	00000020 other_speed_conf_desc_hs_
01000928 g     F .text	00000078 usb20sr_phy_register_write
0100a744 g     O .rwdata	00000004 alt_errno
0100a304 g     O .rwdata	0000003c ep_ip_int_fs
01006b6c g     F .text	00000054 .hidden __divsi3
01009df8 g       *ABS*	00000000 __CTOR_END__
01009df8 g       *ABS*	00000000 __flash_rodata_start
01009df8 g       *ABS*	00000000 __DTOR_LIST__
0100af1c g     O .bss	00000004 pUsb20srDev
0100796c g     F .text	00000034 alt_irq_init
01009610 g     F .text	00000060 alt_release_fd
01000900 g     F .text	00000028 usb20sr_get_dev_speed
01009a80 g     F .text	00000014 atexit
010073e4 g     F .text	00000058 _write_r
010005ec g     F .text	00000034 USB_Suspend_Event
0100a718 g     O .rwdata	00000004 _impure_ptr
0100af28 g     O .bss	00000004 alt_argc
01008e78 g     F .text	0000005c _do_dtors
01000020 g       .exceptions	00000000 alt_irq_entry
01009f96 g     O .rwdata	00000020 conf_desc_hs_
0100a720 g     O .rwdata	00000008 alt_fs_list
01000020 g       *ABS*	00000000 __ram_exceptions_start
01008f94 g     F .text	00000050 alt_ic_isr_register
010005b8 g     F .text	00000034 USB_Resume_Event
0100a750 g       *ABS*	00000000 _edata
0100b730 g       *ABS*	00000000 _end
010001bc g       *ABS*	00000000 __ram_exceptions_end
0100a0e8 g     O .rwdata	0000003c ep_ip_csr_fs_
0100a19c g     O .rwdata	0000003c ep_buf1_sz_hs_
01000cf0 g     F .text	0000011c usb_initialize_descriptor
01009084 g     F .text	000000a4 alt_ic_irq_disable
0100980c g     F .text	00000020 altera_nios2_qsys_irq_init
01009a94 g     F .text	00000020 exit
01006bc0 g     F .text	0000005c .hidden __modsi3
01020f58 g       *ABS*	00000000 __alt_data_end
01000020 g     F .exceptions	00000000 alt_exception
0100a214 g     O .rwdata	0000003c ep_buf1_sz_fs_
01009dc4 g     F .text	00000034 _exit
01000f10 g     F .text	00000084 dma_config
01006d48 g     F .text	0000001c strlen
010094b8 g     F .text	00000158 open
01000bac g     F .text	00000044 SetRemoteWakeUp
01008f64 g     F .text	00000030 alt_icache_flush_all
0100a71c g     O .rwdata	00000004 alt_priority_mask
0100af3c g     O .bss	000006f4 usb20srdev
01008fe4 g     F .text	000000a0 alt_ic_irq_enable
01007314 g     F .text	00000024 __vfprintf_internal
01000b78 g     F .text	00000034 ifConfigured
01000c6c g     F .text	00000084 USB_ClrStallEP
01000688 g     F .text	0000002c HandleClassSpecificDescriptorRequests
01008074 g     F .text	00000138 alt_avalon_dma_prepare
0100a734 g     O .rwdata	00000008 alt_dma_rxchan_list
0100a748 g     O .rwdata	00000008 alt_alarm_list
01008e1c g     F .text	0000005c _do_ctors
01008aa0 g     F .text	000000d0 close
010076c4 g     F .text	00000080 alt_load
01007fe4 g     F .text	00000048 alt_avalon_dma_tx_ioctl
01000acc g     F .text	00000034 get_sof_time
00000000  w      *UND*	00000000 free
01000f94 g     F .text	00000a3c USB_EnableEP
01009fb6 g     O .rwdata	00000020 conf_desc_fs_



Disassembly of section .entry:

01000000 <__reset>:
#if NIOS2_ICACHE_SIZE > 0 && defined(ALT_ALLOW_CODE_AT_RESET) && !defined(ALT_SIM_OPTIMIZE)
    /* Assume the instruction cache size is always a power of two. */
#if NIOS2_ICACHE_SIZE > 0x8000
    movhi r2, %hi(NIOS2_ICACHE_SIZE)
#else
    movui r2, NIOS2_ICACHE_SIZE
 1000000:	00840014 	movui	r2,4096
#endif

0:
    initi r2
 1000004:	1001483a 	initi	r2
    addi r2, r2, -NIOS2_ICACHE_LINE_SIZE
 1000008:	10bff804 	addi	r2,r2,-32
    bgt r2, zero, 0b
 100000c:	00bffd16 	blt	zero,r2,1000004 <__alt_data_end+0xfffdf0ac>
 * Jump to the _start entry point in the .text section if reset code
 * is allowed or if optimizing for RTL simulation.
 */
#if defined(ALT_ALLOW_CODE_AT_RESET) || defined(ALT_SIM_OPTIMIZE)
    /* Jump to the _start entry point in the .text section. */
    movhi r1, %hi(_start)
 1000010:	00404034 	movhi	at,256
    ori r1, r1, %lo(_start)
 1000014:	08406f14 	ori	at,at,444
    jmp r1
 1000018:	0800683a 	jmp	at
 100001c:	00000000 	call	0 <__reset-0x1000000>

Disassembly of section .exceptions:

01000020 <alt_exception>:

#else /* ALT_EXCEPTION_STACK disabled */
        /* 
         * Reserve space on normal stack for registers about to be pushed.
         */
        addi  sp, sp, -76
 1000020:	deffed04 	addi	sp,sp,-76
         * documentation for details).
         *
         * Leave a gap in the stack frame at 4(sp) for the muldiv handler to
         * store zero into.
         */
        stw   ra,  0(sp)
 1000024:	dfc00015 	stw	ra,0(sp)
        stw   r1,   8(sp)
 1000028:	d8400215 	stw	at,8(sp)
        stw   r2,  12(sp)
 100002c:	d8800315 	stw	r2,12(sp)
        stw   r3,  16(sp)
 1000030:	d8c00415 	stw	r3,16(sp)
        stw   r4,  20(sp)
 1000034:	d9000515 	stw	r4,20(sp)
        stw   r5,  24(sp)
 1000038:	d9400615 	stw	r5,24(sp)
        stw   r6,  28(sp)
 100003c:	d9800715 	stw	r6,28(sp)
        stw   r7,  32(sp)
 1000040:	d9c00815 	stw	r7,32(sp)
        rdctl r5, estatus   /* Read early to avoid usage stall */
 1000044:	000b307a 	rdctl	r5,estatus
        stw   r8,  36(sp)
 1000048:	da000915 	stw	r8,36(sp)
        stw   r9,  40(sp)
 100004c:	da400a15 	stw	r9,40(sp)
        stw   r10, 44(sp)
 1000050:	da800b15 	stw	r10,44(sp)
        stw   r11, 48(sp)
 1000054:	dac00c15 	stw	r11,48(sp)
        stw   r12, 52(sp)
 1000058:	db000d15 	stw	r12,52(sp)
        stw   r13, 56(sp)
 100005c:	db400e15 	stw	r13,56(sp)
        stw   r14, 60(sp)
 1000060:	db800f15 	stw	r14,60(sp)
        stw   r15, 64(sp)
 1000064:	dbc01015 	stw	r15,64(sp)
        /*
         * ea-4 contains the address of the instruction being executed
         * when the exception occured. For interrupt exceptions, we will
         * will be re-issue the isntruction. Store it in 72(sp)
         */
        stw   r5,  68(sp)  /* estatus */
 1000068:	d9401115 	stw	r5,68(sp)
        addi  r15, ea, -4  /* instruction that caused exception */
 100006c:	ebffff04 	addi	r15,ea,-4
        stw   r15,  72(sp)
 1000070:	dbc01215 	stw	r15,72(sp)
#else
        /*
         * Test to see if the exception was a software exception or caused 
         * by an external interrupt, and vector accordingly.
         */
        rdctl r4, ipending
 1000074:	0009313a 	rdctl	r4,ipending
        andi  r2, r5, 1
 1000078:	2880004c 	andi	r2,r5,1
        beq   r2, zero, .Lnot_irq
 100007c:	10000326 	beq	r2,zero,100008c <alt_exception+0x6c>
        beq   r4, zero, .Lnot_irq
 1000080:	20000226 	beq	r4,zero,100008c <alt_exception+0x6c>
        /*
         * Now that all necessary registers have been preserved, call 
         * alt_irq_handler() to process the interrupts.
         */

        call alt_irq_handler
 1000084:	10000ec0 	call	10000ec <alt_irq_handler>

        .section .exceptions.irqreturn, "xa"

        br    .Lexception_exit
 1000088:	00000306 	br	1000098 <alt_exception_unknown+0x4>
         * upon completion, so we write ea (address of instruction *after*
         * the one where the exception occured) into 72(sp). The actual
         * instruction that caused the exception is written in r2, which these
         * handlers will utilize.
         */
        stw   ea,  72(sp)  /* Don't re-issue */
 100008c:	df401215 	stw	ea,72(sp)
        ldw   r2, -4(ea)   /* Instruction that caused exception */
 1000090:	e8bfff17 	ldw	r2,-4(ea)

01000094 <alt_exception_unknown>:
#ifdef NIOS2_HAS_DEBUG_STUB
       /*
        *  Either tell the user now (if there is a debugger attached) or go into
        *  the debug monitor which will loop until a debugger is attached.
        */
        break
 1000094:	003da03a 	break	0
        /* 
         * Restore the saved registers, so that all general purpose registers 
         * have been restored to their state at the time the interrupt occured.
         */

        ldw   r5,  68(sp)
 1000098:	d9401117 	ldw	r5,68(sp)
        ldw   ea,  72(sp)  /* This becomes the PC once eret is executed */
 100009c:	df401217 	ldw	ea,72(sp)
        ldw   ra,   0(sp)
 10000a0:	dfc00017 	ldw	ra,0(sp)

        wrctl estatus, r5
 10000a4:	2801707a 	wrctl	estatus,r5

        ldw   r1,   8(sp)
 10000a8:	d8400217 	ldw	at,8(sp)
        ldw   r2,  12(sp)
 10000ac:	d8800317 	ldw	r2,12(sp)
        ldw   r3,  16(sp)
 10000b0:	d8c00417 	ldw	r3,16(sp)
        ldw   r4,  20(sp)
 10000b4:	d9000517 	ldw	r4,20(sp)
        ldw   r5,  24(sp)
 10000b8:	d9400617 	ldw	r5,24(sp)
        ldw   r6,  28(sp)
 10000bc:	d9800717 	ldw	r6,28(sp)
        ldw   r7,  32(sp)
 10000c0:	d9c00817 	ldw	r7,32(sp)

#if defined(ALT_EXCEPTION_STACK) && defined(ALT_STACK_CHECK)
        ldw   et, %gprel(alt_exception_old_stack_limit)(gp)
#endif

        ldw   r8,  36(sp)
 10000c4:	da000917 	ldw	r8,36(sp)
        ldw   r9,  40(sp)
 10000c8:	da400a17 	ldw	r9,40(sp)
        ldw   r10, 44(sp)
 10000cc:	da800b17 	ldw	r10,44(sp)
        ldw   r11, 48(sp)
 10000d0:	dac00c17 	ldw	r11,48(sp)
        ldw   r12, 52(sp)
 10000d4:	db000d17 	ldw	r12,52(sp)
        ldw   r13, 56(sp)
 10000d8:	db400e17 	ldw	r13,56(sp)
        ldw   r14, 60(sp)
 10000dc:	db800f17 	ldw	r14,60(sp)
        ldw   r15, 64(sp)
 10000e0:	dbc01017 	ldw	r15,64(sp)
        stw   et, %gprel(alt_stack_limit_value)(gp)
        stw   zero, %gprel(alt_exception_old_stack_limit)(gp)
#endif /* ALT_STACK_CHECK */
        ldw   sp,  76(sp)
#else /* ALT_EXCEPTION_STACK disabled */
        addi  sp, sp, 76
 10000e4:	dec01304 	addi	sp,sp,76

        /*
         * Return to the interrupted instruction.
         */

        eret
 10000e8:	ef80083a 	eret

010000ec <alt_irq_handler>:
 * instruction is present if the macro ALT_CI_INTERRUPT_VECTOR defined.
 */

void alt_irq_handler (void) __attribute__ ((section (".exceptions")));
void alt_irq_handler (void)
{
 10000ec:	defff904 	addi	sp,sp,-28
 10000f0:	dfc00615 	stw	ra,24(sp)
 10000f4:	df000515 	stw	fp,20(sp)
 10000f8:	df000504 	addi	fp,sp,20
  
  /*
   * Notify the operating system that we are at interrupt level.
   */ 
  
  ALT_OS_INT_ENTER();
 10000fc:	0001883a 	nop
#ifndef NIOS2_EIC_PRESENT
static ALT_INLINE alt_u32 ALT_ALWAYS_INLINE alt_irq_pending (void)
{
  alt_u32 active;

  NIOS2_READ_IPENDING (active);
 1000100:	0005313a 	rdctl	r2,ipending
 1000104:	e0bffe15 	stw	r2,-8(fp)

  return active;
 1000108:	e0bffe17 	ldw	r2,-8(fp)
   * Consider the case where the high priority interupt is asserted during
   * the interrupt entry sequence for a lower priority interrupt to see why
   * this is the case.
   */

  active = alt_irq_pending ();
 100010c:	e0bffb15 	stw	r2,-20(fp)

  do
  {
    i = 0;
 1000110:	e03ffd15 	stw	zero,-12(fp)
    mask = 1;
 1000114:	00800044 	movi	r2,1
 1000118:	e0bffc15 	stw	r2,-16(fp)
     * called to clear the interrupt condition.
     */

    do
    {
      if (active & mask)
 100011c:	e0fffb17 	ldw	r3,-20(fp)
 1000120:	e0bffc17 	ldw	r2,-16(fp)
 1000124:	1884703a 	and	r2,r3,r2
 1000128:	10001426 	beq	r2,zero,100017c <alt_irq_handler+0x90>
      { 
#ifdef ALT_ENHANCED_INTERRUPT_API_PRESENT
        alt_irq[i].handler(alt_irq[i].context); 
 100012c:	00804074 	movhi	r2,257
 1000130:	10ad8c04 	addi	r2,r2,-18896
 1000134:	e0fffd17 	ldw	r3,-12(fp)
 1000138:	180690fa 	slli	r3,r3,3
 100013c:	10c5883a 	add	r2,r2,r3
 1000140:	10c00017 	ldw	r3,0(r2)
 1000144:	00804074 	movhi	r2,257
 1000148:	10ad8c04 	addi	r2,r2,-18896
 100014c:	e13ffd17 	ldw	r4,-12(fp)
 1000150:	200890fa 	slli	r4,r4,3
 1000154:	1105883a 	add	r2,r2,r4
 1000158:	10800104 	addi	r2,r2,4
 100015c:	10800017 	ldw	r2,0(r2)
 1000160:	1009883a 	mov	r4,r2
 1000164:	183ee83a 	callr	r3
#else
        alt_irq[i].handler(alt_irq[i].context, i); 
#endif
        break;
 1000168:	0001883a 	nop
#ifndef NIOS2_EIC_PRESENT
static ALT_INLINE alt_u32 ALT_ALWAYS_INLINE alt_irq_pending (void)
{
  alt_u32 active;

  NIOS2_READ_IPENDING (active);
 100016c:	0005313a 	rdctl	r2,ipending
 1000170:	e0bfff15 	stw	r2,-4(fp)

  return active;
 1000174:	e0bfff17 	ldw	r2,-4(fp)
 1000178:	00000706 	br	1000198 <alt_irq_handler+0xac>
      }
      mask <<= 1;
 100017c:	e0bffc17 	ldw	r2,-16(fp)
 1000180:	1085883a 	add	r2,r2,r2
 1000184:	e0bffc15 	stw	r2,-16(fp)
      i++;
 1000188:	e0bffd17 	ldw	r2,-12(fp)
 100018c:	10800044 	addi	r2,r2,1
 1000190:	e0bffd15 	stw	r2,-12(fp)

    } while (1);
 1000194:	003fe106 	br	100011c <__alt_data_end+0xfffdf1c4>

    active = alt_irq_pending ();
 1000198:	e0bffb15 	stw	r2,-20(fp)
    
  } while (active);
 100019c:	e0bffb17 	ldw	r2,-20(fp)
 10001a0:	103fdb1e 	bne	r2,zero,1000110 <__alt_data_end+0xfffdf1b8>

  /*
   * Notify the operating system that interrupt processing is complete.
   */ 

  ALT_OS_INT_EXIT();
 10001a4:	0001883a 	nop
}
 10001a8:	e037883a 	mov	sp,fp
 10001ac:	dfc00117 	ldw	ra,4(sp)
 10001b0:	df000017 	ldw	fp,0(sp)
 10001b4:	dec00204 	addi	sp,sp,8
 10001b8:	f800283a 	ret

Disassembly of section .text:

010001bc <_start>:

    /* Assume the data cache size is always a power of two. */
#if NIOS2_DCACHE_SIZE > 0x8000
    movhi r2, %hi(NIOS2_DCACHE_SIZE)
#else
    movui r2, NIOS2_DCACHE_SIZE
 10001bc:	00820014 	movui	r2,2048
#endif

0:
    initd 0(r2)
 10001c0:	10000033 	initd	0(r2)
#ifdef NIOS2_ECC_PRESENT
    addi r2, r2, -4
#else
    addi r2, r2, -NIOS2_DCACHE_LINE_SIZE
 10001c4:	10bff804 	addi	r2,r2,-32
#endif
    bgt r2, zero, 0b
 10001c8:	00bffd16 	blt	zero,r2,10001c0 <__alt_data_end+0xfffdf268>

    /*
     * Now that the caches are initialized, set up the stack pointer and global pointer.
     * The values provided by the linker are assumed to be correctly aligned.
     */
    movhi sp, %hi(__alt_stack_pointer)
 10001cc:	06c040b4 	movhi	sp,258
    ori sp, sp, %lo(__alt_stack_pointer)
 10001d0:	dec3d614 	ori	sp,sp,3928
    movhi gp, %hi(_gp)
 10001d4:	06804074 	movhi	gp,257
    ori gp, gp, %lo(_gp)
 10001d8:	d689c314 	ori	gp,gp,9996
 */
#ifndef ALT_SIM_OPTIMIZE
    /* Log that the BSS is about to be cleared. */
    ALT_LOG_PUTS(alt_log_msg_bss)

    movhi r2, %hi(__bss_start)
 10001dc:	00804034 	movhi	r2,256
    ori r2, r2, %lo(__bss_start)
 10001e0:	10abc714 	ori	r2,r2,44828

    movhi r3, %hi(__bss_end)
 10001e4:	00c04034 	movhi	r3,256
    ori r3, r3, %lo(__bss_end)
 10001e8:	18edcc14 	ori	r3,r3,46896

    beq r2, r3, 1f
 10001ec:	10c00326 	beq	r2,r3,10001fc <_start+0x40>

0:
    stw zero, (r2)
 10001f0:	10000015 	stw	zero,0(r2)
    addi r2, r2, 4
 10001f4:	10800104 	addi	r2,r2,4
    bltu r2, r3, 0b
 10001f8:	10fffd36 	bltu	r2,r3,10001f0 <__alt_data_end+0xfffdf298>
     * section aren't defined until alt_load() has been called).
     */
    mov   et, zero
#endif

    call alt_load
 10001fc:	10076c40 	call	10076c4 <alt_load>

    /* Log that alt_main is about to be called. */
    ALT_LOG_PUTS(alt_log_msg_alt_main)

    /* Call the C entry point. It should never return. */
    call alt_main
 1000200:	10077440 	call	1007744 <alt_main>

01000204 <alt_after_alt_main>:

    /* Wait in infinite loop in case alt_main does return. */
alt_after_alt_main:
    br alt_after_alt_main
 1000204:	003fff06 	br	1000204 <__alt_data_end+0xfffdf2ac>

01000208 <configure_usb20sr>:

sls_avalon_usb20sr_dev *pUsb20srDev;
sls_avalon_usb20sr_dev usb20srdev;

void configure_usb20sr(sls_avalon_usb20sr_dev *pUsb20srDev)
{
 1000208:	defff204 	addi	sp,sp,-56
 100020c:	dfc00d15 	stw	ra,52(sp)
 1000210:	df000c15 	stw	fp,48(sp)
 1000214:	df000c04 	addi	fp,sp,48
 1000218:	e13fff15 	stw	r4,-4(fp)
	usb_initialize_descriptor(pUsb20srDev,(unsigned char*)device_desc_,
 100021c:	00804074 	movhi	r2,257
 1000220:	10a7f584 	addi	r2,r2,-24618
 1000224:	d8800015 	stw	r2,0(sp)
 1000228:	00800804 	movi	r2,32
 100022c:	d8800115 	stw	r2,4(sp)
 1000230:	00800804 	movi	r2,32
 1000234:	d8800215 	stw	r2,8(sp)
 1000238:	00800804 	movi	r2,32
 100023c:	d8800315 	stw	r2,12(sp)
 1000240:	00804074 	movhi	r2,257
 1000244:	10a7fe04 	addi	r2,r2,-24584
 1000248:	d8800415 	stw	r2,16(sp)
 100024c:	00804074 	movhi	r2,257
 1000250:	10a80404 	addi	r2,r2,-24560
 1000254:	d8800515 	stw	r2,20(sp)
 1000258:	00800604 	movi	r2,24
 100025c:	d8800615 	stw	r2,24(sp)
 1000260:	00804074 	movhi	r2,257
 1000264:	10a81804 	addi	r2,r2,-24480
 1000268:	d8800715 	stw	r2,28(sp)
 100026c:	00804074 	movhi	r2,257
 1000270:	10a81a84 	addi	r2,r2,-24470
 1000274:	d8800815 	stw	r2,32(sp)
 1000278:	00804074 	movhi	r2,257
 100027c:	10a82284 	addi	r2,r2,-24438
 1000280:	d8800915 	stw	r2,36(sp)
 1000284:	e13fff17 	ldw	r4,-4(fp)
 1000288:	01404074 	movhi	r5,257
 100028c:	2967e104 	addi	r5,r5,-24700
 1000290:	01804074 	movhi	r6,257
 1000294:	31a7e584 	addi	r6,r6,-24682
 1000298:	01c04074 	movhi	r7,257
 100029c:	39e7ed84 	addi	r7,r7,-24650
 10002a0:	1000cf00 	call	1000cf0 <usb_initialize_descriptor>
										  sizeof(str_desc_indexes_),
										  (unsigned char*)device_quali_desc_,
										  (unsigned char*)other_speed_conf_desc_hs_,
										  (unsigned char*)other_speed_conf_desc_fs_);

	usb_ep_config(      pUsb20srDev,    SUPPORTED_CONF,     supported_ep_,      ep_ip_csr_hs_,      ep_ip_csr_fs_,		ep_ip_csr_ls_,
 10002a4:	00804074 	movhi	r2,257
 10002a8:	10a83a04 	addi	r2,r2,-24344
 10002ac:	d8800015 	stw	r2,0(sp)
 10002b0:	00804074 	movhi	r2,257
 10002b4:	10a84904 	addi	r2,r2,-24284
 10002b8:	d8800115 	stw	r2,4(sp)
 10002bc:	00804074 	movhi	r2,257
 10002c0:	10a85804 	addi	r2,r2,-24224
 10002c4:	d8800215 	stw	r2,8(sp)
 10002c8:	00804074 	movhi	r2,257
 10002cc:	10a86704 	addi	r2,r2,-24164
 10002d0:	d8800315 	stw	r2,12(sp)
 10002d4:	00804074 	movhi	r2,257
 10002d8:	10a87604 	addi	r2,r2,-24104
 10002dc:	d8800415 	stw	r2,16(sp)
 10002e0:	00804074 	movhi	r2,257
 10002e4:	10a88504 	addi	r2,r2,-24044
 10002e8:	d8800515 	stw	r2,20(sp)
 10002ec:	00804074 	movhi	r2,257
 10002f0:	10a89404 	addi	r2,r2,-23984
 10002f4:	d8800615 	stw	r2,24(sp)
 10002f8:	00804074 	movhi	r2,257
 10002fc:	10a8a304 	addi	r2,r2,-23924
 1000300:	d8800715 	stw	r2,28(sp)
 1000304:	00804074 	movhi	r2,257
 1000308:	10a8b204 	addi	r2,r2,-23864
 100030c:	d8800815 	stw	r2,32(sp)
 1000310:	00804074 	movhi	r2,257
 1000314:	10a8c104 	addi	r2,r2,-23804
 1000318:	d8800915 	stw	r2,36(sp)
 100031c:	00804074 	movhi	r2,257
 1000320:	10a8d004 	addi	r2,r2,-23744
 1000324:	d8800a15 	stw	r2,40(sp)
 1000328:	e13fff17 	ldw	r4,-4(fp)
 100032c:	01400044 	movi	r5,1
 1000330:	d1a00004 	addi	r6,gp,-32768
 1000334:	01c04074 	movhi	r7,257
 1000338:	39e82b04 	addi	r7,r7,-24404
 100033c:	1000e0c0 	call	1000e0c <usb_ep_config>
						ep_buf0_sz_hs_, ep_buf1_sz_hs_,     ep_buf0_sz_fs_,     ep_buf1_sz_fs_, 	ep_buf0_sz_ls_, 	ep_buf1_sz_ls_,
						ep_ip_int_hs,	ep_ip_int_fs,		ep_ip_int_ls     );

    /*Use DMA/UDSC's BASE, IRQ & NAME from system.h file*/

	dma_config(pUsb20srDev, DMA_0_BASE, DMA_0_IRQ, DMA_0_NAME, DMA_FLAG);		/*set DMA_FLAG as 1 while using DMA*/
 1000340:	00800044 	movi	r2,1
 1000344:	d8800015 	stw	r2,0(sp)
 1000348:	e13fff17 	ldw	r4,-4(fp)
 100034c:	01404134 	movhi	r5,260
 1000350:	29440004 	addi	r5,r5,4096
 1000354:	018000c4 	movi	r6,3
 1000358:	01c04074 	movhi	r7,257
 100035c:	39e77e04 	addi	r7,r7,-25096
 1000360:	1000f100 	call	1000f10 <dma_config>

	//dma_config(pUsb20srDev, UDSC_BASE, UDSC_IRQ, UDSC_NAME, DMA_FLAG);	     /*set DMA_FLAG as 0 while using UDSC*/

	usb20_event_isr(pUsb20srDev, USB_Attached_Event, USB_Detached_Event, USB_Reset_Event, USB_Resume_Event, USB_Suspend_Event, USB_WakeUpCfg_Event);
 1000364:	00804034 	movhi	r2,256
 1000368:	10816e04 	addi	r2,r2,1464
 100036c:	d8800015 	stw	r2,0(sp)
 1000370:	00804034 	movhi	r2,256
 1000374:	10817b04 	addi	r2,r2,1516
 1000378:	d8800115 	stw	r2,4(sp)
 100037c:	00804034 	movhi	r2,256
 1000380:	10818804 	addi	r2,r2,1568
 1000384:	d8800215 	stw	r2,8(sp)
 1000388:	e13fff17 	ldw	r4,-4(fp)
 100038c:	01404034 	movhi	r5,256
 1000390:	29414704 	addi	r5,r5,1308
 1000394:	01804034 	movhi	r6,256
 1000398:	31815404 	addi	r6,r6,1360
 100039c:	01c04034 	movhi	r7,256
 10003a0:	39c16104 	addi	r7,r7,1412
 10003a4:	1004da80 	call	1004da8 <usb20_event_isr>

    if(usb20sr_config(pUsb20srDev, USB20SR_BASE, USB20SR_IRQ, USB20SR_NAME, usb20sr_error_event, HandleClassSpecificControlRequests,HandleClassSpecificDescriptorRequests))
 10003a8:	00804034 	movhi	r2,256
 10003ac:	1081ad04 	addi	r2,r2,1716
 10003b0:	d8800015 	stw	r2,0(sp)
 10003b4:	00804034 	movhi	r2,256
 10003b8:	10819704 	addi	r2,r2,1628
 10003bc:	d8800115 	stw	r2,4(sp)
 10003c0:	00804034 	movhi	r2,256
 10003c4:	1081a204 	addi	r2,r2,1672
 10003c8:	d8800215 	stw	r2,8(sp)
 10003cc:	e13fff17 	ldw	r4,-4(fp)
 10003d0:	000b883a 	mov	r5,zero
 10003d4:	01800084 	movi	r6,2
 10003d8:	01c04074 	movhi	r7,257
 10003dc:	39e78104 	addi	r7,r7,-25084
 10003e0:	1004c5c0 	call	1004c5c <usb20sr_config>
    {}
}
 10003e4:	e037883a 	mov	sp,fp
 10003e8:	dfc00117 	ldw	ra,4(sp)
 10003ec:	df000017 	ldw	fp,0(sp)
 10003f0:	dec00204 	addi	sp,sp,8
 10003f4:	f800283a 	ret

010003f8 <main>:
#endif

#ifdef WRITE_STREAM

int main()
{
 10003f8:	deff7b04 	addi	sp,sp,-532
 10003fc:	dfc08415 	stw	ra,528(sp)
 1000400:	df008315 	stw	fp,524(sp)
 1000404:	df008304 	addi	fp,sp,524
    int write_count = 0, i = 0;
 1000408:	e03f7f15 	stw	zero,-516(fp)
 100040c:	e03f7e15 	stw	zero,-520(fp)
    unsigned char buf[DATA];

    //ext reset usb20sr, high active
    IOWR_ALTERA_AVALON_PIO_DATA(RST_PIO_BASE,0);
 1000410:	0007883a 	mov	r3,zero
 1000414:	00808034 	movhi	r2,512
 1000418:	10800804 	addi	r2,r2,32
 100041c:	10c00035 	stwio	r3,0(r2)
    usleep(20*1000);
 1000420:	01138804 	movi	r4,20000
 1000424:	10077bc0 	call	10077bc <usleep>

    pUsb20srDev = &usb20srdev;
 1000428:	00804074 	movhi	r2,257
 100042c:	10abcf04 	addi	r2,r2,-20676
 1000430:	d0a20415 	stw	r2,-30704(gp)

    configure_usb20sr(pUsb20srDev);
 1000434:	d0a20417 	ldw	r2,-30704(gp)
 1000438:	1009883a 	mov	r4,r2
 100043c:	10002080 	call	1000208 <configure_usb20sr>

    usb20sr_disconnect(pUsb20srDev);
 1000440:	d0a20417 	ldw	r2,-30704(gp)
 1000444:	1009883a 	mov	r4,r2
 1000448:	1001bb80 	call	1001bb8 <usb20sr_disconnect>

    usb20sr_set_dev_speed(pUsb20srDev, 1);     /*Connect device in the full speed(0)/high speed(1) mode*/
 100044c:	d0a20417 	ldw	r2,-30704(gp)
 1000450:	1009883a 	mov	r4,r2
 1000454:	01400044 	movi	r5,1
 1000458:	10008c40 	call	10008c4 <usb20sr_set_dev_speed>

    usb20sr_connect(pUsb20srDev);
 100045c:	d0a20417 	ldw	r2,-30704(gp)
 1000460:	1009883a 	mov	r4,r2
 1000464:	1001b500 	call	1001b50 <usb20sr_connect>
    printf("Connect !\n");
 1000468:	01004074 	movhi	r4,257
 100046c:	21278504 	addi	r4,r4,-25068
 1000470:	1006d340 	call	1006d34 <puts>
    while(!(ifConfigured(pUsb20srDev)));        /*Check whether device is Configured or not*/
 1000474:	0001883a 	nop
 1000478:	d0a20417 	ldw	r2,-30704(gp)
 100047c:	1009883a 	mov	r4,r2
 1000480:	1000b780 	call	1000b78 <ifConfigured>
 1000484:	10803fcc 	andi	r2,r2,255
 1000488:	1080201c 	xori	r2,r2,128
 100048c:	10bfe004 	addi	r2,r2,-128
 1000490:	103ff926 	beq	r2,zero,1000478 <__alt_data_end+0xfffdf520>
    printf("\nConfigured !\n");
 1000494:	01004074 	movhi	r4,257
 1000498:	21278804 	addi	r4,r4,-25056
 100049c:	1006d340 	call	1006d34 <puts>

    for(i=0;i<DATA;i++)
 10004a0:	e03f7e15 	stw	zero,-520(fp)
 10004a4:	00000906 	br	10004cc <main+0xd4>
    	buf[i]=i;
 10004a8:	e0bf7e17 	ldw	r2,-520(fp)
 10004ac:	1009883a 	mov	r4,r2
 10004b0:	e0ff8004 	addi	r3,fp,-512
 10004b4:	e0bf7e17 	ldw	r2,-520(fp)
 10004b8:	1885883a 	add	r2,r3,r2
 10004bc:	11000005 	stb	r4,0(r2)
    usb20sr_connect(pUsb20srDev);
    printf("Connect !\n");
    while(!(ifConfigured(pUsb20srDev)));        /*Check whether device is Configured or not*/
    printf("\nConfigured !\n");

    for(i=0;i<DATA;i++)
 10004c0:	e0bf7e17 	ldw	r2,-520(fp)
 10004c4:	10800044 	addi	r2,r2,1
 10004c8:	e0bf7e15 	stw	r2,-520(fp)
 10004cc:	e0bf7e17 	ldw	r2,-520(fp)
 10004d0:	10808010 	cmplti	r2,r2,512
 10004d4:	103ff41e 	bne	r2,zero,10004a8 <__alt_data_end+0xfffdf550>
    	buf[i]=i;

    while(1)
    {
        if((i = usb20sr_check_bi_ready(pUsb20srDev, 1)) > -1)
 10004d8:	d0a20417 	ldw	r2,-30704(gp)
 10004dc:	1009883a 	mov	r4,r2
 10004e0:	01400044 	movi	r5,1
 10004e4:	1006a440 	call	1006a44 <usb20sr_check_bi_ready>
 10004e8:	e0bf7e15 	stw	r2,-520(fp)
 10004ec:	e0bf7e17 	ldw	r2,-520(fp)
 10004f0:	10000916 	blt	r2,zero,1000518 <main+0x120>
        {
            #ifdef DMA_USE
                write_count = usb20sr_with_dma_write(pUsb20srDev, 1, buf, DATA, DMA_FLAG);
 10004f4:	d1220417 	ldw	r4,-30704(gp)
 10004f8:	e0ff8004 	addi	r3,fp,-512
 10004fc:	00800044 	movi	r2,1
 1000500:	d8800015 	stw	r2,0(sp)
 1000504:	01400044 	movi	r5,1
 1000508:	180d883a 	mov	r6,r3
 100050c:	01c08004 	movi	r7,512
 1000510:	1004e1c0 	call	1004e1c <usb20sr_with_dma_write>
 1000514:	e0bf7f15 	stw	r2,-516(fp)
            #else
                write_count = usb20sr_without_dma_write(pUsb20srDev, 1, buf, DATA);
            #endif
        }
    }
 1000518:	003fef06 	br	10004d8 <__alt_data_end+0xfffdf580>

0100051c <USB_Attached_Event>:
}

void USB_Attached_Event(sls_avalon_usb20sr_dev *usb20dev)
{
 100051c:	defffd04 	addi	sp,sp,-12
 1000520:	dfc00215 	stw	ra,8(sp)
 1000524:	df000115 	stw	fp,4(sp)
 1000528:	df000104 	addi	fp,sp,4
 100052c:	e13fff15 	stw	r4,-4(fp)
    printf("\nAttEvent\n");
 1000530:	01004074 	movhi	r4,257
 1000534:	21278c04 	addi	r4,r4,-25040
 1000538:	1006d340 	call	1006d34 <puts>
}
 100053c:	e037883a 	mov	sp,fp
 1000540:	dfc00117 	ldw	ra,4(sp)
 1000544:	df000017 	ldw	fp,0(sp)
 1000548:	dec00204 	addi	sp,sp,8
 100054c:	f800283a 	ret

01000550 <USB_Detached_Event>:

void USB_Detached_Event(sls_avalon_usb20sr_dev *usb20dev)
{
 1000550:	defffd04 	addi	sp,sp,-12
 1000554:	dfc00215 	stw	ra,8(sp)
 1000558:	df000115 	stw	fp,4(sp)
 100055c:	df000104 	addi	fp,sp,4
 1000560:	e13fff15 	stw	r4,-4(fp)
    printf("\nDetaEvent\n");
 1000564:	01004074 	movhi	r4,257
 1000568:	21278f04 	addi	r4,r4,-25028
 100056c:	1006d340 	call	1006d34 <puts>
}
 1000570:	e037883a 	mov	sp,fp
 1000574:	dfc00117 	ldw	ra,4(sp)
 1000578:	df000017 	ldw	fp,0(sp)
 100057c:	dec00204 	addi	sp,sp,8
 1000580:	f800283a 	ret

01000584 <USB_Reset_Event>:

void USB_Reset_Event(sls_avalon_usb20sr_dev *usb20dev)
{
 1000584:	defffd04 	addi	sp,sp,-12
 1000588:	dfc00215 	stw	ra,8(sp)
 100058c:	df000115 	stw	fp,4(sp)
 1000590:	df000104 	addi	fp,sp,4
 1000594:	e13fff15 	stw	r4,-4(fp)
    printf("\nResetEvent\n");
 1000598:	01004074 	movhi	r4,257
 100059c:	21279204 	addi	r4,r4,-25016
 10005a0:	1006d340 	call	1006d34 <puts>
}
 10005a4:	e037883a 	mov	sp,fp
 10005a8:	dfc00117 	ldw	ra,4(sp)
 10005ac:	df000017 	ldw	fp,0(sp)
 10005b0:	dec00204 	addi	sp,sp,8
 10005b4:	f800283a 	ret

010005b8 <USB_Resume_Event>:

void USB_Resume_Event(sls_avalon_usb20sr_dev *usb20dev)
{
 10005b8:	defffd04 	addi	sp,sp,-12
 10005bc:	dfc00215 	stw	ra,8(sp)
 10005c0:	df000115 	stw	fp,4(sp)
 10005c4:	df000104 	addi	fp,sp,4
 10005c8:	e13fff15 	stw	r4,-4(fp)
    printf("\nResume\n");
 10005cc:	01004074 	movhi	r4,257
 10005d0:	21279504 	addi	r4,r4,-25004
 10005d4:	1006d340 	call	1006d34 <puts>
}
 10005d8:	e037883a 	mov	sp,fp
 10005dc:	dfc00117 	ldw	ra,4(sp)
 10005e0:	df000017 	ldw	fp,0(sp)
 10005e4:	dec00204 	addi	sp,sp,8
 10005e8:	f800283a 	ret

010005ec <USB_Suspend_Event>:

void USB_Suspend_Event(sls_avalon_usb20sr_dev *usb20dev)
{
 10005ec:	defffd04 	addi	sp,sp,-12
 10005f0:	dfc00215 	stw	ra,8(sp)
 10005f4:	df000115 	stw	fp,4(sp)
 10005f8:	df000104 	addi	fp,sp,4
 10005fc:	e13fff15 	stw	r4,-4(fp)
    printf("\nSuspend\n");
 1000600:	01004074 	movhi	r4,257
 1000604:	21279704 	addi	r4,r4,-24996
 1000608:	1006d340 	call	1006d34 <puts>
}
 100060c:	e037883a 	mov	sp,fp
 1000610:	dfc00117 	ldw	ra,4(sp)
 1000614:	df000017 	ldw	fp,0(sp)
 1000618:	dec00204 	addi	sp,sp,8
 100061c:	f800283a 	ret

01000620 <USB_WakeUpCfg_Event>:

void USB_WakeUpCfg_Event(sls_avalon_usb20sr_dev *usb20dev, unsigned char cfg)
{
 1000620:	defffc04 	addi	sp,sp,-16
 1000624:	dfc00315 	stw	ra,12(sp)
 1000628:	df000215 	stw	fp,8(sp)
 100062c:	df000204 	addi	fp,sp,8
 1000630:	e13ffe15 	stw	r4,-8(fp)
 1000634:	2805883a 	mov	r2,r5
 1000638:	e0bfff05 	stb	r2,-4(fp)
    printf("\nWakeUpCfgEvent\n");
 100063c:	01004074 	movhi	r4,257
 1000640:	21279a04 	addi	r4,r4,-24984
 1000644:	1006d340 	call	1006d34 <puts>
}
 1000648:	e037883a 	mov	sp,fp
 100064c:	dfc00117 	ldw	ra,4(sp)
 1000650:	df000017 	ldw	fp,0(sp)
 1000654:	dec00204 	addi	sp,sp,8
 1000658:	f800283a 	ret

0100065c <HandleClassSpecificControlRequests>:

void HandleClassSpecificControlRequests(volatile __CONTROL_REQUEST_STATUS *CONTROL_REQUEST_STATUS,
                                        volatile unsigned int base, char stage)
{
 100065c:	defffc04 	addi	sp,sp,-16
 1000660:	df000315 	stw	fp,12(sp)
 1000664:	df000304 	addi	fp,sp,12
 1000668:	e13ffd15 	stw	r4,-12(fp)
 100066c:	e17ffe15 	stw	r5,-8(fp)
 1000670:	3005883a 	mov	r2,r6
 1000674:	e0bfff05 	stb	r2,-4(fp)

}
 1000678:	e037883a 	mov	sp,fp
 100067c:	df000017 	ldw	fp,0(sp)
 1000680:	dec00104 	addi	sp,sp,4
 1000684:	f800283a 	ret

01000688 <HandleClassSpecificDescriptorRequests>:
void HandleClassSpecificDescriptorRequests(volatile __CONTROL_REQUEST_STATUS *CONTROL_REQUEST_STATUS,
											   volatile unsigned int base, char stage)
{
 1000688:	defffc04 	addi	sp,sp,-16
 100068c:	df000315 	stw	fp,12(sp)
 1000690:	df000304 	addi	fp,sp,12
 1000694:	e13ffd15 	stw	r4,-12(fp)
 1000698:	e17ffe15 	stw	r5,-8(fp)
 100069c:	3005883a 	mov	r2,r6
 10006a0:	e0bfff05 	stb	r2,-4(fp)

}
 10006a4:	e037883a 	mov	sp,fp
 10006a8:	df000017 	ldw	fp,0(sp)
 10006ac:	dec00104 	addi	sp,sp,4
 10006b0:	f800283a 	ret

010006b4 <usb20sr_error_event>:

#define PRINTF_USB_EVENT(str,...) printf(str,##__VA_ARGS__)

void usb20sr_error_event(int event)
{
 10006b4:	defffc04 	addi	sp,sp,-16
 10006b8:	dfc00315 	stw	ra,12(sp)
 10006bc:	df000215 	stw	fp,8(sp)
 10006c0:	df000204 	addi	fp,sp,8
 10006c4:	e13fff15 	stw	r4,-4(fp)
    volatile int data = event & ERROR_CODE_MASK;
 10006c8:	e0ffff17 	ldw	r3,-4(fp)
 10006cc:	00800834 	movhi	r2,32
 10006d0:	10a3ffc4 	addi	r2,r2,-28673
 10006d4:	1884703a 	and	r2,r3,r2
 10006d8:	e0bffe15 	stw	r2,-8(fp)

    if(event & EP_NO_FROM_GENERATED_ERROR_MASK)
 10006dc:	e0bfff17 	ldw	r2,-4(fp)
 10006e0:	10b3c02c 	andhi	r2,r2,52992
 10006e4:	10001f26 	beq	r2,zero,1000764 <usb20sr_error_event+0xb0>
    {
        if(((event & EP_TYPE_MASK) >> 30) == IN_EP_TYPE)
 10006e8:	e0bfff17 	ldw	r2,-4(fp)
 10006ec:	1004d7ba 	srli	r2,r2,30
 10006f0:	10800058 	cmpnei	r2,r2,1
 10006f4:	1000041e 	bne	r2,zero,1000708 <usb20sr_error_event+0x54>
            PRINTF_USB_EVENT("IN ");
 10006f8:	01004074 	movhi	r4,257
 10006fc:	21279e04 	addi	r4,r4,-24968
 1000700:	1006c680 	call	1006c68 <printf>
 1000704:	00000f06 	br	1000744 <usb20sr_error_event+0x90>
        else if(((event & EP_TYPE_MASK) >> 30) == OUT_EP_TYPE)
 1000708:	e0bfff17 	ldw	r2,-4(fp)
 100070c:	1004d7ba 	srli	r2,r2,30
 1000710:	10800098 	cmpnei	r2,r2,2
 1000714:	1000041e 	bne	r2,zero,1000728 <usb20sr_error_event+0x74>
            PRINTF_USB_EVENT("OUT ");
 1000718:	01004074 	movhi	r4,257
 100071c:	21279f04 	addi	r4,r4,-24964
 1000720:	1006c680 	call	1006c68 <printf>
 1000724:	00000706 	br	1000744 <usb20sr_error_event+0x90>
        else if(((event & EP_TYPE_MASK) >> 30) == CONTROL_EP_TYPE)
 1000728:	e0bfff17 	ldw	r2,-4(fp)
 100072c:	1004d7ba 	srli	r2,r2,30
 1000730:	108000d8 	cmpnei	r2,r2,3
 1000734:	1000031e 	bne	r2,zero,1000744 <usb20sr_error_event+0x90>
            PRINTF_USB_EVENT("CONTROL ");
 1000738:	01004074 	movhi	r4,257
 100073c:	2127a104 	addi	r4,r4,-24956
 1000740:	1006c680 	call	1006c68 <printf>

        PRINTF_USB_EVENT("Endpoint %d cause ", (event & EP_NO_MASK) >> 24);
 1000744:	e0bfff17 	ldw	r2,-4(fp)
 1000748:	1083c02c 	andhi	r2,r2,3840
 100074c:	1005d63a 	srai	r2,r2,24
 1000750:	01004074 	movhi	r4,257
 1000754:	2127a404 	addi	r4,r4,-24944
 1000758:	100b883a 	mov	r5,r2
 100075c:	1006c680 	call	1006c68 <printf>
 1000760:	00000306 	br	1000770 <usb20sr_error_event+0xbc>
    }
    else
        PRINTF_USB_EVENT("\nUSB cause ");
 1000764:	01004074 	movhi	r4,257
 1000768:	2127a904 	addi	r4,r4,-24924
 100076c:	1006c680 	call	1006c68 <printf>

    if(data & TIME_OUT_ERROR)
 1000770:	e0bffe17 	ldw	r2,-8(fp)
 1000774:	1080004c 	andi	r2,r2,1
 1000778:	10000326 	beq	r2,zero,1000788 <usb20sr_error_event+0xd4>
        PRINTF_USB_EVENT("TIME_OUT_ERROR\n");
 100077c:	01004074 	movhi	r4,257
 1000780:	2127ac04 	addi	r4,r4,-24912
 1000784:	1006d340 	call	1006d34 <puts>

    if(data & BAD_PCK_ERROR)
 1000788:	e0bffe17 	ldw	r2,-8(fp)
 100078c:	1080008c 	andi	r2,r2,2
 1000790:	10000326 	beq	r2,zero,10007a0 <usb20sr_error_event+0xec>
        PRINTF_USB_EVENT("BAD_PCK_ERROR\n");
 1000794:	01004074 	movhi	r4,257
 1000798:	2127b004 	addi	r4,r4,-24896
 100079c:	1006d340 	call	1006d34 <puts>

    if(data & UNEXPTED_PID_ERROR)
 10007a0:	e0bffe17 	ldw	r2,-8(fp)
 10007a4:	1080010c 	andi	r2,r2,4
 10007a8:	10000326 	beq	r2,zero,10007b8 <usb20sr_error_event+0x104>
        PRINTF_USB_EVENT("UNEXPECTED_PID_ERROR\n");
 10007ac:	01004074 	movhi	r4,257
 10007b0:	2127b404 	addi	r4,r4,-24880
 10007b4:	1006d340 	call	1006d34 <puts>

    if(data & PID_SEQ_ERROR)
 10007b8:	e0bffe17 	ldw	r2,-8(fp)
 10007bc:	1080080c 	andi	r2,r2,32
 10007c0:	10000326 	beq	r2,zero,10007d0 <usb20sr_error_event+0x11c>
        PRINTF_USB_EVENT("PID_SEQ_ERROR\n");
 10007c4:	01004074 	movhi	r4,257
 10007c8:	2127ba04 	addi	r4,r4,-24856
 10007cc:	1006d340 	call	1006d34 <puts>

    if(data & BAD_TCKN_ERROR)
 10007d0:	e0bffe17 	ldw	r2,-8(fp)
 10007d4:	1080400c 	andi	r2,r2,256
 10007d8:	10000326 	beq	r2,zero,10007e8 <usb20sr_error_event+0x134>
        PRINTF_USB_EVENT("BAD_TCKN_ERROR\n");
 10007dc:	01004074 	movhi	r4,257
 10007e0:	2127be04 	addi	r4,r4,-24840
 10007e4:	1006d340 	call	1006d34 <puts>

    if(data & PID_ERROR)
 10007e8:	e0bffe17 	ldw	r2,-8(fp)
 10007ec:	1080800c 	andi	r2,r2,512
 10007f0:	10000326 	beq	r2,zero,1000800 <usb20sr_error_event+0x14c>
        PRINTF_USB_EVENT("PID_ERROR\n");
 10007f4:	01004074 	movhi	r4,257
 10007f8:	2127c204 	addi	r4,r4,-24824
 10007fc:	1006d340 	call	1006d34 <puts>

    if(data & NO_EP_ERROR)
 1000800:	e0bffe17 	ldw	r2,-8(fp)
 1000804:	1081000c 	andi	r2,r2,1024
 1000808:	10000326 	beq	r2,zero,1000818 <usb20sr_error_event+0x164>
        PRINTF_USB_EVENT("NO_EP_ERROR\n");
 100080c:	01004074 	movhi	r4,257
 1000810:	2127c504 	addi	r4,r4,-24812
 1000814:	1006d340 	call	1006d34 <puts>

    if(data & UTMI_RX_ERROR)
 1000818:	e0bffe17 	ldw	r2,-8(fp)
 100081c:	10a0000c 	andi	r2,r2,32768
 1000820:	10000326 	beq	r2,zero,1000830 <usb20sr_error_event+0x17c>
        PRINTF_USB_EVENT("UTMI_RX_ERROR\n");
 1000824:	01004074 	movhi	r4,257
 1000828:	2127c804 	addi	r4,r4,-24800
 100082c:	1006d340 	call	1006d34 <puts>

    if(data & ISO_PKT_LOSS)
 1000830:	e0bffe17 	ldw	r2,-8(fp)
 1000834:	1080200c 	andi	r2,r2,128
 1000838:	10000326 	beq	r2,zero,1000848 <usb20sr_error_event+0x194>
        PRINTF_USB_EVENT("ISO_PKT_LOSS\n");
 100083c:	01004074 	movhi	r4,257
 1000840:	2127cc04 	addi	r4,r4,-24784
 1000844:	1006d340 	call	1006d34 <puts>
}
 1000848:	e037883a 	mov	sp,fp
 100084c:	dfc00117 	ldw	ra,4(sp)
 1000850:	df000017 	ldw	fp,0(sp)
 1000854:	dec00204 	addi	sp,sp,8
 1000858:	f800283a 	ret

0100085c <usb20sr_phy_register_enable>:
 100085c:	defffe04 	addi	sp,sp,-8
 1000860:	df000115 	stw	fp,4(sp)
 1000864:	df000104 	addi	fp,sp,4
 1000868:	e13fff15 	stw	r4,-4(fp)
 100086c:	e0bfff17 	ldw	r2,-4(fp)
 1000870:	10801517 	ldw	r2,84(r2)
 1000874:	10807c04 	addi	r2,r2,496
 1000878:	1007883a 	mov	r3,r2
 100087c:	00800044 	movi	r2,1
 1000880:	18800025 	stbio	r2,0(r3)
 1000884:	e037883a 	mov	sp,fp
 1000888:	df000017 	ldw	fp,0(sp)
 100088c:	dec00104 	addi	sp,sp,4
 1000890:	f800283a 	ret

01000894 <usb20sr_phy_register_disable>:
 1000894:	defffe04 	addi	sp,sp,-8
 1000898:	df000115 	stw	fp,4(sp)
 100089c:	df000104 	addi	fp,sp,4
 10008a0:	e13fff15 	stw	r4,-4(fp)
 10008a4:	e0bfff17 	ldw	r2,-4(fp)
 10008a8:	10801517 	ldw	r2,84(r2)
 10008ac:	10807c04 	addi	r2,r2,496
 10008b0:	10000025 	stbio	zero,0(r2)
 10008b4:	e037883a 	mov	sp,fp
 10008b8:	df000017 	ldw	fp,0(sp)
 10008bc:	dec00104 	addi	sp,sp,4
 10008c0:	f800283a 	ret

010008c4 <usb20sr_set_dev_speed>:
 10008c4:	defffd04 	addi	sp,sp,-12
 10008c8:	df000215 	stw	fp,8(sp)
 10008cc:	df000204 	addi	fp,sp,8
 10008d0:	e13ffe15 	stw	r4,-8(fp)
 10008d4:	e17fff15 	stw	r5,-4(fp)
 10008d8:	e0bffe17 	ldw	r2,-8(fp)
 10008dc:	10801517 	ldw	r2,84(r2)
 10008e0:	10807e04 	addi	r2,r2,504
 10008e4:	1007883a 	mov	r3,r2
 10008e8:	e0bfff17 	ldw	r2,-4(fp)
 10008ec:	18800025 	stbio	r2,0(r3)
 10008f0:	e037883a 	mov	sp,fp
 10008f4:	df000017 	ldw	fp,0(sp)
 10008f8:	dec00104 	addi	sp,sp,4
 10008fc:	f800283a 	ret

01000900 <usb20sr_get_dev_speed>:
 1000900:	defffe04 	addi	sp,sp,-8
 1000904:	df000115 	stw	fp,4(sp)
 1000908:	df000104 	addi	fp,sp,4
 100090c:	e13fff15 	stw	r4,-4(fp)
 1000910:	e0bfff17 	ldw	r2,-4(fp)
 1000914:	10800c17 	ldw	r2,48(r2)
 1000918:	e037883a 	mov	sp,fp
 100091c:	df000017 	ldw	fp,0(sp)
 1000920:	dec00104 	addi	sp,sp,4
 1000924:	f800283a 	ret

01000928 <usb20sr_phy_register_write>:
 1000928:	defffb04 	addi	sp,sp,-20
 100092c:	df000415 	stw	fp,16(sp)
 1000930:	df000404 	addi	fp,sp,16
 1000934:	e13ffd15 	stw	r4,-12(fp)
 1000938:	e17ffe15 	stw	r5,-8(fp)
 100093c:	e1bfff15 	stw	r6,-4(fp)
 1000940:	e03ffc15 	stw	zero,-16(fp)
 1000944:	e0bfff17 	ldw	r2,-4(fp)
 1000948:	1004923a 	slli	r2,r2,8
 100094c:	e0bfff15 	stw	r2,-4(fp)
 1000950:	e0fffe17 	ldw	r3,-8(fp)
 1000954:	e0bfff17 	ldw	r2,-4(fp)
 1000958:	1887883a 	add	r3,r3,r2
 100095c:	00804034 	movhi	r2,256
 1000960:	1885883a 	add	r2,r3,r2
 1000964:	e0bffc15 	stw	r2,-16(fp)
 1000968:	e0bffd17 	ldw	r2,-12(fp)
 100096c:	10801517 	ldw	r2,84(r2)
 1000970:	10807d04 	addi	r2,r2,500
 1000974:	1007883a 	mov	r3,r2
 1000978:	e0bffc17 	ldw	r2,-16(fp)
 100097c:	18800035 	stwio	r2,0(r3)
 1000980:	e0bffd17 	ldw	r2,-12(fp)
 1000984:	10801517 	ldw	r2,84(r2)
 1000988:	10807d04 	addi	r2,r2,500
 100098c:	10800037 	ldwio	r2,0(r2)
 1000990:	e037883a 	mov	sp,fp
 1000994:	df000017 	ldw	fp,0(sp)
 1000998:	dec00104 	addi	sp,sp,4
 100099c:	f800283a 	ret

010009a0 <usb20sr_phy_register_read>:
 10009a0:	defffb04 	addi	sp,sp,-20
 10009a4:	df000415 	stw	fp,16(sp)
 10009a8:	df000404 	addi	fp,sp,16
 10009ac:	e13ffd15 	stw	r4,-12(fp)
 10009b0:	e17ffe15 	stw	r5,-8(fp)
 10009b4:	e1bfff15 	stw	r6,-4(fp)
 10009b8:	e03ffc15 	stw	zero,-16(fp)
 10009bc:	e0fffe17 	ldw	r3,-8(fp)
 10009c0:	00808034 	movhi	r2,512
 10009c4:	1885883a 	add	r2,r3,r2
 10009c8:	e0bffc15 	stw	r2,-16(fp)
 10009cc:	e0bffd17 	ldw	r2,-12(fp)
 10009d0:	10801517 	ldw	r2,84(r2)
 10009d4:	10807d04 	addi	r2,r2,500
 10009d8:	1007883a 	mov	r3,r2
 10009dc:	e0bffc17 	ldw	r2,-16(fp)
 10009e0:	18800035 	stwio	r2,0(r3)
 10009e4:	e0bffd17 	ldw	r2,-12(fp)
 10009e8:	10801517 	ldw	r2,84(r2)
 10009ec:	10807d04 	addi	r2,r2,500
 10009f0:	10800037 	ldwio	r2,0(r2)
 10009f4:	e0bffd17 	ldw	r2,-12(fp)
 10009f8:	10801517 	ldw	r2,84(r2)
 10009fc:	10807d04 	addi	r2,r2,500
 1000a00:	10800037 	ldwio	r2,0(r2)
 1000a04:	1007d43a 	srai	r3,r2,16
 1000a08:	e0bfff17 	ldw	r2,-4(fp)
 1000a0c:	10c00015 	stw	r3,0(r2)
 1000a10:	e037883a 	mov	sp,fp
 1000a14:	df000017 	ldw	fp,0(sp)
 1000a18:	dec00104 	addi	sp,sp,4
 1000a1c:	f800283a 	ret

01000a20 <usb20sr_set_low_power_mode>:
 1000a20:	defffe04 	addi	sp,sp,-8
 1000a24:	df000115 	stw	fp,4(sp)
 1000a28:	df000104 	addi	fp,sp,4
 1000a2c:	e13fff15 	stw	r4,-4(fp)
 1000a30:	e0bfff17 	ldw	r2,-4(fp)
 1000a34:	10801517 	ldw	r2,84(r2)
 1000a38:	10807d04 	addi	r2,r2,500
 1000a3c:	1007883a 	mov	r3,r2
 1000a40:	00804034 	movhi	r2,256
 1000a44:	10800104 	addi	r2,r2,4
 1000a48:	18800035 	stwio	r2,0(r3)
 1000a4c:	e037883a 	mov	sp,fp
 1000a50:	df000017 	ldw	fp,0(sp)
 1000a54:	dec00104 	addi	sp,sp,4
 1000a58:	f800283a 	ret

01000a5c <get_current_micro_frame_no>:
 1000a5c:	defffe04 	addi	sp,sp,-8
 1000a60:	df000115 	stw	fp,4(sp)
 1000a64:	df000104 	addi	fp,sp,4
 1000a68:	e13fff15 	stw	r4,-4(fp)
 1000a6c:	e0bfff17 	ldw	r2,-4(fp)
 1000a70:	10801517 	ldw	r2,84(r2)
 1000a74:	10800504 	addi	r2,r2,20
 1000a78:	10800037 	ldwio	r2,0(r2)
 1000a7c:	10bc002c 	andhi	r2,r2,61440
 1000a80:	1004d73a 	srli	r2,r2,28
 1000a84:	e037883a 	mov	sp,fp
 1000a88:	df000017 	ldw	fp,0(sp)
 1000a8c:	dec00104 	addi	sp,sp,4
 1000a90:	f800283a 	ret

01000a94 <get_current_frame_no>:
 1000a94:	defffe04 	addi	sp,sp,-8
 1000a98:	df000115 	stw	fp,4(sp)
 1000a9c:	df000104 	addi	fp,sp,4
 1000aa0:	e13fff15 	stw	r4,-4(fp)
 1000aa4:	e0bfff17 	ldw	r2,-4(fp)
 1000aa8:	10801517 	ldw	r2,84(r2)
 1000aac:	10800504 	addi	r2,r2,20
 1000ab0:	10800037 	ldwio	r2,0(r2)
 1000ab4:	1081ffec 	andhi	r2,r2,2047
 1000ab8:	1005d43a 	srai	r2,r2,16
 1000abc:	e037883a 	mov	sp,fp
 1000ac0:	df000017 	ldw	fp,0(sp)
 1000ac4:	dec00104 	addi	sp,sp,4
 1000ac8:	f800283a 	ret

01000acc <get_sof_time>:
 1000acc:	defffe04 	addi	sp,sp,-8
 1000ad0:	df000115 	stw	fp,4(sp)
 1000ad4:	df000104 	addi	fp,sp,4
 1000ad8:	e13fff15 	stw	r4,-4(fp)
 1000adc:	e0bfff17 	ldw	r2,-4(fp)
 1000ae0:	10801517 	ldw	r2,84(r2)
 1000ae4:	10800504 	addi	r2,r2,20
 1000ae8:	10800037 	ldwio	r2,0(r2)
 1000aec:	1083ffcc 	andi	r2,r2,4095
 1000af0:	e037883a 	mov	sp,fp
 1000af4:	df000017 	ldw	fp,0(sp)
 1000af8:	dec00104 	addi	sp,sp,4
 1000afc:	f800283a 	ret

01000b00 <get_current_config>:
 1000b00:	defffe04 	addi	sp,sp,-8
 1000b04:	df000115 	stw	fp,4(sp)
 1000b08:	df000104 	addi	fp,sp,4
 1000b0c:	e13fff15 	stw	r4,-4(fp)
 1000b10:	e0bfff17 	ldw	r2,-4(fp)
 1000b14:	10802817 	ldw	r2,160(r2)
 1000b18:	e037883a 	mov	sp,fp
 1000b1c:	df000017 	ldw	fp,0(sp)
 1000b20:	dec00104 	addi	sp,sp,4
 1000b24:	f800283a 	ret

01000b28 <get_current_interface>:
 1000b28:	defffe04 	addi	sp,sp,-8
 1000b2c:	df000115 	stw	fp,4(sp)
 1000b30:	df000104 	addi	fp,sp,4
 1000b34:	e13fff15 	stw	r4,-4(fp)
 1000b38:	e0bfff17 	ldw	r2,-4(fp)
 1000b3c:	10802a17 	ldw	r2,168(r2)
 1000b40:	e037883a 	mov	sp,fp
 1000b44:	df000017 	ldw	fp,0(sp)
 1000b48:	dec00104 	addi	sp,sp,4
 1000b4c:	f800283a 	ret

01000b50 <get_current_alt_settings>:
 1000b50:	defffe04 	addi	sp,sp,-8
 1000b54:	df000115 	stw	fp,4(sp)
 1000b58:	df000104 	addi	fp,sp,4
 1000b5c:	e13fff15 	stw	r4,-4(fp)
 1000b60:	e0bfff17 	ldw	r2,-4(fp)
 1000b64:	10802b17 	ldw	r2,172(r2)
 1000b68:	e037883a 	mov	sp,fp
 1000b6c:	df000017 	ldw	fp,0(sp)
 1000b70:	dec00104 	addi	sp,sp,4
 1000b74:	f800283a 	ret

01000b78 <ifConfigured>:
 1000b78:	defffe04 	addi	sp,sp,-8
 1000b7c:	df000115 	stw	fp,4(sp)
 1000b80:	df000104 	addi	fp,sp,4
 1000b84:	e13fff15 	stw	r4,-4(fp)
 1000b88:	e0bfff17 	ldw	r2,-4(fp)
 1000b8c:	1081bc03 	ldbu	r2,1776(r2)
 1000b90:	10803fcc 	andi	r2,r2,255
 1000b94:	1080201c 	xori	r2,r2,128
 1000b98:	10bfe004 	addi	r2,r2,-128
 1000b9c:	e037883a 	mov	sp,fp
 1000ba0:	df000017 	ldw	fp,0(sp)
 1000ba4:	dec00104 	addi	sp,sp,4
 1000ba8:	f800283a 	ret

01000bac <SetRemoteWakeUp>:
 1000bac:	defffe04 	addi	sp,sp,-8
 1000bb0:	df000115 	stw	fp,4(sp)
 1000bb4:	df000104 	addi	fp,sp,4
 1000bb8:	e13fff15 	stw	r4,-4(fp)
 1000bbc:	e0bfff17 	ldw	r2,-4(fp)
 1000bc0:	10800f17 	ldw	r2,60(r2)
 1000bc4:	10800118 	cmpnei	r2,r2,4
 1000bc8:	1000051e 	bne	r2,zero,1000be0 <SetRemoteWakeUp+0x34>
 1000bcc:	e0bfff17 	ldw	r2,-4(fp)
 1000bd0:	10801517 	ldw	r2,84(r2)
 1000bd4:	1007883a 	mov	r3,r2
 1000bd8:	00802004 	movi	r2,128
 1000bdc:	18800035 	stwio	r2,0(r3)
 1000be0:	e037883a 	mov	sp,fp
 1000be4:	df000017 	ldw	fp,0(sp)
 1000be8:	dec00104 	addi	sp,sp,4
 1000bec:	f800283a 	ret

01000bf0 <USB_SetStallEP>:
 1000bf0:	defffc04 	addi	sp,sp,-16
 1000bf4:	df000315 	stw	fp,12(sp)
 1000bf8:	df000304 	addi	fp,sp,12
 1000bfc:	e13ffe15 	stw	r4,-8(fp)
 1000c00:	e17fff15 	stw	r5,-4(fp)
 1000c04:	e0bffe17 	ldw	r2,-8(fp)
 1000c08:	10801517 	ldw	r2,84(r2)
 1000c0c:	1007883a 	mov	r3,r2
 1000c10:	e0bfff17 	ldw	r2,-4(fp)
 1000c14:	108003cc 	andi	r2,r2,15
 1000c18:	1004913a 	slli	r2,r2,4
 1000c1c:	1885883a 	add	r2,r3,r2
 1000c20:	10801004 	addi	r2,r2,64
 1000c24:	10800037 	ldwio	r2,0(r2)
 1000c28:	e0bffd15 	stw	r2,-12(fp)
 1000c2c:	e0bffe17 	ldw	r2,-8(fp)
 1000c30:	10801517 	ldw	r2,84(r2)
 1000c34:	1007883a 	mov	r3,r2
 1000c38:	e0bfff17 	ldw	r2,-4(fp)
 1000c3c:	108003cc 	andi	r2,r2,15
 1000c40:	1004913a 	slli	r2,r2,4
 1000c44:	1885883a 	add	r2,r3,r2
 1000c48:	11001004 	addi	r4,r2,64
 1000c4c:	e0bffd17 	ldw	r2,-12(fp)
 1000c50:	10c02034 	orhi	r3,r2,128
 1000c54:	2005883a 	mov	r2,r4
 1000c58:	10c00035 	stwio	r3,0(r2)
 1000c5c:	e037883a 	mov	sp,fp
 1000c60:	df000017 	ldw	fp,0(sp)
 1000c64:	dec00104 	addi	sp,sp,4
 1000c68:	f800283a 	ret

01000c6c <USB_ClrStallEP>:
 1000c6c:	defffc04 	addi	sp,sp,-16
 1000c70:	df000315 	stw	fp,12(sp)
 1000c74:	df000304 	addi	fp,sp,12
 1000c78:	e13ffe15 	stw	r4,-8(fp)
 1000c7c:	e17fff15 	stw	r5,-4(fp)
 1000c80:	e0bffe17 	ldw	r2,-8(fp)
 1000c84:	10801517 	ldw	r2,84(r2)
 1000c88:	1007883a 	mov	r3,r2
 1000c8c:	e0bfff17 	ldw	r2,-4(fp)
 1000c90:	108003cc 	andi	r2,r2,15
 1000c94:	1004913a 	slli	r2,r2,4
 1000c98:	1885883a 	add	r2,r3,r2
 1000c9c:	10801004 	addi	r2,r2,64
 1000ca0:	10800037 	ldwio	r2,0(r2)
 1000ca4:	e0bffd15 	stw	r2,-12(fp)
 1000ca8:	e0bffe17 	ldw	r2,-8(fp)
 1000cac:	10801517 	ldw	r2,84(r2)
 1000cb0:	1007883a 	mov	r3,r2
 1000cb4:	e0bfff17 	ldw	r2,-4(fp)
 1000cb8:	108003cc 	andi	r2,r2,15
 1000cbc:	1004913a 	slli	r2,r2,4
 1000cc0:	1885883a 	add	r2,r3,r2
 1000cc4:	11001004 	addi	r4,r2,64
 1000cc8:	e0fffd17 	ldw	r3,-12(fp)
 1000ccc:	00b3d034 	movhi	r2,53056
 1000cd0:	10bfffc4 	addi	r2,r2,-1
 1000cd4:	1886703a 	and	r3,r3,r2
 1000cd8:	2005883a 	mov	r2,r4
 1000cdc:	10c00035 	stwio	r3,0(r2)
 1000ce0:	e037883a 	mov	sp,fp
 1000ce4:	df000017 	ldw	fp,0(sp)
 1000ce8:	dec00104 	addi	sp,sp,4
 1000cec:	f800283a 	ret

01000cf0 <usb_initialize_descriptor>:
 1000cf0:	defffb04 	addi	sp,sp,-20
 1000cf4:	df000415 	stw	fp,16(sp)
 1000cf8:	df000404 	addi	fp,sp,16
 1000cfc:	e13ffc15 	stw	r4,-16(fp)
 1000d00:	e17ffd15 	stw	r5,-12(fp)
 1000d04:	e1bffe15 	stw	r6,-8(fp)
 1000d08:	e1ffff15 	stw	r7,-4(fp)
 1000d0c:	e0bffd17 	ldw	r2,-12(fp)
 1000d10:	1007883a 	mov	r3,r2
 1000d14:	e0bffc17 	ldw	r2,-16(fp)
 1000d18:	10c00315 	stw	r3,12(r2)
 1000d1c:	e0bffe17 	ldw	r2,-8(fp)
 1000d20:	1007883a 	mov	r3,r2
 1000d24:	e0bffc17 	ldw	r2,-16(fp)
 1000d28:	10c00415 	stw	r3,16(r2)
 1000d2c:	e0bfff17 	ldw	r2,-4(fp)
 1000d30:	1007883a 	mov	r3,r2
 1000d34:	e0bffc17 	ldw	r2,-16(fp)
 1000d38:	10c00515 	stw	r3,20(r2)
 1000d3c:	e0800117 	ldw	r2,4(fp)
 1000d40:	1007883a 	mov	r3,r2
 1000d44:	e0bffc17 	ldw	r2,-16(fp)
 1000d48:	10c00615 	stw	r3,24(r2)
 1000d4c:	e0800517 	ldw	r2,20(fp)
 1000d50:	1007883a 	mov	r3,r2
 1000d54:	e0bffc17 	ldw	r2,-16(fp)
 1000d58:	10c00715 	stw	r3,28(r2)
 1000d5c:	e0800617 	ldw	r2,24(fp)
 1000d60:	1007883a 	mov	r3,r2
 1000d64:	e0bffc17 	ldw	r2,-16(fp)
 1000d68:	10c00815 	stw	r3,32(r2)
 1000d6c:	e0800817 	ldw	r2,32(fp)
 1000d70:	1007883a 	mov	r3,r2
 1000d74:	e0bffc17 	ldw	r2,-16(fp)
 1000d78:	10c00915 	stw	r3,36(r2)
 1000d7c:	e0800917 	ldw	r2,36(fp)
 1000d80:	1007883a 	mov	r3,r2
 1000d84:	e0bffc17 	ldw	r2,-16(fp)
 1000d88:	10c00a15 	stw	r3,40(r2)
 1000d8c:	e0800a17 	ldw	r2,40(fp)
 1000d90:	1007883a 	mov	r3,r2
 1000d94:	e0bffc17 	ldw	r2,-16(fp)
 1000d98:	10c00b15 	stw	r3,44(r2)
 1000d9c:	e0fffc17 	ldw	r3,-16(fp)
 1000da0:	e0800217 	ldw	r2,8(fp)
 1000da4:	18802f15 	stw	r2,188(r3)
 1000da8:	e0fffc17 	ldw	r3,-16(fp)
 1000dac:	e0800317 	ldw	r2,12(fp)
 1000db0:	18803015 	stw	r2,192(r3)
 1000db4:	e0fffc17 	ldw	r3,-16(fp)
 1000db8:	e0800417 	ldw	r2,16(fp)
 1000dbc:	18803115 	stw	r2,196(r3)
 1000dc0:	e0fffc17 	ldw	r3,-16(fp)
 1000dc4:	e0800717 	ldw	r2,28(fp)
 1000dc8:	18801815 	stw	r2,96(r3)
 1000dcc:	e0bffc17 	ldw	r2,-16(fp)
 1000dd0:	10003815 	stw	zero,224(r2)
 1000dd4:	e0bffc17 	ldw	r2,-16(fp)
 1000dd8:	10003915 	stw	zero,228(r2)
 1000ddc:	e0bffc17 	ldw	r2,-16(fp)
 1000de0:	10003615 	stw	zero,216(r2)
 1000de4:	e0bffc17 	ldw	r2,-16(fp)
 1000de8:	10003715 	stw	zero,220(r2)
 1000dec:	e0bffc17 	ldw	r2,-16(fp)
 1000df0:	10003a15 	stw	zero,232(r2)
 1000df4:	e0bffc17 	ldw	r2,-16(fp)
 1000df8:	10003b15 	stw	zero,236(r2)
 1000dfc:	e037883a 	mov	sp,fp
 1000e00:	df000017 	ldw	fp,0(sp)
 1000e04:	dec00104 	addi	sp,sp,4
 1000e08:	f800283a 	ret

01000e0c <usb_ep_config>:
 1000e0c:	defffb04 	addi	sp,sp,-20
 1000e10:	df000415 	stw	fp,16(sp)
 1000e14:	df000404 	addi	fp,sp,16
 1000e18:	e13ffc15 	stw	r4,-16(fp)
 1000e1c:	e17ffd15 	stw	r5,-12(fp)
 1000e20:	e1bffe15 	stw	r6,-8(fp)
 1000e24:	e1ffff15 	stw	r7,-4(fp)
 1000e28:	e0fffc17 	ldw	r3,-16(fp)
 1000e2c:	e0bffd17 	ldw	r2,-12(fp)
 1000e30:	18801915 	stw	r2,100(r3)
 1000e34:	e0fffe17 	ldw	r3,-8(fp)
 1000e38:	e0bffc17 	ldw	r2,-16(fp)
 1000e3c:	10c01a15 	stw	r3,104(r2)
 1000e40:	e0bfff17 	ldw	r2,-4(fp)
 1000e44:	1007883a 	mov	r3,r2
 1000e48:	e0bffc17 	ldw	r2,-16(fp)
 1000e4c:	10c01b15 	stw	r3,108(r2)
 1000e50:	e0800117 	ldw	r2,4(fp)
 1000e54:	1007883a 	mov	r3,r2
 1000e58:	e0bffc17 	ldw	r2,-16(fp)
 1000e5c:	10c01c15 	stw	r3,112(r2)
 1000e60:	e0800217 	ldw	r2,8(fp)
 1000e64:	1007883a 	mov	r3,r2
 1000e68:	e0bffc17 	ldw	r2,-16(fp)
 1000e6c:	10c01d15 	stw	r3,116(r2)
 1000e70:	e0800317 	ldw	r2,12(fp)
 1000e74:	1007883a 	mov	r3,r2
 1000e78:	e0bffc17 	ldw	r2,-16(fp)
 1000e7c:	10c01e15 	stw	r3,120(r2)
 1000e80:	e0800417 	ldw	r2,16(fp)
 1000e84:	1007883a 	mov	r3,r2
 1000e88:	e0bffc17 	ldw	r2,-16(fp)
 1000e8c:	10c01f15 	stw	r3,124(r2)
 1000e90:	e0800517 	ldw	r2,20(fp)
 1000e94:	1007883a 	mov	r3,r2
 1000e98:	e0bffc17 	ldw	r2,-16(fp)
 1000e9c:	10c02015 	stw	r3,128(r2)
 1000ea0:	e0800617 	ldw	r2,24(fp)
 1000ea4:	1007883a 	mov	r3,r2
 1000ea8:	e0bffc17 	ldw	r2,-16(fp)
 1000eac:	10c02115 	stw	r3,132(r2)
 1000eb0:	e0800717 	ldw	r2,28(fp)
 1000eb4:	1007883a 	mov	r3,r2
 1000eb8:	e0bffc17 	ldw	r2,-16(fp)
 1000ebc:	10c02215 	stw	r3,136(r2)
 1000ec0:	e0800817 	ldw	r2,32(fp)
 1000ec4:	1007883a 	mov	r3,r2
 1000ec8:	e0bffc17 	ldw	r2,-16(fp)
 1000ecc:	10c02315 	stw	r3,140(r2)
 1000ed0:	e0800917 	ldw	r2,36(fp)
 1000ed4:	1007883a 	mov	r3,r2
 1000ed8:	e0bffc17 	ldw	r2,-16(fp)
 1000edc:	10c02415 	stw	r3,144(r2)
 1000ee0:	e0800a17 	ldw	r2,40(fp)
 1000ee4:	1007883a 	mov	r3,r2
 1000ee8:	e0bffc17 	ldw	r2,-16(fp)
 1000eec:	10c02515 	stw	r3,148(r2)
 1000ef0:	e0800b17 	ldw	r2,44(fp)
 1000ef4:	1007883a 	mov	r3,r2
 1000ef8:	e0bffc17 	ldw	r2,-16(fp)
 1000efc:	10c02615 	stw	r3,152(r2)
 1000f00:	e037883a 	mov	sp,fp
 1000f04:	df000017 	ldw	fp,0(sp)
 1000f08:	dec00104 	addi	sp,sp,4
 1000f0c:	f800283a 	ret

01000f10 <dma_config>:
 1000f10:	defffb04 	addi	sp,sp,-20
 1000f14:	df000415 	stw	fp,16(sp)
 1000f18:	df000404 	addi	fp,sp,16
 1000f1c:	e13ffc15 	stw	r4,-16(fp)
 1000f20:	e17ffd15 	stw	r5,-12(fp)
 1000f24:	e1bffe15 	stw	r6,-8(fp)
 1000f28:	e1ffff15 	stw	r7,-4(fp)
 1000f2c:	e0800117 	ldw	r2,4(fp)
 1000f30:	1004c03a 	cmpne	r2,r2,zero
 1000f34:	10000a1e 	bne	r2,zero,1000f60 <dma_config+0x50>
 1000f38:	e0fffd17 	ldw	r3,-12(fp)
 1000f3c:	e0bffc17 	ldw	r2,-16(fp)
 1000f40:	10c01215 	stw	r3,72(r2)
 1000f44:	e0fffe17 	ldw	r3,-8(fp)
 1000f48:	e0bffc17 	ldw	r2,-16(fp)
 1000f4c:	10c01415 	stw	r3,80(r2)
 1000f50:	e0ffff17 	ldw	r3,-4(fp)
 1000f54:	e0bffc17 	ldw	r2,-16(fp)
 1000f58:	10c01315 	stw	r3,76(r2)
 1000f5c:	00000906 	br	1000f84 <dma_config+0x74>
 1000f60:	e0fffd17 	ldw	r3,-12(fp)
 1000f64:	e0bffc17 	ldw	r2,-16(fp)
 1000f68:	10c01715 	stw	r3,92(r2)
 1000f6c:	e0fffe17 	ldw	r3,-8(fp)
 1000f70:	e0bffc17 	ldw	r2,-16(fp)
 1000f74:	10c01115 	stw	r3,68(r2)
 1000f78:	e0ffff17 	ldw	r3,-4(fp)
 1000f7c:	e0bffc17 	ldw	r2,-16(fp)
 1000f80:	10c00215 	stw	r3,8(r2)
 1000f84:	e037883a 	mov	sp,fp
 1000f88:	df000017 	ldw	fp,0(sp)
 1000f8c:	dec00104 	addi	sp,sp,4
 1000f90:	f800283a 	ret

01000f94 <USB_EnableEP>:
 1000f94:	defff804 	addi	sp,sp,-32
 1000f98:	df000715 	stw	fp,28(sp)
 1000f9c:	df000704 	addi	fp,sp,28
 1000fa0:	e13ffe15 	stw	r4,-8(fp)
 1000fa4:	e17fff15 	stw	r5,-4(fp)
 1000fa8:	e0bffe17 	ldw	r2,-8(fp)
 1000fac:	10c01a17 	ldw	r3,104(r2)
 1000fb0:	e0bffe17 	ldw	r2,-8(fp)
 1000fb4:	10802817 	ldw	r2,160(r2)
 1000fb8:	1085883a 	add	r2,r2,r2
 1000fbc:	1085883a 	add	r2,r2,r2
 1000fc0:	1885883a 	add	r2,r3,r2
 1000fc4:	10bfff04 	addi	r2,r2,-4
 1000fc8:	10800017 	ldw	r2,0(r2)
 1000fcc:	e0bff915 	stw	r2,-28(fp)
 1000fd0:	e0bff917 	ldw	r2,-28(fp)
 1000fd4:	10ffffcc 	andi	r3,r2,65535
 1000fd8:	e0bfff17 	ldw	r2,-4(fp)
 1000fdc:	10bfffc4 	addi	r2,r2,-1
 1000fe0:	1885d83a 	sra	r2,r3,r2
 1000fe4:	1080004c 	andi	r2,r2,1
 1000fe8:	10803fcc 	andi	r2,r2,255
 1000fec:	1005003a 	cmpeq	r2,r2,zero
 1000ff0:	1001341e 	bne	r2,zero,10014c4 <USB_EnableEP+0x530>
 1000ff4:	e0bffe17 	ldw	r2,-8(fp)
 1000ff8:	10800c17 	ldw	r2,48(r2)
 1000ffc:	10800058 	cmpnei	r2,r2,1
 1001000:	1000391e 	bne	r2,zero,10010e8 <USB_EnableEP+0x154>
 1001004:	e0bffe17 	ldw	r2,-8(fp)
 1001008:	10c01b17 	ldw	r3,108(r2)
 100100c:	e0bffe17 	ldw	r2,-8(fp)
 1001010:	10802817 	ldw	r2,160(r2)
 1001014:	1085883a 	add	r2,r2,r2
 1001018:	1085883a 	add	r2,r2,r2
 100101c:	1887883a 	add	r3,r3,r2
 1001020:	e0bfff17 	ldw	r2,-4(fp)
 1001024:	1085883a 	add	r2,r2,r2
 1001028:	1085883a 	add	r2,r2,r2
 100102c:	1885883a 	add	r2,r3,r2
 1001030:	10bffe04 	addi	r2,r2,-8
 1001034:	10800017 	ldw	r2,0(r2)
 1001038:	e0bffa15 	stw	r2,-24(fp)
 100103c:	e0bffe17 	ldw	r2,-8(fp)
 1001040:	10c02417 	ldw	r3,144(r2)
 1001044:	e0bffe17 	ldw	r2,-8(fp)
 1001048:	10802817 	ldw	r2,160(r2)
 100104c:	1085883a 	add	r2,r2,r2
 1001050:	1085883a 	add	r2,r2,r2
 1001054:	1887883a 	add	r3,r3,r2
 1001058:	e0bfff17 	ldw	r2,-4(fp)
 100105c:	1085883a 	add	r2,r2,r2
 1001060:	1085883a 	add	r2,r2,r2
 1001064:	1885883a 	add	r2,r3,r2
 1001068:	10bffe04 	addi	r2,r2,-8
 100106c:	10800017 	ldw	r2,0(r2)
 1001070:	e0bffd15 	stw	r2,-12(fp)
 1001074:	e0bffe17 	ldw	r2,-8(fp)
 1001078:	10c01e17 	ldw	r3,120(r2)
 100107c:	e0bffe17 	ldw	r2,-8(fp)
 1001080:	10802817 	ldw	r2,160(r2)
 1001084:	1085883a 	add	r2,r2,r2
 1001088:	1085883a 	add	r2,r2,r2
 100108c:	1887883a 	add	r3,r3,r2
 1001090:	e0bfff17 	ldw	r2,-4(fp)
 1001094:	1085883a 	add	r2,r2,r2
 1001098:	1085883a 	add	r2,r2,r2
 100109c:	1885883a 	add	r2,r3,r2
 10010a0:	10bffe04 	addi	r2,r2,-8
 10010a4:	10800017 	ldw	r2,0(r2)
 10010a8:	e0bffc15 	stw	r2,-16(fp)
 10010ac:	e0bffe17 	ldw	r2,-8(fp)
 10010b0:	10c01f17 	ldw	r3,124(r2)
 10010b4:	e0bffe17 	ldw	r2,-8(fp)
 10010b8:	10802817 	ldw	r2,160(r2)
 10010bc:	1085883a 	add	r2,r2,r2
 10010c0:	1085883a 	add	r2,r2,r2
 10010c4:	1887883a 	add	r3,r3,r2
 10010c8:	e0bfff17 	ldw	r2,-4(fp)
 10010cc:	1085883a 	add	r2,r2,r2
 10010d0:	1085883a 	add	r2,r2,r2
 10010d4:	1885883a 	add	r2,r3,r2
 10010d8:	10bffe04 	addi	r2,r2,-8
 10010dc:	10800017 	ldw	r2,0(r2)
 10010e0:	e0bffb15 	stw	r2,-20(fp)
 10010e4:	00007906 	br	10012cc <USB_EnableEP+0x338>
 10010e8:	e0bffe17 	ldw	r2,-8(fp)
 10010ec:	10800c17 	ldw	r2,48(r2)
 10010f0:	1004c03a 	cmpne	r2,r2,zero
 10010f4:	1000391e 	bne	r2,zero,10011dc <USB_EnableEP+0x248>
 10010f8:	e0bffe17 	ldw	r2,-8(fp)
 10010fc:	10c01c17 	ldw	r3,112(r2)
 1001100:	e0bffe17 	ldw	r2,-8(fp)
 1001104:	10802817 	ldw	r2,160(r2)
 1001108:	1085883a 	add	r2,r2,r2
 100110c:	1085883a 	add	r2,r2,r2
 1001110:	1887883a 	add	r3,r3,r2
 1001114:	e0bfff17 	ldw	r2,-4(fp)
 1001118:	1085883a 	add	r2,r2,r2
 100111c:	1085883a 	add	r2,r2,r2
 1001120:	1885883a 	add	r2,r3,r2
 1001124:	10bffe04 	addi	r2,r2,-8
 1001128:	10800017 	ldw	r2,0(r2)
 100112c:	e0bffa15 	stw	r2,-24(fp)
 1001130:	e0bffe17 	ldw	r2,-8(fp)
 1001134:	10c02517 	ldw	r3,148(r2)
 1001138:	e0bffe17 	ldw	r2,-8(fp)
 100113c:	10802817 	ldw	r2,160(r2)
 1001140:	1085883a 	add	r2,r2,r2
 1001144:	1085883a 	add	r2,r2,r2
 1001148:	1887883a 	add	r3,r3,r2
 100114c:	e0bfff17 	ldw	r2,-4(fp)
 1001150:	1085883a 	add	r2,r2,r2
 1001154:	1085883a 	add	r2,r2,r2
 1001158:	1885883a 	add	r2,r3,r2
 100115c:	10bffe04 	addi	r2,r2,-8
 1001160:	10800017 	ldw	r2,0(r2)
 1001164:	e0bffd15 	stw	r2,-12(fp)
 1001168:	e0bffe17 	ldw	r2,-8(fp)
 100116c:	10c02017 	ldw	r3,128(r2)
 1001170:	e0bffe17 	ldw	r2,-8(fp)
 1001174:	10802817 	ldw	r2,160(r2)
 1001178:	1085883a 	add	r2,r2,r2
 100117c:	1085883a 	add	r2,r2,r2
 1001180:	1887883a 	add	r3,r3,r2
 1001184:	e0bfff17 	ldw	r2,-4(fp)
 1001188:	1085883a 	add	r2,r2,r2
 100118c:	1085883a 	add	r2,r2,r2
 1001190:	1885883a 	add	r2,r3,r2
 1001194:	10bffe04 	addi	r2,r2,-8
 1001198:	10800017 	ldw	r2,0(r2)
 100119c:	e0bffc15 	stw	r2,-16(fp)
 10011a0:	e0bffe17 	ldw	r2,-8(fp)
 10011a4:	10c02117 	ldw	r3,132(r2)
 10011a8:	e0bffe17 	ldw	r2,-8(fp)
 10011ac:	10802817 	ldw	r2,160(r2)
 10011b0:	1085883a 	add	r2,r2,r2
 10011b4:	1085883a 	add	r2,r2,r2
 10011b8:	1887883a 	add	r3,r3,r2
 10011bc:	e0bfff17 	ldw	r2,-4(fp)
 10011c0:	1085883a 	add	r2,r2,r2
 10011c4:	1085883a 	add	r2,r2,r2
 10011c8:	1885883a 	add	r2,r3,r2
 10011cc:	10bffe04 	addi	r2,r2,-8
 10011d0:	10800017 	ldw	r2,0(r2)
 10011d4:	e0bffb15 	stw	r2,-20(fp)
 10011d8:	00003c06 	br	10012cc <USB_EnableEP+0x338>
 10011dc:	e0bffe17 	ldw	r2,-8(fp)
 10011e0:	10800c17 	ldw	r2,48(r2)
 10011e4:	10800098 	cmpnei	r2,r2,2
 10011e8:	1000381e 	bne	r2,zero,10012cc <USB_EnableEP+0x338>
 10011ec:	e0bffe17 	ldw	r2,-8(fp)
 10011f0:	10c01d17 	ldw	r3,116(r2)
 10011f4:	e0bffe17 	ldw	r2,-8(fp)
 10011f8:	10802817 	ldw	r2,160(r2)
 10011fc:	1085883a 	add	r2,r2,r2
 1001200:	1085883a 	add	r2,r2,r2
 1001204:	1887883a 	add	r3,r3,r2
 1001208:	e0bfff17 	ldw	r2,-4(fp)
 100120c:	1085883a 	add	r2,r2,r2
 1001210:	1085883a 	add	r2,r2,r2
 1001214:	1885883a 	add	r2,r3,r2
 1001218:	10bffe04 	addi	r2,r2,-8
 100121c:	10800017 	ldw	r2,0(r2)
 1001220:	e0bffa15 	stw	r2,-24(fp)
 1001224:	e0bffe17 	ldw	r2,-8(fp)
 1001228:	10c02617 	ldw	r3,152(r2)
 100122c:	e0bffe17 	ldw	r2,-8(fp)
 1001230:	10802817 	ldw	r2,160(r2)
 1001234:	1085883a 	add	r2,r2,r2
 1001238:	1085883a 	add	r2,r2,r2
 100123c:	1887883a 	add	r3,r3,r2
 1001240:	e0bfff17 	ldw	r2,-4(fp)
 1001244:	1085883a 	add	r2,r2,r2
 1001248:	1085883a 	add	r2,r2,r2
 100124c:	1885883a 	add	r2,r3,r2
 1001250:	10bffe04 	addi	r2,r2,-8
 1001254:	10800017 	ldw	r2,0(r2)
 1001258:	e0bffd15 	stw	r2,-12(fp)
 100125c:	e0bffe17 	ldw	r2,-8(fp)
 1001260:	10c02217 	ldw	r3,136(r2)
 1001264:	e0bffe17 	ldw	r2,-8(fp)
 1001268:	10802817 	ldw	r2,160(r2)
 100126c:	1085883a 	add	r2,r2,r2
 1001270:	1085883a 	add	r2,r2,r2
 1001274:	1887883a 	add	r3,r3,r2
 1001278:	e0bfff17 	ldw	r2,-4(fp)
 100127c:	1085883a 	add	r2,r2,r2
 1001280:	1085883a 	add	r2,r2,r2
 1001284:	1885883a 	add	r2,r3,r2
 1001288:	10bffe04 	addi	r2,r2,-8
 100128c:	10800017 	ldw	r2,0(r2)
 1001290:	e0bffc15 	stw	r2,-16(fp)
 1001294:	e0bffe17 	ldw	r2,-8(fp)
 1001298:	10c02317 	ldw	r3,140(r2)
 100129c:	e0bffe17 	ldw	r2,-8(fp)
 10012a0:	10802817 	ldw	r2,160(r2)
 10012a4:	1085883a 	add	r2,r2,r2
 10012a8:	1085883a 	add	r2,r2,r2
 10012ac:	1887883a 	add	r3,r3,r2
 10012b0:	e0bfff17 	ldw	r2,-4(fp)
 10012b4:	1085883a 	add	r2,r2,r2
 10012b8:	1085883a 	add	r2,r2,r2
 10012bc:	1885883a 	add	r2,r3,r2
 10012c0:	10bffe04 	addi	r2,r2,-8
 10012c4:	10800017 	ldw	r2,0(r2)
 10012c8:	e0bffb15 	stw	r2,-20(fp)
 10012cc:	e0bffe17 	ldw	r2,-8(fp)
 10012d0:	10801517 	ldw	r2,84(r2)
 10012d4:	1007883a 	mov	r3,r2
 10012d8:	e0bfff17 	ldw	r2,-4(fp)
 10012dc:	1004913a 	slli	r2,r2,4
 10012e0:	1885883a 	add	r2,r3,r2
 10012e4:	10801004 	addi	r2,r2,64
 10012e8:	1007883a 	mov	r3,r2
 10012ec:	e0bffa17 	ldw	r2,-24(fp)
 10012f0:	18800035 	stwio	r2,0(r3)
 10012f4:	e0bffe17 	ldw	r2,-8(fp)
 10012f8:	10801517 	ldw	r2,84(r2)
 10012fc:	1007883a 	mov	r3,r2
 1001300:	e0bfff17 	ldw	r2,-4(fp)
 1001304:	1004913a 	slli	r2,r2,4
 1001308:	1885883a 	add	r2,r3,r2
 100130c:	10801104 	addi	r2,r2,68
 1001310:	1007883a 	mov	r3,r2
 1001314:	e0bffd17 	ldw	r2,-12(fp)
 1001318:	18800035 	stwio	r2,0(r3)
 100131c:	e13fff17 	ldw	r4,-4(fp)
 1001320:	e0bffc17 	ldw	r2,-16(fp)
 1001324:	109fffac 	andhi	r2,r2,32766
 1001328:	1005d47a 	srai	r2,r2,17
 100132c:	100b883a 	mov	r5,r2
 1001330:	e0fffe17 	ldw	r3,-8(fp)
 1001334:	2105883a 	add	r2,r4,r4
 1001338:	1085883a 	add	r2,r2,r2
 100133c:	10c5883a 	add	r2,r2,r3
 1001340:	10815a04 	addi	r2,r2,1384
 1001344:	11400015 	stw	r5,0(r2)
 1001348:	e13fff17 	ldw	r4,-4(fp)
 100134c:	e0fffc17 	ldw	r3,-16(fp)
 1001350:	008000b4 	movhi	r2,2
 1001354:	10bfffc4 	addi	r2,r2,-1
 1001358:	188a703a 	and	r5,r3,r2
 100135c:	e0fffe17 	ldw	r3,-8(fp)
 1001360:	2105883a 	add	r2,r4,r4
 1001364:	1085883a 	add	r2,r2,r2
 1001368:	10c5883a 	add	r2,r2,r3
 100136c:	10817a04 	addi	r2,r2,1512
 1001370:	11400015 	stw	r5,0(r2)
 1001374:	e0bffe17 	ldw	r2,-8(fp)
 1001378:	10801517 	ldw	r2,84(r2)
 100137c:	1007883a 	mov	r3,r2
 1001380:	e0bfff17 	ldw	r2,-4(fp)
 1001384:	1004913a 	slli	r2,r2,4
 1001388:	1885883a 	add	r2,r3,r2
 100138c:	10801204 	addi	r2,r2,72
 1001390:	1007883a 	mov	r3,r2
 1001394:	e0bffc17 	ldw	r2,-16(fp)
 1001398:	18800035 	stwio	r2,0(r3)
 100139c:	e13fff17 	ldw	r4,-4(fp)
 10013a0:	e0bffb17 	ldw	r2,-20(fp)
 10013a4:	109fffac 	andhi	r2,r2,32766
 10013a8:	1005d47a 	srai	r2,r2,17
 10013ac:	100b883a 	mov	r5,r2
 10013b0:	e0fffe17 	ldw	r3,-8(fp)
 10013b4:	2105883a 	add	r2,r4,r4
 10013b8:	1085883a 	add	r2,r2,r2
 10013bc:	10c5883a 	add	r2,r2,r3
 10013c0:	10816a04 	addi	r2,r2,1448
 10013c4:	11400015 	stw	r5,0(r2)
 10013c8:	e13fff17 	ldw	r4,-4(fp)
 10013cc:	e0fffb17 	ldw	r3,-20(fp)
 10013d0:	008000b4 	movhi	r2,2
 10013d4:	10bfffc4 	addi	r2,r2,-1
 10013d8:	188a703a 	and	r5,r3,r2
 10013dc:	e0fffe17 	ldw	r3,-8(fp)
 10013e0:	2105883a 	add	r2,r4,r4
 10013e4:	1085883a 	add	r2,r2,r2
 10013e8:	10c5883a 	add	r2,r2,r3
 10013ec:	10818a04 	addi	r2,r2,1576
 10013f0:	11400015 	stw	r5,0(r2)
 10013f4:	e0bffe17 	ldw	r2,-8(fp)
 10013f8:	10801517 	ldw	r2,84(r2)
 10013fc:	1007883a 	mov	r3,r2
 1001400:	e0bfff17 	ldw	r2,-4(fp)
 1001404:	1004913a 	slli	r2,r2,4
 1001408:	1885883a 	add	r2,r3,r2
 100140c:	10801304 	addi	r2,r2,76
 1001410:	1007883a 	mov	r3,r2
 1001414:	e0bffb17 	ldw	r2,-20(fp)
 1001418:	18800035 	stwio	r2,0(r3)
 100141c:	e13fff17 	ldw	r4,-4(fp)
 1001420:	e0bfff17 	ldw	r2,-4(fp)
 1001424:	1085883a 	add	r2,r2,r2
 1001428:	1085883a 	add	r2,r2,r2
 100142c:	10800484 	addi	r2,r2,18
 1001430:	1007883a 	mov	r3,r2
 1001434:	e0bffe17 	ldw	r2,-8(fp)
 1001438:	2085883a 	add	r2,r4,r2
 100143c:	10819a04 	addi	r2,r2,1640
 1001440:	10c00005 	stb	r3,0(r2)
 1001444:	e13fff17 	ldw	r4,-4(fp)
 1001448:	e0bfff17 	ldw	r2,-4(fp)
 100144c:	1085883a 	add	r2,r2,r2
 1001450:	1085883a 	add	r2,r2,r2
 1001454:	108004c4 	addi	r2,r2,19
 1001458:	1007883a 	mov	r3,r2
 100145c:	e0bffe17 	ldw	r2,-8(fp)
 1001460:	2085883a 	add	r2,r4,r2
 1001464:	10819e04 	addi	r2,r2,1656
 1001468:	10c00005 	stb	r3,0(r2)
 100146c:	e13fff17 	ldw	r4,-4(fp)
 1001470:	e0bfff17 	ldw	r2,-4(fp)
 1001474:	e0fffe17 	ldw	r3,-8(fp)
 1001478:	1085883a 	add	r2,r2,r2
 100147c:	1085883a 	add	r2,r2,r2
 1001480:	10c5883a 	add	r2,r2,r3
 1001484:	10815a04 	addi	r2,r2,1384
 1001488:	11400017 	ldw	r5,0(r2)
 100148c:	e0fffe17 	ldw	r3,-8(fp)
 1001490:	2105883a 	add	r2,r4,r4
 1001494:	1085883a 	add	r2,r2,r2
 1001498:	10c5883a 	add	r2,r2,r3
 100149c:	10814a04 	addi	r2,r2,1320
 10014a0:	11400015 	stw	r5,0(r2)
 10014a4:	e0bfff17 	ldw	r2,-4(fp)
 10014a8:	e0fffe17 	ldw	r3,-8(fp)
 10014ac:	1085883a 	add	r2,r2,r2
 10014b0:	1085883a 	add	r2,r2,r2
 10014b4:	10c5883a 	add	r2,r2,r3
 10014b8:	10c10a04 	addi	r3,r2,1064
 10014bc:	0085c034 	movhi	r2,5888
 10014c0:	18800015 	stw	r2,0(r3)
 10014c4:	e0bff917 	ldw	r2,-28(fp)
 10014c8:	1007d3fa 	srai	r3,r2,15
 10014cc:	e0bfff17 	ldw	r2,-4(fp)
 10014d0:	1885d83a 	sra	r2,r3,r2
 10014d4:	1080004c 	andi	r2,r2,1
 10014d8:	10803fcc 	andi	r2,r2,255
 10014dc:	1005003a 	cmpeq	r2,r2,zero
 10014e0:	1001371e 	bne	r2,zero,10019c0 <USB_EnableEP+0xa2c>
 10014e4:	e0bfff17 	ldw	r2,-4(fp)
 10014e8:	108003cc 	andi	r2,r2,15
 10014ec:	e0bfff15 	stw	r2,-4(fp)
 10014f0:	e0bffe17 	ldw	r2,-8(fp)
 10014f4:	10800c17 	ldw	r2,48(r2)
 10014f8:	10800058 	cmpnei	r2,r2,1
 10014fc:	1000391e 	bne	r2,zero,10015e4 <USB_EnableEP+0x650>
 1001500:	e0bffe17 	ldw	r2,-8(fp)
 1001504:	10c01b17 	ldw	r3,108(r2)
 1001508:	e0bffe17 	ldw	r2,-8(fp)
 100150c:	10802817 	ldw	r2,160(r2)
 1001510:	1085883a 	add	r2,r2,r2
 1001514:	1085883a 	add	r2,r2,r2
 1001518:	1887883a 	add	r3,r3,r2
 100151c:	e0bfff17 	ldw	r2,-4(fp)
 1001520:	1085883a 	add	r2,r2,r2
 1001524:	1085883a 	add	r2,r2,r2
 1001528:	1885883a 	add	r2,r3,r2
 100152c:	10bffe04 	addi	r2,r2,-8
 1001530:	10800017 	ldw	r2,0(r2)
 1001534:	e0bffa15 	stw	r2,-24(fp)
 1001538:	e0bffe17 	ldw	r2,-8(fp)
 100153c:	10c02417 	ldw	r3,144(r2)
 1001540:	e0bffe17 	ldw	r2,-8(fp)
 1001544:	10802817 	ldw	r2,160(r2)
 1001548:	1085883a 	add	r2,r2,r2
 100154c:	1085883a 	add	r2,r2,r2
 1001550:	1887883a 	add	r3,r3,r2
 1001554:	e0bfff17 	ldw	r2,-4(fp)
 1001558:	1085883a 	add	r2,r2,r2
 100155c:	1085883a 	add	r2,r2,r2
 1001560:	1885883a 	add	r2,r3,r2
 1001564:	10bffe04 	addi	r2,r2,-8
 1001568:	10800017 	ldw	r2,0(r2)
 100156c:	e0bffd15 	stw	r2,-12(fp)
 1001570:	e0bffe17 	ldw	r2,-8(fp)
 1001574:	10c01e17 	ldw	r3,120(r2)
 1001578:	e0bffe17 	ldw	r2,-8(fp)
 100157c:	10802817 	ldw	r2,160(r2)
 1001580:	1085883a 	add	r2,r2,r2
 1001584:	1085883a 	add	r2,r2,r2
 1001588:	1887883a 	add	r3,r3,r2
 100158c:	e0bfff17 	ldw	r2,-4(fp)
 1001590:	1085883a 	add	r2,r2,r2
 1001594:	1085883a 	add	r2,r2,r2
 1001598:	1885883a 	add	r2,r3,r2
 100159c:	10bffe04 	addi	r2,r2,-8
 10015a0:	10800017 	ldw	r2,0(r2)
 10015a4:	e0bffc15 	stw	r2,-16(fp)
 10015a8:	e0bffe17 	ldw	r2,-8(fp)
 10015ac:	10c01f17 	ldw	r3,124(r2)
 10015b0:	e0bffe17 	ldw	r2,-8(fp)
 10015b4:	10802817 	ldw	r2,160(r2)
 10015b8:	1085883a 	add	r2,r2,r2
 10015bc:	1085883a 	add	r2,r2,r2
 10015c0:	1887883a 	add	r3,r3,r2
 10015c4:	e0bfff17 	ldw	r2,-4(fp)
 10015c8:	1085883a 	add	r2,r2,r2
 10015cc:	1085883a 	add	r2,r2,r2
 10015d0:	1885883a 	add	r2,r3,r2
 10015d4:	10bffe04 	addi	r2,r2,-8
 10015d8:	10800017 	ldw	r2,0(r2)
 10015dc:	e0bffb15 	stw	r2,-20(fp)
 10015e0:	00007906 	br	10017c8 <USB_EnableEP+0x834>
 10015e4:	e0bffe17 	ldw	r2,-8(fp)
 10015e8:	10800c17 	ldw	r2,48(r2)
 10015ec:	1004c03a 	cmpne	r2,r2,zero
 10015f0:	1000391e 	bne	r2,zero,10016d8 <USB_EnableEP+0x744>
 10015f4:	e0bffe17 	ldw	r2,-8(fp)
 10015f8:	10c01c17 	ldw	r3,112(r2)
 10015fc:	e0bffe17 	ldw	r2,-8(fp)
 1001600:	10802817 	ldw	r2,160(r2)
 1001604:	1085883a 	add	r2,r2,r2
 1001608:	1085883a 	add	r2,r2,r2
 100160c:	1887883a 	add	r3,r3,r2
 1001610:	e0bfff17 	ldw	r2,-4(fp)
 1001614:	1085883a 	add	r2,r2,r2
 1001618:	1085883a 	add	r2,r2,r2
 100161c:	1885883a 	add	r2,r3,r2
 1001620:	10bffe04 	addi	r2,r2,-8
 1001624:	10800017 	ldw	r2,0(r2)
 1001628:	e0bffa15 	stw	r2,-24(fp)
 100162c:	e0bffe17 	ldw	r2,-8(fp)
 1001630:	10c02517 	ldw	r3,148(r2)
 1001634:	e0bffe17 	ldw	r2,-8(fp)
 1001638:	10802817 	ldw	r2,160(r2)
 100163c:	1085883a 	add	r2,r2,r2
 1001640:	1085883a 	add	r2,r2,r2
 1001644:	1887883a 	add	r3,r3,r2
 1001648:	e0bfff17 	ldw	r2,-4(fp)
 100164c:	1085883a 	add	r2,r2,r2
 1001650:	1085883a 	add	r2,r2,r2
 1001654:	1885883a 	add	r2,r3,r2
 1001658:	10bffe04 	addi	r2,r2,-8
 100165c:	10800017 	ldw	r2,0(r2)
 1001660:	e0bffd15 	stw	r2,-12(fp)
 1001664:	e0bffe17 	ldw	r2,-8(fp)
 1001668:	10c02017 	ldw	r3,128(r2)
 100166c:	e0bffe17 	ldw	r2,-8(fp)
 1001670:	10802817 	ldw	r2,160(r2)
 1001674:	1085883a 	add	r2,r2,r2
 1001678:	1085883a 	add	r2,r2,r2
 100167c:	1887883a 	add	r3,r3,r2
 1001680:	e0bfff17 	ldw	r2,-4(fp)
 1001684:	1085883a 	add	r2,r2,r2
 1001688:	1085883a 	add	r2,r2,r2
 100168c:	1885883a 	add	r2,r3,r2
 1001690:	10bffe04 	addi	r2,r2,-8
 1001694:	10800017 	ldw	r2,0(r2)
 1001698:	e0bffc15 	stw	r2,-16(fp)
 100169c:	e0bffe17 	ldw	r2,-8(fp)
 10016a0:	10c02117 	ldw	r3,132(r2)
 10016a4:	e0bffe17 	ldw	r2,-8(fp)
 10016a8:	10802817 	ldw	r2,160(r2)
 10016ac:	1085883a 	add	r2,r2,r2
 10016b0:	1085883a 	add	r2,r2,r2
 10016b4:	1887883a 	add	r3,r3,r2
 10016b8:	e0bfff17 	ldw	r2,-4(fp)
 10016bc:	1085883a 	add	r2,r2,r2
 10016c0:	1085883a 	add	r2,r2,r2
 10016c4:	1885883a 	add	r2,r3,r2
 10016c8:	10bffe04 	addi	r2,r2,-8
 10016cc:	10800017 	ldw	r2,0(r2)
 10016d0:	e0bffb15 	stw	r2,-20(fp)
 10016d4:	00003c06 	br	10017c8 <USB_EnableEP+0x834>
 10016d8:	e0bffe17 	ldw	r2,-8(fp)
 10016dc:	10800c17 	ldw	r2,48(r2)
 10016e0:	10800098 	cmpnei	r2,r2,2
 10016e4:	1000381e 	bne	r2,zero,10017c8 <USB_EnableEP+0x834>
 10016e8:	e0bffe17 	ldw	r2,-8(fp)
 10016ec:	10c01d17 	ldw	r3,116(r2)
 10016f0:	e0bffe17 	ldw	r2,-8(fp)
 10016f4:	10802817 	ldw	r2,160(r2)
 10016f8:	1085883a 	add	r2,r2,r2
 10016fc:	1085883a 	add	r2,r2,r2
 1001700:	1887883a 	add	r3,r3,r2
 1001704:	e0bfff17 	ldw	r2,-4(fp)
 1001708:	1085883a 	add	r2,r2,r2
 100170c:	1085883a 	add	r2,r2,r2
 1001710:	1885883a 	add	r2,r3,r2
 1001714:	10bffe04 	addi	r2,r2,-8
 1001718:	10800017 	ldw	r2,0(r2)
 100171c:	e0bffa15 	stw	r2,-24(fp)
 1001720:	e0bffe17 	ldw	r2,-8(fp)
 1001724:	10c02617 	ldw	r3,152(r2)
 1001728:	e0bffe17 	ldw	r2,-8(fp)
 100172c:	10802817 	ldw	r2,160(r2)
 1001730:	1085883a 	add	r2,r2,r2
 1001734:	1085883a 	add	r2,r2,r2
 1001738:	1887883a 	add	r3,r3,r2
 100173c:	e0bfff17 	ldw	r2,-4(fp)
 1001740:	1085883a 	add	r2,r2,r2
 1001744:	1085883a 	add	r2,r2,r2
 1001748:	1885883a 	add	r2,r3,r2
 100174c:	10bffe04 	addi	r2,r2,-8
 1001750:	10800017 	ldw	r2,0(r2)
 1001754:	e0bffd15 	stw	r2,-12(fp)
 1001758:	e0bffe17 	ldw	r2,-8(fp)
 100175c:	10c02217 	ldw	r3,136(r2)
 1001760:	e0bffe17 	ldw	r2,-8(fp)
 1001764:	10802817 	ldw	r2,160(r2)
 1001768:	1085883a 	add	r2,r2,r2
 100176c:	1085883a 	add	r2,r2,r2
 1001770:	1887883a 	add	r3,r3,r2
 1001774:	e0bfff17 	ldw	r2,-4(fp)
 1001778:	1085883a 	add	r2,r2,r2
 100177c:	1085883a 	add	r2,r2,r2
 1001780:	1885883a 	add	r2,r3,r2
 1001784:	10bffe04 	addi	r2,r2,-8
 1001788:	10800017 	ldw	r2,0(r2)
 100178c:	e0bffc15 	stw	r2,-16(fp)
 1001790:	e0bffe17 	ldw	r2,-8(fp)
 1001794:	10c02317 	ldw	r3,140(r2)
 1001798:	e0bffe17 	ldw	r2,-8(fp)
 100179c:	10802817 	ldw	r2,160(r2)
 10017a0:	1085883a 	add	r2,r2,r2
 10017a4:	1085883a 	add	r2,r2,r2
 10017a8:	1887883a 	add	r3,r3,r2
 10017ac:	e0bfff17 	ldw	r2,-4(fp)
 10017b0:	1085883a 	add	r2,r2,r2
 10017b4:	1085883a 	add	r2,r2,r2
 10017b8:	1885883a 	add	r2,r3,r2
 10017bc:	10bffe04 	addi	r2,r2,-8
 10017c0:	10800017 	ldw	r2,0(r2)
 10017c4:	e0bffb15 	stw	r2,-20(fp)
 10017c8:	e0bffe17 	ldw	r2,-8(fp)
 10017cc:	10801517 	ldw	r2,84(r2)
 10017d0:	1007883a 	mov	r3,r2
 10017d4:	e0bfff17 	ldw	r2,-4(fp)
 10017d8:	1004913a 	slli	r2,r2,4
 10017dc:	1885883a 	add	r2,r3,r2
 10017e0:	10801004 	addi	r2,r2,64
 10017e4:	1007883a 	mov	r3,r2
 10017e8:	e0bffa17 	ldw	r2,-24(fp)
 10017ec:	18800035 	stwio	r2,0(r3)
 10017f0:	e0bffe17 	ldw	r2,-8(fp)
 10017f4:	10801517 	ldw	r2,84(r2)
 10017f8:	1007883a 	mov	r3,r2
 10017fc:	e0bfff17 	ldw	r2,-4(fp)
 1001800:	1004913a 	slli	r2,r2,4
 1001804:	1885883a 	add	r2,r3,r2
 1001808:	10801104 	addi	r2,r2,68
 100180c:	1007883a 	mov	r3,r2
 1001810:	e0bffd17 	ldw	r2,-12(fp)
 1001814:	18800035 	stwio	r2,0(r3)
 1001818:	e13fff17 	ldw	r4,-4(fp)
 100181c:	e0bffc17 	ldw	r2,-16(fp)
 1001820:	109fffac 	andhi	r2,r2,32766
 1001824:	1005d47a 	srai	r2,r2,17
 1001828:	100b883a 	mov	r5,r2
 100182c:	e0fffe17 	ldw	r3,-8(fp)
 1001830:	2105883a 	add	r2,r4,r4
 1001834:	1085883a 	add	r2,r2,r2
 1001838:	10c5883a 	add	r2,r2,r3
 100183c:	1080a104 	addi	r2,r2,644
 1001840:	11400015 	stw	r5,0(r2)
 1001844:	e13fff17 	ldw	r4,-4(fp)
 1001848:	e0fffc17 	ldw	r3,-16(fp)
 100184c:	008000b4 	movhi	r2,2
 1001850:	10bfffc4 	addi	r2,r2,-1
 1001854:	188a703a 	and	r5,r3,r2
 1001858:	e0fffe17 	ldw	r3,-8(fp)
 100185c:	2105883a 	add	r2,r4,r4
 1001860:	1085883a 	add	r2,r2,r2
 1001864:	10c5883a 	add	r2,r2,r3
 1001868:	1080c104 	addi	r2,r2,772
 100186c:	11400015 	stw	r5,0(r2)
 1001870:	e0bffe17 	ldw	r2,-8(fp)
 1001874:	10801517 	ldw	r2,84(r2)
 1001878:	1007883a 	mov	r3,r2
 100187c:	e0bfff17 	ldw	r2,-4(fp)
 1001880:	1004913a 	slli	r2,r2,4
 1001884:	1885883a 	add	r2,r3,r2
 1001888:	10801204 	addi	r2,r2,72
 100188c:	1007883a 	mov	r3,r2
 1001890:	e0bffc17 	ldw	r2,-16(fp)
 1001894:	18800035 	stwio	r2,0(r3)
 1001898:	e13fff17 	ldw	r4,-4(fp)
 100189c:	e0bffb17 	ldw	r2,-20(fp)
 10018a0:	109fffac 	andhi	r2,r2,32766
 10018a4:	1005d47a 	srai	r2,r2,17
 10018a8:	100b883a 	mov	r5,r2
 10018ac:	e0fffe17 	ldw	r3,-8(fp)
 10018b0:	2105883a 	add	r2,r4,r4
 10018b4:	1085883a 	add	r2,r2,r2
 10018b8:	10c5883a 	add	r2,r2,r3
 10018bc:	1080b104 	addi	r2,r2,708
 10018c0:	11400015 	stw	r5,0(r2)
 10018c4:	e13fff17 	ldw	r4,-4(fp)
 10018c8:	e0fffb17 	ldw	r3,-20(fp)
 10018cc:	008000b4 	movhi	r2,2
 10018d0:	10bfffc4 	addi	r2,r2,-1
 10018d4:	188a703a 	and	r5,r3,r2
 10018d8:	e0fffe17 	ldw	r3,-8(fp)
 10018dc:	2105883a 	add	r2,r4,r4
 10018e0:	1085883a 	add	r2,r2,r2
 10018e4:	10c5883a 	add	r2,r2,r3
 10018e8:	1080d104 	addi	r2,r2,836
 10018ec:	11400015 	stw	r5,0(r2)
 10018f0:	e0bffe17 	ldw	r2,-8(fp)
 10018f4:	10801517 	ldw	r2,84(r2)
 10018f8:	1007883a 	mov	r3,r2
 10018fc:	e0bfff17 	ldw	r2,-4(fp)
 1001900:	1004913a 	slli	r2,r2,4
 1001904:	1885883a 	add	r2,r3,r2
 1001908:	10801304 	addi	r2,r2,76
 100190c:	1007883a 	mov	r3,r2
 1001910:	e0bffb17 	ldw	r2,-20(fp)
 1001914:	18800035 	stwio	r2,0(r3)
 1001918:	e13fff17 	ldw	r4,-4(fp)
 100191c:	e0bfff17 	ldw	r2,-4(fp)
 1001920:	1085883a 	add	r2,r2,r2
 1001924:	1085883a 	add	r2,r2,r2
 1001928:	10800484 	addi	r2,r2,18
 100192c:	1007883a 	mov	r3,r2
 1001930:	e0bffe17 	ldw	r2,-8(fp)
 1001934:	2085883a 	add	r2,r4,r2
 1001938:	1080e104 	addi	r2,r2,900
 100193c:	10c00005 	stb	r3,0(r2)
 1001940:	e13fff17 	ldw	r4,-4(fp)
 1001944:	e0bfff17 	ldw	r2,-4(fp)
 1001948:	1085883a 	add	r2,r2,r2
 100194c:	1085883a 	add	r2,r2,r2
 1001950:	108004c4 	addi	r2,r2,19
 1001954:	1007883a 	mov	r3,r2
 1001958:	e0bffe17 	ldw	r2,-8(fp)
 100195c:	2085883a 	add	r2,r4,r2
 1001960:	1080e504 	addi	r2,r2,916
 1001964:	10c00005 	stb	r3,0(r2)
 1001968:	e13fff17 	ldw	r4,-4(fp)
 100196c:	e0bfff17 	ldw	r2,-4(fp)
 1001970:	e0fffe17 	ldw	r3,-8(fp)
 1001974:	1085883a 	add	r2,r2,r2
 1001978:	1085883a 	add	r2,r2,r2
 100197c:	10c5883a 	add	r2,r2,r3
 1001980:	1080a104 	addi	r2,r2,644
 1001984:	11400017 	ldw	r5,0(r2)
 1001988:	e0fffe17 	ldw	r3,-8(fp)
 100198c:	2105883a 	add	r2,r4,r4
 1001990:	1085883a 	add	r2,r2,r2
 1001994:	10c5883a 	add	r2,r2,r3
 1001998:	10809104 	addi	r2,r2,580
 100199c:	11400015 	stw	r5,0(r2)
 10019a0:	e0bfff17 	ldw	r2,-4(fp)
 10019a4:	e0fffe17 	ldw	r3,-8(fp)
 10019a8:	1085883a 	add	r2,r2,r2
 10019ac:	1085883a 	add	r2,r2,r2
 10019b0:	10c5883a 	add	r2,r2,r3
 10019b4:	10c05104 	addi	r3,r2,324
 10019b8:	0085c034 	movhi	r2,5888
 10019bc:	18800015 	stw	r2,0(r3)
 10019c0:	e037883a 	mov	sp,fp
 10019c4:	df000017 	ldw	fp,0(sp)
 10019c8:	dec00104 	addi	sp,sp,4
 10019cc:	f800283a 	ret

010019d0 <USB_DisableEP>:
 10019d0:	defffc04 	addi	sp,sp,-16
 10019d4:	df000315 	stw	fp,12(sp)
 10019d8:	df000304 	addi	fp,sp,12
 10019dc:	e13ffe15 	stw	r4,-8(fp)
 10019e0:	e17fff15 	stw	r5,-4(fp)
 10019e4:	e0bffe17 	ldw	r2,-8(fp)
 10019e8:	10c01a17 	ldw	r3,104(r2)
 10019ec:	e0bffe17 	ldw	r2,-8(fp)
 10019f0:	10802817 	ldw	r2,160(r2)
 10019f4:	1085883a 	add	r2,r2,r2
 10019f8:	1085883a 	add	r2,r2,r2
 10019fc:	1885883a 	add	r2,r3,r2
 1001a00:	10bfff04 	addi	r2,r2,-4
 1001a04:	10800017 	ldw	r2,0(r2)
 1001a08:	e0bffd15 	stw	r2,-12(fp)
 1001a0c:	e0bffd17 	ldw	r2,-12(fp)
 1001a10:	10ffffcc 	andi	r3,r2,65535
 1001a14:	e0bfff17 	ldw	r2,-4(fp)
 1001a18:	10bfffc4 	addi	r2,r2,-1
 1001a1c:	1885d83a 	sra	r2,r3,r2
 1001a20:	1080004c 	andi	r2,r2,1
 1001a24:	10803fcc 	andi	r2,r2,255
 1001a28:	1005003a 	cmpeq	r2,r2,zero
 1001a2c:	10001e1e 	bne	r2,zero,1001aa8 <USB_DisableEP+0xd8>
 1001a30:	e0bffe17 	ldw	r2,-8(fp)
 1001a34:	10801517 	ldw	r2,84(r2)
 1001a38:	1007883a 	mov	r3,r2
 1001a3c:	e0bfff17 	ldw	r2,-4(fp)
 1001a40:	1004913a 	slli	r2,r2,4
 1001a44:	1885883a 	add	r2,r3,r2
 1001a48:	10801004 	addi	r2,r2,64
 1001a4c:	1007883a 	mov	r3,r2
 1001a50:	00802034 	movhi	r2,128
 1001a54:	18800035 	stwio	r2,0(r3)
 1001a58:	e0bffe17 	ldw	r2,-8(fp)
 1001a5c:	10801517 	ldw	r2,84(r2)
 1001a60:	1007883a 	mov	r3,r2
 1001a64:	e0bfff17 	ldw	r2,-4(fp)
 1001a68:	1004913a 	slli	r2,r2,4
 1001a6c:	1885883a 	add	r2,r3,r2
 1001a70:	10801204 	addi	r2,r2,72
 1001a74:	1007883a 	mov	r3,r2
 1001a78:	00bfffc4 	movi	r2,-1
 1001a7c:	18800035 	stwio	r2,0(r3)
 1001a80:	e0bffe17 	ldw	r2,-8(fp)
 1001a84:	10801517 	ldw	r2,84(r2)
 1001a88:	1007883a 	mov	r3,r2
 1001a8c:	e0bfff17 	ldw	r2,-4(fp)
 1001a90:	1004913a 	slli	r2,r2,4
 1001a94:	1885883a 	add	r2,r3,r2
 1001a98:	10801304 	addi	r2,r2,76
 1001a9c:	1007883a 	mov	r3,r2
 1001aa0:	00bfffc4 	movi	r2,-1
 1001aa4:	18800035 	stwio	r2,0(r3)
 1001aa8:	e0bffd17 	ldw	r2,-12(fp)
 1001aac:	1007d3fa 	srai	r3,r2,15
 1001ab0:	e0bfff17 	ldw	r2,-4(fp)
 1001ab4:	1885d83a 	sra	r2,r3,r2
 1001ab8:	1080004c 	andi	r2,r2,1
 1001abc:	10803fcc 	andi	r2,r2,255
 1001ac0:	1005003a 	cmpeq	r2,r2,zero
 1001ac4:	10001e1e 	bne	r2,zero,1001b40 <USB_DisableEP+0x170>
 1001ac8:	e0bffe17 	ldw	r2,-8(fp)
 1001acc:	10801517 	ldw	r2,84(r2)
 1001ad0:	1007883a 	mov	r3,r2
 1001ad4:	e0bfff17 	ldw	r2,-4(fp)
 1001ad8:	1004913a 	slli	r2,r2,4
 1001adc:	1885883a 	add	r2,r3,r2
 1001ae0:	10801004 	addi	r2,r2,64
 1001ae4:	1007883a 	mov	r3,r2
 1001ae8:	00802034 	movhi	r2,128
 1001aec:	18800035 	stwio	r2,0(r3)
 1001af0:	e0bffe17 	ldw	r2,-8(fp)
 1001af4:	10801517 	ldw	r2,84(r2)
 1001af8:	1007883a 	mov	r3,r2
 1001afc:	e0bfff17 	ldw	r2,-4(fp)
 1001b00:	1004913a 	slli	r2,r2,4
 1001b04:	1885883a 	add	r2,r3,r2
 1001b08:	10801204 	addi	r2,r2,72
 1001b0c:	1007883a 	mov	r3,r2
 1001b10:	00bfffc4 	movi	r2,-1
 1001b14:	18800035 	stwio	r2,0(r3)
 1001b18:	e0bffe17 	ldw	r2,-8(fp)
 1001b1c:	10801517 	ldw	r2,84(r2)
 1001b20:	1007883a 	mov	r3,r2
 1001b24:	e0bfff17 	ldw	r2,-4(fp)
 1001b28:	1004913a 	slli	r2,r2,4
 1001b2c:	1885883a 	add	r2,r3,r2
 1001b30:	10801304 	addi	r2,r2,76
 1001b34:	1007883a 	mov	r3,r2
 1001b38:	00bfffc4 	movi	r2,-1
 1001b3c:	18800035 	stwio	r2,0(r3)
 1001b40:	e037883a 	mov	sp,fp
 1001b44:	df000017 	ldw	fp,0(sp)
 1001b48:	dec00104 	addi	sp,sp,4
 1001b4c:	f800283a 	ret

01001b50 <usb20sr_connect>:
 1001b50:	defffe04 	addi	sp,sp,-8
 1001b54:	df000115 	stw	fp,4(sp)
 1001b58:	df000104 	addi	fp,sp,4
 1001b5c:	e13fff15 	stw	r4,-4(fp)
 1001b60:	e0bfff17 	ldw	r2,-4(fp)
 1001b64:	10c1b304 	addi	r3,r2,1740
 1001b68:	e0bfff17 	ldw	r2,-4(fp)
 1001b6c:	10c03f15 	stw	r3,252(r2)
 1001b70:	e0bfff17 	ldw	r2,-4(fp)
 1001b74:	10c1b504 	addi	r3,r2,1748
 1001b78:	e0bfff17 	ldw	r2,-4(fp)
 1001b7c:	10c04015 	stw	r3,256(r2)
 1001b80:	e0bfff17 	ldw	r2,-4(fp)
 1001b84:	10c04017 	ldw	r3,256(r2)
 1001b88:	00800104 	movi	r2,4
 1001b8c:	18800215 	stw	r2,8(r3)
 1001b90:	e0bfff17 	ldw	r2,-4(fp)
 1001b94:	10801517 	ldw	r2,84(r2)
 1001b98:	10807f04 	addi	r2,r2,508
 1001b9c:	1007883a 	mov	r3,r2
 1001ba0:	00800044 	movi	r2,1
 1001ba4:	18800025 	stbio	r2,0(r3)
 1001ba8:	e037883a 	mov	sp,fp
 1001bac:	df000017 	ldw	fp,0(sp)
 1001bb0:	dec00104 	addi	sp,sp,4
 1001bb4:	f800283a 	ret

01001bb8 <usb20sr_disconnect>:
 1001bb8:	defffe04 	addi	sp,sp,-8
 1001bbc:	df000115 	stw	fp,4(sp)
 1001bc0:	df000104 	addi	fp,sp,4
 1001bc4:	e13fff15 	stw	r4,-4(fp)
 1001bc8:	e0bfff17 	ldw	r2,-4(fp)
 1001bcc:	10801517 	ldw	r2,84(r2)
 1001bd0:	10807f04 	addi	r2,r2,508
 1001bd4:	10000025 	stbio	zero,0(r2)
 1001bd8:	e0ffff17 	ldw	r3,-4(fp)
 1001bdc:	00800044 	movi	r2,1
 1001be0:	18800e15 	stw	r2,56(r3)
 1001be4:	e037883a 	mov	sp,fp
 1001be8:	df000017 	ldw	fp,0(sp)
 1001bec:	dec00104 	addi	sp,sp,4
 1001bf0:	f800283a 	ret

01001bf4 <sls_avalon_usb20_irq>:
 1001bf4:	deffc604 	addi	sp,sp,-232
 1001bf8:	dfc03915 	stw	ra,228(sp)
 1001bfc:	df003815 	stw	fp,224(sp)
 1001c00:	df003804 	addi	fp,sp,224
 1001c04:	e13ff215 	stw	r4,-56(fp)
 1001c08:	e0bff217 	ldw	r2,-56(fp)
 1001c0c:	e0bfd515 	stw	r2,-172(fp)
 1001c10:	e03fd645 	stb	zero,-167(fp)
 1001c14:	e03fd715 	stw	zero,-164(fp)
 1001c18:	e03fdb15 	stw	zero,-148(fp)
 1001c1c:	e03fdc15 	stw	zero,-144(fp)
 1001c20:	e03fe115 	stw	zero,-124(fp)
 1001c24:	e03fe215 	stw	zero,-120(fp)
 1001c28:	e03fe315 	stw	zero,-116(fp)
 1001c2c:	e03fe415 	stw	zero,-112(fp)
 1001c30:	e0bfd517 	ldw	r2,-172(fp)
 1001c34:	10803217 	ldw	r2,200(r2)
 1001c38:	e0bfe515 	stw	r2,-108(fp)
 1001c3c:	e03fd30d 	sth	zero,-180(fp)
 1001c40:	e03fd28d 	sth	zero,-182(fp)
 1001c44:	e03fd20d 	sth	zero,-184(fp)
 1001c48:	e03fd115 	stw	zero,-188(fp)
 1001c4c:	e0bfd517 	ldw	r2,-172(fp)
 1001c50:	10800043 	ldbu	r2,1(r2)
 1001c54:	10803fcc 	andi	r2,r2,255
 1001c58:	e0bfe915 	stw	r2,-92(fp)
 1001c5c:	e0bfd517 	ldw	r2,-172(fp)
 1001c60:	10801517 	ldw	r2,84(r2)
 1001c64:	e0bfea15 	stw	r2,-88(fp)
 1001c68:	e0bfd517 	ldw	r2,-172(fp)
 1001c6c:	10803f17 	ldw	r2,252(r2)
 1001c70:	e0bfd015 	stw	r2,-192(fp)
 1001c74:	e0bfd517 	ldw	r2,-172(fp)
 1001c78:	10804017 	ldw	r2,256(r2)
 1001c7c:	e0bfcf15 	stw	r2,-196(fp)
 1001c80:	e0bfea17 	ldw	r2,-88(fp)
 1001c84:	10800304 	addi	r2,r2,12
 1001c88:	10800037 	ldwio	r2,0(r2)
 1001c8c:	e0bfe115 	stw	r2,-124(fp)
 1001c90:	e0bfe117 	ldw	r2,-124(fp)
 1001c94:	1084002c 	andhi	r2,r2,4096
 1001c98:	1005003a 	cmpeq	r2,r2,zero
 1001c9c:	10004f1e 	bne	r2,zero,1001ddc <sls_avalon_usb20_irq+0x1e8>
 1001ca0:	e0bfd517 	ldw	r2,-172(fp)
 1001ca4:	10803317 	ldw	r2,204(r2)
 1001ca8:	1004c03a 	cmpne	r2,r2,zero
 1001cac:	1000031e 	bne	r2,zero,1001cbc <sls_avalon_usb20_irq+0xc8>
 1001cb0:	e0ffd517 	ldw	r3,-172(fp)
 1001cb4:	00800044 	movi	r2,1
 1001cb8:	18803315 	stw	r2,204(r3)
 1001cbc:	e0bfd517 	ldw	r2,-172(fp)
 1001cc0:	10003215 	stw	zero,200(r2)
 1001cc4:	e0ffcf17 	ldw	r3,-196(fp)
 1001cc8:	00800084 	movi	r2,2
 1001ccc:	18800215 	stw	r2,8(r3)
 1001cd0:	e0bfd517 	ldw	r2,-172(fp)
 1001cd4:	10000005 	stb	zero,0(r2)
 1001cd8:	e0bfd517 	ldw	r2,-172(fp)
 1001cdc:	10002815 	stw	zero,160(r2)
 1001ce0:	e0bfd517 	ldw	r2,-172(fp)
 1001ce4:	10002915 	stw	zero,164(r2)
 1001ce8:	e0bfd517 	ldw	r2,-172(fp)
 1001cec:	10002c15 	stw	zero,176(r2)
 1001cf0:	e0bfd517 	ldw	r2,-172(fp)
 1001cf4:	10002d15 	stw	zero,180(r2)
 1001cf8:	e0ffd517 	ldw	r3,-172(fp)
 1001cfc:	00800044 	movi	r2,1
 1001d00:	18800f15 	stw	r2,60(r3)
 1001d04:	e0bfd517 	ldw	r2,-172(fp)
 1001d08:	10000e15 	stw	zero,56(r2)
 1001d0c:	e0bfd517 	ldw	r2,-172(fp)
 1001d10:	10003415 	stw	zero,208(r2)
 1001d14:	e0bfcf17 	ldw	r2,-196(fp)
 1001d18:	10000415 	stw	zero,16(r2)
 1001d1c:	e0bfd517 	ldw	r2,-172(fp)
 1001d20:	1001bc45 	stb	zero,1777(r2)
 1001d24:	e0bfd517 	ldw	r2,-172(fp)
 1001d28:	1001bc05 	stb	zero,1776(r2)
 1001d2c:	e0bfd517 	ldw	r2,-172(fp)
 1001d30:	10803817 	ldw	r2,224(r2)
 1001d34:	1005003a 	cmpeq	r2,r2,zero
 1001d38:	1000041e 	bne	r2,zero,1001d4c <sls_avalon_usb20_irq+0x158>
 1001d3c:	e0bfd517 	ldw	r2,-172(fp)
 1001d40:	10803817 	ldw	r2,224(r2)
 1001d44:	e13fd517 	ldw	r4,-172(fp)
 1001d48:	103ee83a 	callr	r2
 1001d4c:	e03fd715 	stw	zero,-164(fp)
 1001d50:	00001106 	br	1001d98 <sls_avalon_usb20_irq+0x1a4>
 1001d54:	e0bfd717 	ldw	r2,-164(fp)
 1001d58:	e0ffd517 	ldw	r3,-172(fp)
 1001d5c:	1085883a 	add	r2,r2,r2
 1001d60:	1085883a 	add	r2,r2,r2
 1001d64:	10c5883a 	add	r2,r2,r3
 1001d68:	1080e904 	addi	r2,r2,932
 1001d6c:	10000015 	stw	zero,0(r2)
 1001d70:	e0bfd717 	ldw	r2,-164(fp)
 1001d74:	e0ffd517 	ldw	r3,-172(fp)
 1001d78:	1085883a 	add	r2,r2,r2
 1001d7c:	1085883a 	add	r2,r2,r2
 1001d80:	10c5883a 	add	r2,r2,r3
 1001d84:	1081a204 	addi	r2,r2,1672
 1001d88:	10000015 	stw	zero,0(r2)
 1001d8c:	e0bfd717 	ldw	r2,-164(fp)
 1001d90:	10800044 	addi	r2,r2,1
 1001d94:	e0bfd715 	stw	r2,-164(fp)
 1001d98:	e0bfd717 	ldw	r2,-164(fp)
 1001d9c:	108003f0 	cmpltui	r2,r2,15
 1001da0:	103fec1e 	bne	r2,zero,1001d54 <__alt_data_end+0xfffe0dfc>
 1001da4:	e0bfea17 	ldw	r2,-88(fp)
 1001da8:	11001004 	addi	r4,r2,64
 1001dac:	e0bfe917 	ldw	r2,-92(fp)
 1001db0:	10c0c0f4 	orhi	r3,r2,771
 1001db4:	2005883a 	mov	r2,r4
 1001db8:	10c00035 	stwio	r3,0(r2)
 1001dbc:	e0bfea17 	ldw	r2,-88(fp)
 1001dc0:	10801104 	addi	r2,r2,68
 1001dc4:	1007883a 	mov	r3,r2
 1001dc8:	008fc034 	movhi	r2,16128
 1001dcc:	18800035 	stwio	r2,0(r3)
 1001dd0:	e0ffd517 	ldw	r3,-172(fp)
 1001dd4:	00800084 	movi	r2,2
 1001dd8:	18800c15 	stw	r2,48(r3)
 1001ddc:	e0bfe117 	ldw	r2,-124(fp)
 1001de0:	1088002c 	andhi	r2,r2,8192
 1001de4:	1005003a 	cmpeq	r2,r2,zero
 1001de8:	1000691e 	bne	r2,zero,1001f90 <sls_avalon_usb20_irq+0x39c>
 1001dec:	e0ffcf17 	ldw	r3,-196(fp)
 1001df0:	00800084 	movi	r2,2
 1001df4:	18800215 	stw	r2,8(r3)
 1001df8:	e03fd715 	stw	zero,-164(fp)
 1001dfc:	00001106 	br	1001e44 <sls_avalon_usb20_irq+0x250>
 1001e00:	e0bfd717 	ldw	r2,-164(fp)
 1001e04:	e0ffd517 	ldw	r3,-172(fp)
 1001e08:	1085883a 	add	r2,r2,r2
 1001e0c:	1085883a 	add	r2,r2,r2
 1001e10:	10c5883a 	add	r2,r2,r3
 1001e14:	1080e904 	addi	r2,r2,932
 1001e18:	10000015 	stw	zero,0(r2)
 1001e1c:	e0bfd717 	ldw	r2,-164(fp)
 1001e20:	e0ffd517 	ldw	r3,-172(fp)
 1001e24:	1085883a 	add	r2,r2,r2
 1001e28:	1085883a 	add	r2,r2,r2
 1001e2c:	10c5883a 	add	r2,r2,r3
 1001e30:	1081a204 	addi	r2,r2,1672
 1001e34:	10000015 	stw	zero,0(r2)
 1001e38:	e0bfd717 	ldw	r2,-164(fp)
 1001e3c:	10800044 	addi	r2,r2,1
 1001e40:	e0bfd715 	stw	r2,-164(fp)
 1001e44:	e0bfd717 	ldw	r2,-164(fp)
 1001e48:	10800430 	cmpltui	r2,r2,16
 1001e4c:	103fec1e 	bne	r2,zero,1001e00 <__alt_data_end+0xfffe0ea8>
 1001e50:	e0bfea17 	ldw	r2,-88(fp)
 1001e54:	10800404 	addi	r2,r2,16
 1001e58:	10800037 	ldwio	r2,0(r2)
 1001e5c:	1080008c 	andi	r2,r2,2
 1001e60:	1005003a 	cmpeq	r2,r2,zero
 1001e64:	1000271e 	bne	r2,zero,1001f04 <sls_avalon_usb20_irq+0x310>
 1001e68:	e0bfd517 	ldw	r2,-172(fp)
 1001e6c:	10800317 	ldw	r2,12(r2)
 1001e70:	10800084 	addi	r2,r2,2
 1001e74:	10000005 	stb	zero,0(r2)
 1001e78:	e0bfd517 	ldw	r2,-172(fp)
 1001e7c:	10800317 	ldw	r2,12(r2)
 1001e80:	10c000c4 	addi	r3,r2,3
 1001e84:	00800084 	movi	r2,2
 1001e88:	18800005 	stb	r2,0(r3)
 1001e8c:	d0a00117 	ldw	r2,-32764(gp)
 1001e90:	10bfffe0 	cmpeqi	r2,r2,-1
 1001e94:	1000031e 	bne	r2,zero,1001ea4 <sls_avalon_usb20_irq+0x2b0>
 1001e98:	d0a00117 	ldw	r2,-32764(gp)
 1001e9c:	1004c03a 	cmpne	r2,r2,zero
 1001ea0:	1000051e 	bne	r2,zero,1001eb8 <sls_avalon_usb20_irq+0x2c4>
 1001ea4:	00800044 	movi	r2,1
 1001ea8:	d0a00115 	stw	r2,-32764(gp)
 1001eac:	e0ffd517 	ldw	r3,-172(fp)
 1001eb0:	00800044 	movi	r2,1
 1001eb4:	18800e15 	stw	r2,56(r3)
 1001eb8:	e0ffd517 	ldw	r3,-172(fp)
 1001ebc:	00800044 	movi	r2,1
 1001ec0:	18800c15 	stw	r2,48(r3)
 1001ec4:	e0bfd517 	ldw	r2,-172(fp)
 1001ec8:	1001bc45 	stb	zero,1777(r2)
 1001ecc:	e0bfea17 	ldw	r2,-88(fp)
 1001ed0:	11001004 	addi	r4,r2,64
 1001ed4:	e0ffe917 	ldw	r3,-92(fp)
 1001ed8:	0080c0f4 	movhi	r2,771
 1001edc:	10820004 	addi	r2,r2,2048
 1001ee0:	1886b03a 	or	r3,r3,r2
 1001ee4:	2005883a 	mov	r2,r4
 1001ee8:	10c00035 	stwio	r3,0(r2)
 1001eec:	e0bfea17 	ldw	r2,-88(fp)
 1001ef0:	10801104 	addi	r2,r2,68
 1001ef4:	1007883a 	mov	r3,r2
 1001ef8:	008fc034 	movhi	r2,16128
 1001efc:	18800035 	stwio	r2,0(r3)
 1001f00:	00002306 	br	1001f90 <sls_avalon_usb20_irq+0x39c>
 1001f04:	e0bfd517 	ldw	r2,-172(fp)
 1001f08:	10800317 	ldw	r2,12(r2)
 1001f0c:	10c00084 	addi	r3,r2,2
 1001f10:	00800404 	movi	r2,16
 1001f14:	18800005 	stb	r2,0(r3)
 1001f18:	e0bfd517 	ldw	r2,-172(fp)
 1001f1c:	10800317 	ldw	r2,12(r2)
 1001f20:	10c000c4 	addi	r3,r2,3
 1001f24:	00800044 	movi	r2,1
 1001f28:	18800005 	stb	r2,0(r3)
 1001f2c:	d0a00117 	ldw	r2,-32764(gp)
 1001f30:	10bfffe0 	cmpeqi	r2,r2,-1
 1001f34:	1000031e 	bne	r2,zero,1001f44 <sls_avalon_usb20_irq+0x350>
 1001f38:	d0a00117 	ldw	r2,-32764(gp)
 1001f3c:	10800058 	cmpnei	r2,r2,1
 1001f40:	1000041e 	bne	r2,zero,1001f54 <sls_avalon_usb20_irq+0x360>
 1001f44:	d0200115 	stw	zero,-32764(gp)
 1001f48:	e0ffd517 	ldw	r3,-172(fp)
 1001f4c:	00800044 	movi	r2,1
 1001f50:	18800e15 	stw	r2,56(r3)
 1001f54:	e0bfd517 	ldw	r2,-172(fp)
 1001f58:	10000c15 	stw	zero,48(r2)
 1001f5c:	e0bfd517 	ldw	r2,-172(fp)
 1001f60:	1001bc45 	stb	zero,1777(r2)
 1001f64:	e0bfea17 	ldw	r2,-88(fp)
 1001f68:	11001004 	addi	r4,r2,64
 1001f6c:	e0bfe917 	ldw	r2,-92(fp)
 1001f70:	10c0c0f4 	orhi	r3,r2,771
 1001f74:	2005883a 	mov	r2,r4
 1001f78:	10c00035 	stwio	r3,0(r2)
 1001f7c:	e0bfea17 	ldw	r2,-88(fp)
 1001f80:	10801104 	addi	r2,r2,68
 1001f84:	1007883a 	mov	r3,r2
 1001f88:	008fc034 	movhi	r2,16128
 1001f8c:	18800035 	stwio	r2,0(r3)
 1001f90:	e0bfe117 	ldw	r2,-124(fp)
 1001f94:	1080004c 	andi	r2,r2,1
 1001f98:	10803fcc 	andi	r2,r2,255
 1001f9c:	1005003a 	cmpeq	r2,r2,zero
 1001fa0:	1001fe1e 	bne	r2,zero,100279c <sls_avalon_usb20_irq+0xba8>
 1001fa4:	e0bfea17 	ldw	r2,-88(fp)
 1001fa8:	10801104 	addi	r2,r2,68
 1001fac:	10800037 	ldwio	r2,0(r2)
 1001fb0:	e0bfdc15 	stw	r2,-144(fp)
 1001fb4:	e0bfdc17 	ldw	r2,-144(fp)
 1001fb8:	1080040c 	andi	r2,r2,16
 1001fbc:	1005003a 	cmpeq	r2,r2,zero
 1001fc0:	1000b61e 	bne	r2,zero,100229c <sls_avalon_usb20_irq+0x6a8>
 1001fc4:	e0bfe517 	ldw	r2,-108(fp)
 1001fc8:	1005003a 	cmpeq	r2,r2,zero
 1001fcc:	1000221e 	bne	r2,zero,1002058 <sls_avalon_usb20_irq+0x464>
 1001fd0:	e0bfe517 	ldw	r2,-108(fp)
 1001fd4:	10800058 	cmpnei	r2,r2,1
 1001fd8:	1000051e 	bne	r2,zero,1001ff0 <sls_avalon_usb20_irq+0x3fc>
 1001fdc:	e0bfea17 	ldw	r2,-88(fp)
 1001fe0:	10800804 	addi	r2,r2,32
 1001fe4:	1007883a 	mov	r3,r2
 1001fe8:	00800444 	movi	r2,17
 1001fec:	18800025 	stbio	r2,0(r3)
 1001ff0:	e0bfe517 	ldw	r2,-108(fp)
 1001ff4:	10800098 	cmpnei	r2,r2,2
 1001ff8:	1000051e 	bne	r2,zero,1002010 <sls_avalon_usb20_irq+0x41c>
 1001ffc:	e0bfea17 	ldw	r2,-88(fp)
 1002000:	10800804 	addi	r2,r2,32
 1002004:	1007883a 	mov	r3,r2
 1002008:	00800484 	movi	r2,18
 100200c:	18800025 	stbio	r2,0(r3)
 1002010:	e0bfe517 	ldw	r2,-108(fp)
 1002014:	10800118 	cmpnei	r2,r2,4
 1002018:	1000051e 	bne	r2,zero,1002030 <sls_avalon_usb20_irq+0x43c>
 100201c:	e0bfea17 	ldw	r2,-88(fp)
 1002020:	10800804 	addi	r2,r2,32
 1002024:	1007883a 	mov	r3,r2
 1002028:	00800504 	movi	r2,20
 100202c:	18800025 	stbio	r2,0(r3)
 1002030:	e0bfe517 	ldw	r2,-108(fp)
 1002034:	10800218 	cmpnei	r2,r2,8
 1002038:	1000051e 	bne	r2,zero,1002050 <sls_avalon_usb20_irq+0x45c>
 100203c:	e0bfea17 	ldw	r2,-88(fp)
 1002040:	10800804 	addi	r2,r2,32
 1002044:	1007883a 	mov	r3,r2
 1002048:	00800604 	movi	r2,24
 100204c:	18800025 	stbio	r2,0(r3)
 1002050:	e0bfd517 	ldw	r2,-172(fp)
 1002054:	10003215 	stw	zero,200(r2)
 1002058:	e0bfcf17 	ldw	r2,-196(fp)
 100205c:	10800617 	ldw	r2,24(r2)
 1002060:	10c00183 	ldbu	r3,6(r2)
 1002064:	108001c3 	ldbu	r2,7(r2)
 1002068:	1004923a 	slli	r2,r2,8
 100206c:	10c4b03a 	or	r2,r2,r3
 1002070:	10bfffcc 	andi	r2,r2,65535
 1002074:	1004c03a 	cmpne	r2,r2,zero
 1002078:	1000071e 	bne	r2,zero,1002098 <sls_avalon_usb20_irq+0x4a4>
 100207c:	e0bfcf17 	ldw	r2,-196(fp)
 1002080:	10800217 	ldw	r2,8(r2)
 1002084:	1004c03a 	cmpne	r2,r2,zero
 1002088:	1000031e 	bne	r2,zero,1002098 <sls_avalon_usb20_irq+0x4a4>
 100208c:	e0ffcf17 	ldw	r3,-196(fp)
 1002090:	00800084 	movi	r2,2
 1002094:	18800215 	stw	r2,8(r3)
 1002098:	e0bfcf17 	ldw	r2,-196(fp)
 100209c:	10800617 	ldw	r2,24(r2)
 10020a0:	10c00183 	ldbu	r3,6(r2)
 10020a4:	108001c3 	ldbu	r2,7(r2)
 10020a8:	1004923a 	slli	r2,r2,8
 10020ac:	10c4b03a 	or	r2,r2,r3
 10020b0:	10bfffcc 	andi	r2,r2,65535
 10020b4:	1005003a 	cmpeq	r2,r2,zero
 10020b8:	1000681e 	bne	r2,zero,100225c <sls_avalon_usb20_irq+0x668>
 10020bc:	e0bfcf17 	ldw	r2,-196(fp)
 10020c0:	10800217 	ldw	r2,8(r2)
 10020c4:	1004c03a 	cmpne	r2,r2,zero
 10020c8:	1000641e 	bne	r2,zero,100225c <sls_avalon_usb20_irq+0x668>
 10020cc:	e03fdf15 	stw	zero,-132(fp)
 10020d0:	e0bfd517 	ldw	r2,-172(fp)
 10020d4:	10803417 	ldw	r2,208(r2)
 10020d8:	e0bfd915 	stw	r2,-156(fp)
 10020dc:	e0bfcf17 	ldw	r2,-196(fp)
 10020e0:	10c00417 	ldw	r3,16(r2)
 10020e4:	e0bfd917 	ldw	r2,-156(fp)
 10020e8:	10c03f2e 	bgeu	r2,r3,10021e8 <sls_avalon_usb20_irq+0x5f4>
 10020ec:	e0bfcf17 	ldw	r2,-196(fp)
 10020f0:	10c00417 	ldw	r3,16(r2)
 10020f4:	e0bfd917 	ldw	r2,-156(fp)
 10020f8:	1885c83a 	sub	r2,r3,r2
 10020fc:	e0bfdf15 	stw	r2,-132(fp)
 1002100:	e0bfe917 	ldw	r2,-92(fp)
 1002104:	1007883a 	mov	r3,r2
 1002108:	e0bfdf17 	ldw	r2,-132(fp)
 100210c:	1880022e 	bgeu	r3,r2,1002118 <sls_avalon_usb20_irq+0x524>
 1002110:	e0bfe917 	ldw	r2,-92(fp)
 1002114:	e0bfdf15 	stw	r2,-132(fp)
 1002118:	e03fe015 	stw	zero,-128(fp)
 100211c:	00001606 	br	1002178 <sls_avalon_usb20_irq+0x584>
 1002120:	e0bfea17 	ldw	r2,-88(fp)
 1002124:	1007883a 	mov	r3,r2
 1002128:	e0bfe017 	ldw	r2,-128(fp)
 100212c:	1887883a 	add	r3,r3,r2
 1002130:	008000b4 	movhi	r2,2
 1002134:	1889883a 	add	r4,r3,r2
 1002138:	e0bfcf17 	ldw	r2,-196(fp)
 100213c:	10800117 	ldw	r2,4(r2)
 1002140:	1007883a 	mov	r3,r2
 1002144:	e0bfe017 	ldw	r2,-128(fp)
 1002148:	1887883a 	add	r3,r3,r2
 100214c:	e0bfd917 	ldw	r2,-156(fp)
 1002150:	1885883a 	add	r2,r3,r2
 1002154:	10800003 	ldbu	r2,0(r2)
 1002158:	10c03fcc 	andi	r3,r2,255
 100215c:	18c0201c 	xori	r3,r3,128
 1002160:	18ffe004 	addi	r3,r3,-128
 1002164:	2005883a 	mov	r2,r4
 1002168:	10c00025 	stbio	r3,0(r2)
 100216c:	e0bfe017 	ldw	r2,-128(fp)
 1002170:	10800044 	addi	r2,r2,1
 1002174:	e0bfe015 	stw	r2,-128(fp)
 1002178:	e0ffe017 	ldw	r3,-128(fp)
 100217c:	e0bfdf17 	ldw	r2,-132(fp)
 1002180:	18bfe736 	bltu	r3,r2,1002120 <__alt_data_end+0xfffe11c8>
 1002184:	e0bfea17 	ldw	r2,-88(fp)
 1002188:	11001304 	addi	r4,r2,76
 100218c:	e0bfdf17 	ldw	r2,-132(fp)
 1002190:	1004947a 	slli	r2,r2,17
 1002194:	1007883a 	mov	r3,r2
 1002198:	2005883a 	mov	r2,r4
 100219c:	10c00035 	stwio	r3,0(r2)
 10021a0:	e0bfd517 	ldw	r2,-172(fp)
 10021a4:	10c03417 	ldw	r3,208(r2)
 10021a8:	e0bfdf17 	ldw	r2,-132(fp)
 10021ac:	1887883a 	add	r3,r3,r2
 10021b0:	e0bfd517 	ldw	r2,-172(fp)
 10021b4:	10c03415 	stw	r3,208(r2)
 10021b8:	e0bfd517 	ldw	r2,-172(fp)
 10021bc:	1081bc43 	ldbu	r2,1777(r2)
 10021c0:	10803fcc 	andi	r2,r2,255
 10021c4:	1004c03a 	cmpne	r2,r2,zero
 10021c8:	1001741e 	bne	r2,zero,100279c <sls_avalon_usb20_irq+0xba8>
 10021cc:	e0bfea17 	ldw	r2,-88(fp)
 10021d0:	11001204 	addi	r4,r2,72
 10021d4:	e0bfe917 	ldw	r2,-92(fp)
 10021d8:	1006947a 	slli	r3,r2,17
 10021dc:	2005883a 	mov	r2,r4
 10021e0:	10c00035 	stwio	r3,0(r2)
 10021e4:	00016d06 	br	100279c <sls_avalon_usb20_irq+0xba8>
 10021e8:	e0bfd517 	ldw	r2,-172(fp)
 10021ec:	10c03417 	ldw	r3,208(r2)
 10021f0:	e0bfcf17 	ldw	r2,-196(fp)
 10021f4:	10800417 	ldw	r2,16(r2)
 10021f8:	18802836 	bltu	r3,r2,100229c <sls_avalon_usb20_irq+0x6a8>
 10021fc:	e0bfcf17 	ldw	r2,-196(fp)
 1002200:	11000417 	ldw	r4,16(r2)
 1002204:	e0bfe917 	ldw	r2,-92(fp)
 1002208:	100b883a 	mov	r5,r2
 100220c:	1006c240 	call	1006c24 <__umodsi3>
 1002210:	1004c03a 	cmpne	r2,r2,zero
 1002214:	1000031e 	bne	r2,zero,1002224 <sls_avalon_usb20_irq+0x630>
 1002218:	e0bfea17 	ldw	r2,-88(fp)
 100221c:	10801304 	addi	r2,r2,76
 1002220:	10000035 	stwio	zero,0(r2)
 1002224:	e0bfea17 	ldw	r2,-88(fp)
 1002228:	11001204 	addi	r4,r2,72
 100222c:	e0bfe917 	ldw	r2,-92(fp)
 1002230:	1006947a 	slli	r3,r2,17
 1002234:	2005883a 	mov	r2,r4
 1002238:	10c00035 	stwio	r3,0(r2)
 100223c:	e0ffcf17 	ldw	r3,-196(fp)
 1002240:	00800044 	movi	r2,1
 1002244:	18800215 	stw	r2,8(r3)
 1002248:	e0bfd517 	ldw	r2,-172(fp)
 100224c:	10003415 	stw	zero,208(r2)
 1002250:	e0bfcf17 	ldw	r2,-196(fp)
 1002254:	10000415 	stw	zero,16(r2)
 1002258:	00001006 	br	100229c <sls_avalon_usb20_irq+0x6a8>
 100225c:	e0bfcf17 	ldw	r2,-196(fp)
 1002260:	10800617 	ldw	r2,24(r2)
 1002264:	10c00183 	ldbu	r3,6(r2)
 1002268:	108001c3 	ldbu	r2,7(r2)
 100226c:	1004923a 	slli	r2,r2,8
 1002270:	10c4b03a 	or	r2,r2,r3
 1002274:	10bfffcc 	andi	r2,r2,65535
 1002278:	1005003a 	cmpeq	r2,r2,zero
 100227c:	1000071e 	bne	r2,zero,100229c <sls_avalon_usb20_irq+0x6a8>
 1002280:	e0bfcf17 	ldw	r2,-196(fp)
 1002284:	10800217 	ldw	r2,8(r2)
 1002288:	10800058 	cmpnei	r2,r2,1
 100228c:	1000031e 	bne	r2,zero,100229c <sls_avalon_usb20_irq+0x6a8>
 1002290:	e0ffcf17 	ldw	r3,-196(fp)
 1002294:	00800084 	movi	r2,2
 1002298:	18800215 	stw	r2,8(r3)
 100229c:	e0bfdc17 	ldw	r2,-144(fp)
 10022a0:	1080020c 	andi	r2,r2,8
 10022a4:	1005003a 	cmpeq	r2,r2,zero
 10022a8:	10012d1e 	bne	r2,zero,1002760 <sls_avalon_usb20_irq+0xb6c>
 10022ac:	e0bfcf17 	ldw	r2,-196(fp)
 10022b0:	10800617 	ldw	r2,24(r2)
 10022b4:	10c00183 	ldbu	r3,6(r2)
 10022b8:	108001c3 	ldbu	r2,7(r2)
 10022bc:	1004923a 	slli	r2,r2,8
 10022c0:	10c4b03a 	or	r2,r2,r3
 10022c4:	10bfffcc 	andi	r2,r2,65535
 10022c8:	1005003a 	cmpeq	r2,r2,zero
 10022cc:	1000a71e 	bne	r2,zero,100256c <sls_avalon_usb20_irq+0x978>
 10022d0:	e0bfcf17 	ldw	r2,-196(fp)
 10022d4:	10800617 	ldw	r2,24(r2)
 10022d8:	10c00003 	ldbu	r3,0(r2)
 10022dc:	00bfe004 	movi	r2,-128
 10022e0:	1884703a 	and	r2,r3,r2
 10022e4:	10803fcc 	andi	r2,r2,255
 10022e8:	1004c03a 	cmpne	r2,r2,zero
 10022ec:	10009f1e 	bne	r2,zero,100256c <sls_avalon_usb20_irq+0x978>
 10022f0:	e0bfcf17 	ldw	r2,-196(fp)
 10022f4:	10800217 	ldw	r2,8(r2)
 10022f8:	1004c03a 	cmpne	r2,r2,zero
 10022fc:	10009b1e 	bne	r2,zero,100256c <sls_avalon_usb20_irq+0x978>
 1002300:	e0bfea17 	ldw	r2,-88(fp)
 1002304:	10801204 	addi	r2,r2,72
 1002308:	10800037 	ldwio	r2,0(r2)
 100230c:	e0bfeb15 	stw	r2,-84(fp)
 1002310:	e0ffe917 	ldw	r3,-92(fp)
 1002314:	e0bfeb17 	ldw	r2,-84(fp)
 1002318:	109fffac 	andhi	r2,r2,32766
 100231c:	1005d47a 	srai	r2,r2,17
 1002320:	1885c83a 	sub	r2,r3,r2
 1002324:	e0bfda15 	stw	r2,-152(fp)
 1002328:	e0bfcf17 	ldw	r2,-196(fp)
 100232c:	11000417 	ldw	r4,16(r2)
 1002330:	e0bfcf17 	ldw	r2,-196(fp)
 1002334:	10800617 	ldw	r2,24(r2)
 1002338:	10c00183 	ldbu	r3,6(r2)
 100233c:	108001c3 	ldbu	r2,7(r2)
 1002340:	1004923a 	slli	r2,r2,8
 1002344:	10c4b03a 	or	r2,r2,r3
 1002348:	10bfffcc 	andi	r2,r2,65535
 100234c:	2080352e 	bgeu	r4,r2,1002424 <sls_avalon_usb20_irq+0x830>
 1002350:	e0bfcf17 	ldw	r2,-196(fp)
 1002354:	10800417 	ldw	r2,16(r2)
 1002358:	e0bfdf15 	stw	r2,-132(fp)
 100235c:	e03fd715 	stw	zero,-164(fp)
 1002360:	00001606 	br	10023bc <sls_avalon_usb20_irq+0x7c8>
 1002364:	e0bfcf17 	ldw	r2,-196(fp)
 1002368:	10800117 	ldw	r2,4(r2)
 100236c:	1009883a 	mov	r4,r2
 1002370:	e0ffd717 	ldw	r3,-164(fp)
 1002374:	e0bfdf17 	ldw	r2,-132(fp)
 1002378:	1885883a 	add	r2,r3,r2
 100237c:	2089883a 	add	r4,r4,r2
 1002380:	e0bfea17 	ldw	r2,-88(fp)
 1002384:	1007883a 	mov	r3,r2
 1002388:	e0bfd717 	ldw	r2,-164(fp)
 100238c:	1887883a 	add	r3,r3,r2
 1002390:	008000b4 	movhi	r2,2
 1002394:	1885883a 	add	r2,r3,r2
 1002398:	10800003 	ldbu	r2,0(r2)
 100239c:	10c03fcc 	andi	r3,r2,255
 10023a0:	18c0201c 	xori	r3,r3,128
 10023a4:	18ffe004 	addi	r3,r3,-128
 10023a8:	2005883a 	mov	r2,r4
 10023ac:	10c00025 	stbio	r3,0(r2)
 10023b0:	e0bfd717 	ldw	r2,-164(fp)
 10023b4:	10800044 	addi	r2,r2,1
 10023b8:	e0bfd715 	stw	r2,-164(fp)
 10023bc:	e0ffd717 	ldw	r3,-164(fp)
 10023c0:	e0bfda17 	ldw	r2,-152(fp)
 10023c4:	18bfe736 	bltu	r3,r2,1002364 <__alt_data_end+0xfffe140c>
 10023c8:	e0bfcf17 	ldw	r2,-196(fp)
 10023cc:	10c00417 	ldw	r3,16(r2)
 10023d0:	e0bfda17 	ldw	r2,-152(fp)
 10023d4:	1887883a 	add	r3,r3,r2
 10023d8:	e0bfcf17 	ldw	r2,-196(fp)
 10023dc:	10c00415 	stw	r3,16(r2)
 10023e0:	e0bfcf17 	ldw	r2,-196(fp)
 10023e4:	11000417 	ldw	r4,16(r2)
 10023e8:	e0bfcf17 	ldw	r2,-196(fp)
 10023ec:	10800617 	ldw	r2,24(r2)
 10023f0:	10c00183 	ldbu	r3,6(r2)
 10023f4:	108001c3 	ldbu	r2,7(r2)
 10023f8:	1004923a 	slli	r2,r2,8
 10023fc:	10c4b03a 	or	r2,r2,r3
 1002400:	10bfffcc 	andi	r2,r2,65535
 1002404:	2080072e 	bgeu	r4,r2,1002424 <sls_avalon_usb20_irq+0x830>
 1002408:	e0bfea17 	ldw	r2,-88(fp)
 100240c:	11001204 	addi	r4,r2,72
 1002410:	e0bfe917 	ldw	r2,-92(fp)
 1002414:	1006947a 	slli	r3,r2,17
 1002418:	2005883a 	mov	r2,r4
 100241c:	10c00035 	stwio	r3,0(r2)
 1002420:	0000de06 	br	100279c <sls_avalon_usb20_irq+0xba8>
 1002424:	e0ffcf17 	ldw	r3,-196(fp)
 1002428:	00800044 	movi	r2,1
 100242c:	18800215 	stw	r2,8(r3)
 1002430:	e0bfcf17 	ldw	r2,-196(fp)
 1002434:	10000015 	stw	zero,0(r2)
 1002438:	e0bfcf17 	ldw	r2,-196(fp)
 100243c:	10000515 	stw	zero,20(r2)
 1002440:	e0bfd517 	ldw	r2,-172(fp)
 1002444:	10803d17 	ldw	r2,244(r2)
 1002448:	1005003a 	cmpeq	r2,r2,zero
 100244c:	10000f1e 	bne	r2,zero,100248c <sls_avalon_usb20_irq+0x898>
 1002450:	e0bfd517 	ldw	r2,-172(fp)
 1002454:	10803d17 	ldw	r2,244(r2)
 1002458:	e13fcf17 	ldw	r4,-196(fp)
 100245c:	e17fea17 	ldw	r5,-88(fp)
 1002460:	01800044 	movi	r6,1
 1002464:	103ee83a 	callr	r2
 1002468:	e0bfd517 	ldw	r2,-172(fp)
 100246c:	10003415 	stw	zero,208(r2)
 1002470:	e0bfcf17 	ldw	r2,-196(fp)
 1002474:	10000415 	stw	zero,16(r2)
 1002478:	e0bfcf17 	ldw	r2,-196(fp)
 100247c:	10800517 	ldw	r2,20(r2)
 1002480:	1005003a 	cmpeq	r2,r2,zero
 1002484:	10000c1e 	bne	r2,zero,10024b8 <sls_avalon_usb20_irq+0x8c4>
 1002488:	00001506 	br	10024e0 <sls_avalon_usb20_irq+0x8ec>
 100248c:	e13fd517 	ldw	r4,-172(fp)
 1002490:	01402004 	movi	r5,128
 1002494:	1000bf00 	call	1000bf0 <USB_SetStallEP>
 1002498:	e0ffcf17 	ldw	r3,-196(fp)
 100249c:	00800084 	movi	r2,2
 10024a0:	18800215 	stw	r2,8(r3)
 10024a4:	e0bfd517 	ldw	r2,-172(fp)
 10024a8:	10003415 	stw	zero,208(r2)
 10024ac:	e0bfcf17 	ldw	r2,-196(fp)
 10024b0:	10000415 	stw	zero,16(r2)
 10024b4:	0000b906 	br	100279c <sls_avalon_usb20_irq+0xba8>
 10024b8:	e0bfea17 	ldw	r2,-88(fp)
 10024bc:	11001204 	addi	r4,r2,72
 10024c0:	e0bfe917 	ldw	r2,-92(fp)
 10024c4:	1006947a 	slli	r3,r2,17
 10024c8:	2005883a 	mov	r2,r4
 10024cc:	10c00035 	stwio	r3,0(r2)
 10024d0:	e0bfea17 	ldw	r2,-88(fp)
 10024d4:	10801304 	addi	r2,r2,76
 10024d8:	10000035 	stwio	zero,0(r2)
 10024dc:	0000af06 	br	100279c <sls_avalon_usb20_irq+0xba8>
 10024e0:	e03fd715 	stw	zero,-164(fp)
 10024e4:	00001406 	br	1002538 <sls_avalon_usb20_irq+0x944>
 10024e8:	e0bfcf17 	ldw	r2,-196(fp)
 10024ec:	10800017 	ldw	r2,0(r2)
 10024f0:	1007883a 	mov	r3,r2
 10024f4:	e0bfd717 	ldw	r2,-164(fp)
 10024f8:	1885883a 	add	r2,r3,r2
 10024fc:	10800003 	ldbu	r2,0(r2)
 1002500:	e0bfd605 	stb	r2,-168(fp)
 1002504:	e0bfea17 	ldw	r2,-88(fp)
 1002508:	1007883a 	mov	r3,r2
 100250c:	e0bfd717 	ldw	r2,-164(fp)
 1002510:	1887883a 	add	r3,r3,r2
 1002514:	008000b4 	movhi	r2,2
 1002518:	1889883a 	add	r4,r3,r2
 100251c:	e0bfd603 	ldbu	r2,-168(fp)
 1002520:	10c03fcc 	andi	r3,r2,255
 1002524:	2005883a 	mov	r2,r4
 1002528:	10c00025 	stbio	r3,0(r2)
 100252c:	e0bfd717 	ldw	r2,-164(fp)
 1002530:	10800044 	addi	r2,r2,1
 1002534:	e0bfd715 	stw	r2,-164(fp)
 1002538:	e0bfcf17 	ldw	r2,-196(fp)
 100253c:	10c00517 	ldw	r3,20(r2)
 1002540:	e0bfd717 	ldw	r2,-164(fp)
 1002544:	10ffe836 	bltu	r2,r3,10024e8 <__alt_data_end+0xfffe1590>
 1002548:	e0bfea17 	ldw	r2,-88(fp)
 100254c:	11001304 	addi	r4,r2,76
 1002550:	e0bfcf17 	ldw	r2,-196(fp)
 1002554:	10800517 	ldw	r2,20(r2)
 1002558:	1004947a 	slli	r2,r2,17
 100255c:	1007883a 	mov	r3,r2
 1002560:	2005883a 	mov	r2,r4
 1002564:	10c00035 	stwio	r3,0(r2)
 1002568:	00008c06 	br	100279c <sls_avalon_usb20_irq+0xba8>
 100256c:	e0bfcf17 	ldw	r2,-196(fp)
 1002570:	10800617 	ldw	r2,24(r2)
 1002574:	10c00183 	ldbu	r3,6(r2)
 1002578:	108001c3 	ldbu	r2,7(r2)
 100257c:	1004923a 	slli	r2,r2,8
 1002580:	10c4b03a 	or	r2,r2,r3
 1002584:	10bfffcc 	andi	r2,r2,65535
 1002588:	1005003a 	cmpeq	r2,r2,zero
 100258c:	10000a1e 	bne	r2,zero,10025b8 <sls_avalon_usb20_irq+0x9c4>
 1002590:	e0bfcf17 	ldw	r2,-196(fp)
 1002594:	10800217 	ldw	r2,8(r2)
 1002598:	10800058 	cmpnei	r2,r2,1
 100259c:	1000061e 	bne	r2,zero,10025b8 <sls_avalon_usb20_irq+0x9c4>
 10025a0:	e0bfcf17 	ldw	r2,-196(fp)
 10025a4:	10000515 	stw	zero,20(r2)
 10025a8:	e0ffcf17 	ldw	r3,-196(fp)
 10025ac:	00800084 	movi	r2,2
 10025b0:	18800215 	stw	r2,8(r3)
 10025b4:	00006a06 	br	1002760 <sls_avalon_usb20_irq+0xb6c>
 10025b8:	e0bfcf17 	ldw	r2,-196(fp)
 10025bc:	10800617 	ldw	r2,24(r2)
 10025c0:	10c00183 	ldbu	r3,6(r2)
 10025c4:	108001c3 	ldbu	r2,7(r2)
 10025c8:	1004923a 	slli	r2,r2,8
 10025cc:	10c4b03a 	or	r2,r2,r3
 10025d0:	10bfffcc 	andi	r2,r2,65535
 10025d4:	1004c03a 	cmpne	r2,r2,zero
 10025d8:	1000611e 	bne	r2,zero,1002760 <sls_avalon_usb20_irq+0xb6c>
 10025dc:	e0bfcf17 	ldw	r2,-196(fp)
 10025e0:	10800617 	ldw	r2,24(r2)
 10025e4:	10c00003 	ldbu	r3,0(r2)
 10025e8:	00bfe004 	movi	r2,-128
 10025ec:	1884703a 	and	r2,r3,r2
 10025f0:	10803fcc 	andi	r2,r2,255
 10025f4:	1004c03a 	cmpne	r2,r2,zero
 10025f8:	1000591e 	bne	r2,zero,1002760 <sls_avalon_usb20_irq+0xb6c>
 10025fc:	e0bfcf17 	ldw	r2,-196(fp)
 1002600:	10800217 	ldw	r2,8(r2)
 1002604:	1004c03a 	cmpne	r2,r2,zero
 1002608:	1000551e 	bne	r2,zero,1002760 <sls_avalon_usb20_irq+0xb6c>
 100260c:	e0bfcf17 	ldw	r2,-196(fp)
 1002610:	10c00417 	ldw	r3,16(r2)
 1002614:	e0bfe917 	ldw	r2,-92(fp)
 1002618:	10bfffc4 	addi	r2,r2,-1
 100261c:	1884703a 	and	r2,r3,r2
 1002620:	1004c03a 	cmpne	r2,r2,zero
 1002624:	10004e1e 	bne	r2,zero,1002760 <sls_avalon_usb20_irq+0xb6c>
 1002628:	e0ffcf17 	ldw	r3,-196(fp)
 100262c:	00800044 	movi	r2,1
 1002630:	18800215 	stw	r2,8(r3)
 1002634:	e0bfcf17 	ldw	r2,-196(fp)
 1002638:	10000515 	stw	zero,20(r2)
 100263c:	e0bfcf17 	ldw	r2,-196(fp)
 1002640:	10000015 	stw	zero,0(r2)
 1002644:	e0bfd517 	ldw	r2,-172(fp)
 1002648:	10803d17 	ldw	r2,244(r2)
 100264c:	1005003a 	cmpeq	r2,r2,zero
 1002650:	10000f1e 	bne	r2,zero,1002690 <sls_avalon_usb20_irq+0xa9c>
 1002654:	e0bfd517 	ldw	r2,-172(fp)
 1002658:	10803d17 	ldw	r2,244(r2)
 100265c:	e13fcf17 	ldw	r4,-196(fp)
 1002660:	e17fea17 	ldw	r5,-88(fp)
 1002664:	01800044 	movi	r6,1
 1002668:	103ee83a 	callr	r2
 100266c:	e0bfd517 	ldw	r2,-172(fp)
 1002670:	10003415 	stw	zero,208(r2)
 1002674:	e0bfcf17 	ldw	r2,-196(fp)
 1002678:	10000415 	stw	zero,16(r2)
 100267c:	e0bfcf17 	ldw	r2,-196(fp)
 1002680:	10800517 	ldw	r2,20(r2)
 1002684:	1005003a 	cmpeq	r2,r2,zero
 1002688:	10000c1e 	bne	r2,zero,10026bc <sls_avalon_usb20_irq+0xac8>
 100268c:	00000f06 	br	10026cc <sls_avalon_usb20_irq+0xad8>
 1002690:	e13fd517 	ldw	r4,-172(fp)
 1002694:	01402004 	movi	r5,128
 1002698:	1000bf00 	call	1000bf0 <USB_SetStallEP>
 100269c:	e0ffcf17 	ldw	r3,-196(fp)
 10026a0:	00800084 	movi	r2,2
 10026a4:	18800215 	stw	r2,8(r3)
 10026a8:	e0bfd517 	ldw	r2,-172(fp)
 10026ac:	10003415 	stw	zero,208(r2)
 10026b0:	e0bfcf17 	ldw	r2,-196(fp)
 10026b4:	10000415 	stw	zero,16(r2)
 10026b8:	00003806 	br	100279c <sls_avalon_usb20_irq+0xba8>
 10026bc:	e0bfea17 	ldw	r2,-88(fp)
 10026c0:	10801304 	addi	r2,r2,76
 10026c4:	10000035 	stwio	zero,0(r2)
 10026c8:	00003406 	br	100279c <sls_avalon_usb20_irq+0xba8>
 10026cc:	e03fd715 	stw	zero,-164(fp)
 10026d0:	00001406 	br	1002724 <sls_avalon_usb20_irq+0xb30>
 10026d4:	e0bfcf17 	ldw	r2,-196(fp)
 10026d8:	10800017 	ldw	r2,0(r2)
 10026dc:	1007883a 	mov	r3,r2
 10026e0:	e0bfd717 	ldw	r2,-164(fp)
 10026e4:	1885883a 	add	r2,r3,r2
 10026e8:	10800003 	ldbu	r2,0(r2)
 10026ec:	e0bfd605 	stb	r2,-168(fp)
 10026f0:	e0bfea17 	ldw	r2,-88(fp)
 10026f4:	1007883a 	mov	r3,r2
 10026f8:	e0bfd717 	ldw	r2,-164(fp)
 10026fc:	1887883a 	add	r3,r3,r2
 1002700:	008000b4 	movhi	r2,2
 1002704:	1889883a 	add	r4,r3,r2
 1002708:	e0bfd603 	ldbu	r2,-168(fp)
 100270c:	10c03fcc 	andi	r3,r2,255
 1002710:	2005883a 	mov	r2,r4
 1002714:	10c00025 	stbio	r3,0(r2)
 1002718:	e0bfd717 	ldw	r2,-164(fp)
 100271c:	10800044 	addi	r2,r2,1
 1002720:	e0bfd715 	stw	r2,-164(fp)
 1002724:	e0bfcf17 	ldw	r2,-196(fp)
 1002728:	10c00517 	ldw	r3,20(r2)
 100272c:	e0bfd717 	ldw	r2,-164(fp)
 1002730:	10ffe836 	bltu	r2,r3,10026d4 <__alt_data_end+0xfffe177c>
 1002734:	e0bfea17 	ldw	r2,-88(fp)
 1002738:	11001304 	addi	r4,r2,76
 100273c:	e0bfcf17 	ldw	r2,-196(fp)
 1002740:	10800517 	ldw	r2,20(r2)
 1002744:	1004947a 	slli	r2,r2,17
 1002748:	1007883a 	mov	r3,r2
 100274c:	2005883a 	mov	r2,r4
 1002750:	10c00035 	stwio	r3,0(r2)
 1002754:	e0bfcf17 	ldw	r2,-196(fp)
 1002758:	10000515 	stw	zero,20(r2)
 100275c:	00000f06 	br	100279c <sls_avalon_usb20_irq+0xba8>
 1002760:	e0bfdc17 	ldw	r2,-144(fp)
 1002764:	108009cc 	andi	r2,r2,39
 1002768:	1005003a 	cmpeq	r2,r2,zero
 100276c:	10000b1e 	bne	r2,zero,100279c <sls_avalon_usb20_irq+0xba8>
 1002770:	e0bfd517 	ldw	r2,-172(fp)
 1002774:	10803c17 	ldw	r2,240(r2)
 1002778:	1005003a 	cmpeq	r2,r2,zero
 100277c:	1000071e 	bne	r2,zero,100279c <sls_avalon_usb20_irq+0xba8>
 1002780:	e0bfd517 	ldw	r2,-172(fp)
 1002784:	10c03c17 	ldw	r3,240(r2)
 1002788:	e0bfdc17 	ldw	r2,-144(fp)
 100278c:	108029cc 	andi	r2,r2,167
 1002790:	10b00034 	orhi	r2,r2,49152
 1002794:	1009883a 	mov	r4,r2
 1002798:	183ee83a 	callr	r3
 100279c:	e0bfdc17 	ldw	r2,-144(fp)
 10027a0:	1080100c 	andi	r2,r2,64
 10027a4:	1005003a 	cmpeq	r2,r2,zero
 10027a8:	10088d1e 	bne	r2,zero,10049e0 <sls_avalon_usb20_irq+0x2dec>
 10027ac:	e0bfea17 	ldw	r2,-88(fp)
 10027b0:	10800c04 	addi	r2,r2,48
 10027b4:	10800037 	ldwio	r2,0(r2)
 10027b8:	e0bfdc15 	stw	r2,-144(fp)
 10027bc:	e0bfdc17 	ldw	r2,-144(fp)
 10027c0:	1080200c 	andi	r2,r2,128
 10027c4:	1004d1fa 	srli	r2,r2,7
 10027c8:	e0bfe615 	stw	r2,-104(fp)
 10027cc:	e0bfdc17 	ldw	r2,-144(fp)
 10027d0:	1080180c 	andi	r2,r2,96
 10027d4:	1004d17a 	srli	r2,r2,5
 10027d8:	e0bfe715 	stw	r2,-100(fp)
 10027dc:	e0bfdc17 	ldw	r2,-144(fp)
 10027e0:	108007cc 	andi	r2,r2,31
 10027e4:	e0bfe815 	stw	r2,-96(fp)
 10027e8:	e0bfdc17 	ldw	r2,-144(fp)
 10027ec:	10bfc00c 	andi	r2,r2,65280
 10027f0:	1004d23a 	srli	r2,r2,8
 10027f4:	e0bfd115 	stw	r2,-188(fp)
 10027f8:	e0bfdc17 	ldw	r2,-144(fp)
 10027fc:	10bfffec 	andhi	r2,r2,65535
 1002800:	1004d43a 	srli	r2,r2,16
 1002804:	e0bfd30d 	sth	r2,-180(fp)
 1002808:	e0bfea17 	ldw	r2,-88(fp)
 100280c:	10800d04 	addi	r2,r2,52
 1002810:	10800037 	ldwio	r2,0(r2)
 1002814:	e0bfdc15 	stw	r2,-144(fp)
 1002818:	e0bfdc17 	ldw	r2,-144(fp)
 100281c:	e0bfd28d 	sth	r2,-182(fp)
 1002820:	e0bfdc17 	ldw	r2,-144(fp)
 1002824:	10bfffec 	andhi	r2,r2,65535
 1002828:	1004d43a 	srli	r2,r2,16
 100282c:	e0bfd20d 	sth	r2,-184(fp)
 1002830:	e0bfe817 	ldw	r2,-96(fp)
 1002834:	108007cc 	andi	r2,r2,31
 1002838:	e17fd017 	ldw	r5,-192(fp)
 100283c:	110007cc 	andi	r4,r2,31
 1002840:	28c00003 	ldbu	r3,0(r5)
 1002844:	00bff804 	movi	r2,-32
 1002848:	1884703a 	and	r2,r3,r2
 100284c:	1007883a 	mov	r3,r2
 1002850:	2005883a 	mov	r2,r4
 1002854:	1884b03a 	or	r2,r3,r2
 1002858:	28800005 	stb	r2,0(r5)
 100285c:	e0bfe717 	ldw	r2,-100(fp)
 1002860:	108000cc 	andi	r2,r2,3
 1002864:	e17fd017 	ldw	r5,-192(fp)
 1002868:	108000cc 	andi	r2,r2,3
 100286c:	1008917a 	slli	r4,r2,5
 1002870:	28c00003 	ldbu	r3,0(r5)
 1002874:	00bfe7c4 	movi	r2,-97
 1002878:	1884703a 	and	r2,r3,r2
 100287c:	1007883a 	mov	r3,r2
 1002880:	2005883a 	mov	r2,r4
 1002884:	1884b03a 	or	r2,r3,r2
 1002888:	28800005 	stb	r2,0(r5)
 100288c:	e0bfe617 	ldw	r2,-104(fp)
 1002890:	1080004c 	andi	r2,r2,1
 1002894:	e17fd017 	ldw	r5,-192(fp)
 1002898:	100891fa 	slli	r4,r2,7
 100289c:	28800003 	ldbu	r2,0(r5)
 10028a0:	10801fcc 	andi	r2,r2,127
 10028a4:	1007883a 	mov	r3,r2
 10028a8:	2005883a 	mov	r2,r4
 10028ac:	1884b03a 	or	r2,r3,r2
 10028b0:	28800005 	stb	r2,0(r5)
 10028b4:	e0bfd117 	ldw	r2,-188(fp)
 10028b8:	1007883a 	mov	r3,r2
 10028bc:	e0bfd017 	ldw	r2,-192(fp)
 10028c0:	10c00045 	stb	r3,1(r2)
 10028c4:	e13fd017 	ldw	r4,-192(fp)
 10028c8:	e0bfd317 	ldw	r2,-180(fp)
 10028cc:	11403fcc 	andi	r5,r2,255
 10028d0:	20800103 	ldbu	r2,4(r4)
 10028d4:	1004703a 	and	r2,r2,zero
 10028d8:	1007883a 	mov	r3,r2
 10028dc:	2805883a 	mov	r2,r5
 10028e0:	1884b03a 	or	r2,r3,r2
 10028e4:	20800105 	stb	r2,4(r4)
 10028e8:	e0bfd317 	ldw	r2,-180(fp)
 10028ec:	1004d23a 	srli	r2,r2,8
 10028f0:	11403fcc 	andi	r5,r2,255
 10028f4:	20800143 	ldbu	r2,5(r4)
 10028f8:	1004703a 	and	r2,r2,zero
 10028fc:	1007883a 	mov	r3,r2
 1002900:	2805883a 	mov	r2,r5
 1002904:	1884b03a 	or	r2,r3,r2
 1002908:	20800145 	stb	r2,5(r4)
 100290c:	e13fd017 	ldw	r4,-192(fp)
 1002910:	e0bfd28b 	ldhu	r2,-182(fp)
 1002914:	11403fcc 	andi	r5,r2,255
 1002918:	20800083 	ldbu	r2,2(r4)
 100291c:	1004703a 	and	r2,r2,zero
 1002920:	1007883a 	mov	r3,r2
 1002924:	2805883a 	mov	r2,r5
 1002928:	1884b03a 	or	r2,r3,r2
 100292c:	20800085 	stb	r2,2(r4)
 1002930:	e0bfd28b 	ldhu	r2,-182(fp)
 1002934:	1004d23a 	srli	r2,r2,8
 1002938:	117fffcc 	andi	r5,r2,65535
 100293c:	208000c3 	ldbu	r2,3(r4)
 1002940:	1004703a 	and	r2,r2,zero
 1002944:	1007883a 	mov	r3,r2
 1002948:	2805883a 	mov	r2,r5
 100294c:	1884b03a 	or	r2,r3,r2
 1002950:	208000c5 	stb	r2,3(r4)
 1002954:	e13fd017 	ldw	r4,-192(fp)
 1002958:	e0bfd217 	ldw	r2,-184(fp)
 100295c:	11403fcc 	andi	r5,r2,255
 1002960:	20800183 	ldbu	r2,6(r4)
 1002964:	1004703a 	and	r2,r2,zero
 1002968:	1007883a 	mov	r3,r2
 100296c:	2805883a 	mov	r2,r5
 1002970:	1884b03a 	or	r2,r3,r2
 1002974:	20800185 	stb	r2,6(r4)
 1002978:	e0bfd217 	ldw	r2,-184(fp)
 100297c:	1004d23a 	srli	r2,r2,8
 1002980:	11403fcc 	andi	r5,r2,255
 1002984:	208001c3 	ldbu	r2,7(r4)
 1002988:	1004703a 	and	r2,r2,zero
 100298c:	1007883a 	mov	r3,r2
 1002990:	2805883a 	mov	r2,r5
 1002994:	1884b03a 	or	r2,r3,r2
 1002998:	208001c5 	stb	r2,7(r4)
 100299c:	e0ffd017 	ldw	r3,-192(fp)
 10029a0:	e0bfcf17 	ldw	r2,-196(fp)
 10029a4:	10c00615 	stw	r3,24(r2)
 10029a8:	e0bfcf17 	ldw	r2,-196(fp)
 10029ac:	10000215 	stw	zero,8(r2)
 10029b0:	e0bfcf17 	ldw	r2,-196(fp)
 10029b4:	10000515 	stw	zero,20(r2)
 10029b8:	e0bfcf17 	ldw	r2,-196(fp)
 10029bc:	10000415 	stw	zero,16(r2)
 10029c0:	e0ffd017 	ldw	r3,-192(fp)
 10029c4:	18800183 	ldbu	r2,6(r3)
 10029c8:	11003fcc 	andi	r4,r2,255
 10029cc:	188001c3 	ldbu	r2,7(r3)
 10029d0:	10803fcc 	andi	r2,r2,255
 10029d4:	1004923a 	slli	r2,r2,8
 10029d8:	1104b03a 	or	r2,r2,r4
 10029dc:	10bfffcc 	andi	r2,r2,65535
 10029e0:	1004c03a 	cmpne	r2,r2,zero
 10029e4:	1000041e 	bne	r2,zero,10029f8 <sls_avalon_usb20_irq+0xe04>
 10029e8:	e0ffcf17 	ldw	r3,-196(fp)
 10029ec:	00800084 	movi	r2,2
 10029f0:	18800315 	stw	r2,12(r3)
 10029f4:	00001306 	br	1002a44 <sls_avalon_usb20_irq+0xe50>
 10029f8:	e0bfd017 	ldw	r2,-192(fp)
 10029fc:	10c00003 	ldbu	r3,0(r2)
 1002a00:	00bfe004 	movi	r2,-128
 1002a04:	1884703a 	and	r2,r3,r2
 1002a08:	10803fcc 	andi	r2,r2,255
 1002a0c:	1004c03a 	cmpne	r2,r2,zero
 1002a10:	1000021e 	bne	r2,zero,1002a1c <sls_avalon_usb20_irq+0xe28>
 1002a14:	e0bfcf17 	ldw	r2,-196(fp)
 1002a18:	10000315 	stw	zero,12(r2)
 1002a1c:	e0bfd017 	ldw	r2,-192(fp)
 1002a20:	10c00003 	ldbu	r3,0(r2)
 1002a24:	00bfe004 	movi	r2,-128
 1002a28:	1884703a 	and	r2,r3,r2
 1002a2c:	10803fcc 	andi	r2,r2,255
 1002a30:	1005003a 	cmpeq	r2,r2,zero
 1002a34:	1000031e 	bne	r2,zero,1002a44 <sls_avalon_usb20_irq+0xe50>
 1002a38:	e0ffcf17 	ldw	r3,-196(fp)
 1002a3c:	00800044 	movi	r2,1
 1002a40:	18800315 	stw	r2,12(r3)
 1002a44:	e0bfd017 	ldw	r2,-192(fp)
 1002a48:	10800003 	ldbu	r2,0(r2)
 1002a4c:	1080180c 	andi	r2,r2,96
 1002a50:	10803fcc 	andi	r2,r2,255
 1002a54:	1004c03a 	cmpne	r2,r2,zero
 1002a58:	1007111e 	bne	r2,zero,10046a0 <sls_avalon_usb20_irq+0x2aac>
 1002a5c:	e0bfd117 	ldw	r2,-188(fp)
 1002a60:	10800328 	cmpgeui	r2,r2,12
 1002a64:	1008781e 	bne	r2,zero,1004c48 <sls_avalon_usb20_irq+0x3054>
 1002a68:	e0bfd117 	ldw	r2,-188(fp)
 1002a6c:	1085883a 	add	r2,r2,r2
 1002a70:	1087883a 	add	r3,r2,r2
 1002a74:	00804034 	movhi	r2,256
 1002a78:	108aa204 	addi	r2,r2,10888
 1002a7c:	1885883a 	add	r2,r3,r2
 1002a80:	10800017 	ldw	r2,0(r2)
 1002a84:	1000683a 	jmp	r2
 1002a88:	01002ab8 	rdprs	r4,zero,170
 1002a8c:	0100402c 	andhi	r4,zero,256
 1002a90:	01004c48 	cmpgei	r4,zero,305
 1002a94:	01003d54 	movui	r4,245
 1002a98:	01004c48 	cmpgei	r4,zero,305
 1002a9c:	010036a4 	muli	r4,zero,218
 1002aa0:	01002c58 	cmpnei	r4,zero,177
 1002aa4:	01004c48 	cmpgei	r4,zero,305
 1002aa8:	01003c7c 	xorhi	r4,zero,241
 1002aac:	0100371c 	xori	r4,zero,220
 1002ab0:	010045f4 	movhi	r4,279
 1002ab4:	0100423c 	xorhi	r4,zero,264
 1002ab8:	e0bfe817 	ldw	r2,-96(fp)
 1002abc:	e0bfff15 	stw	r2,-4(fp)
 1002ac0:	e0ffff17 	ldw	r3,-4(fp)
 1002ac4:	18800060 	cmpeqi	r2,r3,1
 1002ac8:	1000171e 	bne	r2,zero,1002b28 <sls_avalon_usb20_irq+0xf34>
 1002acc:	e13fff17 	ldw	r4,-4(fp)
 1002ad0:	208000a0 	cmpeqi	r2,r4,2
 1002ad4:	10002f1e 	bne	r2,zero,1002b94 <sls_avalon_usb20_irq+0xfa0>
 1002ad8:	e0ffff17 	ldw	r3,-4(fp)
 1002adc:	1805003a 	cmpeq	r2,r3,zero
 1002ae0:	1000011e 	bne	r2,zero,1002ae8 <sls_avalon_usb20_irq+0xef4>
 1002ae4:	00085806 	br	1004c48 <sls_avalon_usb20_irq+0x3054>
 1002ae8:	e0bfea17 	ldw	r2,-88(fp)
 1002aec:	1007883a 	mov	r3,r2
 1002af0:	008000b4 	movhi	r2,2
 1002af4:	1889883a 	add	r4,r3,r2
 1002af8:	e0bfd517 	ldw	r2,-172(fp)
 1002afc:	10802917 	ldw	r2,164(r2)
 1002b00:	1007883a 	mov	r3,r2
 1002b04:	2005883a 	mov	r2,r4
 1002b08:	10c00035 	stwio	r3,0(r2)
 1002b0c:	e0bfea17 	ldw	r2,-88(fp)
 1002b10:	11001304 	addi	r4,r2,76
 1002b14:	e0bfd20b 	ldhu	r2,-184(fp)
 1002b18:	1006947a 	slli	r3,r2,17
 1002b1c:	2005883a 	mov	r2,r4
 1002b20:	10c00035 	stwio	r3,0(r2)
 1002b24:	00084806 	br	1004c48 <sls_avalon_usb20_irq+0x3054>
 1002b28:	e0bfd517 	ldw	r2,-172(fp)
 1002b2c:	10802817 	ldw	r2,160(r2)
 1002b30:	1005003a 	cmpeq	r2,r2,zero
 1002b34:	1000101e 	bne	r2,zero,1002b78 <sls_avalon_usb20_irq+0xf84>
 1002b38:	e0bfd28b 	ldhu	r2,-182(fp)
 1002b3c:	e0ffd517 	ldw	r3,-172(fp)
 1002b40:	18c02e17 	ldw	r3,184(r3)
 1002b44:	10c00c2e 	bgeu	r2,r3,1002b78 <sls_avalon_usb20_irq+0xf84>
 1002b48:	e0bfea17 	ldw	r2,-88(fp)
 1002b4c:	1007883a 	mov	r3,r2
 1002b50:	008000b4 	movhi	r2,2
 1002b54:	1885883a 	add	r2,r3,r2
 1002b58:	10000035 	stwio	zero,0(r2)
 1002b5c:	e0bfea17 	ldw	r2,-88(fp)
 1002b60:	11001304 	addi	r4,r2,76
 1002b64:	e0bfd20b 	ldhu	r2,-184(fp)
 1002b68:	1006947a 	slli	r3,r2,17
 1002b6c:	2005883a 	mov	r2,r4
 1002b70:	10c00035 	stwio	r3,0(r2)
 1002b74:	00083406 	br	1004c48 <sls_avalon_usb20_irq+0x3054>
 1002b78:	e13fd517 	ldw	r4,-172(fp)
 1002b7c:	01402004 	movi	r5,128
 1002b80:	1000bf00 	call	1000bf0 <USB_SetStallEP>
 1002b84:	e0ffcf17 	ldw	r3,-196(fp)
 1002b88:	00800084 	movi	r2,2
 1002b8c:	18800215 	stw	r2,8(r3)
 1002b90:	00082d06 	br	1004c48 <sls_avalon_usb20_irq+0x3054>
 1002b94:	e0bfd28b 	ldhu	r2,-182(fp)
 1002b98:	108023cc 	andi	r2,r2,143
 1002b9c:	e0bfd915 	stw	r2,-156(fp)
 1002ba0:	e0bfd517 	ldw	r2,-172(fp)
 1002ba4:	10802817 	ldw	r2,160(r2)
 1002ba8:	1004c03a 	cmpne	r2,r2,zero
 1002bac:	1000041e 	bne	r2,zero,1002bc0 <sls_avalon_usb20_irq+0xfcc>
 1002bb0:	e0bfd917 	ldw	r2,-156(fp)
 1002bb4:	108003cc 	andi	r2,r2,15
 1002bb8:	1004c03a 	cmpne	r2,r2,zero
 1002bbc:	10001f1e 	bne	r2,zero,1002c3c <sls_avalon_usb20_irq+0x1048>
 1002bc0:	e0bfd28b 	ldhu	r2,-182(fp)
 1002bc4:	108003cc 	andi	r2,r2,15
 1002bc8:	1004913a 	slli	r2,r2,4
 1002bcc:	1007883a 	mov	r3,r2
 1002bd0:	e0bfea17 	ldw	r2,-88(fp)
 1002bd4:	1885883a 	add	r2,r3,r2
 1002bd8:	10801004 	addi	r2,r2,64
 1002bdc:	10800037 	ldwio	r2,0(r2)
 1002be0:	1080202c 	andhi	r2,r2,128
 1002be4:	1005003a 	cmpeq	r2,r2,zero
 1002be8:	1000081e 	bne	r2,zero,1002c0c <sls_avalon_usb20_irq+0x1018>
 1002bec:	e0bfea17 	ldw	r2,-88(fp)
 1002bf0:	1007883a 	mov	r3,r2
 1002bf4:	008000b4 	movhi	r2,2
 1002bf8:	1885883a 	add	r2,r3,r2
 1002bfc:	1007883a 	mov	r3,r2
 1002c00:	00800044 	movi	r2,1
 1002c04:	18800025 	stbio	r2,0(r3)
 1002c08:	00000506 	br	1002c20 <sls_avalon_usb20_irq+0x102c>
 1002c0c:	e0bfea17 	ldw	r2,-88(fp)
 1002c10:	1007883a 	mov	r3,r2
 1002c14:	008000b4 	movhi	r2,2
 1002c18:	1885883a 	add	r2,r3,r2
 1002c1c:	10000025 	stbio	zero,0(r2)
 1002c20:	e0bfea17 	ldw	r2,-88(fp)
 1002c24:	11001304 	addi	r4,r2,76
 1002c28:	e0bfd20b 	ldhu	r2,-184(fp)
 1002c2c:	1006947a 	slli	r3,r2,17
 1002c30:	2005883a 	mov	r2,r4
 1002c34:	10c00035 	stwio	r3,0(r2)
 1002c38:	00080306 	br	1004c48 <sls_avalon_usb20_irq+0x3054>
 1002c3c:	e13fd517 	ldw	r4,-172(fp)
 1002c40:	01402004 	movi	r5,128
 1002c44:	1000bf00 	call	1000bf0 <USB_SetStallEP>
 1002c48:	e0ffcf17 	ldw	r3,-196(fp)
 1002c4c:	00800084 	movi	r2,2
 1002c50:	18800215 	stw	r2,8(r3)
 1002c54:	0007fc06 	br	1004c48 <sls_avalon_usb20_irq+0x3054>
 1002c58:	e13fe817 	ldw	r4,-96(fp)
 1002c5c:	e13ffe15 	stw	r4,-8(fp)
 1002c60:	e0fffe17 	ldw	r3,-8(fp)
 1002c64:	18800060 	cmpeqi	r2,r3,1
 1002c68:	1002181e 	bne	r2,zero,10034cc <sls_avalon_usb20_irq+0x18d8>
 1002c6c:	e13ffe17 	ldw	r4,-8(fp)
 1002c70:	208000a0 	cmpeqi	r2,r4,2
 1002c74:	1002531e 	bne	r2,zero,10035c4 <sls_avalon_usb20_irq+0x19d0>
 1002c78:	e0fffe17 	ldw	r3,-8(fp)
 1002c7c:	1805003a 	cmpeq	r2,r3,zero
 1002c80:	1000011e 	bne	r2,zero,1002c88 <sls_avalon_usb20_irq+0x1094>
 1002c84:	00028006 	br	1003688 <sls_avalon_usb20_irq+0x1a94>
 1002c88:	e0bfd30b 	ldhu	r2,-180(fp)
 1002c8c:	10bfc00c 	andi	r2,r2,65280
 1002c90:	1005d23a 	srai	r2,r2,8
 1002c94:	e0bffd15 	stw	r2,-12(fp)
 1002c98:	e13ffd17 	ldw	r4,-12(fp)
 1002c9c:	20800228 	cmpgeui	r2,r4,8
 1002ca0:	1002031e 	bne	r2,zero,10034b0 <sls_avalon_usb20_irq+0x18bc>
 1002ca4:	e0fffd17 	ldw	r3,-12(fp)
 1002ca8:	e0fffd17 	ldw	r3,-12(fp)
 1002cac:	18c5883a 	add	r2,r3,r3
 1002cb0:	1087883a 	add	r3,r2,r2
 1002cb4:	00804034 	movhi	r2,256
 1002cb8:	108b3204 	addi	r2,r2,11464
 1002cbc:	1885883a 	add	r2,r3,r2
 1002cc0:	10800017 	ldw	r2,0(r2)
 1002cc4:	1000683a 	jmp	r2
 1002cc8:	010034b0 	cmpltui	r4,zero,210
 1002ccc:	01002ce8 	cmpgeui	r4,zero,179
 1002cd0:	01002dd4 	movui	r4,183
 1002cd4:	0100308c 	andi	r4,zero,194
 1002cd8:	010034b0 	cmpltui	r4,zero,210
 1002cdc:	010034b0 	cmpltui	r4,zero,210
 1002ce0:	01003224 	muli	r4,zero,200
 1002ce4:	01003320 	cmpeqi	r4,zero,204
 1002ce8:	e0bfd20b 	ldhu	r2,-184(fp)
 1002cec:	108004e8 	cmpgeui	r2,r2,19
 1002cf0:	1000031e 	bne	r2,zero,1002d00 <sls_avalon_usb20_irq+0x110c>
 1002cf4:	e13fd20b 	ldhu	r4,-184(fp)
 1002cf8:	e13ffc15 	stw	r4,-16(fp)
 1002cfc:	00000206 	br	1002d08 <sls_avalon_usb20_irq+0x1114>
 1002d00:	00800484 	movi	r2,18
 1002d04:	e0bffc15 	stw	r2,-16(fp)
 1002d08:	e0fffc17 	ldw	r3,-16(fp)
 1002d0c:	e0ffcd15 	stw	r3,-204(fp)
 1002d10:	e0ffcd17 	ldw	r3,-204(fp)
 1002d14:	e0bfd517 	ldw	r2,-172(fp)
 1002d18:	10c03415 	stw	r3,208(r2)
 1002d1c:	e0ffe917 	ldw	r3,-92(fp)
 1002d20:	e0bfcd17 	ldw	r2,-204(fp)
 1002d24:	1880040e 	bge	r3,r2,1002d38 <sls_avalon_usb20_irq+0x1144>
 1002d28:	e0bfe917 	ldw	r2,-92(fp)
 1002d2c:	1007883a 	mov	r3,r2
 1002d30:	e0bfd517 	ldw	r2,-172(fp)
 1002d34:	10c03415 	stw	r3,208(r2)
 1002d38:	e03fd715 	stw	zero,-164(fp)
 1002d3c:	00001106 	br	1002d84 <sls_avalon_usb20_irq+0x1190>
 1002d40:	e0bfea17 	ldw	r2,-88(fp)
 1002d44:	1007883a 	mov	r3,r2
 1002d48:	e0bfd717 	ldw	r2,-164(fp)
 1002d4c:	1887883a 	add	r3,r3,r2
 1002d50:	008000b4 	movhi	r2,2
 1002d54:	1889883a 	add	r4,r3,r2
 1002d58:	e0bfd517 	ldw	r2,-172(fp)
 1002d5c:	10c00317 	ldw	r3,12(r2)
 1002d60:	e0bfd717 	ldw	r2,-164(fp)
 1002d64:	1885883a 	add	r2,r3,r2
 1002d68:	10800003 	ldbu	r2,0(r2)
 1002d6c:	10c03fcc 	andi	r3,r2,255
 1002d70:	2005883a 	mov	r2,r4
 1002d74:	10c00025 	stbio	r3,0(r2)
 1002d78:	e0bfd717 	ldw	r2,-164(fp)
 1002d7c:	10800044 	addi	r2,r2,1
 1002d80:	e0bfd715 	stw	r2,-164(fp)
 1002d84:	e0bfd517 	ldw	r2,-172(fp)
 1002d88:	10c03417 	ldw	r3,208(r2)
 1002d8c:	e0bfd717 	ldw	r2,-164(fp)
 1002d90:	10ffeb36 	bltu	r2,r3,1002d40 <__alt_data_end+0xfffe1de8>
 1002d94:	e0bfd517 	ldw	r2,-172(fp)
 1002d98:	10c00317 	ldw	r3,12(r2)
 1002d9c:	e0bfcf17 	ldw	r2,-196(fp)
 1002da0:	10c00115 	stw	r3,4(r2)
 1002da4:	e0ffcd17 	ldw	r3,-204(fp)
 1002da8:	e0bfcf17 	ldw	r2,-196(fp)
 1002dac:	10c00415 	stw	r3,16(r2)
 1002db0:	e0bfea17 	ldw	r2,-88(fp)
 1002db4:	11001304 	addi	r4,r2,76
 1002db8:	e0bfd517 	ldw	r2,-172(fp)
 1002dbc:	10803417 	ldw	r2,208(r2)
 1002dc0:	1004947a 	slli	r2,r2,17
 1002dc4:	1007883a 	mov	r3,r2
 1002dc8:	2005883a 	mov	r2,r4
 1002dcc:	10c00035 	stwio	r3,0(r2)
 1002dd0:	00079d06 	br	1004c48 <sls_avalon_usb20_irq+0x3054>
 1002dd4:	e0bfd517 	ldw	r2,-172(fp)
 1002dd8:	10800c17 	ldw	r2,48(r2)
 1002ddc:	10800058 	cmpnei	r2,r2,1
 1002de0:	1000041e 	bne	r2,zero,1002df4 <sls_avalon_usb20_irq+0x1200>
 1002de4:	e0bfd517 	ldw	r2,-172(fp)
 1002de8:	10800417 	ldw	r2,16(r2)
 1002dec:	e0bfce15 	stw	r2,-200(fp)
 1002df0:	00000f06 	br	1002e30 <sls_avalon_usb20_irq+0x123c>
 1002df4:	e0bfd517 	ldw	r2,-172(fp)
 1002df8:	10800c17 	ldw	r2,48(r2)
 1002dfc:	1004c03a 	cmpne	r2,r2,zero
 1002e00:	1000041e 	bne	r2,zero,1002e14 <sls_avalon_usb20_irq+0x1220>
 1002e04:	e0bfd517 	ldw	r2,-172(fp)
 1002e08:	10800517 	ldw	r2,20(r2)
 1002e0c:	e0bfce15 	stw	r2,-200(fp)
 1002e10:	00000706 	br	1002e30 <sls_avalon_usb20_irq+0x123c>
 1002e14:	e0bfd517 	ldw	r2,-172(fp)
 1002e18:	10800c17 	ldw	r2,48(r2)
 1002e1c:	10800098 	cmpnei	r2,r2,2
 1002e20:	1000031e 	bne	r2,zero,1002e30 <sls_avalon_usb20_irq+0x123c>
 1002e24:	e0bfd517 	ldw	r2,-172(fp)
 1002e28:	10800617 	ldw	r2,24(r2)
 1002e2c:	e0bfce15 	stw	r2,-200(fp)
 1002e30:	e0bfce17 	ldw	r2,-200(fp)
 1002e34:	10800003 	ldbu	r2,0(r2)
 1002e38:	10803fcc 	andi	r2,r2,255
 1002e3c:	e0bfdf15 	stw	r2,-132(fp)
 1002e40:	e0bfce17 	ldw	r2,-200(fp)
 1002e44:	10c00083 	ldbu	r3,2(r2)
 1002e48:	108000c3 	ldbu	r2,3(r2)
 1002e4c:	1004923a 	slli	r2,r2,8
 1002e50:	10c4b03a 	or	r2,r2,r3
 1002e54:	10bfffcc 	andi	r2,r2,65535
 1002e58:	e0bfd815 	stw	r2,-160(fp)
 1002e5c:	e03fd915 	stw	zero,-156(fp)
 1002e60:	00000b06 	br	1002e90 <sls_avalon_usb20_irq+0x129c>
 1002e64:	e0bfdf17 	ldw	r2,-132(fp)
 1002e68:	1005003a 	cmpeq	r2,r2,zero
 1002e6c:	1000051e 	bne	r2,zero,1002e84 <sls_avalon_usb20_irq+0x1290>
 1002e70:	e0bfd817 	ldw	r2,-160(fp)
 1002e74:	1007883a 	mov	r3,r2
 1002e78:	e0bfce17 	ldw	r2,-200(fp)
 1002e7c:	10c5883a 	add	r2,r2,r3
 1002e80:	e0bfce15 	stw	r2,-200(fp)
 1002e84:	e0bfd917 	ldw	r2,-156(fp)
 1002e88:	10800044 	addi	r2,r2,1
 1002e8c:	e0bfd915 	stw	r2,-156(fp)
 1002e90:	e0bfd30b 	ldhu	r2,-180(fp)
 1002e94:	10c03fcc 	andi	r3,r2,255
 1002e98:	e0bfd917 	ldw	r2,-156(fp)
 1002e9c:	18bff11e 	bne	r3,r2,1002e64 <__alt_data_end+0xfffe1f0c>
 1002ea0:	e0bfce17 	ldw	r2,-200(fp)
 1002ea4:	10800003 	ldbu	r2,0(r2)
 1002ea8:	10803fcc 	andi	r2,r2,255
 1002eac:	e0bfdf15 	stw	r2,-132(fp)
 1002eb0:	e0bfdf17 	ldw	r2,-132(fp)
 1002eb4:	1004c03a 	cmpne	r2,r2,zero
 1002eb8:	1000071e 	bne	r2,zero,1002ed8 <sls_avalon_usb20_irq+0x12e4>
 1002ebc:	e13fd517 	ldw	r4,-172(fp)
 1002ec0:	01402004 	movi	r5,128
 1002ec4:	1000bf00 	call	1000bf0 <USB_SetStallEP>
 1002ec8:	e0ffcf17 	ldw	r3,-196(fp)
 1002ecc:	00800084 	movi	r2,2
 1002ed0:	18800215 	stw	r2,8(r3)
 1002ed4:	00075c06 	br	1004c48 <sls_avalon_usb20_irq+0x3054>
 1002ed8:	e0bfce17 	ldw	r2,-200(fp)
 1002edc:	e0bfd415 	stw	r2,-176(fp)
 1002ee0:	e0bfd20b 	ldhu	r2,-184(fp)
 1002ee4:	10800258 	cmpnei	r2,r2,9
 1002ee8:	1000281e 	bne	r2,zero,1002f8c <sls_avalon_usb20_irq+0x1398>
 1002eec:	e0bfd20b 	ldhu	r2,-184(fp)
 1002ef0:	e0bfda15 	stw	r2,-152(fp)
 1002ef4:	e0ffda17 	ldw	r3,-152(fp)
 1002ef8:	e0bfcf17 	ldw	r2,-196(fp)
 1002efc:	10c00415 	stw	r3,16(r2)
 1002f00:	e0ffda17 	ldw	r3,-152(fp)
 1002f04:	e0bfd517 	ldw	r2,-172(fp)
 1002f08:	10c03415 	stw	r3,208(r2)
 1002f0c:	e03fec15 	stw	zero,-80(fp)
 1002f10:	00001206 	br	1002f5c <sls_avalon_usb20_irq+0x1368>
 1002f14:	e0bfea17 	ldw	r2,-88(fp)
 1002f18:	1007883a 	mov	r3,r2
 1002f1c:	e0bfec17 	ldw	r2,-80(fp)
 1002f20:	1887883a 	add	r3,r3,r2
 1002f24:	008000b4 	movhi	r2,2
 1002f28:	1889883a 	add	r4,r3,r2
 1002f2c:	e0ffd417 	ldw	r3,-176(fp)
 1002f30:	e0bfec17 	ldw	r2,-80(fp)
 1002f34:	1885883a 	add	r2,r3,r2
 1002f38:	10800003 	ldbu	r2,0(r2)
 1002f3c:	10c03fcc 	andi	r3,r2,255
 1002f40:	18c0201c 	xori	r3,r3,128
 1002f44:	18ffe004 	addi	r3,r3,-128
 1002f48:	2005883a 	mov	r2,r4
 1002f4c:	10c00025 	stbio	r3,0(r2)
 1002f50:	e0bfec17 	ldw	r2,-80(fp)
 1002f54:	10800044 	addi	r2,r2,1
 1002f58:	e0bfec15 	stw	r2,-80(fp)
 1002f5c:	e0bfec17 	ldw	r2,-80(fp)
 1002f60:	1007883a 	mov	r3,r2
 1002f64:	e0bfda17 	ldw	r2,-152(fp)
 1002f68:	18bfea36 	bltu	r3,r2,1002f14 <__alt_data_end+0xfffe1fbc>
 1002f6c:	e0bfea17 	ldw	r2,-88(fp)
 1002f70:	11001304 	addi	r4,r2,76
 1002f74:	e0bfda17 	ldw	r2,-152(fp)
 1002f78:	1004947a 	slli	r2,r2,17
 1002f7c:	1007883a 	mov	r3,r2
 1002f80:	2005883a 	mov	r2,r4
 1002f84:	10c00035 	stwio	r3,0(r2)
 1002f88:	00072f06 	br	1004c48 <sls_avalon_usb20_irq+0x3054>
 1002f8c:	e0ffcf17 	ldw	r3,-196(fp)
 1002f90:	e0bfce17 	ldw	r2,-200(fp)
 1002f94:	18800115 	stw	r2,4(r3)
 1002f98:	e0bfd417 	ldw	r2,-176(fp)
 1002f9c:	10c00083 	ldbu	r3,2(r2)
 1002fa0:	108000c3 	ldbu	r2,3(r2)
 1002fa4:	1004923a 	slli	r2,r2,8
 1002fa8:	10c4b03a 	or	r2,r2,r3
 1002fac:	10bfffcc 	andi	r2,r2,65535
 1002fb0:	e0bfda15 	stw	r2,-152(fp)
 1002fb4:	e0ffd20b 	ldhu	r3,-184(fp)
 1002fb8:	e0bfda17 	ldw	r2,-152(fp)
 1002fbc:	1880022e 	bgeu	r3,r2,1002fc8 <sls_avalon_usb20_irq+0x13d4>
 1002fc0:	e0bfd20b 	ldhu	r2,-184(fp)
 1002fc4:	e0bfda15 	stw	r2,-152(fp)
 1002fc8:	e0ffda17 	ldw	r3,-152(fp)
 1002fcc:	e0bfcf17 	ldw	r2,-196(fp)
 1002fd0:	10c00415 	stw	r3,16(r2)
 1002fd4:	e0ffda17 	ldw	r3,-152(fp)
 1002fd8:	e0bfd517 	ldw	r2,-172(fp)
 1002fdc:	10c03415 	stw	r3,208(r2)
 1002fe0:	e0bfe917 	ldw	r2,-92(fp)
 1002fe4:	1007883a 	mov	r3,r2
 1002fe8:	e0bfda17 	ldw	r2,-152(fp)
 1002fec:	1880042e 	bgeu	r3,r2,1003000 <sls_avalon_usb20_irq+0x140c>
 1002ff0:	e0bfe917 	ldw	r2,-92(fp)
 1002ff4:	1007883a 	mov	r3,r2
 1002ff8:	e0bfd517 	ldw	r2,-172(fp)
 1002ffc:	10c03415 	stw	r3,208(r2)
 1003000:	e0bfd517 	ldw	r2,-172(fp)
 1003004:	10803417 	ldw	r2,208(r2)
 1003008:	e0bfda15 	stw	r2,-152(fp)
 100300c:	e03fed15 	stw	zero,-76(fp)
 1003010:	00001206 	br	100305c <sls_avalon_usb20_irq+0x1468>
 1003014:	e0bfea17 	ldw	r2,-88(fp)
 1003018:	1007883a 	mov	r3,r2
 100301c:	e0bfed17 	ldw	r2,-76(fp)
 1003020:	1887883a 	add	r3,r3,r2
 1003024:	008000b4 	movhi	r2,2
 1003028:	1889883a 	add	r4,r3,r2
 100302c:	e0ffd417 	ldw	r3,-176(fp)
 1003030:	e0bfed17 	ldw	r2,-76(fp)
 1003034:	1885883a 	add	r2,r3,r2
 1003038:	10800003 	ldbu	r2,0(r2)
 100303c:	10c03fcc 	andi	r3,r2,255
 1003040:	18c0201c 	xori	r3,r3,128
 1003044:	18ffe004 	addi	r3,r3,-128
 1003048:	2005883a 	mov	r2,r4
 100304c:	10c00025 	stbio	r3,0(r2)
 1003050:	e0bfed17 	ldw	r2,-76(fp)
 1003054:	10800044 	addi	r2,r2,1
 1003058:	e0bfed15 	stw	r2,-76(fp)
 100305c:	e0bfed17 	ldw	r2,-76(fp)
 1003060:	1007883a 	mov	r3,r2
 1003064:	e0bfda17 	ldw	r2,-152(fp)
 1003068:	18bfea36 	bltu	r3,r2,1003014 <__alt_data_end+0xfffe20bc>
 100306c:	e0bfea17 	ldw	r2,-88(fp)
 1003070:	11001304 	addi	r4,r2,76
 1003074:	e0bfda17 	ldw	r2,-152(fp)
 1003078:	1004947a 	slli	r2,r2,17
 100307c:	1007883a 	mov	r3,r2
 1003080:	2005883a 	mov	r2,r4
 1003084:	10c00035 	stwio	r3,0(r2)
 1003088:	0006ef06 	br	1004c48 <sls_avalon_usb20_irq+0x3054>
 100308c:	e0bfd30b 	ldhu	r2,-180(fp)
 1003090:	10c03fcc 	andi	r3,r2,255
 1003094:	e0bfd517 	ldw	r2,-172(fp)
 1003098:	10801817 	ldw	r2,96(r2)
 100309c:	1880042e 	bgeu	r3,r2,10030b0 <sls_avalon_usb20_irq+0x14bc>
 10030a0:	e0bfd517 	ldw	r2,-172(fp)
 10030a4:	10800717 	ldw	r2,28(r2)
 10030a8:	1004c03a 	cmpne	r2,r2,zero
 10030ac:	1000071e 	bne	r2,zero,10030cc <sls_avalon_usb20_irq+0x14d8>
 10030b0:	e13fd517 	ldw	r4,-172(fp)
 10030b4:	01402004 	movi	r5,128
 10030b8:	1000bf00 	call	1000bf0 <USB_SetStallEP>
 10030bc:	e0ffcf17 	ldw	r3,-196(fp)
 10030c0:	00800084 	movi	r2,2
 10030c4:	18800215 	stw	r2,8(r3)
 10030c8:	0006df06 	br	1004c48 <sls_avalon_usb20_irq+0x3054>
 10030cc:	e0bfd517 	ldw	r2,-172(fp)
 10030d0:	11000817 	ldw	r4,32(r2)
 10030d4:	e0bfd517 	ldw	r2,-172(fp)
 10030d8:	10c00717 	ldw	r3,28(r2)
 10030dc:	e0bfd30b 	ldhu	r2,-180(fp)
 10030e0:	10803fcc 	andi	r2,r2,255
 10030e4:	1085883a 	add	r2,r2,r2
 10030e8:	1085883a 	add	r2,r2,r2
 10030ec:	1885883a 	add	r2,r3,r2
 10030f0:	10800017 	ldw	r2,0(r2)
 10030f4:	2085883a 	add	r2,r4,r2
 10030f8:	e0bfce15 	stw	r2,-200(fp)
 10030fc:	e0bfce17 	ldw	r2,-200(fp)
 1003100:	10800003 	ldbu	r2,0(r2)
 1003104:	10803fcc 	andi	r2,r2,255
 1003108:	e0bfdf15 	stw	r2,-132(fp)
 100310c:	e0bfdf17 	ldw	r2,-132(fp)
 1003110:	e0bfda15 	stw	r2,-152(fp)
 1003114:	e0ffd20b 	ldhu	r3,-184(fp)
 1003118:	e0bfda17 	ldw	r2,-152(fp)
 100311c:	1880022e 	bgeu	r3,r2,1003128 <sls_avalon_usb20_irq+0x1534>
 1003120:	e0bfd20b 	ldhu	r2,-184(fp)
 1003124:	e0bfda15 	stw	r2,-152(fp)
 1003128:	e0ffda17 	ldw	r3,-152(fp)
 100312c:	e0bfcf17 	ldw	r2,-196(fp)
 1003130:	10c00415 	stw	r3,16(r2)
 1003134:	e0ffda17 	ldw	r3,-152(fp)
 1003138:	e0bfd517 	ldw	r2,-172(fp)
 100313c:	10c03415 	stw	r3,208(r2)
 1003140:	e0bfe917 	ldw	r2,-92(fp)
 1003144:	1007883a 	mov	r3,r2
 1003148:	e0bfda17 	ldw	r2,-152(fp)
 100314c:	1880042e 	bgeu	r3,r2,1003160 <sls_avalon_usb20_irq+0x156c>
 1003150:	e0bfe917 	ldw	r2,-92(fp)
 1003154:	1007883a 	mov	r3,r2
 1003158:	e0bfd517 	ldw	r2,-172(fp)
 100315c:	10c03415 	stw	r3,208(r2)
 1003160:	e0bfd517 	ldw	r2,-172(fp)
 1003164:	10803417 	ldw	r2,208(r2)
 1003168:	e0bfda15 	stw	r2,-152(fp)
 100316c:	e0bfd517 	ldw	r2,-172(fp)
 1003170:	11000817 	ldw	r4,32(r2)
 1003174:	e0bfd517 	ldw	r2,-172(fp)
 1003178:	10c00717 	ldw	r3,28(r2)
 100317c:	e0bfd30b 	ldhu	r2,-180(fp)
 1003180:	10803fcc 	andi	r2,r2,255
 1003184:	1085883a 	add	r2,r2,r2
 1003188:	1085883a 	add	r2,r2,r2
 100318c:	1885883a 	add	r2,r3,r2
 1003190:	10800017 	ldw	r2,0(r2)
 1003194:	2085883a 	add	r2,r4,r2
 1003198:	e0bfce15 	stw	r2,-200(fp)
 100319c:	e0ffcf17 	ldw	r3,-196(fp)
 10031a0:	e0bfce17 	ldw	r2,-200(fp)
 10031a4:	18800115 	stw	r2,4(r3)
 10031a8:	e03fd715 	stw	zero,-164(fp)
 10031ac:	00001206 	br	10031f8 <sls_avalon_usb20_irq+0x1604>
 10031b0:	e0bfea17 	ldw	r2,-88(fp)
 10031b4:	1007883a 	mov	r3,r2
 10031b8:	e0bfd717 	ldw	r2,-164(fp)
 10031bc:	1887883a 	add	r3,r3,r2
 10031c0:	008000b4 	movhi	r2,2
 10031c4:	1889883a 	add	r4,r3,r2
 10031c8:	e0ffce17 	ldw	r3,-200(fp)
 10031cc:	e0bfd717 	ldw	r2,-164(fp)
 10031d0:	1885883a 	add	r2,r3,r2
 10031d4:	10800003 	ldbu	r2,0(r2)
 10031d8:	10c03fcc 	andi	r3,r2,255
 10031dc:	18c0201c 	xori	r3,r3,128
 10031e0:	18ffe004 	addi	r3,r3,-128
 10031e4:	2005883a 	mov	r2,r4
 10031e8:	10c00025 	stbio	r3,0(r2)
 10031ec:	e0bfd717 	ldw	r2,-164(fp)
 10031f0:	10800044 	addi	r2,r2,1
 10031f4:	e0bfd715 	stw	r2,-164(fp)
 10031f8:	e0ffd717 	ldw	r3,-164(fp)
 10031fc:	e0bfda17 	ldw	r2,-152(fp)
 1003200:	18bfeb36 	bltu	r3,r2,10031b0 <__alt_data_end+0xfffe2258>
 1003204:	e0bfea17 	ldw	r2,-88(fp)
 1003208:	11001304 	addi	r4,r2,76
 100320c:	e0bfda17 	ldw	r2,-152(fp)
 1003210:	1004947a 	slli	r2,r2,17
 1003214:	1007883a 	mov	r3,r2
 1003218:	2005883a 	mov	r2,r4
 100321c:	10c00035 	stwio	r3,0(r2)
 1003220:	00068906 	br	1004c48 <sls_avalon_usb20_irq+0x3054>
 1003224:	e0bfd517 	ldw	r2,-172(fp)
 1003228:	10800917 	ldw	r2,36(r2)
 100322c:	e0bfce15 	stw	r2,-200(fp)
 1003230:	e0bfd20b 	ldhu	r2,-184(fp)
 1003234:	10800118 	cmpnei	r2,r2,4
 1003238:	10001d1e 	bne	r2,zero,10032b0 <sls_avalon_usb20_irq+0x16bc>
 100323c:	e03fd715 	stw	zero,-164(fp)
 1003240:	00001106 	br	1003288 <sls_avalon_usb20_irq+0x1694>
 1003244:	e0bfea17 	ldw	r2,-88(fp)
 1003248:	1007883a 	mov	r3,r2
 100324c:	e0bfd717 	ldw	r2,-164(fp)
 1003250:	1887883a 	add	r3,r3,r2
 1003254:	008000b4 	movhi	r2,2
 1003258:	1889883a 	add	r4,r3,r2
 100325c:	e0bfd717 	ldw	r2,-164(fp)
 1003260:	1007883a 	mov	r3,r2
 1003264:	e0bfce17 	ldw	r2,-200(fp)
 1003268:	1885883a 	add	r2,r3,r2
 100326c:	10800003 	ldbu	r2,0(r2)
 1003270:	10c03fcc 	andi	r3,r2,255
 1003274:	2005883a 	mov	r2,r4
 1003278:	10c00025 	stbio	r3,0(r2)
 100327c:	e0bfd717 	ldw	r2,-164(fp)
 1003280:	10800044 	addi	r2,r2,1
 1003284:	e0bfd715 	stw	r2,-164(fp)
 1003288:	e0ffd20b 	ldhu	r3,-184(fp)
 100328c:	e0bfd717 	ldw	r2,-164(fp)
 1003290:	10ffec36 	bltu	r2,r3,1003244 <__alt_data_end+0xfffe22ec>
 1003294:	e0bfea17 	ldw	r2,-88(fp)
 1003298:	11001304 	addi	r4,r2,76
 100329c:	e0bfd20b 	ldhu	r2,-184(fp)
 10032a0:	1006947a 	slli	r3,r2,17
 10032a4:	2005883a 	mov	r2,r4
 10032a8:	10c00035 	stwio	r3,0(r2)
 10032ac:	00066606 	br	1004c48 <sls_avalon_usb20_irq+0x3054>
 10032b0:	e03fd715 	stw	zero,-164(fp)
 10032b4:	00001106 	br	10032fc <sls_avalon_usb20_irq+0x1708>
 10032b8:	e0bfea17 	ldw	r2,-88(fp)
 10032bc:	1007883a 	mov	r3,r2
 10032c0:	e0bfd717 	ldw	r2,-164(fp)
 10032c4:	1887883a 	add	r3,r3,r2
 10032c8:	008000b4 	movhi	r2,2
 10032cc:	1889883a 	add	r4,r3,r2
 10032d0:	e0bfd717 	ldw	r2,-164(fp)
 10032d4:	1007883a 	mov	r3,r2
 10032d8:	e0bfce17 	ldw	r2,-200(fp)
 10032dc:	1885883a 	add	r2,r3,r2
 10032e0:	10800003 	ldbu	r2,0(r2)
 10032e4:	10c03fcc 	andi	r3,r2,255
 10032e8:	2005883a 	mov	r2,r4
 10032ec:	10c00025 	stbio	r3,0(r2)
 10032f0:	e0bfd717 	ldw	r2,-164(fp)
 10032f4:	10800044 	addi	r2,r2,1
 10032f8:	e0bfd715 	stw	r2,-164(fp)
 10032fc:	e0bfd717 	ldw	r2,-164(fp)
 1003300:	108002b0 	cmpltui	r2,r2,10
 1003304:	103fec1e 	bne	r2,zero,10032b8 <__alt_data_end+0xfffe2360>
 1003308:	e0bfea17 	ldw	r2,-88(fp)
 100330c:	10801304 	addi	r2,r2,76
 1003310:	1007883a 	mov	r3,r2
 1003314:	00800534 	movhi	r2,20
 1003318:	18800035 	stwio	r2,0(r3)
 100331c:	00064a06 	br	1004c48 <sls_avalon_usb20_irq+0x3054>
 1003320:	e0bfd517 	ldw	r2,-172(fp)
 1003324:	10800c17 	ldw	r2,48(r2)
 1003328:	1005003a 	cmpeq	r2,r2,zero
 100332c:	1000041e 	bne	r2,zero,1003340 <sls_avalon_usb20_irq+0x174c>
 1003330:	e0bfd517 	ldw	r2,-172(fp)
 1003334:	10800b17 	ldw	r2,44(r2)
 1003338:	e0bfce15 	stw	r2,-200(fp)
 100333c:	00000306 	br	100334c <sls_avalon_usb20_irq+0x1758>
 1003340:	e0bfd517 	ldw	r2,-172(fp)
 1003344:	10800a17 	ldw	r2,40(r2)
 1003348:	e0bfce15 	stw	r2,-200(fp)
 100334c:	e0bfd20b 	ldhu	r2,-184(fp)
 1003350:	10800258 	cmpnei	r2,r2,9
 1003354:	10001d1e 	bne	r2,zero,10033cc <sls_avalon_usb20_irq+0x17d8>
 1003358:	e03fd715 	stw	zero,-164(fp)
 100335c:	00001106 	br	10033a4 <sls_avalon_usb20_irq+0x17b0>
 1003360:	e0bfea17 	ldw	r2,-88(fp)
 1003364:	1007883a 	mov	r3,r2
 1003368:	e0bfd717 	ldw	r2,-164(fp)
 100336c:	1887883a 	add	r3,r3,r2
 1003370:	008000b4 	movhi	r2,2
 1003374:	1889883a 	add	r4,r3,r2
 1003378:	e0bfd717 	ldw	r2,-164(fp)
 100337c:	1007883a 	mov	r3,r2
 1003380:	e0bfce17 	ldw	r2,-200(fp)
 1003384:	1885883a 	add	r2,r3,r2
 1003388:	10800003 	ldbu	r2,0(r2)
 100338c:	10c03fcc 	andi	r3,r2,255
 1003390:	2005883a 	mov	r2,r4
 1003394:	10c00025 	stbio	r3,0(r2)
 1003398:	e0bfd717 	ldw	r2,-164(fp)
 100339c:	10800044 	addi	r2,r2,1
 10033a0:	e0bfd715 	stw	r2,-164(fp)
 10033a4:	e0ffd20b 	ldhu	r3,-184(fp)
 10033a8:	e0bfd717 	ldw	r2,-164(fp)
 10033ac:	10ffec36 	bltu	r2,r3,1003360 <__alt_data_end+0xfffe2408>
 10033b0:	e0bfea17 	ldw	r2,-88(fp)
 10033b4:	11001304 	addi	r4,r2,76
 10033b8:	e0bfd20b 	ldhu	r2,-184(fp)
 10033bc:	1006947a 	slli	r3,r2,17
 10033c0:	2005883a 	mov	r2,r4
 10033c4:	10c00035 	stwio	r3,0(r2)
 10033c8:	00061f06 	br	1004c48 <sls_avalon_usb20_irq+0x3054>
 10033cc:	e0bfce17 	ldw	r2,-200(fp)
 10033d0:	10c00083 	ldbu	r3,2(r2)
 10033d4:	108000c3 	ldbu	r2,3(r2)
 10033d8:	1004923a 	slli	r2,r2,8
 10033dc:	10c4b03a 	or	r2,r2,r3
 10033e0:	10bfffcc 	andi	r2,r2,65535
 10033e4:	e0bfda15 	stw	r2,-152(fp)
 10033e8:	e0ffda17 	ldw	r3,-152(fp)
 10033ec:	e0bfcf17 	ldw	r2,-196(fp)
 10033f0:	10c00415 	stw	r3,16(r2)
 10033f4:	e0ffda17 	ldw	r3,-152(fp)
 10033f8:	e0bfd517 	ldw	r2,-172(fp)
 10033fc:	10c03415 	stw	r3,208(r2)
 1003400:	e0bfe917 	ldw	r2,-92(fp)
 1003404:	1007883a 	mov	r3,r2
 1003408:	e0bfda17 	ldw	r2,-152(fp)
 100340c:	1880042e 	bgeu	r3,r2,1003420 <sls_avalon_usb20_irq+0x182c>
 1003410:	e0bfe917 	ldw	r2,-92(fp)
 1003414:	1007883a 	mov	r3,r2
 1003418:	e0bfd517 	ldw	r2,-172(fp)
 100341c:	10c03415 	stw	r3,208(r2)
 1003420:	e0bfd517 	ldw	r2,-172(fp)
 1003424:	10803417 	ldw	r2,208(r2)
 1003428:	e0bfda15 	stw	r2,-152(fp)
 100342c:	e0ffcf17 	ldw	r3,-196(fp)
 1003430:	e0bfce17 	ldw	r2,-200(fp)
 1003434:	18800115 	stw	r2,4(r3)
 1003438:	e03fd715 	stw	zero,-164(fp)
 100343c:	00001106 	br	1003484 <sls_avalon_usb20_irq+0x1890>
 1003440:	e0bfea17 	ldw	r2,-88(fp)
 1003444:	1007883a 	mov	r3,r2
 1003448:	e0bfd717 	ldw	r2,-164(fp)
 100344c:	1887883a 	add	r3,r3,r2
 1003450:	008000b4 	movhi	r2,2
 1003454:	1889883a 	add	r4,r3,r2
 1003458:	e0bfd717 	ldw	r2,-164(fp)
 100345c:	1007883a 	mov	r3,r2
 1003460:	e0bfce17 	ldw	r2,-200(fp)
 1003464:	1885883a 	add	r2,r3,r2
 1003468:	10800003 	ldbu	r2,0(r2)
 100346c:	10c03fcc 	andi	r3,r2,255
 1003470:	2005883a 	mov	r2,r4
 1003474:	10c00025 	stbio	r3,0(r2)
 1003478:	e0bfd717 	ldw	r2,-164(fp)
 100347c:	10800044 	addi	r2,r2,1
 1003480:	e0bfd715 	stw	r2,-164(fp)
 1003484:	e0ffd717 	ldw	r3,-164(fp)
 1003488:	e0bfda17 	ldw	r2,-152(fp)
 100348c:	18bfec36 	bltu	r3,r2,1003440 <__alt_data_end+0xfffe24e8>
 1003490:	e0bfea17 	ldw	r2,-88(fp)
 1003494:	11001304 	addi	r4,r2,76
 1003498:	e0bfda17 	ldw	r2,-152(fp)
 100349c:	1004947a 	slli	r2,r2,17
 10034a0:	1007883a 	mov	r3,r2
 10034a4:	2005883a 	mov	r2,r4
 10034a8:	10c00035 	stwio	r3,0(r2)
 10034ac:	0005e606 	br	1004c48 <sls_avalon_usb20_irq+0x3054>
 10034b0:	e13fd517 	ldw	r4,-172(fp)
 10034b4:	01402004 	movi	r5,128
 10034b8:	1000bf00 	call	1000bf0 <USB_SetStallEP>
 10034bc:	e0ffcf17 	ldw	r3,-196(fp)
 10034c0:	00800084 	movi	r2,2
 10034c4:	18800215 	stw	r2,8(r3)
 10034c8:	0005df06 	br	1004c48 <sls_avalon_usb20_irq+0x3054>
 10034cc:	e0bfd30b 	ldhu	r2,-180(fp)
 10034d0:	1004d23a 	srli	r2,r2,8
 10034d4:	10bfffcc 	andi	r2,r2,65535
 10034d8:	108008a0 	cmpeqi	r2,r2,34
 10034dc:	1000011e 	bne	r2,zero,10034e4 <sls_avalon_usb20_irq+0x18f0>
 10034e0:	00003106 	br	10035a8 <sls_avalon_usb20_irq+0x19b4>
 10034e4:	e0bfd517 	ldw	r2,-172(fp)
 10034e8:	10803e17 	ldw	r2,248(r2)
 10034ec:	1005003a 	cmpeq	r2,r2,zero
 10034f0:	1000061e 	bne	r2,zero,100350c <sls_avalon_usb20_irq+0x1918>
 10034f4:	e0bfd517 	ldw	r2,-172(fp)
 10034f8:	10803e17 	ldw	r2,248(r2)
 10034fc:	e13fcf17 	ldw	r4,-196(fp)
 1003500:	e17fea17 	ldw	r5,-88(fp)
 1003504:	01800044 	movi	r6,1
 1003508:	103ee83a 	callr	r2
 100350c:	e0bfcf17 	ldw	r2,-196(fp)
 1003510:	10c00417 	ldw	r3,16(r2)
 1003514:	e0bfd517 	ldw	r2,-172(fp)
 1003518:	10c03415 	stw	r3,208(r2)
 100351c:	e03fd715 	stw	zero,-164(fp)
 1003520:	00001406 	br	1003574 <sls_avalon_usb20_irq+0x1980>
 1003524:	e0bfea17 	ldw	r2,-88(fp)
 1003528:	1007883a 	mov	r3,r2
 100352c:	e0bfd717 	ldw	r2,-164(fp)
 1003530:	1887883a 	add	r3,r3,r2
 1003534:	008000b4 	movhi	r2,2
 1003538:	1889883a 	add	r4,r3,r2
 100353c:	e0bfcf17 	ldw	r2,-196(fp)
 1003540:	10800117 	ldw	r2,4(r2)
 1003544:	1007883a 	mov	r3,r2
 1003548:	e0bfd717 	ldw	r2,-164(fp)
 100354c:	1885883a 	add	r2,r3,r2
 1003550:	10800003 	ldbu	r2,0(r2)
 1003554:	10c03fcc 	andi	r3,r2,255
 1003558:	18c0201c 	xori	r3,r3,128
 100355c:	18ffe004 	addi	r3,r3,-128
 1003560:	2005883a 	mov	r2,r4
 1003564:	10c00025 	stbio	r3,0(r2)
 1003568:	e0bfd717 	ldw	r2,-164(fp)
 100356c:	10800044 	addi	r2,r2,1
 1003570:	e0bfd715 	stw	r2,-164(fp)
 1003574:	e0bfd517 	ldw	r2,-172(fp)
 1003578:	10c03417 	ldw	r3,208(r2)
 100357c:	e0bfd717 	ldw	r2,-164(fp)
 1003580:	10ffe836 	bltu	r2,r3,1003524 <__alt_data_end+0xfffe25cc>
 1003584:	e0bfea17 	ldw	r2,-88(fp)
 1003588:	11001304 	addi	r4,r2,76
 100358c:	e0bfd517 	ldw	r2,-172(fp)
 1003590:	10803417 	ldw	r2,208(r2)
 1003594:	1004947a 	slli	r2,r2,17
 1003598:	1007883a 	mov	r3,r2
 100359c:	2005883a 	mov	r2,r4
 10035a0:	10c00035 	stwio	r3,0(r2)
 10035a4:	0005a806 	br	1004c48 <sls_avalon_usb20_irq+0x3054>
 10035a8:	e13fd517 	ldw	r4,-172(fp)
 10035ac:	01402004 	movi	r5,128
 10035b0:	1000bf00 	call	1000bf0 <USB_SetStallEP>
 10035b4:	e0ffcf17 	ldw	r3,-196(fp)
 10035b8:	00800084 	movi	r2,2
 10035bc:	18800215 	stw	r2,8(r3)
 10035c0:	0005a106 	br	1004c48 <sls_avalon_usb20_irq+0x3054>
 10035c4:	e0bfd517 	ldw	r2,-172(fp)
 10035c8:	10803e17 	ldw	r2,248(r2)
 10035cc:	1005003a 	cmpeq	r2,r2,zero
 10035d0:	1000061e 	bne	r2,zero,10035ec <sls_avalon_usb20_irq+0x19f8>
 10035d4:	e0bfd517 	ldw	r2,-172(fp)
 10035d8:	10803e17 	ldw	r2,248(r2)
 10035dc:	e13fcf17 	ldw	r4,-196(fp)
 10035e0:	e17fea17 	ldw	r5,-88(fp)
 10035e4:	01800084 	movi	r6,2
 10035e8:	103ee83a 	callr	r2
 10035ec:	e0bfcf17 	ldw	r2,-196(fp)
 10035f0:	10c00417 	ldw	r3,16(r2)
 10035f4:	e0bfd517 	ldw	r2,-172(fp)
 10035f8:	10c03415 	stw	r3,208(r2)
 10035fc:	e03fd715 	stw	zero,-164(fp)
 1003600:	00001406 	br	1003654 <sls_avalon_usb20_irq+0x1a60>
 1003604:	e0bfea17 	ldw	r2,-88(fp)
 1003608:	1007883a 	mov	r3,r2
 100360c:	e0bfd717 	ldw	r2,-164(fp)
 1003610:	1887883a 	add	r3,r3,r2
 1003614:	008000b4 	movhi	r2,2
 1003618:	1889883a 	add	r4,r3,r2
 100361c:	e0bfcf17 	ldw	r2,-196(fp)
 1003620:	10800117 	ldw	r2,4(r2)
 1003624:	1007883a 	mov	r3,r2
 1003628:	e0bfd717 	ldw	r2,-164(fp)
 100362c:	1885883a 	add	r2,r3,r2
 1003630:	10800003 	ldbu	r2,0(r2)
 1003634:	10c03fcc 	andi	r3,r2,255
 1003638:	18c0201c 	xori	r3,r3,128
 100363c:	18ffe004 	addi	r3,r3,-128
 1003640:	2005883a 	mov	r2,r4
 1003644:	10c00025 	stbio	r3,0(r2)
 1003648:	e0bfd717 	ldw	r2,-164(fp)
 100364c:	10800044 	addi	r2,r2,1
 1003650:	e0bfd715 	stw	r2,-164(fp)
 1003654:	e0bfd517 	ldw	r2,-172(fp)
 1003658:	10c03417 	ldw	r3,208(r2)
 100365c:	e0bfd717 	ldw	r2,-164(fp)
 1003660:	10ffe836 	bltu	r2,r3,1003604 <__alt_data_end+0xfffe26ac>
 1003664:	e0bfea17 	ldw	r2,-88(fp)
 1003668:	11001304 	addi	r4,r2,76
 100366c:	e0bfd517 	ldw	r2,-172(fp)
 1003670:	10803417 	ldw	r2,208(r2)
 1003674:	1004947a 	slli	r2,r2,17
 1003678:	1007883a 	mov	r3,r2
 100367c:	2005883a 	mov	r2,r4
 1003680:	10c00035 	stwio	r3,0(r2)
 1003684:	00057006 	br	1004c48 <sls_avalon_usb20_irq+0x3054>
 1003688:	e13fd517 	ldw	r4,-172(fp)
 100368c:	01402004 	movi	r5,128
 1003690:	1000bf00 	call	1000bf0 <USB_SetStallEP>
 1003694:	e0ffcf17 	ldw	r3,-196(fp)
 1003698:	00800084 	movi	r2,2
 100369c:	18800215 	stw	r2,8(r3)
 10036a0:	00056906 	br	1004c48 <sls_avalon_usb20_irq+0x3054>
 10036a4:	e0bfe817 	ldw	r2,-96(fp)
 10036a8:	1005003a 	cmpeq	r2,r2,zero
 10036ac:	1000091e 	bne	r2,zero,10036d4 <sls_avalon_usb20_irq+0x1ae0>
 10036b0:	e0bfd517 	ldw	r2,-172(fp)
 10036b4:	10000005 	stb	zero,0(r2)
 10036b8:	e13fd517 	ldw	r4,-172(fp)
 10036bc:	01402004 	movi	r5,128
 10036c0:	1000bf00 	call	1000bf0 <USB_SetStallEP>
 10036c4:	e0ffcf17 	ldw	r3,-196(fp)
 10036c8:	00800084 	movi	r2,2
 10036cc:	18800215 	stw	r2,8(r3)
 10036d0:	00055d06 	br	1004c48 <sls_avalon_usb20_irq+0x3054>
 10036d4:	e0ffd517 	ldw	r3,-172(fp)
 10036d8:	00800044 	movi	r2,1
 10036dc:	1881bc45 	stb	r2,1777(r3)
 10036e0:	e0bfd30b 	ldhu	r2,-180(fp)
 10036e4:	1007883a 	mov	r3,r2
 10036e8:	e0bfd517 	ldw	r2,-172(fp)
 10036ec:	10c00005 	stb	r3,0(r2)
 10036f0:	e0bfea17 	ldw	r2,-88(fp)
 10036f4:	11000104 	addi	r4,r2,4
 10036f8:	e0bfd517 	ldw	r2,-172(fp)
 10036fc:	10800003 	ldbu	r2,0(r2)
 1003700:	10c03fcc 	andi	r3,r2,255
 1003704:	2005883a 	mov	r2,r4
 1003708:	10c00035 	stwio	r3,0(r2)
 100370c:	e0bfea17 	ldw	r2,-88(fp)
 1003710:	10801304 	addi	r2,r2,76
 1003714:	10000035 	stwio	zero,0(r2)
 1003718:	00054b06 	br	1004c48 <sls_avalon_usb20_irq+0x3054>
 100371c:	e0ffd517 	ldw	r3,-172(fp)
 1003720:	00800044 	movi	r2,1
 1003724:	18800e15 	stw	r2,56(r3)
 1003728:	e0bfcf17 	ldw	r2,-196(fp)
 100372c:	10000415 	stw	zero,16(r2)
 1003730:	e0bfd517 	ldw	r2,-172(fp)
 1003734:	1001bc05 	stb	zero,1776(r2)
 1003738:	e03fd715 	stw	zero,-164(fp)
 100373c:	00001106 	br	1003784 <sls_avalon_usb20_irq+0x1b90>
 1003740:	e0bfd717 	ldw	r2,-164(fp)
 1003744:	e0ffd517 	ldw	r3,-172(fp)
 1003748:	1085883a 	add	r2,r2,r2
 100374c:	1085883a 	add	r2,r2,r2
 1003750:	10c5883a 	add	r2,r2,r3
 1003754:	1080e904 	addi	r2,r2,932
 1003758:	10000015 	stw	zero,0(r2)
 100375c:	e0bfd717 	ldw	r2,-164(fp)
 1003760:	e0ffd517 	ldw	r3,-172(fp)
 1003764:	1085883a 	add	r2,r2,r2
 1003768:	1085883a 	add	r2,r2,r2
 100376c:	10c5883a 	add	r2,r2,r3
 1003770:	1081a204 	addi	r2,r2,1672
 1003774:	10000015 	stw	zero,0(r2)
 1003778:	e0bfd717 	ldw	r2,-164(fp)
 100377c:	10800044 	addi	r2,r2,1
 1003780:	e0bfd715 	stw	r2,-164(fp)
 1003784:	e0bfd717 	ldw	r2,-164(fp)
 1003788:	108003f0 	cmpltui	r2,r2,15
 100378c:	103fec1e 	bne	r2,zero,1003740 <__alt_data_end+0xfffe27e8>
 1003790:	e0bfd517 	ldw	r2,-172(fp)
 1003794:	10803317 	ldw	r2,204(r2)
 1003798:	1004c03a 	cmpne	r2,r2,zero
 100379c:	1000031e 	bne	r2,zero,10037ac <sls_avalon_usb20_irq+0x1bb8>
 10037a0:	e0ffd517 	ldw	r3,-172(fp)
 10037a4:	00800044 	movi	r2,1
 10037a8:	18803315 	stw	r2,204(r3)
 10037ac:	e0bfd30b 	ldhu	r2,-180(fp)
 10037b0:	10803fcc 	andi	r2,r2,255
 10037b4:	1005003a 	cmpeq	r2,r2,zero
 10037b8:	1000e71e 	bne	r2,zero,1003b58 <sls_avalon_usb20_irq+0x1f64>
 10037bc:	e0bfd517 	ldw	r2,-172(fp)
 10037c0:	10800c17 	ldw	r2,48(r2)
 10037c4:	10800058 	cmpnei	r2,r2,1
 10037c8:	1000071e 	bne	r2,zero,10037e8 <sls_avalon_usb20_irq+0x1bf4>
 10037cc:	e0bfd517 	ldw	r2,-172(fp)
 10037d0:	10800417 	ldw	r2,16(r2)
 10037d4:	e0bfcc15 	stw	r2,-208(fp)
 10037d8:	e0bfd517 	ldw	r2,-172(fp)
 10037dc:	10802f17 	ldw	r2,188(r2)
 10037e0:	e0bfde15 	stw	r2,-136(fp)
 10037e4:	00001506 	br	100383c <sls_avalon_usb20_irq+0x1c48>
 10037e8:	e0bfd517 	ldw	r2,-172(fp)
 10037ec:	10800c17 	ldw	r2,48(r2)
 10037f0:	1004c03a 	cmpne	r2,r2,zero
 10037f4:	1000071e 	bne	r2,zero,1003814 <sls_avalon_usb20_irq+0x1c20>
 10037f8:	e0bfd517 	ldw	r2,-172(fp)
 10037fc:	10800517 	ldw	r2,20(r2)
 1003800:	e0bfcc15 	stw	r2,-208(fp)
 1003804:	e0bfd517 	ldw	r2,-172(fp)
 1003808:	10803017 	ldw	r2,192(r2)
 100380c:	e0bfde15 	stw	r2,-136(fp)
 1003810:	00000a06 	br	100383c <sls_avalon_usb20_irq+0x1c48>
 1003814:	e0bfd517 	ldw	r2,-172(fp)
 1003818:	10800c17 	ldw	r2,48(r2)
 100381c:	10800098 	cmpnei	r2,r2,2
 1003820:	1000061e 	bne	r2,zero,100383c <sls_avalon_usb20_irq+0x1c48>
 1003824:	e0bfd517 	ldw	r2,-172(fp)
 1003828:	10800617 	ldw	r2,24(r2)
 100382c:	e0bfcc15 	stw	r2,-208(fp)
 1003830:	e0bfd517 	ldw	r2,-172(fp)
 1003834:	10803117 	ldw	r2,196(r2)
 1003838:	e0bfde15 	stw	r2,-136(fp)
 100383c:	e03fdd15 	stw	zero,-140(fp)
 1003840:	00000006 	br	1003844 <sls_avalon_usb20_irq+0x1c50>
 1003844:	e0bfcc17 	ldw	r2,-208(fp)
 1003848:	10800043 	ldbu	r2,1(r2)
 100384c:	10803fcc 	andi	r2,r2,255
 1003850:	1080201c 	xori	r2,r2,128
 1003854:	10bfe004 	addi	r2,r2,-128
 1003858:	e0bffb15 	stw	r2,-20(fp)
 100385c:	e13ffb17 	ldw	r4,-20(fp)
 1003860:	20800120 	cmpeqi	r2,r4,4
 1003864:	1000761e 	bne	r2,zero,1003a40 <sls_avalon_usb20_irq+0x1e4c>
 1003868:	e0fffb17 	ldw	r3,-20(fp)
 100386c:	18800160 	cmpeqi	r2,r3,5
 1003870:	1000781e 	bne	r2,zero,1003a54 <sls_avalon_usb20_irq+0x1e60>
 1003874:	e13ffb17 	ldw	r4,-20(fp)
 1003878:	208000a0 	cmpeqi	r2,r4,2
 100387c:	1000011e 	bne	r2,zero,1003884 <sls_avalon_usb20_irq+0x1c90>
 1003880:	00009a06 	br	1003aec <sls_avalon_usb20_irq+0x1ef8>
 1003884:	e0bfcc17 	ldw	r2,-208(fp)
 1003888:	10800143 	ldbu	r2,5(r2)
 100388c:	10803fcc 	andi	r2,r2,255
 1003890:	e0bfdf15 	stw	r2,-132(fp)
 1003894:	e0bfd30b 	ldhu	r2,-180(fp)
 1003898:	10c03fcc 	andi	r3,r2,255
 100389c:	e0bfdf17 	ldw	r2,-132(fp)
 10038a0:	1880541e 	bne	r3,r2,10039f4 <sls_avalon_usb20_irq+0x1e00>
 10038a4:	e0bfd30b 	ldhu	r2,-180(fp)
 10038a8:	10c03fcc 	andi	r3,r2,255
 10038ac:	e0bfd517 	ldw	r2,-172(fp)
 10038b0:	10c02815 	stw	r3,160(r2)
 10038b4:	e0bfcc17 	ldw	r2,-208(fp)
 10038b8:	10800103 	ldbu	r2,4(r2)
 10038bc:	10c03fcc 	andi	r3,r2,255
 10038c0:	e0bfd517 	ldw	r2,-172(fp)
 10038c4:	10c02e15 	stw	r3,184(r2)
 10038c8:	e03fd915 	stw	zero,-156(fp)
 10038cc:	00000806 	br	10038f0 <sls_avalon_usb20_irq+0x1cfc>
 10038d0:	e0ffd917 	ldw	r3,-156(fp)
 10038d4:	e0bfd517 	ldw	r2,-172(fp)
 10038d8:	1885883a 	add	r2,r3,r2
 10038dc:	10803504 	addi	r2,r2,212
 10038e0:	10000005 	stb	zero,0(r2)
 10038e4:	e0bfd917 	ldw	r2,-156(fp)
 10038e8:	10800044 	addi	r2,r2,1
 10038ec:	e0bfd915 	stw	r2,-156(fp)
 10038f0:	e0bfd917 	ldw	r2,-156(fp)
 10038f4:	10800130 	cmpltui	r2,r2,4
 10038f8:	103ff51e 	bne	r2,zero,10038d0 <__alt_data_end+0xfffe2978>
 10038fc:	00800044 	movi	r2,1
 1003900:	e0bfd915 	stw	r2,-156(fp)
 1003904:	00001e06 	br	1003980 <sls_avalon_usb20_irq+0x1d8c>
 1003908:	e0bfd517 	ldw	r2,-172(fp)
 100390c:	11002c17 	ldw	r4,176(r2)
 1003910:	e0bfd917 	ldw	r2,-156(fp)
 1003914:	10bfffc4 	addi	r2,r2,-1
 1003918:	1007883a 	mov	r3,r2
 100391c:	00800044 	movi	r2,1
 1003920:	10c4983a 	sll	r2,r2,r3
 1003924:	2084703a 	and	r2,r4,r2
 1003928:	1005003a 	cmpeq	r2,r2,zero
 100392c:	1000041e 	bne	r2,zero,1003940 <sls_avalon_usb20_irq+0x1d4c>
 1003930:	e13fd517 	ldw	r4,-172(fp)
 1003934:	e0bfd917 	ldw	r2,-156(fp)
 1003938:	100b883a 	mov	r5,r2
 100393c:	10019d00 	call	10019d0 <USB_DisableEP>
 1003940:	e0bfd517 	ldw	r2,-172(fp)
 1003944:	11002c17 	ldw	r4,176(r2)
 1003948:	e0bfd917 	ldw	r2,-156(fp)
 100394c:	1007883a 	mov	r3,r2
 1003950:	00a00014 	movui	r2,32768
 1003954:	10c4983a 	sll	r2,r2,r3
 1003958:	2084703a 	and	r2,r4,r2
 100395c:	1005003a 	cmpeq	r2,r2,zero
 1003960:	1000041e 	bne	r2,zero,1003974 <sls_avalon_usb20_irq+0x1d80>
 1003964:	e13fd517 	ldw	r4,-172(fp)
 1003968:	e0bfd917 	ldw	r2,-156(fp)
 100396c:	100b883a 	mov	r5,r2
 1003970:	10019d00 	call	10019d0 <USB_DisableEP>
 1003974:	e0bfd917 	ldw	r2,-156(fp)
 1003978:	10800044 	addi	r2,r2,1
 100397c:	e0bfd915 	stw	r2,-156(fp)
 1003980:	e0bfd917 	ldw	r2,-156(fp)
 1003984:	10800430 	cmpltui	r2,r2,16
 1003988:	103fdf1e 	bne	r2,zero,1003908 <__alt_data_end+0xfffe29b0>
 100398c:	e0bfd517 	ldw	r2,-172(fp)
 1003990:	10002d15 	stw	zero,180(r2)
 1003994:	e0ffd517 	ldw	r3,-172(fp)
 1003998:	00800084 	movi	r2,2
 100399c:	1881bc45 	stb	r2,1777(r3)
 10039a0:	e0bfcc17 	ldw	r2,-208(fp)
 10039a4:	108001c3 	ldbu	r2,7(r2)
 10039a8:	10803fcc 	andi	r2,r2,255
 10039ac:	e0bfdf15 	stw	r2,-132(fp)
 10039b0:	e0bfdf17 	ldw	r2,-132(fp)
 10039b4:	1080100c 	andi	r2,r2,64
 10039b8:	1005003a 	cmpeq	r2,r2,zero
 10039bc:	1000061e 	bne	r2,zero,10039d8 <sls_avalon_usb20_irq+0x1de4>
 10039c0:	e0bfd517 	ldw	r2,-172(fp)
 10039c4:	10802917 	ldw	r2,164(r2)
 10039c8:	10c00054 	ori	r3,r2,1
 10039cc:	e0bfd517 	ldw	r2,-172(fp)
 10039d0:	10c02915 	stw	r3,164(r2)
 10039d4:	00004506 	br	1003aec <sls_avalon_usb20_irq+0x1ef8>
 10039d8:	e0bfd517 	ldw	r2,-172(fp)
 10039dc:	10c02917 	ldw	r3,164(r2)
 10039e0:	00bfff84 	movi	r2,-2
 10039e4:	1886703a 	and	r3,r3,r2
 10039e8:	e0bfd517 	ldw	r2,-172(fp)
 10039ec:	10c02915 	stw	r3,164(r2)
 10039f0:	00003e06 	br	1003aec <sls_avalon_usb20_irq+0x1ef8>
 10039f4:	e0bfcc17 	ldw	r2,-208(fp)
 10039f8:	10c00083 	ldbu	r3,2(r2)
 10039fc:	108000c3 	ldbu	r2,3(r2)
 1003a00:	1004923a 	slli	r2,r2,8
 1003a04:	10c4b03a 	or	r2,r2,r3
 1003a08:	10bfffcc 	andi	r2,r2,65535
 1003a0c:	e0bfdf15 	stw	r2,-132(fp)
 1003a10:	e0ffdd17 	ldw	r3,-140(fp)
 1003a14:	e0bfdf17 	ldw	r2,-132(fp)
 1003a18:	1885883a 	add	r2,r3,r2
 1003a1c:	e0bfdd15 	stw	r2,-140(fp)
 1003a20:	e0bfcc17 	ldw	r2,-208(fp)
 1003a24:	1007883a 	mov	r3,r2
 1003a28:	e0bfdf17 	ldw	r2,-132(fp)
 1003a2c:	1885883a 	add	r2,r3,r2
 1003a30:	e0bfda15 	stw	r2,-152(fp)
 1003a34:	e0bfda17 	ldw	r2,-152(fp)
 1003a38:	e0bfcc15 	stw	r2,-208(fp)
 1003a3c:	003f8106 	br	1003844 <__alt_data_end+0xfffe28ec>
 1003a40:	e0bfcc17 	ldw	r2,-208(fp)
 1003a44:	108000c3 	ldbu	r2,3(r2)
 1003a48:	10803fcc 	andi	r2,r2,255
 1003a4c:	e0bfdb15 	stw	r2,-148(fp)
 1003a50:	00002606 	br	1003aec <sls_avalon_usb20_irq+0x1ef8>
 1003a54:	e0bfcc17 	ldw	r2,-208(fp)
 1003a58:	10800083 	ldbu	r2,2(r2)
 1003a5c:	10803fcc 	andi	r2,r2,255
 1003a60:	e0bfdf15 	stw	r2,-132(fp)
 1003a64:	e0bfdb17 	ldw	r2,-148(fp)
 1003a68:	1004c03a 	cmpne	r2,r2,zero
 1003a6c:	10001f1e 	bne	r2,zero,1003aec <sls_avalon_usb20_irq+0x1ef8>
 1003a70:	e0bfdf17 	ldw	r2,-132(fp)
 1003a74:	108023cc 	andi	r2,r2,143
 1003a78:	e0bfd915 	stw	r2,-156(fp)
 1003a7c:	e0bfd917 	ldw	r2,-156(fp)
 1003a80:	1080200c 	andi	r2,r2,128
 1003a84:	1005003a 	cmpeq	r2,r2,zero
 1003a88:	1000061e 	bne	r2,zero,1003aa4 <sls_avalon_usb20_irq+0x1eb0>
 1003a8c:	e0bfd917 	ldw	r2,-156(fp)
 1003a90:	10c003cc 	andi	r3,r2,15
 1003a94:	00a00014 	movui	r2,32768
 1003a98:	10c4983a 	sll	r2,r2,r3
 1003a9c:	e0bffa15 	stw	r2,-24(fp)
 1003aa0:	00000606 	br	1003abc <sls_avalon_usb20_irq+0x1ec8>
 1003aa4:	e0bfd917 	ldw	r2,-156(fp)
 1003aa8:	10bfffc4 	addi	r2,r2,-1
 1003aac:	1007883a 	mov	r3,r2
 1003ab0:	00800044 	movi	r2,1
 1003ab4:	10c4983a 	sll	r2,r2,r3
 1003ab8:	e0bffa15 	stw	r2,-24(fp)
 1003abc:	e0bffa17 	ldw	r2,-24(fp)
 1003ac0:	e0bfd815 	stw	r2,-160(fp)
 1003ac4:	e0bfd517 	ldw	r2,-172(fp)
 1003ac8:	10c02c17 	ldw	r3,176(r2)
 1003acc:	e0bfd817 	ldw	r2,-160(fp)
 1003ad0:	1886b03a 	or	r3,r3,r2
 1003ad4:	e0bfd517 	ldw	r2,-172(fp)
 1003ad8:	10c02c15 	stw	r3,176(r2)
 1003adc:	e13fd517 	ldw	r4,-172(fp)
 1003ae0:	e0bfd917 	ldw	r2,-156(fp)
 1003ae4:	114003cc 	andi	r5,r2,15
 1003ae8:	1000f940 	call	1000f94 <USB_EnableEP>
 1003aec:	e0bfcc17 	ldw	r2,-208(fp)
 1003af0:	10800003 	ldbu	r2,0(r2)
 1003af4:	10803fcc 	andi	r2,r2,255
 1003af8:	1080201c 	xori	r2,r2,128
 1003afc:	10bfe004 	addi	r2,r2,-128
 1003b00:	e0bfdf15 	stw	r2,-132(fp)
 1003b04:	e0ffdd17 	ldw	r3,-140(fp)
 1003b08:	e0bfdf17 	ldw	r2,-132(fp)
 1003b0c:	1885883a 	add	r2,r3,r2
 1003b10:	e0bfdd15 	stw	r2,-140(fp)
 1003b14:	e0bfcc17 	ldw	r2,-208(fp)
 1003b18:	1007883a 	mov	r3,r2
 1003b1c:	e0bfdf17 	ldw	r2,-132(fp)
 1003b20:	1885883a 	add	r2,r3,r2
 1003b24:	e0bfda15 	stw	r2,-152(fp)
 1003b28:	e0bfda17 	ldw	r2,-152(fp)
 1003b2c:	e0bfcc15 	stw	r2,-208(fp)
 1003b30:	e0ffdd17 	ldw	r3,-140(fp)
 1003b34:	e0bfde17 	ldw	r2,-136(fp)
 1003b38:	1880012e 	bgeu	r3,r2,1003b40 <sls_avalon_usb20_irq+0x1f4c>
 1003b3c:	003f4106 	br	1003844 <__alt_data_end+0xfffe28ec>
 1003b40:	e0bfd517 	ldw	r2,-172(fp)
 1003b44:	10c02817 	ldw	r3,160(r2)
 1003b48:	e0bfd30b 	ldhu	r2,-180(fp)
 1003b4c:	10803fcc 	andi	r2,r2,255
 1003b50:	1880351e 	bne	r3,r2,1003c28 <sls_avalon_usb20_irq+0x2034>
 1003b54:	00003b06 	br	1003c44 <sls_avalon_usb20_irq+0x2050>
 1003b58:	e0bfd517 	ldw	r2,-172(fp)
 1003b5c:	10002815 	stw	zero,160(r2)
 1003b60:	e0ffd517 	ldw	r3,-172(fp)
 1003b64:	00800084 	movi	r2,2
 1003b68:	18800f15 	stw	r2,60(r3)
 1003b6c:	00800044 	movi	r2,1
 1003b70:	e0bfd915 	stw	r2,-156(fp)
 1003b74:	00001e06 	br	1003bf0 <sls_avalon_usb20_irq+0x1ffc>
 1003b78:	e0bfd517 	ldw	r2,-172(fp)
 1003b7c:	11002c17 	ldw	r4,176(r2)
 1003b80:	e0bfd917 	ldw	r2,-156(fp)
 1003b84:	10bfffc4 	addi	r2,r2,-1
 1003b88:	1007883a 	mov	r3,r2
 1003b8c:	00800044 	movi	r2,1
 1003b90:	10c4983a 	sll	r2,r2,r3
 1003b94:	2084703a 	and	r2,r4,r2
 1003b98:	1005003a 	cmpeq	r2,r2,zero
 1003b9c:	1000041e 	bne	r2,zero,1003bb0 <sls_avalon_usb20_irq+0x1fbc>
 1003ba0:	e13fd517 	ldw	r4,-172(fp)
 1003ba4:	e0bfd917 	ldw	r2,-156(fp)
 1003ba8:	100b883a 	mov	r5,r2
 1003bac:	10019d00 	call	10019d0 <USB_DisableEP>
 1003bb0:	e0bfd517 	ldw	r2,-172(fp)
 1003bb4:	11002c17 	ldw	r4,176(r2)
 1003bb8:	e0bfd917 	ldw	r2,-156(fp)
 1003bbc:	1007883a 	mov	r3,r2
 1003bc0:	00a00014 	movui	r2,32768
 1003bc4:	10c4983a 	sll	r2,r2,r3
 1003bc8:	2084703a 	and	r2,r4,r2
 1003bcc:	1005003a 	cmpeq	r2,r2,zero
 1003bd0:	1000041e 	bne	r2,zero,1003be4 <sls_avalon_usb20_irq+0x1ff0>
 1003bd4:	e13fd517 	ldw	r4,-172(fp)
 1003bd8:	e0bfd917 	ldw	r2,-156(fp)
 1003bdc:	100b883a 	mov	r5,r2
 1003be0:	10019d00 	call	10019d0 <USB_DisableEP>
 1003be4:	e0bfd917 	ldw	r2,-156(fp)
 1003be8:	10800044 	addi	r2,r2,1
 1003bec:	e0bfd915 	stw	r2,-156(fp)
 1003bf0:	e0bfd917 	ldw	r2,-156(fp)
 1003bf4:	10800430 	cmpltui	r2,r2,16
 1003bf8:	103fdf1e 	bne	r2,zero,1003b78 <__alt_data_end+0xfffe2c20>
 1003bfc:	e0bfd517 	ldw	r2,-172(fp)
 1003c00:	10002c15 	stw	zero,176(r2)
 1003c04:	e0bfd517 	ldw	r2,-172(fp)
 1003c08:	10002d15 	stw	zero,180(r2)
 1003c0c:	e0ffd517 	ldw	r3,-172(fp)
 1003c10:	00800044 	movi	r2,1
 1003c14:	1881bc45 	stb	r2,1777(r3)
 1003c18:	e0bfea17 	ldw	r2,-88(fp)
 1003c1c:	10801304 	addi	r2,r2,76
 1003c20:	10000035 	stwio	zero,0(r2)
 1003c24:	00040806 	br	1004c48 <sls_avalon_usb20_irq+0x3054>
 1003c28:	e13fd517 	ldw	r4,-172(fp)
 1003c2c:	01402004 	movi	r5,128
 1003c30:	1000bf00 	call	1000bf0 <USB_SetStallEP>
 1003c34:	e0ffcf17 	ldw	r3,-196(fp)
 1003c38:	00800084 	movi	r2,2
 1003c3c:	18800215 	stw	r2,8(r3)
 1003c40:	00040106 	br	1004c48 <sls_avalon_usb20_irq+0x3054>
 1003c44:	e0bfd517 	ldw	r2,-172(fp)
 1003c48:	10003415 	stw	zero,208(r2)
 1003c4c:	e0ffd517 	ldw	r3,-172(fp)
 1003c50:	008000c4 	movi	r2,3
 1003c54:	18800f15 	stw	r2,60(r3)
 1003c58:	e0bfea17 	ldw	r2,-88(fp)
 1003c5c:	10801304 	addi	r2,r2,76
 1003c60:	10000035 	stwio	zero,0(r2)
 1003c64:	e0ffd517 	ldw	r3,-172(fp)
 1003c68:	00800044 	movi	r2,1
 1003c6c:	1881bc05 	stb	r2,1776(r3)
 1003c70:	e0bfd517 	ldw	r2,-172(fp)
 1003c74:	10000e15 	stw	zero,56(r2)
 1003c78:	0003f306 	br	1004c48 <sls_avalon_usb20_irq+0x3054>
 1003c7c:	e0bfe817 	ldw	r2,-96(fp)
 1003c80:	1005003a 	cmpeq	r2,r2,zero
 1003c84:	1000071e 	bne	r2,zero,1003ca4 <sls_avalon_usb20_irq+0x20b0>
 1003c88:	e13fd517 	ldw	r4,-172(fp)
 1003c8c:	01402004 	movi	r5,128
 1003c90:	1000bf00 	call	1000bf0 <USB_SetStallEP>
 1003c94:	e0ffcf17 	ldw	r3,-196(fp)
 1003c98:	00800084 	movi	r2,2
 1003c9c:	18800215 	stw	r2,8(r3)
 1003ca0:	0003e906 	br	1004c48 <sls_avalon_usb20_irq+0x3054>
 1003ca4:	e0bfd517 	ldw	r2,-172(fp)
 1003ca8:	1081bc43 	ldbu	r2,1777(r2)
 1003cac:	10803fcc 	andi	r2,r2,255
 1003cb0:	e0bff915 	stw	r2,-28(fp)
 1003cb4:	e0fff917 	ldw	r3,-28(fp)
 1003cb8:	18800060 	cmpeqi	r2,r3,1
 1003cbc:	10000b1e 	bne	r2,zero,1003cec <sls_avalon_usb20_irq+0x20f8>
 1003cc0:	e13ff917 	ldw	r4,-28(fp)
 1003cc4:	208000a0 	cmpeqi	r2,r4,2
 1003cc8:	1000131e 	bne	r2,zero,1003d18 <sls_avalon_usb20_irq+0x2124>
 1003ccc:	e0fff917 	ldw	r3,-28(fp)
 1003cd0:	1805003a 	cmpeq	r2,r3,zero
 1003cd4:	1000011e 	bne	r2,zero,1003cdc <sls_avalon_usb20_irq+0x20e8>
 1003cd8:	0003db06 	br	1004c48 <sls_avalon_usb20_irq+0x3054>
 1003cdc:	e0bfea17 	ldw	r2,-88(fp)
 1003ce0:	10801304 	addi	r2,r2,76
 1003ce4:	10000035 	stwio	zero,0(r2)
 1003ce8:	0003d706 	br	1004c48 <sls_avalon_usb20_irq+0x3054>
 1003cec:	e0bfea17 	ldw	r2,-88(fp)
 1003cf0:	1007883a 	mov	r3,r2
 1003cf4:	008000b4 	movhi	r2,2
 1003cf8:	1885883a 	add	r2,r3,r2
 1003cfc:	10000035 	stwio	zero,0(r2)
 1003d00:	e0bfea17 	ldw	r2,-88(fp)
 1003d04:	10801304 	addi	r2,r2,76
 1003d08:	1007883a 	mov	r3,r2
 1003d0c:	008000b4 	movhi	r2,2
 1003d10:	18800035 	stwio	r2,0(r3)
 1003d14:	0003cc06 	br	1004c48 <sls_avalon_usb20_irq+0x3054>
 1003d18:	e0bfea17 	ldw	r2,-88(fp)
 1003d1c:	1007883a 	mov	r3,r2
 1003d20:	008000b4 	movhi	r2,2
 1003d24:	1889883a 	add	r4,r3,r2
 1003d28:	e0bfd517 	ldw	r2,-172(fp)
 1003d2c:	10802817 	ldw	r2,160(r2)
 1003d30:	1007883a 	mov	r3,r2
 1003d34:	2005883a 	mov	r2,r4
 1003d38:	10c00035 	stwio	r3,0(r2)
 1003d3c:	e0bfea17 	ldw	r2,-88(fp)
 1003d40:	10801304 	addi	r2,r2,76
 1003d44:	1007883a 	mov	r3,r2
 1003d48:	008000b4 	movhi	r2,2
 1003d4c:	18800035 	stwio	r2,0(r3)
 1003d50:	0003bd06 	br	1004c48 <sls_avalon_usb20_irq+0x3054>
 1003d54:	e13fe817 	ldw	r4,-96(fp)
 1003d58:	e13ff815 	stw	r4,-32(fp)
 1003d5c:	e0fff817 	ldw	r3,-32(fp)
 1003d60:	18800060 	cmpeqi	r2,r3,1
 1003d64:	1000561e 	bne	r2,zero,1003ec0 <sls_avalon_usb20_irq+0x22cc>
 1003d68:	e13ff817 	ldw	r4,-32(fp)
 1003d6c:	208000a0 	cmpeqi	r2,r4,2
 1003d70:	10005a1e 	bne	r2,zero,1003edc <sls_avalon_usb20_irq+0x22e8>
 1003d74:	e0fff817 	ldw	r3,-32(fp)
 1003d78:	1805003a 	cmpeq	r2,r3,zero
 1003d7c:	1000011e 	bne	r2,zero,1003d84 <sls_avalon_usb20_irq+0x2190>
 1003d80:	00009f06 	br	1004000 <sls_avalon_usb20_irq+0x240c>
 1003d84:	e0bfd30b 	ldhu	r2,-180(fp)
 1003d88:	108003cc 	andi	r2,r2,15
 1003d8c:	10800098 	cmpnei	r2,r2,2
 1003d90:	1000131e 	bne	r2,zero,1003de0 <sls_avalon_usb20_irq+0x21ec>
 1003d94:	e0bfd28b 	ldhu	r2,-182(fp)
 1003d98:	10bfc00c 	andi	r2,r2,65280
 1003d9c:	1005d23a 	srai	r2,r2,8
 1003da0:	1007883a 	mov	r3,r2
 1003da4:	e0bfd517 	ldw	r2,-172(fp)
 1003da8:	10c03215 	stw	r3,200(r2)
 1003dac:	e0bfd517 	ldw	r2,-172(fp)
 1003db0:	10803217 	ldw	r2,200(r2)
 1003db4:	10bfffc4 	addi	r2,r2,-1
 1003db8:	1007883a 	mov	r3,r2
 1003dbc:	00800044 	movi	r2,1
 1003dc0:	10c4983a 	sll	r2,r2,r3
 1003dc4:	1007883a 	mov	r3,r2
 1003dc8:	e0bfd517 	ldw	r2,-172(fp)
 1003dcc:	10c03215 	stw	r3,200(r2)
 1003dd0:	e0bfea17 	ldw	r2,-88(fp)
 1003dd4:	10801304 	addi	r2,r2,76
 1003dd8:	10000035 	stwio	zero,0(r2)
 1003ddc:	00008f06 	br	100401c <sls_avalon_usb20_irq+0x2428>
 1003de0:	e0bfd30b 	ldhu	r2,-180(fp)
 1003de4:	10800058 	cmpnei	r2,r2,1
 1003de8:	10002e1e 	bne	r2,zero,1003ea4 <sls_avalon_usb20_irq+0x22b0>
 1003dec:	e0bfd517 	ldw	r2,-172(fp)
 1003df0:	10800c17 	ldw	r2,48(r2)
 1003df4:	10800058 	cmpnei	r2,r2,1
 1003df8:	1000041e 	bne	r2,zero,1003e0c <sls_avalon_usb20_irq+0x2218>
 1003dfc:	e0bfd517 	ldw	r2,-172(fp)
 1003e00:	10800417 	ldw	r2,16(r2)
 1003e04:	e0bfcb15 	stw	r2,-212(fp)
 1003e08:	00000f06 	br	1003e48 <sls_avalon_usb20_irq+0x2254>
 1003e0c:	e0bfd517 	ldw	r2,-172(fp)
 1003e10:	10800c17 	ldw	r2,48(r2)
 1003e14:	1004c03a 	cmpne	r2,r2,zero
 1003e18:	1000041e 	bne	r2,zero,1003e2c <sls_avalon_usb20_irq+0x2238>
 1003e1c:	e0bfd517 	ldw	r2,-172(fp)
 1003e20:	10800517 	ldw	r2,20(r2)
 1003e24:	e0bfcb15 	stw	r2,-212(fp)
 1003e28:	00000706 	br	1003e48 <sls_avalon_usb20_irq+0x2254>
 1003e2c:	e0bfd517 	ldw	r2,-172(fp)
 1003e30:	10800c17 	ldw	r2,48(r2)
 1003e34:	10800098 	cmpnei	r2,r2,2
 1003e38:	1000031e 	bne	r2,zero,1003e48 <sls_avalon_usb20_irq+0x2254>
 1003e3c:	e0bfd517 	ldw	r2,-172(fp)
 1003e40:	10800617 	ldw	r2,24(r2)
 1003e44:	e0bfcb15 	stw	r2,-212(fp)
 1003e48:	e0bfcb17 	ldw	r2,-212(fp)
 1003e4c:	108001c3 	ldbu	r2,7(r2)
 1003e50:	e0bfca05 	stb	r2,-216(fp)
 1003e54:	e0bfca03 	ldbu	r2,-216(fp)
 1003e58:	10803fcc 	andi	r2,r2,255
 1003e5c:	1080080c 	andi	r2,r2,32
 1003e60:	1005003a 	cmpeq	r2,r2,zero
 1003e64:	10006d1e 	bne	r2,zero,100401c <sls_avalon_usb20_irq+0x2428>
 1003e68:	e0bfd517 	ldw	r2,-172(fp)
 1003e6c:	10802917 	ldw	r2,164(r2)
 1003e70:	10c00094 	ori	r3,r2,2
 1003e74:	e0bfd517 	ldw	r2,-172(fp)
 1003e78:	10c02915 	stw	r3,164(r2)
 1003e7c:	e0bfd517 	ldw	r2,-172(fp)
 1003e80:	10803b17 	ldw	r2,236(r2)
 1003e84:	1005003a 	cmpeq	r2,r2,zero
 1003e88:	1000641e 	bne	r2,zero,100401c <sls_avalon_usb20_irq+0x2428>
 1003e8c:	e0bfd517 	ldw	r2,-172(fp)
 1003e90:	10803b17 	ldw	r2,236(r2)
 1003e94:	e13fd517 	ldw	r4,-172(fp)
 1003e98:	01400044 	movi	r5,1
 1003e9c:	103ee83a 	callr	r2
 1003ea0:	00005e06 	br	100401c <sls_avalon_usb20_irq+0x2428>
 1003ea4:	e13fd517 	ldw	r4,-172(fp)
 1003ea8:	01402004 	movi	r5,128
 1003eac:	1000bf00 	call	1000bf0 <USB_SetStallEP>
 1003eb0:	e0ffcf17 	ldw	r3,-196(fp)
 1003eb4:	00800084 	movi	r2,2
 1003eb8:	18800215 	stw	r2,8(r3)
 1003ebc:	00036206 	br	1004c48 <sls_avalon_usb20_irq+0x3054>
 1003ec0:	e13fd517 	ldw	r4,-172(fp)
 1003ec4:	01402004 	movi	r5,128
 1003ec8:	1000bf00 	call	1000bf0 <USB_SetStallEP>
 1003ecc:	e0ffcf17 	ldw	r3,-196(fp)
 1003ed0:	00800084 	movi	r2,2
 1003ed4:	18800215 	stw	r2,8(r3)
 1003ed8:	00035b06 	br	1004c48 <sls_avalon_usb20_irq+0x3054>
 1003edc:	e0bfd28b 	ldhu	r2,-182(fp)
 1003ee0:	108023cc 	andi	r2,r2,143
 1003ee4:	e0bfd915 	stw	r2,-156(fp)
 1003ee8:	e0bfd917 	ldw	r2,-156(fp)
 1003eec:	1080200c 	andi	r2,r2,128
 1003ef0:	1005003a 	cmpeq	r2,r2,zero
 1003ef4:	1000061e 	bne	r2,zero,1003f10 <sls_avalon_usb20_irq+0x231c>
 1003ef8:	e0bfd917 	ldw	r2,-156(fp)
 1003efc:	10c003cc 	andi	r3,r2,15
 1003f00:	00a00014 	movui	r2,32768
 1003f04:	10c4983a 	sll	r2,r2,r3
 1003f08:	e0bff715 	stw	r2,-36(fp)
 1003f0c:	00000606 	br	1003f28 <sls_avalon_usb20_irq+0x2334>
 1003f10:	e0bfd917 	ldw	r2,-156(fp)
 1003f14:	10bfffc4 	addi	r2,r2,-1
 1003f18:	1007883a 	mov	r3,r2
 1003f1c:	00800044 	movi	r2,1
 1003f20:	10c4983a 	sll	r2,r2,r3
 1003f24:	e0bff715 	stw	r2,-36(fp)
 1003f28:	e13ff717 	ldw	r4,-36(fp)
 1003f2c:	e13fd815 	stw	r4,-160(fp)
 1003f30:	e0bfd517 	ldw	r2,-172(fp)
 1003f34:	10802817 	ldw	r2,160(r2)
 1003f38:	1005003a 	cmpeq	r2,r2,zero
 1003f3c:	1000291e 	bne	r2,zero,1003fe4 <sls_avalon_usb20_irq+0x23f0>
 1003f40:	e0bfd917 	ldw	r2,-156(fp)
 1003f44:	108003cc 	andi	r2,r2,15
 1003f48:	1005003a 	cmpeq	r2,r2,zero
 1003f4c:	1000251e 	bne	r2,zero,1003fe4 <sls_avalon_usb20_irq+0x23f0>
 1003f50:	e0bfd30b 	ldhu	r2,-180(fp)
 1003f54:	1004c03a 	cmpne	r2,r2,zero
 1003f58:	10001b1e 	bne	r2,zero,1003fc8 <sls_avalon_usb20_irq+0x23d4>
 1003f5c:	e0bfd917 	ldw	r2,-156(fp)
 1003f60:	108003cc 	andi	r2,r2,15
 1003f64:	1004913a 	slli	r2,r2,4
 1003f68:	1007883a 	mov	r3,r2
 1003f6c:	e0bfea17 	ldw	r2,-88(fp)
 1003f70:	1885883a 	add	r2,r3,r2
 1003f74:	10801004 	addi	r2,r2,64
 1003f78:	10800037 	ldwio	r2,0(r2)
 1003f7c:	e0bfee15 	stw	r2,-72(fp)
 1003f80:	e0bfd917 	ldw	r2,-156(fp)
 1003f84:	108003cc 	andi	r2,r2,15
 1003f88:	1004913a 	slli	r2,r2,4
 1003f8c:	1007883a 	mov	r3,r2
 1003f90:	e0bfea17 	ldw	r2,-88(fp)
 1003f94:	1885883a 	add	r2,r3,r2
 1003f98:	11001004 	addi	r4,r2,64
 1003f9c:	e0bfee17 	ldw	r2,-72(fp)
 1003fa0:	10c02034 	orhi	r3,r2,128
 1003fa4:	2005883a 	mov	r2,r4
 1003fa8:	10c00035 	stwio	r3,0(r2)
 1003fac:	e0bfd517 	ldw	r2,-172(fp)
 1003fb0:	10c02d17 	ldw	r3,180(r2)
 1003fb4:	e0bfd817 	ldw	r2,-160(fp)
 1003fb8:	1886b03a 	or	r3,r3,r2
 1003fbc:	e0bfd517 	ldw	r2,-172(fp)
 1003fc0:	10c02d15 	stw	r3,180(r2)
 1003fc4:	00001506 	br	100401c <sls_avalon_usb20_irq+0x2428>
 1003fc8:	e13fd517 	ldw	r4,-172(fp)
 1003fcc:	01402004 	movi	r5,128
 1003fd0:	1000bf00 	call	1000bf0 <USB_SetStallEP>
 1003fd4:	e0ffcf17 	ldw	r3,-196(fp)
 1003fd8:	00800084 	movi	r2,2
 1003fdc:	18800215 	stw	r2,8(r3)
 1003fe0:	00031906 	br	1004c48 <sls_avalon_usb20_irq+0x3054>
 1003fe4:	e13fd517 	ldw	r4,-172(fp)
 1003fe8:	01402004 	movi	r5,128
 1003fec:	1000bf00 	call	1000bf0 <USB_SetStallEP>
 1003ff0:	e0ffcf17 	ldw	r3,-196(fp)
 1003ff4:	00800084 	movi	r2,2
 1003ff8:	18800215 	stw	r2,8(r3)
 1003ffc:	00031206 	br	1004c48 <sls_avalon_usb20_irq+0x3054>
 1004000:	e13fd517 	ldw	r4,-172(fp)
 1004004:	01402004 	movi	r5,128
 1004008:	1000bf00 	call	1000bf0 <USB_SetStallEP>
 100400c:	e0ffcf17 	ldw	r3,-196(fp)
 1004010:	00800084 	movi	r2,2
 1004014:	18800215 	stw	r2,8(r3)
 1004018:	00030b06 	br	1004c48 <sls_avalon_usb20_irq+0x3054>
 100401c:	e0bfea17 	ldw	r2,-88(fp)
 1004020:	10801304 	addi	r2,r2,76
 1004024:	10000035 	stwio	zero,0(r2)
 1004028:	00030706 	br	1004c48 <sls_avalon_usb20_irq+0x3054>
 100402c:	e0bfe817 	ldw	r2,-96(fp)
 1004030:	e0bff615 	stw	r2,-40(fp)
 1004034:	e0fff617 	ldw	r3,-40(fp)
 1004038:	18800060 	cmpeqi	r2,r3,1
 100403c:	1000211e 	bne	r2,zero,10040c4 <sls_avalon_usb20_irq+0x24d0>
 1004040:	e13ff617 	ldw	r4,-40(fp)
 1004044:	208000a0 	cmpeqi	r2,r4,2
 1004048:	1000251e 	bne	r2,zero,10040e0 <sls_avalon_usb20_irq+0x24ec>
 100404c:	e0fff617 	ldw	r3,-40(fp)
 1004050:	1805003a 	cmpeq	r2,r3,zero
 1004054:	1000011e 	bne	r2,zero,100405c <sls_avalon_usb20_irq+0x2468>
 1004058:	00006d06 	br	1004210 <sls_avalon_usb20_irq+0x261c>
 100405c:	e0bfd30b 	ldhu	r2,-180(fp)
 1004060:	10800058 	cmpnei	r2,r2,1
 1004064:	1000101e 	bne	r2,zero,10040a8 <sls_avalon_usb20_irq+0x24b4>
 1004068:	e0bfd517 	ldw	r2,-172(fp)
 100406c:	10803b17 	ldw	r2,236(r2)
 1004070:	1005003a 	cmpeq	r2,r2,zero
 1004074:	1000051e 	bne	r2,zero,100408c <sls_avalon_usb20_irq+0x2498>
 1004078:	e0bfd517 	ldw	r2,-172(fp)
 100407c:	10803b17 	ldw	r2,236(r2)
 1004080:	e13fd517 	ldw	r4,-172(fp)
 1004084:	000b883a 	mov	r5,zero
 1004088:	103ee83a 	callr	r2
 100408c:	e0bfd517 	ldw	r2,-172(fp)
 1004090:	10c02917 	ldw	r3,164(r2)
 1004094:	00bfff44 	movi	r2,-3
 1004098:	1886703a 	and	r3,r3,r2
 100409c:	e0bfd517 	ldw	r2,-172(fp)
 10040a0:	10c02915 	stw	r3,164(r2)
 10040a4:	00006106 	br	100422c <sls_avalon_usb20_irq+0x2638>
 10040a8:	e13fd517 	ldw	r4,-172(fp)
 10040ac:	01402004 	movi	r5,128
 10040b0:	1000bf00 	call	1000bf0 <USB_SetStallEP>
 10040b4:	e0ffcf17 	ldw	r3,-196(fp)
 10040b8:	00800084 	movi	r2,2
 10040bc:	18800215 	stw	r2,8(r3)
 10040c0:	0002e106 	br	1004c48 <sls_avalon_usb20_irq+0x3054>
 10040c4:	e13fd517 	ldw	r4,-172(fp)
 10040c8:	01402004 	movi	r5,128
 10040cc:	1000bf00 	call	1000bf0 <USB_SetStallEP>
 10040d0:	e0ffcf17 	ldw	r3,-196(fp)
 10040d4:	00800084 	movi	r2,2
 10040d8:	18800215 	stw	r2,8(r3)
 10040dc:	0002da06 	br	1004c48 <sls_avalon_usb20_irq+0x3054>
 10040e0:	e0bfd28b 	ldhu	r2,-182(fp)
 10040e4:	108023cc 	andi	r2,r2,143
 10040e8:	e0bfd915 	stw	r2,-156(fp)
 10040ec:	e0bfd917 	ldw	r2,-156(fp)
 10040f0:	1080200c 	andi	r2,r2,128
 10040f4:	1005003a 	cmpeq	r2,r2,zero
 10040f8:	1000061e 	bne	r2,zero,1004114 <sls_avalon_usb20_irq+0x2520>
 10040fc:	e0bfd917 	ldw	r2,-156(fp)
 1004100:	10c003cc 	andi	r3,r2,15
 1004104:	00a00014 	movui	r2,32768
 1004108:	10c4983a 	sll	r2,r2,r3
 100410c:	e0bff515 	stw	r2,-44(fp)
 1004110:	00000606 	br	100412c <sls_avalon_usb20_irq+0x2538>
 1004114:	e0bfd917 	ldw	r2,-156(fp)
 1004118:	10bfffc4 	addi	r2,r2,-1
 100411c:	1007883a 	mov	r3,r2
 1004120:	00800044 	movi	r2,1
 1004124:	10c4983a 	sll	r2,r2,r3
 1004128:	e0bff515 	stw	r2,-44(fp)
 100412c:	e13ff517 	ldw	r4,-44(fp)
 1004130:	e13fd815 	stw	r4,-160(fp)
 1004134:	e0bfd517 	ldw	r2,-172(fp)
 1004138:	10802817 	ldw	r2,160(r2)
 100413c:	1005003a 	cmpeq	r2,r2,zero
 1004140:	10002c1e 	bne	r2,zero,10041f4 <sls_avalon_usb20_irq+0x2600>
 1004144:	e0bfd917 	ldw	r2,-156(fp)
 1004148:	108003cc 	andi	r2,r2,15
 100414c:	1005003a 	cmpeq	r2,r2,zero
 1004150:	1000281e 	bne	r2,zero,10041f4 <sls_avalon_usb20_irq+0x2600>
 1004154:	e0bfd30b 	ldhu	r2,-180(fp)
 1004158:	1004c03a 	cmpne	r2,r2,zero
 100415c:	10001e1e 	bne	r2,zero,10041d8 <sls_avalon_usb20_irq+0x25e4>
 1004160:	e0bfd917 	ldw	r2,-156(fp)
 1004164:	108003cc 	andi	r2,r2,15
 1004168:	1004913a 	slli	r2,r2,4
 100416c:	1007883a 	mov	r3,r2
 1004170:	e0bfea17 	ldw	r2,-88(fp)
 1004174:	1885883a 	add	r2,r3,r2
 1004178:	10801004 	addi	r2,r2,64
 100417c:	10800037 	ldwio	r2,0(r2)
 1004180:	e0bfef15 	stw	r2,-68(fp)
 1004184:	e0bfd917 	ldw	r2,-156(fp)
 1004188:	108003cc 	andi	r2,r2,15
 100418c:	1004913a 	slli	r2,r2,4
 1004190:	1007883a 	mov	r3,r2
 1004194:	e0bfea17 	ldw	r2,-88(fp)
 1004198:	1885883a 	add	r2,r3,r2
 100419c:	11001004 	addi	r4,r2,64
 10041a0:	e0ffef17 	ldw	r3,-68(fp)
 10041a4:	00b3d034 	movhi	r2,53056
 10041a8:	10bfffc4 	addi	r2,r2,-1
 10041ac:	1886703a 	and	r3,r3,r2
 10041b0:	2005883a 	mov	r2,r4
 10041b4:	10c00035 	stwio	r3,0(r2)
 10041b8:	e0bfd517 	ldw	r2,-172(fp)
 10041bc:	10c02d17 	ldw	r3,180(r2)
 10041c0:	e0bfd817 	ldw	r2,-160(fp)
 10041c4:	0084303a 	nor	r2,zero,r2
 10041c8:	1886703a 	and	r3,r3,r2
 10041cc:	e0bfd517 	ldw	r2,-172(fp)
 10041d0:	10c02d15 	stw	r3,180(r2)
 10041d4:	00001506 	br	100422c <sls_avalon_usb20_irq+0x2638>
 10041d8:	e13fd517 	ldw	r4,-172(fp)
 10041dc:	01402004 	movi	r5,128
 10041e0:	1000bf00 	call	1000bf0 <USB_SetStallEP>
 10041e4:	e0ffcf17 	ldw	r3,-196(fp)
 10041e8:	00800084 	movi	r2,2
 10041ec:	18800215 	stw	r2,8(r3)
 10041f0:	00029506 	br	1004c48 <sls_avalon_usb20_irq+0x3054>
 10041f4:	e13fd517 	ldw	r4,-172(fp)
 10041f8:	01402004 	movi	r5,128
 10041fc:	1000bf00 	call	1000bf0 <USB_SetStallEP>
 1004200:	e0ffcf17 	ldw	r3,-196(fp)
 1004204:	00800084 	movi	r2,2
 1004208:	18800215 	stw	r2,8(r3)
 100420c:	00028e06 	br	1004c48 <sls_avalon_usb20_irq+0x3054>
 1004210:	e13fd517 	ldw	r4,-172(fp)
 1004214:	01402004 	movi	r5,128
 1004218:	1000bf00 	call	1000bf0 <USB_SetStallEP>
 100421c:	e0ffcf17 	ldw	r3,-196(fp)
 1004220:	00800084 	movi	r2,2
 1004224:	18800215 	stw	r2,8(r3)
 1004228:	00028706 	br	1004c48 <sls_avalon_usb20_irq+0x3054>
 100422c:	e0bfea17 	ldw	r2,-88(fp)
 1004230:	10801304 	addi	r2,r2,76
 1004234:	10000035 	stwio	zero,0(r2)
 1004238:	00028306 	br	1004c48 <sls_avalon_usb20_irq+0x3054>
 100423c:	e03fe215 	stw	zero,-120(fp)
 1004240:	e03fdb15 	stw	zero,-148(fp)
 1004244:	e0bfd517 	ldw	r2,-172(fp)
 1004248:	10802817 	ldw	r2,160(r2)
 100424c:	1004c03a 	cmpne	r2,r2,zero
 1004250:	1000071e 	bne	r2,zero,1004270 <sls_avalon_usb20_irq+0x267c>
 1004254:	e13fd517 	ldw	r4,-172(fp)
 1004258:	01402004 	movi	r5,128
 100425c:	1000bf00 	call	1000bf0 <USB_SetStallEP>
 1004260:	e0ffcf17 	ldw	r3,-196(fp)
 1004264:	00800084 	movi	r2,2
 1004268:	18800215 	stw	r2,8(r3)
 100426c:	00027606 	br	1004c48 <sls_avalon_usb20_irq+0x3054>
 1004270:	e0bfd517 	ldw	r2,-172(fp)
 1004274:	10800c17 	ldw	r2,48(r2)
 1004278:	10800058 	cmpnei	r2,r2,1
 100427c:	1000071e 	bne	r2,zero,100429c <sls_avalon_usb20_irq+0x26a8>
 1004280:	e0bfd517 	ldw	r2,-172(fp)
 1004284:	10800417 	ldw	r2,16(r2)
 1004288:	e0bfc915 	stw	r2,-220(fp)
 100428c:	e0bfd517 	ldw	r2,-172(fp)
 1004290:	10802f17 	ldw	r2,188(r2)
 1004294:	e0bfde15 	stw	r2,-136(fp)
 1004298:	00001506 	br	10042f0 <sls_avalon_usb20_irq+0x26fc>
 100429c:	e0bfd517 	ldw	r2,-172(fp)
 10042a0:	10800c17 	ldw	r2,48(r2)
 10042a4:	1004c03a 	cmpne	r2,r2,zero
 10042a8:	1000071e 	bne	r2,zero,10042c8 <sls_avalon_usb20_irq+0x26d4>
 10042ac:	e0bfd517 	ldw	r2,-172(fp)
 10042b0:	10800517 	ldw	r2,20(r2)
 10042b4:	e0bfc915 	stw	r2,-220(fp)
 10042b8:	e0bfd517 	ldw	r2,-172(fp)
 10042bc:	10803017 	ldw	r2,192(r2)
 10042c0:	e0bfde15 	stw	r2,-136(fp)
 10042c4:	00000a06 	br	10042f0 <sls_avalon_usb20_irq+0x26fc>
 10042c8:	e0bfd517 	ldw	r2,-172(fp)
 10042cc:	10800c17 	ldw	r2,48(r2)
 10042d0:	10800098 	cmpnei	r2,r2,2
 10042d4:	1000061e 	bne	r2,zero,10042f0 <sls_avalon_usb20_irq+0x26fc>
 10042d8:	e0bfd517 	ldw	r2,-172(fp)
 10042dc:	10800617 	ldw	r2,24(r2)
 10042e0:	e0bfc915 	stw	r2,-220(fp)
 10042e4:	e0bfd517 	ldw	r2,-172(fp)
 10042e8:	10803117 	ldw	r2,196(r2)
 10042ec:	e0bfde15 	stw	r2,-136(fp)
 10042f0:	e03fdd15 	stw	zero,-140(fp)
 10042f4:	00000006 	br	10042f8 <sls_avalon_usb20_irq+0x2704>
 10042f8:	e0bfc917 	ldw	r2,-220(fp)
 10042fc:	10800043 	ldbu	r2,1(r2)
 1004300:	10803fcc 	andi	r2,r2,255
 1004304:	1080201c 	xori	r2,r2,128
 1004308:	10bfe004 	addi	r2,r2,-128
 100430c:	e0bff415 	stw	r2,-48(fp)
 1004310:	e0fff417 	ldw	r3,-48(fp)
 1004314:	18800120 	cmpeqi	r2,r3,4
 1004318:	1000221e 	bne	r2,zero,10043a4 <sls_avalon_usb20_irq+0x27b0>
 100431c:	e13ff417 	ldw	r4,-48(fp)
 1004320:	20800160 	cmpeqi	r2,r4,5
 1004324:	1000401e 	bne	r2,zero,1004428 <sls_avalon_usb20_irq+0x2834>
 1004328:	e0fff417 	ldw	r3,-48(fp)
 100432c:	188000a0 	cmpeqi	r2,r3,2
 1004330:	1000011e 	bne	r2,zero,1004338 <sls_avalon_usb20_irq+0x2744>
 1004334:	00008d06 	br	100456c <sls_avalon_usb20_irq+0x2978>
 1004338:	e0bfc917 	ldw	r2,-220(fp)
 100433c:	10800143 	ldbu	r2,5(r2)
 1004340:	10803fcc 	andi	r2,r2,255
 1004344:	e0bfdf15 	stw	r2,-132(fp)
 1004348:	e0bfd517 	ldw	r2,-172(fp)
 100434c:	10c02817 	ldw	r3,160(r2)
 1004350:	e0bfdf17 	ldw	r2,-132(fp)
 1004354:	18808526 	beq	r3,r2,100456c <sls_avalon_usb20_irq+0x2978>
 1004358:	e0bfc917 	ldw	r2,-220(fp)
 100435c:	10c00083 	ldbu	r3,2(r2)
 1004360:	108000c3 	ldbu	r2,3(r2)
 1004364:	1004923a 	slli	r2,r2,8
 1004368:	10c4b03a 	or	r2,r2,r3
 100436c:	10bfffcc 	andi	r2,r2,65535
 1004370:	e0bfdf15 	stw	r2,-132(fp)
 1004374:	e0ffdd17 	ldw	r3,-140(fp)
 1004378:	e0bfdf17 	ldw	r2,-132(fp)
 100437c:	1885883a 	add	r2,r3,r2
 1004380:	e0bfdd15 	stw	r2,-140(fp)
 1004384:	e0bfc917 	ldw	r2,-220(fp)
 1004388:	1007883a 	mov	r3,r2
 100438c:	e0bfdf17 	ldw	r2,-132(fp)
 1004390:	1885883a 	add	r2,r3,r2
 1004394:	e0bfda15 	stw	r2,-152(fp)
 1004398:	e0bfda17 	ldw	r2,-152(fp)
 100439c:	e0bfc915 	stw	r2,-220(fp)
 10043a0:	003fd506 	br	10042f8 <__alt_data_end+0xfffe33a0>
 10043a4:	e0bfc917 	ldw	r2,-220(fp)
 10043a8:	10800083 	ldbu	r2,2(r2)
 10043ac:	10803fcc 	andi	r2,r2,255
 10043b0:	e0bfe215 	stw	r2,-120(fp)
 10043b4:	e0bfc917 	ldw	r2,-220(fp)
 10043b8:	108000c3 	ldbu	r2,3(r2)
 10043bc:	10803fcc 	andi	r2,r2,255
 10043c0:	e0bfdb15 	stw	r2,-148(fp)
 10043c4:	e03fe415 	stw	zero,-112(fp)
 10043c8:	e0ffd28b 	ldhu	r3,-182(fp)
 10043cc:	e0bfe217 	ldw	r2,-120(fp)
 10043d0:	1880661e 	bne	r3,r2,100456c <sls_avalon_usb20_irq+0x2978>
 10043d4:	e0bfd30b 	ldhu	r2,-180(fp)
 10043d8:	10c03fcc 	andi	r3,r2,255
 10043dc:	e0bfdb17 	ldw	r2,-148(fp)
 10043e0:	1880621e 	bne	r3,r2,100456c <sls_avalon_usb20_irq+0x2978>
 10043e4:	00800044 	movi	r2,1
 10043e8:	e0bfd645 	stb	r2,-167(fp)
 10043ec:	e0ffe217 	ldw	r3,-120(fp)
 10043f0:	e0bfd517 	ldw	r2,-172(fp)
 10043f4:	1885883a 	add	r2,r3,r2
 10043f8:	10803504 	addi	r2,r2,212
 10043fc:	10800003 	ldbu	r2,0(r2)
 1004400:	10803fcc 	andi	r2,r2,255
 1004404:	e0bfe315 	stw	r2,-116(fp)
 1004408:	e0ffe217 	ldw	r3,-120(fp)
 100440c:	e0bfdb17 	ldw	r2,-148(fp)
 1004410:	1009883a 	mov	r4,r2
 1004414:	e0bfd517 	ldw	r2,-172(fp)
 1004418:	1885883a 	add	r2,r3,r2
 100441c:	10803504 	addi	r2,r2,212
 1004420:	11000005 	stb	r4,0(r2)
 1004424:	00005106 	br	100456c <sls_avalon_usb20_irq+0x2978>
 1004428:	e0bfc917 	ldw	r2,-220(fp)
 100442c:	10800083 	ldbu	r2,2(r2)
 1004430:	10803fcc 	andi	r2,r2,255
 1004434:	e0bfdf15 	stw	r2,-132(fp)
 1004438:	e0bfd28b 	ldhu	r2,-182(fp)
 100443c:	10c03fcc 	andi	r3,r2,255
 1004440:	e0bfe217 	ldw	r2,-120(fp)
 1004444:	1880491e 	bne	r3,r2,100456c <sls_avalon_usb20_irq+0x2978>
 1004448:	e0bfdf17 	ldw	r2,-132(fp)
 100444c:	108023cc 	andi	r2,r2,143
 1004450:	e0bfd915 	stw	r2,-156(fp)
 1004454:	e0bfd917 	ldw	r2,-156(fp)
 1004458:	1080200c 	andi	r2,r2,128
 100445c:	1005003a 	cmpeq	r2,r2,zero
 1004460:	1000061e 	bne	r2,zero,100447c <sls_avalon_usb20_irq+0x2888>
 1004464:	e0bfd917 	ldw	r2,-156(fp)
 1004468:	10c003cc 	andi	r3,r2,15
 100446c:	00a00014 	movui	r2,32768
 1004470:	10c4983a 	sll	r2,r2,r3
 1004474:	e0bff315 	stw	r2,-52(fp)
 1004478:	00000606 	br	1004494 <sls_avalon_usb20_irq+0x28a0>
 100447c:	e0bfd917 	ldw	r2,-156(fp)
 1004480:	10bfffc4 	addi	r2,r2,-1
 1004484:	1007883a 	mov	r3,r2
 1004488:	00800044 	movi	r2,1
 100448c:	10c4983a 	sll	r2,r2,r3
 1004490:	e0bff315 	stw	r2,-52(fp)
 1004494:	e13ff317 	ldw	r4,-52(fp)
 1004498:	e13fd815 	stw	r4,-160(fp)
 100449c:	e0bfd30b 	ldhu	r2,-180(fp)
 10044a0:	10c03fcc 	andi	r3,r2,255
 10044a4:	e0bfdb17 	ldw	r2,-148(fp)
 10044a8:	1880161e 	bne	r3,r2,1004504 <sls_avalon_usb20_irq+0x2910>
 10044ac:	e0bfd517 	ldw	r2,-172(fp)
 10044b0:	10c02c17 	ldw	r3,176(r2)
 10044b4:	e0bfd817 	ldw	r2,-160(fp)
 10044b8:	1886b03a 	or	r3,r3,r2
 10044bc:	e0bfd517 	ldw	r2,-172(fp)
 10044c0:	10c02c15 	stw	r3,176(r2)
 10044c4:	e0bfd517 	ldw	r2,-172(fp)
 10044c8:	10c02d17 	ldw	r3,180(r2)
 10044cc:	e0bfd817 	ldw	r2,-160(fp)
 10044d0:	0084303a 	nor	r2,zero,r2
 10044d4:	1886703a 	and	r3,r3,r2
 10044d8:	e0bfd517 	ldw	r2,-172(fp)
 10044dc:	10c02d15 	stw	r3,180(r2)
 10044e0:	e13fd517 	ldw	r4,-172(fp)
 10044e4:	e0bfd917 	ldw	r2,-156(fp)
 10044e8:	114003cc 	andi	r5,r2,15
 10044ec:	1000f940 	call	1000f94 <USB_EnableEP>
 10044f0:	e0ffe417 	ldw	r3,-112(fp)
 10044f4:	e0bfd817 	ldw	r2,-160(fp)
 10044f8:	1884b03a 	or	r2,r3,r2
 10044fc:	e0bfe415 	stw	r2,-112(fp)
 1004500:	00001a06 	br	100456c <sls_avalon_usb20_irq+0x2978>
 1004504:	e0ffdb17 	ldw	r3,-148(fp)
 1004508:	e0bfe317 	ldw	r2,-116(fp)
 100450c:	1880171e 	bne	r3,r2,100456c <sls_avalon_usb20_irq+0x2978>
 1004510:	e0ffe417 	ldw	r3,-112(fp)
 1004514:	e0bfd817 	ldw	r2,-160(fp)
 1004518:	1884703a 	and	r2,r3,r2
 100451c:	1004c03a 	cmpne	r2,r2,zero
 1004520:	1000121e 	bne	r2,zero,100456c <sls_avalon_usb20_irq+0x2978>
 1004524:	e0bfd517 	ldw	r2,-172(fp)
 1004528:	10c02c17 	ldw	r3,176(r2)
 100452c:	e0bfd817 	ldw	r2,-160(fp)
 1004530:	0084303a 	nor	r2,zero,r2
 1004534:	1886703a 	and	r3,r3,r2
 1004538:	e0bfd517 	ldw	r2,-172(fp)
 100453c:	10c02c15 	stw	r3,176(r2)
 1004540:	e0bfd517 	ldw	r2,-172(fp)
 1004544:	10c02d17 	ldw	r3,180(r2)
 1004548:	e0bfd817 	ldw	r2,-160(fp)
 100454c:	0084303a 	nor	r2,zero,r2
 1004550:	1886703a 	and	r3,r3,r2
 1004554:	e0bfd517 	ldw	r2,-172(fp)
 1004558:	10c02d15 	stw	r3,180(r2)
 100455c:	e13fd517 	ldw	r4,-172(fp)
 1004560:	e0bfd917 	ldw	r2,-156(fp)
 1004564:	114003cc 	andi	r5,r2,15
 1004568:	10019d00 	call	10019d0 <USB_DisableEP>
 100456c:	e0bfc917 	ldw	r2,-220(fp)
 1004570:	10800003 	ldbu	r2,0(r2)
 1004574:	10803fcc 	andi	r2,r2,255
 1004578:	1080201c 	xori	r2,r2,128
 100457c:	10bfe004 	addi	r2,r2,-128
 1004580:	e0bfdf15 	stw	r2,-132(fp)
 1004584:	e0ffdd17 	ldw	r3,-140(fp)
 1004588:	e0bfdf17 	ldw	r2,-132(fp)
 100458c:	1885883a 	add	r2,r3,r2
 1004590:	e0bfdd15 	stw	r2,-140(fp)
 1004594:	e0bfc917 	ldw	r2,-220(fp)
 1004598:	1007883a 	mov	r3,r2
 100459c:	e0bfdf17 	ldw	r2,-132(fp)
 10045a0:	1885883a 	add	r2,r3,r2
 10045a4:	e0bfda15 	stw	r2,-152(fp)
 10045a8:	e0bfda17 	ldw	r2,-152(fp)
 10045ac:	e0bfc915 	stw	r2,-220(fp)
 10045b0:	e0ffdd17 	ldw	r3,-140(fp)
 10045b4:	e0bfde17 	ldw	r2,-136(fp)
 10045b8:	1880012e 	bgeu	r3,r2,10045c0 <sls_avalon_usb20_irq+0x29cc>
 10045bc:	003f4e06 	br	10042f8 <__alt_data_end+0xfffe33a0>
 10045c0:	e0bfea17 	ldw	r2,-88(fp)
 10045c4:	10801304 	addi	r2,r2,76
 10045c8:	10000035 	stwio	zero,0(r2)
 10045cc:	e0bfd017 	ldw	r2,-192(fp)
 10045d0:	10800083 	ldbu	r2,2(r2)
 10045d4:	10c03fcc 	andi	r3,r2,255
 10045d8:	e0bfd517 	ldw	r2,-172(fp)
 10045dc:	10c02a15 	stw	r3,168(r2)
 10045e0:	e0bfd30b 	ldhu	r2,-180(fp)
 10045e4:	10c03fcc 	andi	r3,r2,255
 10045e8:	e0bfd517 	ldw	r2,-172(fp)
 10045ec:	10c02b15 	stw	r3,172(r2)
 10045f0:	00019506 	br	1004c48 <sls_avalon_usb20_irq+0x3054>
 10045f4:	e0bfe817 	ldw	r2,-96(fp)
 10045f8:	10800060 	cmpeqi	r2,r2,1
 10045fc:	1000071e 	bne	r2,zero,100461c <sls_avalon_usb20_irq+0x2a28>
 1004600:	e13fd517 	ldw	r4,-172(fp)
 1004604:	01402004 	movi	r5,128
 1004608:	1000bf00 	call	1000bf0 <USB_SetStallEP>
 100460c:	e0ffcf17 	ldw	r3,-196(fp)
 1004610:	00800084 	movi	r2,2
 1004614:	18800215 	stw	r2,8(r3)
 1004618:	00018b06 	br	1004c48 <sls_avalon_usb20_irq+0x3054>
 100461c:	e0bfd517 	ldw	r2,-172(fp)
 1004620:	10802817 	ldw	r2,160(r2)
 1004624:	1005003a 	cmpeq	r2,r2,zero
 1004628:	1000161e 	bne	r2,zero,1004684 <sls_avalon_usb20_irq+0x2a90>
 100462c:	e0bfd28b 	ldhu	r2,-182(fp)
 1004630:	e0ffd517 	ldw	r3,-172(fp)
 1004634:	18c02e17 	ldw	r3,184(r3)
 1004638:	10c0122e 	bgeu	r2,r3,1004684 <sls_avalon_usb20_irq+0x2a90>
 100463c:	e0bfea17 	ldw	r2,-88(fp)
 1004640:	1007883a 	mov	r3,r2
 1004644:	008000b4 	movhi	r2,2
 1004648:	1889883a 	add	r4,r3,r2
 100464c:	e0ffd28b 	ldhu	r3,-182(fp)
 1004650:	e0bfd517 	ldw	r2,-172(fp)
 1004654:	1885883a 	add	r2,r3,r2
 1004658:	10803504 	addi	r2,r2,212
 100465c:	10800003 	ldbu	r2,0(r2)
 1004660:	10c03fcc 	andi	r3,r2,255
 1004664:	2005883a 	mov	r2,r4
 1004668:	10c00025 	stbio	r3,0(r2)
 100466c:	e0bfea17 	ldw	r2,-88(fp)
 1004670:	10801304 	addi	r2,r2,76
 1004674:	1007883a 	mov	r3,r2
 1004678:	008000b4 	movhi	r2,2
 100467c:	18800035 	stwio	r2,0(r3)
 1004680:	00017106 	br	1004c48 <sls_avalon_usb20_irq+0x3054>
 1004684:	e13fd517 	ldw	r4,-172(fp)
 1004688:	01402004 	movi	r5,128
 100468c:	1000bf00 	call	1000bf0 <USB_SetStallEP>
 1004690:	e0ffcf17 	ldw	r3,-196(fp)
 1004694:	00800084 	movi	r2,2
 1004698:	18800215 	stw	r2,8(r3)
 100469c:	00016a06 	br	1004c48 <sls_avalon_usb20_irq+0x3054>
 10046a0:	e0bfcf17 	ldw	r2,-196(fp)
 10046a4:	10800317 	ldw	r2,12(r2)
 10046a8:	10800098 	cmpnei	r2,r2,2
 10046ac:	1000441e 	bne	r2,zero,10047c0 <sls_avalon_usb20_irq+0x2bcc>
 10046b0:	e0bfcf17 	ldw	r2,-196(fp)
 10046b4:	10000015 	stw	zero,0(r2)
 10046b8:	e0ffcf17 	ldw	r3,-196(fp)
 10046bc:	00800084 	movi	r2,2
 10046c0:	18800215 	stw	r2,8(r3)
 10046c4:	e0bfcf17 	ldw	r2,-196(fp)
 10046c8:	10000515 	stw	zero,20(r2)
 10046cc:	e0bfd517 	ldw	r2,-172(fp)
 10046d0:	10803d17 	ldw	r2,244(r2)
 10046d4:	1005003a 	cmpeq	r2,r2,zero
 10046d8:	10000b1e 	bne	r2,zero,1004708 <sls_avalon_usb20_irq+0x2b14>
 10046dc:	e0bfd517 	ldw	r2,-172(fp)
 10046e0:	10803d17 	ldw	r2,244(r2)
 10046e4:	e13fcf17 	ldw	r4,-196(fp)
 10046e8:	e17fea17 	ldw	r5,-88(fp)
 10046ec:	000d883a 	mov	r6,zero
 10046f0:	103ee83a 	callr	r2
 10046f4:	e0bfcf17 	ldw	r2,-196(fp)
 10046f8:	10800517 	ldw	r2,20(r2)
 10046fc:	1005003a 	cmpeq	r2,r2,zero
 1004700:	1000081e 	bne	r2,zero,1004724 <sls_avalon_usb20_irq+0x2b30>
 1004704:	00000b06 	br	1004734 <sls_avalon_usb20_irq+0x2b40>
 1004708:	e13fd517 	ldw	r4,-172(fp)
 100470c:	01402004 	movi	r5,128
 1004710:	1000bf00 	call	1000bf0 <USB_SetStallEP>
 1004714:	e0ffcf17 	ldw	r3,-196(fp)
 1004718:	00800084 	movi	r2,2
 100471c:	18800215 	stw	r2,8(r3)
 1004720:	00014906 	br	1004c48 <sls_avalon_usb20_irq+0x3054>
 1004724:	e0bfea17 	ldw	r2,-88(fp)
 1004728:	10801304 	addi	r2,r2,76
 100472c:	10000035 	stwio	zero,0(r2)
 1004730:	00014506 	br	1004c48 <sls_avalon_usb20_irq+0x3054>
 1004734:	e03fe015 	stw	zero,-128(fp)
 1004738:	00001406 	br	100478c <sls_avalon_usb20_irq+0x2b98>
 100473c:	e0bfea17 	ldw	r2,-88(fp)
 1004740:	1007883a 	mov	r3,r2
 1004744:	e0bfe017 	ldw	r2,-128(fp)
 1004748:	1887883a 	add	r3,r3,r2
 100474c:	008000b4 	movhi	r2,2
 1004750:	1889883a 	add	r4,r3,r2
 1004754:	e0bfcf17 	ldw	r2,-196(fp)
 1004758:	10800017 	ldw	r2,0(r2)
 100475c:	1007883a 	mov	r3,r2
 1004760:	e0bfe017 	ldw	r2,-128(fp)
 1004764:	1885883a 	add	r2,r3,r2
 1004768:	10800003 	ldbu	r2,0(r2)
 100476c:	10c03fcc 	andi	r3,r2,255
 1004770:	18c0201c 	xori	r3,r3,128
 1004774:	18ffe004 	addi	r3,r3,-128
 1004778:	2005883a 	mov	r2,r4
 100477c:	10c00025 	stbio	r3,0(r2)
 1004780:	e0bfe017 	ldw	r2,-128(fp)
 1004784:	10800044 	addi	r2,r2,1
 1004788:	e0bfe015 	stw	r2,-128(fp)
 100478c:	e0bfcf17 	ldw	r2,-196(fp)
 1004790:	10c00517 	ldw	r3,20(r2)
 1004794:	e0bfe017 	ldw	r2,-128(fp)
 1004798:	10ffe836 	bltu	r2,r3,100473c <__alt_data_end+0xfffe37e4>
 100479c:	e0bfea17 	ldw	r2,-88(fp)
 10047a0:	11001304 	addi	r4,r2,76
 10047a4:	e0bfcf17 	ldw	r2,-196(fp)
 10047a8:	10800517 	ldw	r2,20(r2)
 10047ac:	1004947a 	slli	r2,r2,17
 10047b0:	1007883a 	mov	r3,r2
 10047b4:	2005883a 	mov	r2,r4
 10047b8:	10c00035 	stwio	r3,0(r2)
 10047bc:	00012206 	br	1004c48 <sls_avalon_usb20_irq+0x3054>
 10047c0:	e0bfcf17 	ldw	r2,-196(fp)
 10047c4:	10800317 	ldw	r2,12(r2)
 10047c8:	10800058 	cmpnei	r2,r2,1
 10047cc:	1000641e 	bne	r2,zero,1004960 <sls_avalon_usb20_irq+0x2d6c>
 10047d0:	e0bfcf17 	ldw	r2,-196(fp)
 10047d4:	10000115 	stw	zero,4(r2)
 10047d8:	e0bfcf17 	ldw	r2,-196(fp)
 10047dc:	10800417 	ldw	r2,16(r2)
 10047e0:	1004c03a 	cmpne	r2,r2,zero
 10047e4:	1000141e 	bne	r2,zero,1004838 <sls_avalon_usb20_irq+0x2c44>
 10047e8:	e0bfd517 	ldw	r2,-172(fp)
 10047ec:	10003415 	stw	zero,208(r2)
 10047f0:	e0bfd517 	ldw	r2,-172(fp)
 10047f4:	10803d17 	ldw	r2,244(r2)
 10047f8:	1005003a 	cmpeq	r2,r2,zero
 10047fc:	1000071e 	bne	r2,zero,100481c <sls_avalon_usb20_irq+0x2c28>
 1004800:	e0bfd517 	ldw	r2,-172(fp)
 1004804:	10803d17 	ldw	r2,244(r2)
 1004808:	e13fcf17 	ldw	r4,-196(fp)
 100480c:	e17fea17 	ldw	r5,-88(fp)
 1004810:	01800084 	movi	r6,2
 1004814:	103ee83a 	callr	r2
 1004818:	00000706 	br	1004838 <sls_avalon_usb20_irq+0x2c44>
 100481c:	e13fd517 	ldw	r4,-172(fp)
 1004820:	01402004 	movi	r5,128
 1004824:	1000bf00 	call	1000bf0 <USB_SetStallEP>
 1004828:	e0ffcf17 	ldw	r3,-196(fp)
 100482c:	00800084 	movi	r2,2
 1004830:	18800215 	stw	r2,8(r3)
 1004834:	00010406 	br	1004c48 <sls_avalon_usb20_irq+0x3054>
 1004838:	e0bfcf17 	ldw	r2,-196(fp)
 100483c:	10800417 	ldw	r2,16(r2)
 1004840:	1004c03a 	cmpne	r2,r2,zero
 1004844:	1000061e 	bne	r2,zero,1004860 <sls_avalon_usb20_irq+0x2c6c>
 1004848:	e0bfcf17 	ldw	r2,-196(fp)
 100484c:	10000215 	stw	zero,8(r2)
 1004850:	e0bfea17 	ldw	r2,-88(fp)
 1004854:	10801304 	addi	r2,r2,76
 1004858:	10000035 	stwio	zero,0(r2)
 100485c:	0000fa06 	br	1004c48 <sls_avalon_usb20_irq+0x3054>
 1004860:	e03fdf15 	stw	zero,-132(fp)
 1004864:	e0bfd517 	ldw	r2,-172(fp)
 1004868:	10803417 	ldw	r2,208(r2)
 100486c:	e0bfd915 	stw	r2,-156(fp)
 1004870:	e0bfd517 	ldw	r2,-172(fp)
 1004874:	10c03417 	ldw	r3,208(r2)
 1004878:	e0bfcf17 	ldw	r2,-196(fp)
 100487c:	10800417 	ldw	r2,16(r2)
 1004880:	1880272e 	bgeu	r3,r2,1004920 <sls_avalon_usb20_irq+0x2d2c>
 1004884:	e0bfcf17 	ldw	r2,-196(fp)
 1004888:	10c00417 	ldw	r3,16(r2)
 100488c:	e0bfd517 	ldw	r2,-172(fp)
 1004890:	10803417 	ldw	r2,208(r2)
 1004894:	1885c83a 	sub	r2,r3,r2
 1004898:	e0bfdf15 	stw	r2,-132(fp)
 100489c:	e0bfe917 	ldw	r2,-92(fp)
 10048a0:	1007883a 	mov	r3,r2
 10048a4:	e0bfdf17 	ldw	r2,-132(fp)
 10048a8:	1880022e 	bgeu	r3,r2,10048b4 <sls_avalon_usb20_irq+0x2cc0>
 10048ac:	e0bfe917 	ldw	r2,-92(fp)
 10048b0:	e0bfdf15 	stw	r2,-132(fp)
 10048b4:	e03fe015 	stw	zero,-128(fp)
 10048b8:	00001606 	br	1004914 <sls_avalon_usb20_irq+0x2d20>
 10048bc:	e0bfea17 	ldw	r2,-88(fp)
 10048c0:	1007883a 	mov	r3,r2
 10048c4:	e0bfe017 	ldw	r2,-128(fp)
 10048c8:	1887883a 	add	r3,r3,r2
 10048cc:	008000b4 	movhi	r2,2
 10048d0:	1889883a 	add	r4,r3,r2
 10048d4:	e0bfcf17 	ldw	r2,-196(fp)
 10048d8:	10800117 	ldw	r2,4(r2)
 10048dc:	1007883a 	mov	r3,r2
 10048e0:	e0bfe017 	ldw	r2,-128(fp)
 10048e4:	1887883a 	add	r3,r3,r2
 10048e8:	e0bfd917 	ldw	r2,-156(fp)
 10048ec:	1885883a 	add	r2,r3,r2
 10048f0:	10800003 	ldbu	r2,0(r2)
 10048f4:	10c03fcc 	andi	r3,r2,255
 10048f8:	18c0201c 	xori	r3,r3,128
 10048fc:	18ffe004 	addi	r3,r3,-128
 1004900:	2005883a 	mov	r2,r4
 1004904:	10c00025 	stbio	r3,0(r2)
 1004908:	e0bfe017 	ldw	r2,-128(fp)
 100490c:	10800044 	addi	r2,r2,1
 1004910:	e0bfe015 	stw	r2,-128(fp)
 1004914:	e0ffe017 	ldw	r3,-128(fp)
 1004918:	e0bfdf17 	ldw	r2,-132(fp)
 100491c:	18bfe736 	bltu	r3,r2,10048bc <__alt_data_end+0xfffe3964>
 1004920:	e0bfea17 	ldw	r2,-88(fp)
 1004924:	11001304 	addi	r4,r2,76
 1004928:	e0bfdf17 	ldw	r2,-132(fp)
 100492c:	1004947a 	slli	r2,r2,17
 1004930:	1007883a 	mov	r3,r2
 1004934:	2005883a 	mov	r2,r4
 1004938:	10c00035 	stwio	r3,0(r2)
 100493c:	e0bfd517 	ldw	r2,-172(fp)
 1004940:	10c03417 	ldw	r3,208(r2)
 1004944:	e0bfdf17 	ldw	r2,-132(fp)
 1004948:	1887883a 	add	r3,r3,r2
 100494c:	e0bfd517 	ldw	r2,-172(fp)
 1004950:	10c03415 	stw	r3,208(r2)
 1004954:	e0bfcf17 	ldw	r2,-196(fp)
 1004958:	10000215 	stw	zero,8(r2)
 100495c:	0000ba06 	br	1004c48 <sls_avalon_usb20_irq+0x3054>
 1004960:	e0bfcf17 	ldw	r2,-196(fp)
 1004964:	10800317 	ldw	r2,12(r2)
 1004968:	1004c03a 	cmpne	r2,r2,zero
 100496c:	10001c1e 	bne	r2,zero,10049e0 <sls_avalon_usb20_irq+0x2dec>
 1004970:	e0bfcf17 	ldw	r2,-196(fp)
 1004974:	10000115 	stw	zero,4(r2)
 1004978:	e0bfd517 	ldw	r2,-172(fp)
 100497c:	10803d17 	ldw	r2,244(r2)
 1004980:	1005003a 	cmpeq	r2,r2,zero
 1004984:	1000061e 	bne	r2,zero,10049a0 <sls_avalon_usb20_irq+0x2dac>
 1004988:	e0bfd517 	ldw	r2,-172(fp)
 100498c:	10803d17 	ldw	r2,244(r2)
 1004990:	e13fcf17 	ldw	r4,-196(fp)
 1004994:	e17fea17 	ldw	r5,-88(fp)
 1004998:	018000c4 	movi	r6,3
 100499c:	103ee83a 	callr	r2
 10049a0:	e0bfcf17 	ldw	r2,-196(fp)
 10049a4:	10000415 	stw	zero,16(r2)
 10049a8:	e0bfea17 	ldw	r2,-88(fp)
 10049ac:	10801204 	addi	r2,r2,72
 10049b0:	10800037 	ldwio	r2,0(r2)
 10049b4:	e0bfdf15 	stw	r2,-132(fp)
 10049b8:	e0bfdf17 	ldw	r2,-132(fp)
 10049bc:	1004403a 	cmpge	r2,r2,zero
 10049c0:	1000071e 	bne	r2,zero,10049e0 <sls_avalon_usb20_irq+0x2dec>
 10049c4:	e0bfea17 	ldw	r2,-88(fp)
 10049c8:	11001204 	addi	r4,r2,72
 10049cc:	e0bfe917 	ldw	r2,-92(fp)
 10049d0:	1006947a 	slli	r3,r2,17
 10049d4:	2005883a 	mov	r2,r4
 10049d8:	10c00035 	stwio	r3,0(r2)
 10049dc:	00009a06 	br	1004c48 <sls_avalon_usb20_irq+0x3054>
 10049e0:	e0bfe117 	ldw	r2,-124(fp)
 10049e4:	10bfff8c 	andi	r2,r2,65534
 10049e8:	108000b0 	cmpltui	r2,r2,2
 10049ec:	1000381e 	bne	r2,zero,1004ad0 <sls_avalon_usb20_irq+0x2edc>
 10049f0:	e03ff015 	stw	zero,-64(fp)
 10049f4:	00800044 	movi	r2,1
 10049f8:	e0bfd715 	stw	r2,-164(fp)
 10049fc:	00003106 	br	1004ac4 <sls_avalon_usb20_irq+0x2ed0>
 1004a00:	e0bfe117 	ldw	r2,-124(fp)
 1004a04:	10ffff8c 	andi	r3,r2,65534
 1004a08:	e0bfd717 	ldw	r2,-164(fp)
 1004a0c:	1884d83a 	srl	r2,r3,r2
 1004a10:	10800058 	cmpnei	r2,r2,1
 1004a14:	1000281e 	bne	r2,zero,1004ab8 <sls_avalon_usb20_irq+0x2ec4>
 1004a18:	e0bfd717 	ldw	r2,-164(fp)
 1004a1c:	e0bff015 	stw	r2,-64(fp)
 1004a20:	e0bff017 	ldw	r2,-64(fp)
 1004a24:	1004913a 	slli	r2,r2,4
 1004a28:	1007883a 	mov	r3,r2
 1004a2c:	e0bfea17 	ldw	r2,-88(fp)
 1004a30:	1885883a 	add	r2,r3,r2
 1004a34:	10801104 	addi	r2,r2,68
 1004a38:	10800037 	ldwio	r2,0(r2)
 1004a3c:	10803fcc 	andi	r2,r2,255
 1004a40:	e0bfdc15 	stw	r2,-144(fp)
 1004a44:	e0bfdc17 	ldw	r2,-144(fp)
 1004a48:	108029cc 	andi	r2,r2,167
 1004a4c:	1005003a 	cmpeq	r2,r2,zero
 1004a50:	1000191e 	bne	r2,zero,1004ab8 <sls_avalon_usb20_irq+0x2ec4>
 1004a54:	e0bff017 	ldw	r2,-64(fp)
 1004a58:	1004913a 	slli	r2,r2,4
 1004a5c:	1007883a 	mov	r3,r2
 1004a60:	e0bfea17 	ldw	r2,-88(fp)
 1004a64:	1885883a 	add	r2,r3,r2
 1004a68:	10801004 	addi	r2,r2,64
 1004a6c:	10800037 	ldwio	r2,0(r2)
 1004a70:	1083002c 	andhi	r2,r2,3072
 1004a74:	1004913a 	slli	r2,r2,4
 1004a78:	e0bfc815 	stw	r2,-224(fp)
 1004a7c:	e0bfd517 	ldw	r2,-172(fp)
 1004a80:	10803c17 	ldw	r2,240(r2)
 1004a84:	1005003a 	cmpeq	r2,r2,zero
 1004a88:	10000b1e 	bne	r2,zero,1004ab8 <sls_avalon_usb20_irq+0x2ec4>
 1004a8c:	e0bfd517 	ldw	r2,-172(fp)
 1004a90:	11403c17 	ldw	r5,240(r2)
 1004a94:	e0bfdc17 	ldw	r2,-144(fp)
 1004a98:	10c029cc 	andi	r3,r2,167
 1004a9c:	e0bfc817 	ldw	r2,-224(fp)
 1004aa0:	1886b03a 	or	r3,r3,r2
 1004aa4:	e0bff017 	ldw	r2,-64(fp)
 1004aa8:	1004963a 	slli	r2,r2,24
 1004aac:	1884b03a 	or	r2,r3,r2
 1004ab0:	1009883a 	mov	r4,r2
 1004ab4:	283ee83a 	callr	r5
 1004ab8:	e0bfd717 	ldw	r2,-164(fp)
 1004abc:	10800044 	addi	r2,r2,1
 1004ac0:	e0bfd715 	stw	r2,-164(fp)
 1004ac4:	e0bfd717 	ldw	r2,-164(fp)
 1004ac8:	10800430 	cmpltui	r2,r2,16
 1004acc:	103fcc1e 	bne	r2,zero,1004a00 <__alt_data_end+0xfffe3aa8>
 1004ad0:	e0bfe117 	ldw	r2,-124(fp)
 1004ad4:	10821c2c 	andhi	r2,r2,2160
 1004ad8:	1005003a 	cmpeq	r2,r2,zero
 1004adc:	10000f1e 	bne	r2,zero,1004b1c <sls_avalon_usb20_irq+0x2f28>
 1004ae0:	e0ffcf17 	ldw	r3,-196(fp)
 1004ae4:	00800084 	movi	r2,2
 1004ae8:	18800215 	stw	r2,8(r3)
 1004aec:	e0bfd517 	ldw	r2,-172(fp)
 1004af0:	10803c17 	ldw	r2,240(r2)
 1004af4:	1005003a 	cmpeq	r2,r2,zero
 1004af8:	1000081e 	bne	r2,zero,1004b1c <sls_avalon_usb20_irq+0x2f28>
 1004afc:	e0bfe117 	ldw	r2,-124(fp)
 1004b00:	10821c2c 	andhi	r2,r2,2160
 1004b04:	e0bff115 	stw	r2,-60(fp)
 1004b08:	e0bfd517 	ldw	r2,-172(fp)
 1004b0c:	10c03c17 	ldw	r3,240(r2)
 1004b10:	e0bff117 	ldw	r2,-60(fp)
 1004b14:	1009d33a 	srai	r4,r2,12
 1004b18:	183ee83a 	callr	r3
 1004b1c:	e0bfe117 	ldw	r2,-124(fp)
 1004b20:	1080402c 	andhi	r2,r2,256
 1004b24:	1005003a 	cmpeq	r2,r2,zero
 1004b28:	10000b1e 	bne	r2,zero,1004b58 <sls_avalon_usb20_irq+0x2f64>
 1004b2c:	e0bfd517 	ldw	r2,-172(fp)
 1004b30:	10803917 	ldw	r2,228(r2)
 1004b34:	1005003a 	cmpeq	r2,r2,zero
 1004b38:	1000041e 	bne	r2,zero,1004b4c <sls_avalon_usb20_irq+0x2f58>
 1004b3c:	e0bfd517 	ldw	r2,-172(fp)
 1004b40:	10803917 	ldw	r2,228(r2)
 1004b44:	e13fd517 	ldw	r4,-172(fp)
 1004b48:	103ee83a 	callr	r2
 1004b4c:	e0ffd517 	ldw	r3,-172(fp)
 1004b50:	00800144 	movi	r2,5
 1004b54:	18800f15 	stw	r2,60(r3)
 1004b58:	e0bfe117 	ldw	r2,-124(fp)
 1004b5c:	1080202c 	andhi	r2,r2,128
 1004b60:	1005003a 	cmpeq	r2,r2,zero
 1004b64:	10000b1e 	bne	r2,zero,1004b94 <sls_avalon_usb20_irq+0x2fa0>
 1004b68:	e0ffd517 	ldw	r3,-172(fp)
 1004b6c:	00800104 	movi	r2,4
 1004b70:	18800f15 	stw	r2,60(r3)
 1004b74:	e0bfd517 	ldw	r2,-172(fp)
 1004b78:	10803a17 	ldw	r2,232(r2)
 1004b7c:	1005003a 	cmpeq	r2,r2,zero
 1004b80:	1000041e 	bne	r2,zero,1004b94 <sls_avalon_usb20_irq+0x2fa0>
 1004b84:	e0bfd517 	ldw	r2,-172(fp)
 1004b88:	10803a17 	ldw	r2,232(r2)
 1004b8c:	e13fd517 	ldw	r4,-172(fp)
 1004b90:	103ee83a 	callr	r2
 1004b94:	e0bfe117 	ldw	r2,-124(fp)
 1004b98:	1081002c 	andhi	r2,r2,1024
 1004b9c:	1005003a 	cmpeq	r2,r2,zero
 1004ba0:	10001d1e 	bne	r2,zero,1004c18 <sls_avalon_usb20_irq+0x3024>
 1004ba4:	e0ffd517 	ldw	r3,-172(fp)
 1004ba8:	00800044 	movi	r2,1
 1004bac:	18800e15 	stw	r2,56(r3)
 1004bb0:	e0bfd517 	ldw	r2,-172(fp)
 1004bb4:	1001bc45 	stb	zero,1777(r2)
 1004bb8:	e0bfd517 	ldw	r2,-172(fp)
 1004bbc:	1001bc05 	stb	zero,1776(r2)
 1004bc0:	e0bfd517 	ldw	r2,-172(fp)
 1004bc4:	10803317 	ldw	r2,204(r2)
 1004bc8:	1004c03a 	cmpne	r2,r2,zero
 1004bcc:	1000031e 	bne	r2,zero,1004bdc <sls_avalon_usb20_irq+0x2fe8>
 1004bd0:	e0ffd517 	ldw	r3,-172(fp)
 1004bd4:	00800044 	movi	r2,1
 1004bd8:	18803315 	stw	r2,204(r3)
 1004bdc:	e0bfd517 	ldw	r2,-172(fp)
 1004be0:	10000f15 	stw	zero,60(r2)
 1004be4:	e0bfd517 	ldw	r2,-172(fp)
 1004be8:	10003215 	stw	zero,200(r2)
 1004bec:	e0bfd517 	ldw	r2,-172(fp)
 1004bf0:	10803717 	ldw	r2,220(r2)
 1004bf4:	1005003a 	cmpeq	r2,r2,zero
 1004bf8:	1000041e 	bne	r2,zero,1004c0c <sls_avalon_usb20_irq+0x3018>
 1004bfc:	e0bfd517 	ldw	r2,-172(fp)
 1004c00:	10803717 	ldw	r2,220(r2)
 1004c04:	e13fd517 	ldw	r4,-172(fp)
 1004c08:	103ee83a 	callr	r2
 1004c0c:	e0ffcf17 	ldw	r3,-196(fp)
 1004c10:	00800084 	movi	r2,2
 1004c14:	18800215 	stw	r2,8(r3)
 1004c18:	e0bfe117 	ldw	r2,-124(fp)
 1004c1c:	1080802c 	andhi	r2,r2,512
 1004c20:	1005003a 	cmpeq	r2,r2,zero
 1004c24:	1000081e 	bne	r2,zero,1004c48 <sls_avalon_usb20_irq+0x3054>
 1004c28:	e0bfd517 	ldw	r2,-172(fp)
 1004c2c:	10803617 	ldw	r2,216(r2)
 1004c30:	1005003a 	cmpeq	r2,r2,zero
 1004c34:	1000041e 	bne	r2,zero,1004c48 <sls_avalon_usb20_irq+0x3054>
 1004c38:	e0bfd517 	ldw	r2,-172(fp)
 1004c3c:	10803617 	ldw	r2,216(r2)
 1004c40:	e13fd517 	ldw	r4,-172(fp)
 1004c44:	103ee83a 	callr	r2
 1004c48:	e037883a 	mov	sp,fp
 1004c4c:	dfc00117 	ldw	ra,4(sp)
 1004c50:	df000017 	ldw	fp,0(sp)
 1004c54:	dec00204 	addi	sp,sp,8
 1004c58:	f800283a 	ret

01004c5c <usb20sr_config>:
 1004c5c:	defff704 	addi	sp,sp,-36
 1004c60:	dfc00815 	stw	ra,32(sp)
 1004c64:	df000715 	stw	fp,28(sp)
 1004c68:	df000704 	addi	fp,sp,28
 1004c6c:	e13ffb15 	stw	r4,-20(fp)
 1004c70:	e17ffc15 	stw	r5,-16(fp)
 1004c74:	e1bffd15 	stw	r6,-12(fp)
 1004c78:	e1fffe15 	stw	r7,-8(fp)
 1004c7c:	e03ffa15 	stw	zero,-24(fp)
 1004c80:	e13ffd17 	ldw	r4,-12(fp)
 1004c84:	e17ffb17 	ldw	r5,-20(fp)
 1004c88:	01804034 	movhi	r6,256
 1004c8c:	3186fd04 	addi	r6,r6,7156
 1004c90:	10074b00 	call	10074b0 <alt_irq_register>
 1004c94:	e0bff915 	stw	r2,-28(fp)
 1004c98:	e0bff917 	ldw	r2,-28(fp)
 1004c9c:	1004803a 	cmplt	r2,r2,zero
 1004ca0:	1000391e 	bne	r2,zero,1004d88 <usb20sr_config+0x12c>
 1004ca4:	00800044 	movi	r2,1
 1004ca8:	e0bffa15 	stw	r2,-24(fp)
 1004cac:	e0fffe17 	ldw	r3,-8(fp)
 1004cb0:	e0bffb17 	ldw	r2,-20(fp)
 1004cb4:	10c00115 	stw	r3,4(r2)
 1004cb8:	e0bffc17 	ldw	r2,-16(fp)
 1004cbc:	1007883a 	mov	r3,r2
 1004cc0:	e0bffb17 	ldw	r2,-20(fp)
 1004cc4:	10c01515 	stw	r3,84(r2)
 1004cc8:	e0bffd17 	ldw	r2,-12(fp)
 1004ccc:	1007883a 	mov	r3,r2
 1004cd0:	e0bffb17 	ldw	r2,-20(fp)
 1004cd4:	10c00d15 	stw	r3,52(r2)
 1004cd8:	e0bffb17 	ldw	r2,-20(fp)
 1004cdc:	10c01517 	ldw	r3,84(r2)
 1004ce0:	008000b4 	movhi	r2,2
 1004ce4:	1887883a 	add	r3,r3,r2
 1004ce8:	e0bffb17 	ldw	r2,-20(fp)
 1004cec:	10c01615 	stw	r3,88(r2)
 1004cf0:	e0c00217 	ldw	r3,8(fp)
 1004cf4:	e0bffb17 	ldw	r2,-20(fp)
 1004cf8:	10c03c15 	stw	r3,240(r2)
 1004cfc:	e0c00317 	ldw	r3,12(fp)
 1004d00:	e0bffb17 	ldw	r2,-20(fp)
 1004d04:	10c03d15 	stw	r3,244(r2)
 1004d08:	e0c00417 	ldw	r3,16(fp)
 1004d0c:	e0bffb17 	ldw	r2,-20(fp)
 1004d10:	10c03e15 	stw	r3,248(r2)
 1004d14:	e0bffb17 	ldw	r2,-20(fp)
 1004d18:	10000e15 	stw	zero,56(r2)
 1004d1c:	e0bffb17 	ldw	r2,-20(fp)
 1004d20:	10000f15 	stw	zero,60(r2)
 1004d24:	e0bffb17 	ldw	r2,-20(fp)
 1004d28:	10800317 	ldw	r2,12(r2)
 1004d2c:	108001c4 	addi	r2,r2,7
 1004d30:	10c00003 	ldbu	r3,0(r2)
 1004d34:	e0bffb17 	ldw	r2,-20(fp)
 1004d38:	10c00045 	stb	r3,1(r2)
 1004d3c:	e0bffb17 	ldw	r2,-20(fp)
 1004d40:	10000005 	stb	zero,0(r2)
 1004d44:	e0bffb17 	ldw	r2,-20(fp)
 1004d48:	10002915 	stw	zero,164(r2)
 1004d4c:	e0bffb17 	ldw	r2,-20(fp)
 1004d50:	10002815 	stw	zero,160(r2)
 1004d54:	e0bffb17 	ldw	r2,-20(fp)
 1004d58:	10002a15 	stw	zero,168(r2)
 1004d5c:	e0bffb17 	ldw	r2,-20(fp)
 1004d60:	10002b15 	stw	zero,172(r2)
 1004d64:	e0bffb17 	ldw	r2,-20(fp)
 1004d68:	10801517 	ldw	r2,84(r2)
 1004d6c:	10800204 	addi	r2,r2,8
 1004d70:	1007883a 	mov	r3,r2
 1004d74:	0080ffc4 	movi	r2,1023
 1004d78:	18800035 	stwio	r2,0(r3)
 1004d7c:	e0bffa17 	ldw	r2,-24(fp)
 1004d80:	e0bfff15 	stw	r2,-4(fp)
 1004d84:	00000206 	br	1004d90 <usb20sr_config+0x134>
 1004d88:	e0bffa17 	ldw	r2,-24(fp)
 1004d8c:	e0bfff15 	stw	r2,-4(fp)
 1004d90:	e0bfff17 	ldw	r2,-4(fp)
 1004d94:	e037883a 	mov	sp,fp
 1004d98:	dfc00117 	ldw	ra,4(sp)
 1004d9c:	df000017 	ldw	fp,0(sp)
 1004da0:	dec00204 	addi	sp,sp,8
 1004da4:	f800283a 	ret

01004da8 <usb20_event_isr>:
 1004da8:	defffb04 	addi	sp,sp,-20
 1004dac:	df000415 	stw	fp,16(sp)
 1004db0:	df000404 	addi	fp,sp,16
 1004db4:	e13ffc15 	stw	r4,-16(fp)
 1004db8:	e17ffd15 	stw	r5,-12(fp)
 1004dbc:	e1bffe15 	stw	r6,-8(fp)
 1004dc0:	e1ffff15 	stw	r7,-4(fp)
 1004dc4:	e0ffff17 	ldw	r3,-4(fp)
 1004dc8:	e0bffc17 	ldw	r2,-16(fp)
 1004dcc:	10c03815 	stw	r3,224(r2)
 1004dd0:	e0c00117 	ldw	r3,4(fp)
 1004dd4:	e0bffc17 	ldw	r2,-16(fp)
 1004dd8:	10c03915 	stw	r3,228(r2)
 1004ddc:	e0fffd17 	ldw	r3,-12(fp)
 1004de0:	e0bffc17 	ldw	r2,-16(fp)
 1004de4:	10c03615 	stw	r3,216(r2)
 1004de8:	e0fffe17 	ldw	r3,-8(fp)
 1004dec:	e0bffc17 	ldw	r2,-16(fp)
 1004df0:	10c03715 	stw	r3,220(r2)
 1004df4:	e0c00217 	ldw	r3,8(fp)
 1004df8:	e0bffc17 	ldw	r2,-16(fp)
 1004dfc:	10c03a15 	stw	r3,232(r2)
 1004e00:	e0c00317 	ldw	r3,12(fp)
 1004e04:	e0bffc17 	ldw	r2,-16(fp)
 1004e08:	10c03b15 	stw	r3,236(r2)
 1004e0c:	e037883a 	mov	sp,fp
 1004e10:	df000017 	ldw	fp,0(sp)
 1004e14:	dec00104 	addi	sp,sp,4
 1004e18:	f800283a 	ret

01004e1c <usb20sr_with_dma_write>:
 1004e1c:	deffe704 	addi	sp,sp,-100
 1004e20:	dfc01815 	stw	ra,96(sp)
 1004e24:	df001715 	stw	fp,92(sp)
 1004e28:	df001704 	addi	fp,sp,92
 1004e2c:	e13ffb15 	stw	r4,-20(fp)
 1004e30:	e1bffd15 	stw	r6,-12(fp)
 1004e34:	e1fffe15 	stw	r7,-8(fp)
 1004e38:	e17ffc05 	stb	r5,-16(fp)
 1004e3c:	e0bffb17 	ldw	r2,-20(fp)
 1004e40:	10800e17 	ldw	r2,56(r2)
 1004e44:	1004c03a 	cmpne	r2,r2,zero
 1004e48:	103ffc1e 	bne	r2,zero,1004e3c <__alt_data_end+0xfffe3ee4>
 1004e4c:	e0bffb17 	ldw	r2,-20(fp)
 1004e50:	10003315 	stw	zero,204(r2)
 1004e54:	e0bffd17 	ldw	r2,-12(fp)
 1004e58:	e0bfeb15 	stw	r2,-84(fp)
 1004e5c:	e0bffd17 	ldw	r2,-12(fp)
 1004e60:	e0bfec15 	stw	r2,-80(fp)
 1004e64:	e03fed15 	stw	zero,-76(fp)
 1004e68:	e0bfec17 	ldw	r2,-80(fp)
 1004e6c:	108000cc 	andi	r2,r2,3
 1004e70:	1005003a 	cmpeq	r2,r2,zero
 1004e74:	1000021e 	bne	r2,zero,1004e80 <usb20sr_with_dma_write+0x64>
 1004e78:	00800044 	movi	r2,1
 1004e7c:	e0bfed15 	stw	r2,-76(fp)
 1004e80:	e0bffe17 	ldw	r2,-8(fp)
 1004e84:	e0bfee15 	stw	r2,-72(fp)
 1004e88:	e03fef15 	stw	zero,-68(fp)
 1004e8c:	e0bffb17 	ldw	r2,-20(fp)
 1004e90:	10801717 	ldw	r2,92(r2)
 1004e94:	e0bff015 	stw	r2,-64(fp)
 1004e98:	e0bffb17 	ldw	r2,-20(fp)
 1004e9c:	10801517 	ldw	r2,84(r2)
 1004ea0:	e0bff115 	stw	r2,-60(fp)
 1004ea4:	e0fffc03 	ldbu	r3,-16(fp)
 1004ea8:	e0bffb17 	ldw	r2,-20(fp)
 1004eac:	1885883a 	add	r2,r3,r2
 1004eb0:	1080e104 	addi	r2,r2,900
 1004eb4:	10800003 	ldbu	r2,0(r2)
 1004eb8:	10803fcc 	andi	r2,r2,255
 1004ebc:	e0bff215 	stw	r2,-56(fp)
 1004ec0:	e0fffc03 	ldbu	r3,-16(fp)
 1004ec4:	e0bffb17 	ldw	r2,-20(fp)
 1004ec8:	1885883a 	add	r2,r3,r2
 1004ecc:	1080e504 	addi	r2,r2,916
 1004ed0:	10800003 	ldbu	r2,0(r2)
 1004ed4:	10803fcc 	andi	r2,r2,255
 1004ed8:	e0bff315 	stw	r2,-52(fp)
 1004edc:	e0bffb17 	ldw	r2,-20(fp)
 1004ee0:	10801617 	ldw	r2,88(r2)
 1004ee4:	e0bff415 	stw	r2,-48(fp)
 1004ee8:	e0bffc03 	ldbu	r2,-16(fp)
 1004eec:	e0fffb17 	ldw	r3,-20(fp)
 1004ef0:	1085883a 	add	r2,r2,r2
 1004ef4:	1085883a 	add	r2,r2,r2
 1004ef8:	10c5883a 	add	r2,r2,r3
 1004efc:	1080c104 	addi	r2,r2,772
 1004f00:	10800017 	ldw	r2,0(r2)
 1004f04:	e0bff515 	stw	r2,-44(fp)
 1004f08:	e0bffc03 	ldbu	r2,-16(fp)
 1004f0c:	e0fffb17 	ldw	r3,-20(fp)
 1004f10:	1085883a 	add	r2,r2,r2
 1004f14:	1085883a 	add	r2,r2,r2
 1004f18:	10c5883a 	add	r2,r2,r3
 1004f1c:	1080d104 	addi	r2,r2,836
 1004f20:	10800017 	ldw	r2,0(r2)
 1004f24:	e0bff615 	stw	r2,-40(fp)
 1004f28:	e0fff417 	ldw	r3,-48(fp)
 1004f2c:	e0bff517 	ldw	r2,-44(fp)
 1004f30:	1885883a 	add	r2,r3,r2
 1004f34:	e0bff715 	stw	r2,-36(fp)
 1004f38:	e0fff417 	ldw	r3,-48(fp)
 1004f3c:	e0bff617 	ldw	r2,-40(fp)
 1004f40:	1885883a 	add	r2,r3,r2
 1004f44:	e0bff815 	stw	r2,-32(fp)
 1004f48:	e0bffc03 	ldbu	r2,-16(fp)
 1004f4c:	e0fffb17 	ldw	r3,-20(fp)
 1004f50:	1085883a 	add	r2,r2,r2
 1004f54:	1085883a 	add	r2,r2,r2
 1004f58:	10c5883a 	add	r2,r2,r3
 1004f5c:	10809104 	addi	r2,r2,580
 1004f60:	10800017 	ldw	r2,0(r2)
 1004f64:	e0bff915 	stw	r2,-28(fp)
 1004f68:	e0bffc03 	ldbu	r2,-16(fp)
 1004f6c:	e0fffb17 	ldw	r3,-20(fp)
 1004f70:	1085883a 	add	r2,r2,r2
 1004f74:	1085883a 	add	r2,r2,r2
 1004f78:	10c5883a 	add	r2,r2,r3
 1004f7c:	1080e904 	addi	r2,r2,932
 1004f80:	10800017 	ldw	r2,0(r2)
 1004f84:	e0bffa15 	stw	r2,-24(fp)
 1004f88:	00005506 	br	10050e0 <usb20sr_with_dma_write+0x2c4>
 1004f8c:	e0bffa17 	ldw	r2,-24(fp)
 1004f90:	1004c03a 	cmpne	r2,r2,zero
 1004f94:	1000231e 	bne	r2,zero,1005024 <usb20sr_with_dma_write+0x208>
 1004f98:	e0bff217 	ldw	r2,-56(fp)
 1004f9c:	1085883a 	add	r2,r2,r2
 1004fa0:	1085883a 	add	r2,r2,r2
 1004fa4:	1007883a 	mov	r3,r2
 1004fa8:	e0bff117 	ldw	r2,-60(fp)
 1004fac:	1885883a 	add	r2,r3,r2
 1004fb0:	10800037 	ldwio	r2,0(r2)
 1004fb4:	1004403a 	cmpge	r2,r2,zero
 1004fb8:	10001a1e 	bne	r2,zero,1005024 <usb20sr_with_dma_write+0x208>
 1004fbc:	e0bffb17 	ldw	r2,-20(fp)
 1004fc0:	10803317 	ldw	r2,204(r2)
 1004fc4:	1004c03a 	cmpne	r2,r2,zero
 1004fc8:	10000c1e 	bne	r2,zero,1004ffc <usb20sr_with_dma_write+0x1e0>
 1004fcc:	e0bff217 	ldw	r2,-56(fp)
 1004fd0:	1085883a 	add	r2,r2,r2
 1004fd4:	1085883a 	add	r2,r2,r2
 1004fd8:	1007883a 	mov	r3,r2
 1004fdc:	e0bff117 	ldw	r2,-60(fp)
 1004fe0:	1889883a 	add	r4,r3,r2
 1004fe4:	e0bfee17 	ldw	r2,-72(fp)
 1004fe8:	1006947a 	slli	r3,r2,17
 1004fec:	e0bff517 	ldw	r2,-44(fp)
 1004ff0:	1886b03a 	or	r3,r3,r2
 1004ff4:	2005883a 	mov	r2,r4
 1004ff8:	10c00035 	stwio	r3,0(r2)
 1004ffc:	e0bffc03 	ldbu	r2,-16(fp)
 1005000:	e0fffb17 	ldw	r3,-20(fp)
 1005004:	1085883a 	add	r2,r2,r2
 1005008:	1085883a 	add	r2,r2,r2
 100500c:	10c5883a 	add	r2,r2,r3
 1005010:	10c0e904 	addi	r3,r2,932
 1005014:	00800044 	movi	r2,1
 1005018:	18800015 	stw	r2,0(r3)
 100501c:	e03fff15 	stw	zero,-4(fp)
 1005020:	00014206 	br	100552c <usb20sr_with_dma_write+0x710>
 1005024:	e0bffa17 	ldw	r2,-24(fp)
 1005028:	1005003a 	cmpeq	r2,r2,zero
 100502c:	1000221e 	bne	r2,zero,10050b8 <usb20sr_with_dma_write+0x29c>
 1005030:	e0bff317 	ldw	r2,-52(fp)
 1005034:	1085883a 	add	r2,r2,r2
 1005038:	1085883a 	add	r2,r2,r2
 100503c:	1007883a 	mov	r3,r2
 1005040:	e0bff117 	ldw	r2,-60(fp)
 1005044:	1885883a 	add	r2,r3,r2
 1005048:	10800037 	ldwio	r2,0(r2)
 100504c:	1004403a 	cmpge	r2,r2,zero
 1005050:	1000191e 	bne	r2,zero,10050b8 <usb20sr_with_dma_write+0x29c>
 1005054:	e0bffb17 	ldw	r2,-20(fp)
 1005058:	10803317 	ldw	r2,204(r2)
 100505c:	1004c03a 	cmpne	r2,r2,zero
 1005060:	10000c1e 	bne	r2,zero,1005094 <usb20sr_with_dma_write+0x278>
 1005064:	e0bff217 	ldw	r2,-56(fp)
 1005068:	1085883a 	add	r2,r2,r2
 100506c:	1085883a 	add	r2,r2,r2
 1005070:	1007883a 	mov	r3,r2
 1005074:	e0bff117 	ldw	r2,-60(fp)
 1005078:	1889883a 	add	r4,r3,r2
 100507c:	e0bfee17 	ldw	r2,-72(fp)
 1005080:	1006947a 	slli	r3,r2,17
 1005084:	e0bff617 	ldw	r2,-40(fp)
 1005088:	1886b03a 	or	r3,r3,r2
 100508c:	2005883a 	mov	r2,r4
 1005090:	10c00035 	stwio	r3,0(r2)
 1005094:	e0bffc03 	ldbu	r2,-16(fp)
 1005098:	e0fffb17 	ldw	r3,-20(fp)
 100509c:	1085883a 	add	r2,r2,r2
 10050a0:	1085883a 	add	r2,r2,r2
 10050a4:	10c5883a 	add	r2,r2,r3
 10050a8:	1080e904 	addi	r2,r2,932
 10050ac:	10000015 	stw	zero,0(r2)
 10050b0:	e03fff15 	stw	zero,-4(fp)
 10050b4:	00011d06 	br	100552c <usb20sr_with_dma_write+0x710>
 10050b8:	e0bffb17 	ldw	r2,-20(fp)
 10050bc:	10803317 	ldw	r2,204(r2)
 10050c0:	1005003a 	cmpeq	r2,r2,zero
 10050c4:	1000061e 	bne	r2,zero,10050e0 <usb20sr_with_dma_write+0x2c4>
 10050c8:	e0fffb17 	ldw	r3,-20(fp)
 10050cc:	00800084 	movi	r2,2
 10050d0:	18803315 	stw	r2,204(r3)
 10050d4:	00bfffc4 	movi	r2,-1
 10050d8:	e0bfff15 	stw	r2,-4(fp)
 10050dc:	00011306 	br	100552c <usb20sr_with_dma_write+0x710>
 10050e0:	e0bfee17 	ldw	r2,-72(fp)
 10050e4:	1005003a 	cmpeq	r2,r2,zero
 10050e8:	103fa81e 	bne	r2,zero,1004f8c <__alt_data_end+0xfffe4034>
 10050ec:	e0800217 	ldw	r2,8(fp)
 10050f0:	1004c03a 	cmpne	r2,r2,zero
 10050f4:	1000fa1e 	bne	r2,zero,10054e0 <usb20sr_with_dma_write+0x6c4>
 10050f8:	e17ffe17 	ldw	r5,-8(fp)
 10050fc:	e13feb17 	ldw	r4,-84(fp)
 1005100:	100743c0 	call	100743c <alt_dcache_flush>
 1005104:	e0bffb17 	ldw	r2,-20(fp)
 1005108:	10801217 	ldw	r2,72(r2)
 100510c:	e0bfea15 	stw	r2,-88(fp)
 1005110:	e0bffc03 	ldbu	r2,-16(fp)
 1005114:	10800c14 	ori	r2,r2,48
 1005118:	10803fcc 	andi	r2,r2,255
 100511c:	e0bfe915 	stw	r2,-92(fp)
 1005120:	e0bfea17 	ldw	r2,-88(fp)
 1005124:	10800104 	addi	r2,r2,4
 1005128:	1007883a 	mov	r3,r2
 100512c:	e0bffe17 	ldw	r2,-8(fp)
 1005130:	18800035 	stwio	r2,0(r3)
 1005134:	e0bfea17 	ldw	r2,-88(fp)
 1005138:	10800204 	addi	r2,r2,8
 100513c:	e0ffeb17 	ldw	r3,-84(fp)
 1005140:	10c00035 	stwio	r3,0(r2)
 1005144:	e0bfea17 	ldw	r2,-88(fp)
 1005148:	10800304 	addi	r2,r2,12
 100514c:	e0fff717 	ldw	r3,-36(fp)
 1005150:	10c00035 	stwio	r3,0(r2)
 1005154:	e0bfea17 	ldw	r2,-88(fp)
 1005158:	10800504 	addi	r2,r2,20
 100515c:	e0fff117 	ldw	r3,-60(fp)
 1005160:	10c00035 	stwio	r3,0(r2)
 1005164:	e0bfea17 	ldw	r2,-88(fp)
 1005168:	1007883a 	mov	r3,r2
 100516c:	e0bfe917 	ldw	r2,-92(fp)
 1005170:	18800035 	stwio	r2,0(r3)
 1005174:	e0bfea17 	ldw	r2,-88(fp)
 1005178:	10800404 	addi	r2,r2,16
 100517c:	10800037 	ldwio	r2,0(r2)
 1005180:	1080004c 	andi	r2,r2,1
 1005184:	10803fcc 	andi	r2,r2,255
 1005188:	1004c03a 	cmpne	r2,r2,zero
 100518c:	103ff91e 	bne	r2,zero,1005174 <__alt_data_end+0xfffe421c>
 1005190:	e0bffe17 	ldw	r2,-8(fp)
 1005194:	1007883a 	mov	r3,r2
 1005198:	e0bfeb17 	ldw	r2,-84(fp)
 100519c:	10c5883a 	add	r2,r2,r3
 10051a0:	e0bfeb15 	stw	r2,-84(fp)
 10051a4:	0000d106 	br	10054ec <usb20sr_with_dma_write+0x6d0>
 10051a8:	e0bffa17 	ldw	r2,-24(fp)
 10051ac:	1004c03a 	cmpne	r2,r2,zero
 10051b0:	10005e1e 	bne	r2,zero,100532c <usb20sr_with_dma_write+0x510>
 10051b4:	e0bff217 	ldw	r2,-56(fp)
 10051b8:	1085883a 	add	r2,r2,r2
 10051bc:	1085883a 	add	r2,r2,r2
 10051c0:	1007883a 	mov	r3,r2
 10051c4:	e0bff117 	ldw	r2,-60(fp)
 10051c8:	1885883a 	add	r2,r3,r2
 10051cc:	10800037 	ldwio	r2,0(r2)
 10051d0:	1004403a 	cmpge	r2,r2,zero
 10051d4:	1000551e 	bne	r2,zero,100532c <usb20sr_with_dma_write+0x510>
 10051d8:	e0ffee17 	ldw	r3,-72(fp)
 10051dc:	e0bff917 	ldw	r2,-28(fp)
 10051e0:	1880030e 	bge	r3,r2,10051f0 <usb20sr_with_dma_write+0x3d4>
 10051e4:	e0bfee17 	ldw	r2,-72(fp)
 10051e8:	e0bfef15 	stw	r2,-68(fp)
 10051ec:	00000206 	br	10051f8 <usb20sr_with_dma_write+0x3dc>
 10051f0:	e0bff917 	ldw	r2,-28(fp)
 10051f4:	e0bfef15 	stw	r2,-68(fp)
 10051f8:	e0bfef17 	ldw	r2,-68(fp)
 10051fc:	100b883a 	mov	r5,r2
 1005200:	e13feb17 	ldw	r4,-84(fp)
 1005204:	100743c0 	call	100743c <alt_dcache_flush>
 1005208:	e0bff017 	ldw	r2,-64(fp)
 100520c:	10800037 	ldwio	r2,0(r2)
 1005210:	1080008c 	andi	r2,r2,2
 1005214:	1004c03a 	cmpne	r2,r2,zero
 1005218:	103ffb1e 	bne	r2,zero,1005208 <__alt_data_end+0xfffe42b0>
 100521c:	e0bff017 	ldw	r2,-64(fp)
 1005220:	10800604 	addi	r2,r2,24
 1005224:	10000035 	stwio	zero,0(r2)
 1005228:	e0bff017 	ldw	r2,-64(fp)
 100522c:	10800104 	addi	r2,r2,4
 1005230:	e0ffeb17 	ldw	r3,-84(fp)
 1005234:	10c00035 	stwio	r3,0(r2)
 1005238:	e0bff017 	ldw	r2,-64(fp)
 100523c:	10800204 	addi	r2,r2,8
 1005240:	e0fff717 	ldw	r3,-36(fp)
 1005244:	10c00035 	stwio	r3,0(r2)
 1005248:	e0bff017 	ldw	r2,-64(fp)
 100524c:	10800304 	addi	r2,r2,12
 1005250:	e0ffef17 	ldw	r3,-68(fp)
 1005254:	10c00035 	stwio	r3,0(r2)
 1005258:	e0bfef17 	ldw	r2,-68(fp)
 100525c:	108000cc 	andi	r2,r2,3
 1005260:	1004c03a 	cmpne	r2,r2,zero
 1005264:	1000031e 	bne	r2,zero,1005274 <usb20sr_with_dma_write+0x458>
 1005268:	e0bfed17 	ldw	r2,-76(fp)
 100526c:	1005003a 	cmpeq	r2,r2,zero
 1005270:	1000061e 	bne	r2,zero,100528c <usb20sr_with_dma_write+0x470>
 1005274:	e0bff017 	ldw	r2,-64(fp)
 1005278:	10800604 	addi	r2,r2,24
 100527c:	1007883a 	mov	r3,r2
 1005280:	00802244 	movi	r2,137
 1005284:	18800035 	stwio	r2,0(r3)
 1005288:	00000506 	br	10052a0 <usb20sr_with_dma_write+0x484>
 100528c:	e0bff017 	ldw	r2,-64(fp)
 1005290:	10800604 	addi	r2,r2,24
 1005294:	1007883a 	mov	r3,r2
 1005298:	00802304 	movi	r2,140
 100529c:	18800035 	stwio	r2,0(r3)
 10052a0:	e0bff017 	ldw	r2,-64(fp)
 10052a4:	10800037 	ldwio	r2,0(r2)
 10052a8:	1080008c 	andi	r2,r2,2
 10052ac:	1004c03a 	cmpne	r2,r2,zero
 10052b0:	103ffb1e 	bne	r2,zero,10052a0 <__alt_data_end+0xfffe4348>
 10052b4:	e0bff017 	ldw	r2,-64(fp)
 10052b8:	10800604 	addi	r2,r2,24
 10052bc:	10000035 	stwio	zero,0(r2)
 10052c0:	e0bffb17 	ldw	r2,-20(fp)
 10052c4:	10803317 	ldw	r2,204(r2)
 10052c8:	1004c03a 	cmpne	r2,r2,zero
 10052cc:	10000c1e 	bne	r2,zero,1005300 <usb20sr_with_dma_write+0x4e4>
 10052d0:	e0bff217 	ldw	r2,-56(fp)
 10052d4:	1085883a 	add	r2,r2,r2
 10052d8:	1085883a 	add	r2,r2,r2
 10052dc:	1007883a 	mov	r3,r2
 10052e0:	e0bff117 	ldw	r2,-60(fp)
 10052e4:	1889883a 	add	r4,r3,r2
 10052e8:	e0bfef17 	ldw	r2,-68(fp)
 10052ec:	1006947a 	slli	r3,r2,17
 10052f0:	e0bff517 	ldw	r2,-44(fp)
 10052f4:	1886b03a 	or	r3,r3,r2
 10052f8:	2005883a 	mov	r2,r4
 10052fc:	10c00035 	stwio	r3,0(r2)
 1005300:	00800044 	movi	r2,1
 1005304:	e0bffa15 	stw	r2,-24(fp)
 1005308:	e0ffee17 	ldw	r3,-72(fp)
 100530c:	e0bfef17 	ldw	r2,-68(fp)
 1005310:	1885c83a 	sub	r2,r3,r2
 1005314:	e0bfee15 	stw	r2,-72(fp)
 1005318:	e0bfef17 	ldw	r2,-68(fp)
 100531c:	1007883a 	mov	r3,r2
 1005320:	e0bfeb17 	ldw	r2,-84(fp)
 1005324:	10c5883a 	add	r2,r2,r3
 1005328:	e0bfeb15 	stw	r2,-84(fp)
 100532c:	e0bfee17 	ldw	r2,-72(fp)
 1005330:	10800050 	cmplti	r2,r2,1
 1005334:	1000601e 	bne	r2,zero,10054b8 <usb20sr_with_dma_write+0x69c>
 1005338:	e0bffa17 	ldw	r2,-24(fp)
 100533c:	1005003a 	cmpeq	r2,r2,zero
 1005340:	10005d1e 	bne	r2,zero,10054b8 <usb20sr_with_dma_write+0x69c>
 1005344:	e0bff317 	ldw	r2,-52(fp)
 1005348:	1085883a 	add	r2,r2,r2
 100534c:	1085883a 	add	r2,r2,r2
 1005350:	1007883a 	mov	r3,r2
 1005354:	e0bff117 	ldw	r2,-60(fp)
 1005358:	1885883a 	add	r2,r3,r2
 100535c:	10800037 	ldwio	r2,0(r2)
 1005360:	1004403a 	cmpge	r2,r2,zero
 1005364:	1000541e 	bne	r2,zero,10054b8 <usb20sr_with_dma_write+0x69c>
 1005368:	e0ffee17 	ldw	r3,-72(fp)
 100536c:	e0bff917 	ldw	r2,-28(fp)
 1005370:	1880030e 	bge	r3,r2,1005380 <usb20sr_with_dma_write+0x564>
 1005374:	e0bfee17 	ldw	r2,-72(fp)
 1005378:	e0bfef15 	stw	r2,-68(fp)
 100537c:	00000206 	br	1005388 <usb20sr_with_dma_write+0x56c>
 1005380:	e0bff917 	ldw	r2,-28(fp)
 1005384:	e0bfef15 	stw	r2,-68(fp)
 1005388:	e0bfef17 	ldw	r2,-68(fp)
 100538c:	100b883a 	mov	r5,r2
 1005390:	e13feb17 	ldw	r4,-84(fp)
 1005394:	100743c0 	call	100743c <alt_dcache_flush>
 1005398:	e0bff017 	ldw	r2,-64(fp)
 100539c:	10800037 	ldwio	r2,0(r2)
 10053a0:	1080008c 	andi	r2,r2,2
 10053a4:	1004c03a 	cmpne	r2,r2,zero
 10053a8:	103ffb1e 	bne	r2,zero,1005398 <__alt_data_end+0xfffe4440>
 10053ac:	e0bff017 	ldw	r2,-64(fp)
 10053b0:	10800604 	addi	r2,r2,24
 10053b4:	10000035 	stwio	zero,0(r2)
 10053b8:	e0bff017 	ldw	r2,-64(fp)
 10053bc:	10800104 	addi	r2,r2,4
 10053c0:	e0ffeb17 	ldw	r3,-84(fp)
 10053c4:	10c00035 	stwio	r3,0(r2)
 10053c8:	e0bff017 	ldw	r2,-64(fp)
 10053cc:	10800204 	addi	r2,r2,8
 10053d0:	e0fff817 	ldw	r3,-32(fp)
 10053d4:	10c00035 	stwio	r3,0(r2)
 10053d8:	e0bff017 	ldw	r2,-64(fp)
 10053dc:	10800304 	addi	r2,r2,12
 10053e0:	e0ffef17 	ldw	r3,-68(fp)
 10053e4:	10c00035 	stwio	r3,0(r2)
 10053e8:	e0bfef17 	ldw	r2,-68(fp)
 10053ec:	108000cc 	andi	r2,r2,3
 10053f0:	1004c03a 	cmpne	r2,r2,zero
 10053f4:	1000031e 	bne	r2,zero,1005404 <usb20sr_with_dma_write+0x5e8>
 10053f8:	e0bfed17 	ldw	r2,-76(fp)
 10053fc:	1005003a 	cmpeq	r2,r2,zero
 1005400:	1000061e 	bne	r2,zero,100541c <usb20sr_with_dma_write+0x600>
 1005404:	e0bff017 	ldw	r2,-64(fp)
 1005408:	10800604 	addi	r2,r2,24
 100540c:	1007883a 	mov	r3,r2
 1005410:	00802244 	movi	r2,137
 1005414:	18800035 	stwio	r2,0(r3)
 1005418:	00000506 	br	1005430 <usb20sr_with_dma_write+0x614>
 100541c:	e0bff017 	ldw	r2,-64(fp)
 1005420:	10800604 	addi	r2,r2,24
 1005424:	1007883a 	mov	r3,r2
 1005428:	00802304 	movi	r2,140
 100542c:	18800035 	stwio	r2,0(r3)
 1005430:	e0bff017 	ldw	r2,-64(fp)
 1005434:	10800037 	ldwio	r2,0(r2)
 1005438:	1080008c 	andi	r2,r2,2
 100543c:	1004c03a 	cmpne	r2,r2,zero
 1005440:	103ffb1e 	bne	r2,zero,1005430 <__alt_data_end+0xfffe44d8>
 1005444:	e0bff017 	ldw	r2,-64(fp)
 1005448:	10800604 	addi	r2,r2,24
 100544c:	10000035 	stwio	zero,0(r2)
 1005450:	e0bffb17 	ldw	r2,-20(fp)
 1005454:	10803317 	ldw	r2,204(r2)
 1005458:	1004c03a 	cmpne	r2,r2,zero
 100545c:	10000c1e 	bne	r2,zero,1005490 <usb20sr_with_dma_write+0x674>
 1005460:	e0bff317 	ldw	r2,-52(fp)
 1005464:	1085883a 	add	r2,r2,r2
 1005468:	1085883a 	add	r2,r2,r2
 100546c:	1007883a 	mov	r3,r2
 1005470:	e0bff117 	ldw	r2,-60(fp)
 1005474:	1889883a 	add	r4,r3,r2
 1005478:	e0bfef17 	ldw	r2,-68(fp)
 100547c:	1006947a 	slli	r3,r2,17
 1005480:	e0bff617 	ldw	r2,-40(fp)
 1005484:	1886b03a 	or	r3,r3,r2
 1005488:	2005883a 	mov	r2,r4
 100548c:	10c00035 	stwio	r3,0(r2)
 1005490:	e0ffee17 	ldw	r3,-72(fp)
 1005494:	e0bfef17 	ldw	r2,-68(fp)
 1005498:	1885c83a 	sub	r2,r3,r2
 100549c:	e0bfee15 	stw	r2,-72(fp)
 10054a0:	e03ffa15 	stw	zero,-24(fp)
 10054a4:	e0bfef17 	ldw	r2,-68(fp)
 10054a8:	1007883a 	mov	r3,r2
 10054ac:	e0bfeb17 	ldw	r2,-84(fp)
 10054b0:	10c5883a 	add	r2,r2,r3
 10054b4:	e0bfeb15 	stw	r2,-84(fp)
 10054b8:	e0bffb17 	ldw	r2,-20(fp)
 10054bc:	10803317 	ldw	r2,204(r2)
 10054c0:	1005003a 	cmpeq	r2,r2,zero
 10054c4:	1000061e 	bne	r2,zero,10054e0 <usb20sr_with_dma_write+0x6c4>
 10054c8:	e0fffb17 	ldw	r3,-20(fp)
 10054cc:	00800084 	movi	r2,2
 10054d0:	18803315 	stw	r2,204(r3)
 10054d4:	00bfffc4 	movi	r2,-1
 10054d8:	e0bfff15 	stw	r2,-4(fp)
 10054dc:	00001306 	br	100552c <usb20sr_with_dma_write+0x710>
 10054e0:	e0bfee17 	ldw	r2,-72(fp)
 10054e4:	10800048 	cmpgei	r2,r2,1
 10054e8:	103f2f1e 	bne	r2,zero,10051a8 <__alt_data_end+0xfffe4250>
 10054ec:	e0fffc03 	ldbu	r3,-16(fp)
 10054f0:	e0bffa17 	ldw	r2,-24(fp)
 10054f4:	100b883a 	mov	r5,r2
 10054f8:	e13ffb17 	ldw	r4,-20(fp)
 10054fc:	18c5883a 	add	r2,r3,r3
 1005500:	1085883a 	add	r2,r2,r2
 1005504:	1105883a 	add	r2,r2,r4
 1005508:	1080e904 	addi	r2,r2,932
 100550c:	11400015 	stw	r5,0(r2)
 1005510:	e0fffb17 	ldw	r3,-20(fp)
 1005514:	00800084 	movi	r2,2
 1005518:	18803315 	stw	r2,204(r3)
 100551c:	e0ffeb17 	ldw	r3,-84(fp)
 1005520:	e0bffd17 	ldw	r2,-12(fp)
 1005524:	1887c83a 	sub	r3,r3,r2
 1005528:	e0ffff15 	stw	r3,-4(fp)
 100552c:	e0bfff17 	ldw	r2,-4(fp)
 1005530:	e037883a 	mov	sp,fp
 1005534:	dfc00117 	ldw	ra,4(sp)
 1005538:	df000017 	ldw	fp,0(sp)
 100553c:	dec00204 	addi	sp,sp,8
 1005540:	f800283a 	ret

01005544 <usb20sr_without_dma_write>:
 1005544:	deffec04 	addi	sp,sp,-80
 1005548:	dfc01315 	stw	ra,76(sp)
 100554c:	df001215 	stw	fp,72(sp)
 1005550:	df001204 	addi	fp,sp,72
 1005554:	e13ffb15 	stw	r4,-20(fp)
 1005558:	e1bffd15 	stw	r6,-12(fp)
 100555c:	e1fffe15 	stw	r7,-8(fp)
 1005560:	e17ffc05 	stb	r5,-16(fp)
 1005564:	e0bffb17 	ldw	r2,-20(fp)
 1005568:	10800e17 	ldw	r2,56(r2)
 100556c:	1004c03a 	cmpne	r2,r2,zero
 1005570:	103ffc1e 	bne	r2,zero,1005564 <__alt_data_end+0xfffe460c>
 1005574:	e0bffb17 	ldw	r2,-20(fp)
 1005578:	10003315 	stw	zero,204(r2)
 100557c:	e0bffd17 	ldw	r2,-12(fp)
 1005580:	e0bfee15 	stw	r2,-72(fp)
 1005584:	e0bffe17 	ldw	r2,-8(fp)
 1005588:	e0bfef15 	stw	r2,-68(fp)
 100558c:	e03ff015 	stw	zero,-64(fp)
 1005590:	e0bffb17 	ldw	r2,-20(fp)
 1005594:	10801517 	ldw	r2,84(r2)
 1005598:	e0bff115 	stw	r2,-60(fp)
 100559c:	e0fffc03 	ldbu	r3,-16(fp)
 10055a0:	e0bffb17 	ldw	r2,-20(fp)
 10055a4:	1885883a 	add	r2,r3,r2
 10055a8:	1080e104 	addi	r2,r2,900
 10055ac:	10800003 	ldbu	r2,0(r2)
 10055b0:	10803fcc 	andi	r2,r2,255
 10055b4:	e0bff215 	stw	r2,-56(fp)
 10055b8:	e0fffc03 	ldbu	r3,-16(fp)
 10055bc:	e0bffb17 	ldw	r2,-20(fp)
 10055c0:	1885883a 	add	r2,r3,r2
 10055c4:	1080e504 	addi	r2,r2,916
 10055c8:	10800003 	ldbu	r2,0(r2)
 10055cc:	10803fcc 	andi	r2,r2,255
 10055d0:	e0bff315 	stw	r2,-52(fp)
 10055d4:	e0bffb17 	ldw	r2,-20(fp)
 10055d8:	10801617 	ldw	r2,88(r2)
 10055dc:	e0bff415 	stw	r2,-48(fp)
 10055e0:	e0bffc03 	ldbu	r2,-16(fp)
 10055e4:	e0fffb17 	ldw	r3,-20(fp)
 10055e8:	1085883a 	add	r2,r2,r2
 10055ec:	1085883a 	add	r2,r2,r2
 10055f0:	10c5883a 	add	r2,r2,r3
 10055f4:	1080c104 	addi	r2,r2,772
 10055f8:	10800017 	ldw	r2,0(r2)
 10055fc:	e0bff515 	stw	r2,-44(fp)
 1005600:	e0bffc03 	ldbu	r2,-16(fp)
 1005604:	e0fffb17 	ldw	r3,-20(fp)
 1005608:	1085883a 	add	r2,r2,r2
 100560c:	1085883a 	add	r2,r2,r2
 1005610:	10c5883a 	add	r2,r2,r3
 1005614:	1080d104 	addi	r2,r2,836
 1005618:	10800017 	ldw	r2,0(r2)
 100561c:	e0bff615 	stw	r2,-40(fp)
 1005620:	e0fff417 	ldw	r3,-48(fp)
 1005624:	e0bff517 	ldw	r2,-44(fp)
 1005628:	1885883a 	add	r2,r3,r2
 100562c:	e0bff715 	stw	r2,-36(fp)
 1005630:	e0fff417 	ldw	r3,-48(fp)
 1005634:	e0bff617 	ldw	r2,-40(fp)
 1005638:	1885883a 	add	r2,r3,r2
 100563c:	e0bff815 	stw	r2,-32(fp)
 1005640:	e0bffc03 	ldbu	r2,-16(fp)
 1005644:	e0fffb17 	ldw	r3,-20(fp)
 1005648:	1085883a 	add	r2,r2,r2
 100564c:	1085883a 	add	r2,r2,r2
 1005650:	10c5883a 	add	r2,r2,r3
 1005654:	10809104 	addi	r2,r2,580
 1005658:	10800017 	ldw	r2,0(r2)
 100565c:	e0bff915 	stw	r2,-28(fp)
 1005660:	e0bffc03 	ldbu	r2,-16(fp)
 1005664:	e0fffb17 	ldw	r3,-20(fp)
 1005668:	1085883a 	add	r2,r2,r2
 100566c:	1085883a 	add	r2,r2,r2
 1005670:	10c5883a 	add	r2,r2,r3
 1005674:	1080e904 	addi	r2,r2,932
 1005678:	10800017 	ldw	r2,0(r2)
 100567c:	e0bffa15 	stw	r2,-24(fp)
 1005680:	00005506 	br	10057d8 <usb20sr_without_dma_write+0x294>
 1005684:	e0bffa17 	ldw	r2,-24(fp)
 1005688:	1004c03a 	cmpne	r2,r2,zero
 100568c:	1000231e 	bne	r2,zero,100571c <usb20sr_without_dma_write+0x1d8>
 1005690:	e0bff217 	ldw	r2,-56(fp)
 1005694:	1085883a 	add	r2,r2,r2
 1005698:	1085883a 	add	r2,r2,r2
 100569c:	1007883a 	mov	r3,r2
 10056a0:	e0bff117 	ldw	r2,-60(fp)
 10056a4:	1885883a 	add	r2,r3,r2
 10056a8:	10800037 	ldwio	r2,0(r2)
 10056ac:	1004403a 	cmpge	r2,r2,zero
 10056b0:	10001a1e 	bne	r2,zero,100571c <usb20sr_without_dma_write+0x1d8>
 10056b4:	e0bffb17 	ldw	r2,-20(fp)
 10056b8:	10803317 	ldw	r2,204(r2)
 10056bc:	1004c03a 	cmpne	r2,r2,zero
 10056c0:	10000c1e 	bne	r2,zero,10056f4 <usb20sr_without_dma_write+0x1b0>
 10056c4:	e0bff217 	ldw	r2,-56(fp)
 10056c8:	1085883a 	add	r2,r2,r2
 10056cc:	1085883a 	add	r2,r2,r2
 10056d0:	1007883a 	mov	r3,r2
 10056d4:	e0bff117 	ldw	r2,-60(fp)
 10056d8:	1889883a 	add	r4,r3,r2
 10056dc:	e0bfef17 	ldw	r2,-68(fp)
 10056e0:	1006947a 	slli	r3,r2,17
 10056e4:	e0bff517 	ldw	r2,-44(fp)
 10056e8:	1886b03a 	or	r3,r3,r2
 10056ec:	2005883a 	mov	r2,r4
 10056f0:	10c00035 	stwio	r3,0(r2)
 10056f4:	e0bffc03 	ldbu	r2,-16(fp)
 10056f8:	e0fffb17 	ldw	r3,-20(fp)
 10056fc:	1085883a 	add	r2,r2,r2
 1005700:	1085883a 	add	r2,r2,r2
 1005704:	10c5883a 	add	r2,r2,r3
 1005708:	10c0e904 	addi	r3,r2,932
 100570c:	00800044 	movi	r2,1
 1005710:	18800015 	stw	r2,0(r3)
 1005714:	e03fff15 	stw	zero,-4(fp)
 1005718:	0000d006 	br	1005a5c <usb20sr_without_dma_write+0x518>
 100571c:	e0bffa17 	ldw	r2,-24(fp)
 1005720:	1005003a 	cmpeq	r2,r2,zero
 1005724:	1000221e 	bne	r2,zero,10057b0 <usb20sr_without_dma_write+0x26c>
 1005728:	e0bff317 	ldw	r2,-52(fp)
 100572c:	1085883a 	add	r2,r2,r2
 1005730:	1085883a 	add	r2,r2,r2
 1005734:	1007883a 	mov	r3,r2
 1005738:	e0bff117 	ldw	r2,-60(fp)
 100573c:	1885883a 	add	r2,r3,r2
 1005740:	10800037 	ldwio	r2,0(r2)
 1005744:	1004403a 	cmpge	r2,r2,zero
 1005748:	1000191e 	bne	r2,zero,10057b0 <usb20sr_without_dma_write+0x26c>
 100574c:	e0bffb17 	ldw	r2,-20(fp)
 1005750:	10803317 	ldw	r2,204(r2)
 1005754:	1004c03a 	cmpne	r2,r2,zero
 1005758:	10000c1e 	bne	r2,zero,100578c <usb20sr_without_dma_write+0x248>
 100575c:	e0bff217 	ldw	r2,-56(fp)
 1005760:	1085883a 	add	r2,r2,r2
 1005764:	1085883a 	add	r2,r2,r2
 1005768:	1007883a 	mov	r3,r2
 100576c:	e0bff117 	ldw	r2,-60(fp)
 1005770:	1889883a 	add	r4,r3,r2
 1005774:	e0bfef17 	ldw	r2,-68(fp)
 1005778:	1006947a 	slli	r3,r2,17
 100577c:	e0bff617 	ldw	r2,-40(fp)
 1005780:	1886b03a 	or	r3,r3,r2
 1005784:	2005883a 	mov	r2,r4
 1005788:	10c00035 	stwio	r3,0(r2)
 100578c:	e0bffc03 	ldbu	r2,-16(fp)
 1005790:	e0fffb17 	ldw	r3,-20(fp)
 1005794:	1085883a 	add	r2,r2,r2
 1005798:	1085883a 	add	r2,r2,r2
 100579c:	10c5883a 	add	r2,r2,r3
 10057a0:	1080e904 	addi	r2,r2,932
 10057a4:	10000015 	stw	zero,0(r2)
 10057a8:	e03fff15 	stw	zero,-4(fp)
 10057ac:	0000ab06 	br	1005a5c <usb20sr_without_dma_write+0x518>
 10057b0:	e0bffb17 	ldw	r2,-20(fp)
 10057b4:	10803317 	ldw	r2,204(r2)
 10057b8:	1005003a 	cmpeq	r2,r2,zero
 10057bc:	1000061e 	bne	r2,zero,10057d8 <usb20sr_without_dma_write+0x294>
 10057c0:	e0fffb17 	ldw	r3,-20(fp)
 10057c4:	00800084 	movi	r2,2
 10057c8:	18803315 	stw	r2,204(r3)
 10057cc:	00bfffc4 	movi	r2,-1
 10057d0:	e0bfff15 	stw	r2,-4(fp)
 10057d4:	0000a106 	br	1005a5c <usb20sr_without_dma_write+0x518>
 10057d8:	e0bfef17 	ldw	r2,-68(fp)
 10057dc:	1005003a 	cmpeq	r2,r2,zero
 10057e0:	103fa81e 	bne	r2,zero,1005684 <__alt_data_end+0xfffe472c>
 10057e4:	00008a06 	br	1005a10 <usb20sr_without_dma_write+0x4cc>
 10057e8:	e0bffa17 	ldw	r2,-24(fp)
 10057ec:	1004c03a 	cmpne	r2,r2,zero
 10057f0:	10003c1e 	bne	r2,zero,10058e4 <usb20sr_without_dma_write+0x3a0>
 10057f4:	e0bff217 	ldw	r2,-56(fp)
 10057f8:	1085883a 	add	r2,r2,r2
 10057fc:	1085883a 	add	r2,r2,r2
 1005800:	1007883a 	mov	r3,r2
 1005804:	e0bff117 	ldw	r2,-60(fp)
 1005808:	1885883a 	add	r2,r3,r2
 100580c:	10800037 	ldwio	r2,0(r2)
 1005810:	1004403a 	cmpge	r2,r2,zero
 1005814:	1000331e 	bne	r2,zero,10058e4 <usb20sr_without_dma_write+0x3a0>
 1005818:	e0ffef17 	ldw	r3,-68(fp)
 100581c:	e0bff917 	ldw	r2,-28(fp)
 1005820:	1880030e 	bge	r3,r2,1005830 <usb20sr_without_dma_write+0x2ec>
 1005824:	e0bfef17 	ldw	r2,-68(fp)
 1005828:	e0bff015 	stw	r2,-64(fp)
 100582c:	00000206 	br	1005838 <usb20sr_without_dma_write+0x2f4>
 1005830:	e0bff917 	ldw	r2,-28(fp)
 1005834:	e0bff015 	stw	r2,-64(fp)
 1005838:	e0bff717 	ldw	r2,-36(fp)
 100583c:	1009883a 	mov	r4,r2
 1005840:	e17ffe17 	ldw	r5,-8(fp)
 1005844:	100743c0 	call	100743c <alt_dcache_flush>
 1005848:	e13ff117 	ldw	r4,-60(fp)
 100584c:	e0bff717 	ldw	r2,-36(fp)
 1005850:	10a00034 	orhi	r2,r2,32768
 1005854:	100b883a 	mov	r5,r2
 1005858:	e1bfee17 	ldw	r6,-72(fp)
 100585c:	e1fff017 	ldw	r7,-64(fp)
 1005860:	1005a740 	call	1005a74 <slsmemcpy>
 1005864:	e0bff717 	ldw	r2,-36(fp)
 1005868:	1009883a 	mov	r4,r2
 100586c:	e0bff017 	ldw	r2,-64(fp)
 1005870:	100b883a 	mov	r5,r2
 1005874:	100743c0 	call	100743c <alt_dcache_flush>
 1005878:	e0bffb17 	ldw	r2,-20(fp)
 100587c:	10803317 	ldw	r2,204(r2)
 1005880:	1004c03a 	cmpne	r2,r2,zero
 1005884:	10000c1e 	bne	r2,zero,10058b8 <usb20sr_without_dma_write+0x374>
 1005888:	e0bff217 	ldw	r2,-56(fp)
 100588c:	1085883a 	add	r2,r2,r2
 1005890:	1085883a 	add	r2,r2,r2
 1005894:	1007883a 	mov	r3,r2
 1005898:	e0bff117 	ldw	r2,-60(fp)
 100589c:	1889883a 	add	r4,r3,r2
 10058a0:	e0bff017 	ldw	r2,-64(fp)
 10058a4:	1006947a 	slli	r3,r2,17
 10058a8:	e0bff517 	ldw	r2,-44(fp)
 10058ac:	1886b03a 	or	r3,r3,r2
 10058b0:	2005883a 	mov	r2,r4
 10058b4:	10c00035 	stwio	r3,0(r2)
 10058b8:	00800044 	movi	r2,1
 10058bc:	e0bffa15 	stw	r2,-24(fp)
 10058c0:	e0ffef17 	ldw	r3,-68(fp)
 10058c4:	e0bff017 	ldw	r2,-64(fp)
 10058c8:	1885c83a 	sub	r2,r3,r2
 10058cc:	e0bfef15 	stw	r2,-68(fp)
 10058d0:	e0bff017 	ldw	r2,-64(fp)
 10058d4:	1007883a 	mov	r3,r2
 10058d8:	e0bfee17 	ldw	r2,-72(fp)
 10058dc:	10c5883a 	add	r2,r2,r3
 10058e0:	e0bfee15 	stw	r2,-72(fp)
 10058e4:	e0bfef17 	ldw	r2,-68(fp)
 10058e8:	10800050 	cmplti	r2,r2,1
 10058ec:	10003e1e 	bne	r2,zero,10059e8 <usb20sr_without_dma_write+0x4a4>
 10058f0:	e0bffa17 	ldw	r2,-24(fp)
 10058f4:	1005003a 	cmpeq	r2,r2,zero
 10058f8:	10003b1e 	bne	r2,zero,10059e8 <usb20sr_without_dma_write+0x4a4>
 10058fc:	e0bff317 	ldw	r2,-52(fp)
 1005900:	1085883a 	add	r2,r2,r2
 1005904:	1085883a 	add	r2,r2,r2
 1005908:	1007883a 	mov	r3,r2
 100590c:	e0bff117 	ldw	r2,-60(fp)
 1005910:	1885883a 	add	r2,r3,r2
 1005914:	10800037 	ldwio	r2,0(r2)
 1005918:	1004403a 	cmpge	r2,r2,zero
 100591c:	1000321e 	bne	r2,zero,10059e8 <usb20sr_without_dma_write+0x4a4>
 1005920:	e0ffef17 	ldw	r3,-68(fp)
 1005924:	e0bff917 	ldw	r2,-28(fp)
 1005928:	1880030e 	bge	r3,r2,1005938 <usb20sr_without_dma_write+0x3f4>
 100592c:	e0bfef17 	ldw	r2,-68(fp)
 1005930:	e0bff015 	stw	r2,-64(fp)
 1005934:	00000206 	br	1005940 <usb20sr_without_dma_write+0x3fc>
 1005938:	e0bff917 	ldw	r2,-28(fp)
 100593c:	e0bff015 	stw	r2,-64(fp)
 1005940:	e0bff817 	ldw	r2,-32(fp)
 1005944:	1009883a 	mov	r4,r2
 1005948:	e17ffe17 	ldw	r5,-8(fp)
 100594c:	100743c0 	call	100743c <alt_dcache_flush>
 1005950:	e13ff117 	ldw	r4,-60(fp)
 1005954:	e0bff817 	ldw	r2,-32(fp)
 1005958:	10a00034 	orhi	r2,r2,32768
 100595c:	100b883a 	mov	r5,r2
 1005960:	e1bfee17 	ldw	r6,-72(fp)
 1005964:	e1fff017 	ldw	r7,-64(fp)
 1005968:	1005a740 	call	1005a74 <slsmemcpy>
 100596c:	e0bff817 	ldw	r2,-32(fp)
 1005970:	1009883a 	mov	r4,r2
 1005974:	e0bff017 	ldw	r2,-64(fp)
 1005978:	100b883a 	mov	r5,r2
 100597c:	100743c0 	call	100743c <alt_dcache_flush>
 1005980:	e0bffb17 	ldw	r2,-20(fp)
 1005984:	10803317 	ldw	r2,204(r2)
 1005988:	1004c03a 	cmpne	r2,r2,zero
 100598c:	10000c1e 	bne	r2,zero,10059c0 <usb20sr_without_dma_write+0x47c>
 1005990:	e0bff317 	ldw	r2,-52(fp)
 1005994:	1085883a 	add	r2,r2,r2
 1005998:	1085883a 	add	r2,r2,r2
 100599c:	1007883a 	mov	r3,r2
 10059a0:	e0bff117 	ldw	r2,-60(fp)
 10059a4:	1889883a 	add	r4,r3,r2
 10059a8:	e0bff017 	ldw	r2,-64(fp)
 10059ac:	1006947a 	slli	r3,r2,17
 10059b0:	e0bff617 	ldw	r2,-40(fp)
 10059b4:	1886b03a 	or	r3,r3,r2
 10059b8:	2005883a 	mov	r2,r4
 10059bc:	10c00035 	stwio	r3,0(r2)
 10059c0:	e03ffa15 	stw	zero,-24(fp)
 10059c4:	e0bff017 	ldw	r2,-64(fp)
 10059c8:	1007883a 	mov	r3,r2
 10059cc:	e0bfee17 	ldw	r2,-72(fp)
 10059d0:	10c5883a 	add	r2,r2,r3
 10059d4:	e0bfee15 	stw	r2,-72(fp)
 10059d8:	e0ffef17 	ldw	r3,-68(fp)
 10059dc:	e0bff017 	ldw	r2,-64(fp)
 10059e0:	1885c83a 	sub	r2,r3,r2
 10059e4:	e0bfef15 	stw	r2,-68(fp)
 10059e8:	e0bffb17 	ldw	r2,-20(fp)
 10059ec:	10803317 	ldw	r2,204(r2)
 10059f0:	1005003a 	cmpeq	r2,r2,zero
 10059f4:	1000061e 	bne	r2,zero,1005a10 <usb20sr_without_dma_write+0x4cc>
 10059f8:	e0fffb17 	ldw	r3,-20(fp)
 10059fc:	00800084 	movi	r2,2
 1005a00:	18803315 	stw	r2,204(r3)
 1005a04:	00bfffc4 	movi	r2,-1
 1005a08:	e0bfff15 	stw	r2,-4(fp)
