Archive member included to satisfy reference by file (symbol)

c:/altera/15.0/nios2eds/bin/gnu/h-x86_64-mingw32/bin/../lib/gcc/nios2-elf/4.9.1/../../../../../H-x86_64-mingw32/nios2-elf/lib\libc.a(lib_a-ctype_.o)
                              obj/default/network_utilities.o (__ctype_ptr__)
c:/altera/15.0/nios2eds/bin/gnu/h-x86_64-mingw32/bin/../lib/gcc/nios2-elf/4.9.1/../../../../../H-x86_64-mingw32/nios2-elf/lib\libc.a(lib_a-fprintf.o)
                              obj/default/alt_error_handler.o (fprintf)
c:/altera/15.0/nios2eds/bin/gnu/h-x86_64-mingw32/bin/../lib/gcc/nios2-elf/4.9.1/../../../../../H-x86_64-mingw32/nios2-elf/lib\libc.a(lib_a-fwrite.o)
                              obj/default/alt_error_handler.o (fwrite)
c:/altera/15.0/nios2eds/bin/gnu/h-x86_64-mingw32/bin/../lib/gcc/nios2-elf/4.9.1/../../../../../H-x86_64-mingw32/nios2-elf/lib\libc.a(lib_a-getc.o)
                              obj/default/network_utilities.o (getc)
c:/altera/15.0/nios2eds/bin/gnu/h-x86_64-mingw32/bin/../lib/gcc/nios2-elf/4.9.1/../../../../../H-x86_64-mingw32/nios2-elf/lib\libc.a(lib_a-impure.o)
                              obj/default/alt_error_handler.o (_impure_ptr)
c:/altera/15.0/nios2eds/bin/gnu/h-x86_64-mingw32/bin/../lib/gcc/nios2-elf/4.9.1/../../../../../H-x86_64-mingw32/nios2-elf/lib\libc.a(lib_a-malloc.o)
                              obj/default/ins_tse/altera_avalon_tse.o (malloc)
c:/altera/15.0/nios2eds/bin/gnu/h-x86_64-mingw32/bin/../lib/gcc/nios2-elf/4.9.1/../../../../../H-x86_64-mingw32/nios2-elf/lib\libc.a(lib_a-mallocr.o)
                              c:/altera/15.0/nios2eds/bin/gnu/h-x86_64-mingw32/bin/../lib/gcc/nios2-elf/4.9.1/../../../../../H-x86_64-mingw32/nios2-elf/lib\libc.a(lib_a-malloc.o) (_malloc_r)
c:/altera/15.0/nios2eds/bin/gnu/h-x86_64-mingw32/bin/../lib/gcc/nios2-elf/4.9.1/../../../../../H-x86_64-mingw32/nios2-elf/lib\libc.a(lib_a-memcpy.o)
                              obj/default/ins_tse/altera_avalon_tse.o (memcpy)
c:/altera/15.0/nios2eds/bin/gnu/h-x86_64-mingw32/bin/../lib/gcc/nios2-elf/4.9.1/../../../../../H-x86_64-mingw32/nios2-elf/lib\libc.a(lib_a-memmove.o)
                              obj/default/simple_socket_server.o (memmove)
c:/altera/15.0/nios2eds/bin/gnu/h-x86_64-mingw32/bin/../lib/gcc/nios2-elf/4.9.1/../../../../../H-x86_64-mingw32/nios2-elf/lib\libc.a(lib_a-memset.o)
                              obj/default/ins_tse/altera_avalon_tse.o (memset)
c:/altera/15.0/nios2eds/bin/gnu/h-x86_64-mingw32/bin/../lib/gcc/nios2-elf/4.9.1/../../../../../H-x86_64-mingw32/nios2-elf/lib\libc.a(lib_a-perror.o)
                              obj/default/alt_error_handler.o (perror)
c:/altera/15.0/nios2eds/bin/gnu/h-x86_64-mingw32/bin/../lib/gcc/nios2-elf/4.9.1/../../../../../H-x86_64-mingw32/nios2-elf/lib\libc.a(lib_a-printf.o)
                              obj/default/alt_error_handler.o (printf)
c:/altera/15.0/nios2eds/bin/gnu/h-x86_64-mingw32/bin/../lib/gcc/nios2-elf/4.9.1/../../../../../H-x86_64-mingw32/nios2-elf/lib\libc.a(lib_a-putc.o)
                              obj/default/network_utilities.o (putc)
c:/altera/15.0/nios2eds/bin/gnu/h-x86_64-mingw32/bin/../lib/gcc/nios2-elf/4.9.1/../../../../../H-x86_64-mingw32/nios2-elf/lib\libc.a(lib_a-putchar.o)
                              obj/default/network_utilities.o (putchar)
c:/altera/15.0/nios2eds/bin/gnu/h-x86_64-mingw32/bin/../lib/gcc/nios2-elf/4.9.1/../../../../../H-x86_64-mingw32/nios2-elf/lib\libc.a(lib_a-puts.o)
                              obj/default/alt_error_handler.o (puts)
c:/altera/15.0/nios2eds/bin/gnu/h-x86_64-mingw32/bin/../lib/gcc/nios2-elf/4.9.1/../../../../../H-x86_64-mingw32/nios2-elf/lib\libc.a(lib_a-rget.o)
                              c:/altera/15.0/nios2eds/bin/gnu/h-x86_64-mingw32/bin/../lib/gcc/nios2-elf/4.9.1/../../../../../H-x86_64-mingw32/nios2-elf/lib\libc.a(lib_a-getc.o) (__srget_r)
c:/altera/15.0/nios2eds/bin/gnu/h-x86_64-mingw32/bin/../lib/gcc/nios2-elf/4.9.1/../../../../../H-x86_64-mingw32/nios2-elf/lib\libc.a(lib_a-sbrkr.o)
                              c:/altera/15.0/nios2eds/bin/gnu/h-x86_64-mingw32/bin/../lib/gcc/nios2-elf/4.9.1/../../../../../H-x86_64-mingw32/nios2-elf/lib\libc.a(lib_a-mallocr.o) (_sbrk_r)
c:/altera/15.0/nios2eds/bin/gnu/h-x86_64-mingw32/bin/../lib/gcc/nios2-elf/4.9.1/../../../../../H-x86_64-mingw32/nios2-elf/lib\libc.a(lib_a-sprintf.o)
                              obj/default/simple_socket_server.o (sprintf)
c:/altera/15.0/nios2eds/bin/gnu/h-x86_64-mingw32/bin/../lib/gcc/nios2-elf/4.9.1/../../../../../H-x86_64-mingw32/nios2-elf/lib\libc.a(lib_a-strchr.o)
                              obj/default/simple_socket_server.o (strchr)
c:/altera/15.0/nios2eds/bin/gnu/h-x86_64-mingw32/bin/../lib/gcc/nios2-elf/4.9.1/../../../../../H-x86_64-mingw32/nios2-elf/lib\libc.a(lib_a-strcpy.o)
                              obj/default/ins_tse/altera_avalon_tse.o (strcpy)
c:/altera/15.0/nios2eds/bin/gnu/h-x86_64-mingw32/bin/../lib/gcc/nios2-elf/4.9.1/../../../../../H-x86_64-mingw32/nios2-elf/lib\libc.a(lib_a-strerror.o)
                              c:/altera/15.0/nios2eds/bin/gnu/h-x86_64-mingw32/bin/../lib/gcc/nios2-elf/4.9.1/../../../../../H-x86_64-mingw32/nios2-elf/lib\libc.a(lib_a-perror.o) (strerror)
c:/altera/15.0/nios2eds/bin/gnu/h-x86_64-mingw32/bin/../lib/gcc/nios2-elf/4.9.1/../../../../../H-x86_64-mingw32/nios2-elf/lib\libc.a(lib_a-strlen.o)
                              obj/default/ins_tse/altera_avalon_tse.o (strlen)
c:/altera/15.0/nios2eds/bin/gnu/h-x86_64-mingw32/bin/../lib/gcc/nios2-elf/4.9.1/../../../../../H-x86_64-mingw32/nios2-elf/lib\libc.a(lib_a-svfprintf.o)
                              c:/altera/15.0/nios2eds/bin/gnu/h-x86_64-mingw32/bin/../lib/gcc/nios2-elf/4.9.1/../../../../../H-x86_64-mingw32/nios2-elf/lib\libc.a(lib_a-sprintf.o) (___svfprintf_internal_r)
c:/altera/15.0/nios2eds/bin/gnu/h-x86_64-mingw32/bin/../lib/gcc/nios2-elf/4.9.1/../../../../../H-x86_64-mingw32/nios2-elf/lib\libc.a(lib_a-u_strerr.o)
                              c:/altera/15.0/nios2eds/bin/gnu/h-x86_64-mingw32/bin/../lib/gcc/nios2-elf/4.9.1/../../../../../H-x86_64-mingw32/nios2-elf/lib\libc.a(lib_a-strerror.o) (_user_strerror)
c:/altera/15.0/nios2eds/bin/gnu/h-x86_64-mingw32/bin/../lib/gcc/nios2-elf/4.9.1/../../../../../H-x86_64-mingw32/nios2-elf/lib\libc.a(lib_a-vfprintf.o)
                              c:/altera/15.0/nios2eds/bin/gnu/h-x86_64-mingw32/bin/../lib/gcc/nios2-elf/4.9.1/../../../../../H-x86_64-mingw32/nios2-elf/lib\libc.a(lib_a-printf.o) (___vfprintf_internal_r)
c:/altera/15.0/nios2eds/bin/gnu/h-x86_64-mingw32/bin/../lib/gcc/nios2-elf/4.9.1/../../../../../H-x86_64-mingw32/nios2-elf/lib\libc.a(lib_a-wbuf.o)
                              c:/altera/15.0/nios2eds/bin/gnu/h-x86_64-mingw32/bin/../lib/gcc/nios2-elf/4.9.1/../../../../../H-x86_64-mingw32/nios2-elf/lib\libc.a(lib_a-putc.o) (__swbuf_r)
c:/altera/15.0/nios2eds/bin/gnu/h-x86_64-mingw32/bin/../lib/gcc/nios2-elf/4.9.1/../../../../../H-x86_64-mingw32/nios2-elf/lib\libc.a(lib_a-wsetup.o)
                              c:/altera/15.0/nios2eds/bin/gnu/h-x86_64-mingw32/bin/../lib/gcc/nios2-elf/4.9.1/../../../../../H-x86_64-mingw32/nios2-elf/lib\libc.a(lib_a-vfprintf.o) (__swsetup_r)
c:/altera/15.0/nios2eds/bin/gnu/h-x86_64-mingw32/bin/../lib/gcc/nios2-elf/4.9.1/../../../../../H-x86_64-mingw32/nios2-elf/lib\libc.a(lib_a-dtoa.o)
                              c:/altera/15.0/nios2eds/bin/gnu/h-x86_64-mingw32/bin/../lib/gcc/nios2-elf/4.9.1/../../../../../H-x86_64-mingw32/nios2-elf/lib\libc.a(lib_a-svfprintf.o) (_dtoa_r)
c:/altera/15.0/nios2eds/bin/gnu/h-x86_64-mingw32/bin/../lib/gcc/nios2-elf/4.9.1/../../../../../H-x86_64-mingw32/nios2-elf/lib\libc.a(lib_a-fflush.o)
                              c:/altera/15.0/nios2eds/bin/gnu/h-x86_64-mingw32/bin/../lib/gcc/nios2-elf/4.9.1/../../../../../H-x86_64-mingw32/nios2-elf/lib\libc.a(lib_a-vfprintf.o) (_fflush_r)
c:/altera/15.0/nios2eds/bin/gnu/h-x86_64-mingw32/bin/../lib/gcc/nios2-elf/4.9.1/../../../../../H-x86_64-mingw32/nios2-elf/lib\libc.a(lib_a-findfp.o)
                              c:/altera/15.0/nios2eds/bin/gnu/h-x86_64-mingw32/bin/../lib/gcc/nios2-elf/4.9.1/../../../../../H-x86_64-mingw32/nios2-elf/lib\libc.a(lib_a-fwrite.o) (__sinit)
c:/altera/15.0/nios2eds/bin/gnu/h-x86_64-mingw32/bin/../lib/gcc/nios2-elf/4.9.1/../../../../../H-x86_64-mingw32/nios2-elf/lib\libc.a(lib_a-fputc.o)
                              c:/altera/15.0/nios2eds/bin/gnu/h-x86_64-mingw32/bin/../lib/gcc/nios2-elf/4.9.1/../../../../../H-x86_64-mingw32/nios2-elf/lib\libc.a(lib_a-perror.o) (fputc)
c:/altera/15.0/nios2eds/bin/gnu/h-x86_64-mingw32/bin/../lib/gcc/nios2-elf/4.9.1/../../../../../H-x86_64-mingw32/nios2-elf/lib\libc.a(lib_a-fputs.o)
                              c:/altera/15.0/nios2eds/bin/gnu/h-x86_64-mingw32/bin/../lib/gcc/nios2-elf/4.9.1/../../../../../H-x86_64-mingw32/nios2-elf/lib\libc.a(lib_a-perror.o) (fputs)
c:/altera/15.0/nios2eds/bin/gnu/h-x86_64-mingw32/bin/../lib/gcc/nios2-elf/4.9.1/../../../../../H-x86_64-mingw32/nios2-elf/lib\libc.a(lib_a-freer.o)
                              c:/altera/15.0/nios2eds/bin/gnu/h-x86_64-mingw32/bin/../lib/gcc/nios2-elf/4.9.1/../../../../../H-x86_64-mingw32/nios2-elf/lib\libc.a(lib_a-malloc.o) (_free_r)
c:/altera/15.0/nios2eds/bin/gnu/h-x86_64-mingw32/bin/../lib/gcc/nios2-elf/4.9.1/../../../../../H-x86_64-mingw32/nios2-elf/lib\libc.a(lib_a-fvwrite.o)
                              c:/altera/15.0/nios2eds/bin/gnu/h-x86_64-mingw32/bin/../lib/gcc/nios2-elf/4.9.1/../../../../../H-x86_64-mingw32/nios2-elf/lib\libc.a(lib_a-fwrite.o) (__sfvwrite_r)
c:/altera/15.0/nios2eds/bin/gnu/h-x86_64-mingw32/bin/../lib/gcc/nios2-elf/4.9.1/../../../../../H-x86_64-mingw32/nios2-elf/lib\libc.a(lib_a-fwalk.o)
                              c:/altera/15.0/nios2eds/bin/gnu/h-x86_64-mingw32/bin/../lib/gcc/nios2-elf/4.9.1/../../../../../H-x86_64-mingw32/nios2-elf/lib\libc.a(lib_a-findfp.o) (_fwalk)
c:/altera/15.0/nios2eds/bin/gnu/h-x86_64-mingw32/bin/../lib/gcc/nios2-elf/4.9.1/../../../../../H-x86_64-mingw32/nios2-elf/lib\libc.a(lib_a-int_errno.o)
                              c:/altera/15.0/nios2eds/bin/gnu/h-x86_64-mingw32/bin/../lib/gcc/nios2-elf/4.9.1/../../../../../H-x86_64-mingw32/nios2-elf/lib\libc.a(lib_a-sbrkr.o) (errno)
c:/altera/15.0/nios2eds/bin/gnu/h-x86_64-mingw32/bin/../lib/gcc/nios2-elf/4.9.1/../../../../../H-x86_64-mingw32/nios2-elf/lib\libc.a(lib_a-locale.o)
                              c:/altera/15.0/nios2eds/bin/gnu/h-x86_64-mingw32/bin/../lib/gcc/nios2-elf/4.9.1/../../../../../H-x86_64-mingw32/nios2-elf/lib\libc.a(lib_a-svfprintf.o) (_localeconv_r)
c:/altera/15.0/nios2eds/bin/gnu/h-x86_64-mingw32/bin/../lib/gcc/nios2-elf/4.9.1/../../../../../H-x86_64-mingw32/nios2-elf/lib\libc.a(lib_a-makebuf.o)
                              c:/altera/15.0/nios2eds/bin/gnu/h-x86_64-mingw32/bin/../lib/gcc/nios2-elf/4.9.1/../../../../../H-x86_64-mingw32/nios2-elf/lib\libc.a(lib_a-wsetup.o) (__smakebuf_r)
c:/altera/15.0/nios2eds/bin/gnu/h-x86_64-mingw32/bin/../lib/gcc/nios2-elf/4.9.1/../../../../../H-x86_64-mingw32/nios2-elf/lib\libc.a(lib_a-memchr.o)
                              c:/altera/15.0/nios2eds/bin/gnu/h-x86_64-mingw32/bin/../lib/gcc/nios2-elf/4.9.1/../../../../../H-x86_64-mingw32/nios2-elf/lib\libc.a(lib_a-svfprintf.o) (memchr)
c:/altera/15.0/nios2eds/bin/gnu/h-x86_64-mingw32/bin/../lib/gcc/nios2-elf/4.9.1/../../../../../H-x86_64-mingw32/nios2-elf/lib\libc.a(lib_a-mprec.o)
                              c:/altera/15.0/nios2eds/bin/gnu/h-x86_64-mingw32/bin/../lib/gcc/nios2-elf/4.9.1/../../../../../H-x86_64-mingw32/nios2-elf/lib\libc.a(lib_a-dtoa.o) (_Balloc)
c:/altera/15.0/nios2eds/bin/gnu/h-x86_64-mingw32/bin/../lib/gcc/nios2-elf/4.9.1/../../../../../H-x86_64-mingw32/nios2-elf/lib\libc.a(lib_a-reallocr.o)
                              c:/altera/15.0/nios2eds/bin/gnu/h-x86_64-mingw32/bin/../lib/gcc/nios2-elf/4.9.1/../../../../../H-x86_64-mingw32/nios2-elf/lib\libc.a(lib_a-fvwrite.o) (_realloc_r)
c:/altera/15.0/nios2eds/bin/gnu/h-x86_64-mingw32/bin/../lib/gcc/nios2-elf/4.9.1/../../../../../H-x86_64-mingw32/nios2-elf/lib\libc.a(lib_a-refill.o)
                              c:/altera/15.0/nios2eds/bin/gnu/h-x86_64-mingw32/bin/../lib/gcc/nios2-elf/4.9.1/../../../../../H-x86_64-mingw32/nios2-elf/lib\libc.a(lib_a-rget.o) (__srefill_r)
c:/altera/15.0/nios2eds/bin/gnu/h-x86_64-mingw32/bin/../lib/gcc/nios2-elf/4.9.1/../../../../../H-x86_64-mingw32/nios2-elf/lib\libc.a(lib_a-s_fpclassify.o)
                              c:/altera/15.0/nios2eds/bin/gnu/h-x86_64-mingw32/bin/../lib/gcc/nios2-elf/4.9.1/../../../../../H-x86_64-mingw32/nios2-elf/lib\libc.a(lib_a-svfprintf.o) (__fpclassifyd)
c:/altera/15.0/nios2eds/bin/gnu/h-x86_64-mingw32/bin/../lib/gcc/nios2-elf/4.9.1/../../../../../H-x86_64-mingw32/nios2-elf/lib\libc.a(lib_a-stdio.o)
                              c:/altera/15.0/nios2eds/bin/gnu/h-x86_64-mingw32/bin/../lib/gcc/nios2-elf/4.9.1/../../../../../H-x86_64-mingw32/nios2-elf/lib\libc.a(lib_a-findfp.o) (__sread)
c:/altera/15.0/nios2eds/bin/gnu/h-x86_64-mingw32/bin/../lib/gcc/nios2-elf/4.9.1/../../../../../H-x86_64-mingw32/nios2-elf/lib\libc.a(lib_a-strcmp.o)
                              c:/altera/15.0/nios2eds/bin/gnu/h-x86_64-mingw32/bin/../lib/gcc/nios2-elf/4.9.1/../../../../../H-x86_64-mingw32/nios2-elf/lib\libc.a(lib_a-locale.o) (strcmp)
c:/altera/15.0/nios2eds/bin/gnu/h-x86_64-mingw32/bin/../lib/gcc/nios2-elf/4.9.1/../../../../../H-x86_64-mingw32/nios2-elf/lib\libc.a(lib_a-svfiprintf.o)
                              c:/altera/15.0/nios2eds/bin/gnu/h-x86_64-mingw32/bin/../lib/gcc/nios2-elf/4.9.1/../../../../../H-x86_64-mingw32/nios2-elf/lib\libc.a(lib_a-svfprintf.o) (__ssprint_r)
c:/altera/15.0/nios2eds/bin/gnu/h-x86_64-mingw32/bin/../lib/gcc/nios2-elf/4.9.1/../../../../../H-x86_64-mingw32/nios2-elf/lib\libc.a(lib_a-vfiprintf.o)
                              c:/altera/15.0/nios2eds/bin/gnu/h-x86_64-mingw32/bin/../lib/gcc/nios2-elf/4.9.1/../../../../../H-x86_64-mingw32/nios2-elf/lib\libc.a(lib_a-vfprintf.o) (__sprint_r)
c:/altera/15.0/nios2eds/bin/gnu/h-x86_64-mingw32/bin/../lib/gcc/nios2-elf/4.9.1/../../../../../H-x86_64-mingw32/nios2-elf/lib\libc.a(lib_a-writer.o)
                              c:/altera/15.0/nios2eds/bin/gnu/h-x86_64-mingw32/bin/../lib/gcc/nios2-elf/4.9.1/../../../../../H-x86_64-mingw32/nios2-elf/lib\libc.a(lib_a-stdio.o) (_write_r)
c:/altera/15.0/nios2eds/bin/gnu/h-x86_64-mingw32/bin/../lib/gcc/nios2-elf/4.9.1/../../../../../H-x86_64-mingw32/nios2-elf/lib\libc.a(closer.o)
                              c:/altera/15.0/nios2eds/bin/gnu/h-x86_64-mingw32/bin/../lib/gcc/nios2-elf/4.9.1/../../../../../H-x86_64-mingw32/nios2-elf/lib\libc.a(lib_a-stdio.o) (_close_r)
c:/altera/15.0/nios2eds/bin/gnu/h-x86_64-mingw32/bin/../lib/gcc/nios2-elf/4.9.1/../../../../../H-x86_64-mingw32/nios2-elf/lib\libc.a(lib_a-callocr.o)
                              c:/altera/15.0/nios2eds/bin/gnu/h-x86_64-mingw32/bin/../lib/gcc/nios2-elf/4.9.1/../../../../../H-x86_64-mingw32/nios2-elf/lib\libc.a(lib_a-mprec.o) (_calloc_r)
c:/altera/15.0/nios2eds/bin/gnu/h-x86_64-mingw32/bin/../lib/gcc/nios2-elf/4.9.1/../../../../../H-x86_64-mingw32/nios2-elf/lib\libc.a(lib_a-fclose.o)
                              c:/altera/15.0/nios2eds/bin/gnu/h-x86_64-mingw32/bin/../lib/gcc/nios2-elf/4.9.1/../../../../../H-x86_64-mingw32/nios2-elf/lib\libc.a(lib_a-findfp.o) (fclose)
c:/altera/15.0/nios2eds/bin/gnu/h-x86_64-mingw32/bin/../lib/gcc/nios2-elf/4.9.1/../../../../../H-x86_64-mingw32/nios2-elf/lib\libc.a(lib_a-fputwc.o)
                              c:/altera/15.0/nios2eds/bin/gnu/h-x86_64-mingw32/bin/../lib/gcc/nios2-elf/4.9.1/../../../../../H-x86_64-mingw32/nios2-elf/lib\libc.a(lib_a-vfiprintf.o) (_fputwc_r)
c:/altera/15.0/nios2eds/bin/gnu/h-x86_64-mingw32/bin/../lib/gcc/nios2-elf/4.9.1/../../../../../H-x86_64-mingw32/nios2-elf/lib\libc.a(lib_a-fstatr.o)
                              c:/altera/15.0/nios2eds/bin/gnu/h-x86_64-mingw32/bin/../lib/gcc/nios2-elf/4.9.1/../../../../../H-x86_64-mingw32/nios2-elf/lib\libc.a(lib_a-makebuf.o) (_fstat_r)
c:/altera/15.0/nios2eds/bin/gnu/h-x86_64-mingw32/bin/../lib/gcc/nios2-elf/4.9.1/../../../../../H-x86_64-mingw32/nios2-elf/lib\libc.a(lib_a-isattyr.o)
                              c:/altera/15.0/nios2eds/bin/gnu/h-x86_64-mingw32/bin/../lib/gcc/nios2-elf/4.9.1/../../../../../H-x86_64-mingw32/nios2-elf/lib\libc.a(lib_a-makebuf.o) (_isatty_r)
c:/altera/15.0/nios2eds/bin/gnu/h-x86_64-mingw32/bin/../lib/gcc/nios2-elf/4.9.1/../../../../../H-x86_64-mingw32/nios2-elf/lib\libc.a(lib_a-lseekr.o)
                              c:/altera/15.0/nios2eds/bin/gnu/h-x86_64-mingw32/bin/../lib/gcc/nios2-elf/4.9.1/../../../../../H-x86_64-mingw32/nios2-elf/lib\libc.a(lib_a-stdio.o) (_lseek_r)
c:/altera/15.0/nios2eds/bin/gnu/h-x86_64-mingw32/bin/../lib/gcc/nios2-elf/4.9.1/../../../../../H-x86_64-mingw32/nios2-elf/lib\libc.a(lib_a-readr.o)
                              c:/altera/15.0/nios2eds/bin/gnu/h-x86_64-mingw32/bin/../lib/gcc/nios2-elf/4.9.1/../../../../../H-x86_64-mingw32/nios2-elf/lib\libc.a(lib_a-stdio.o) (_read_r)
c:/altera/15.0/nios2eds/bin/gnu/h-x86_64-mingw32/bin/../lib/gcc/nios2-elf/4.9.1/../../../../../H-x86_64-mingw32/nios2-elf/lib\libc.a(lib_a-wcrtomb.o)
                              c:/altera/15.0/nios2eds/bin/gnu/h-x86_64-mingw32/bin/../lib/gcc/nios2-elf/4.9.1/../../../../../H-x86_64-mingw32/nios2-elf/lib\libc.a(lib_a-fputwc.o) (_wcrtomb_r)
c:/altera/15.0/nios2eds/bin/gnu/h-x86_64-mingw32/bin/../lib/gcc/nios2-elf/4.9.1/../../../../../H-x86_64-mingw32/nios2-elf/lib\libc.a(lib_a-wctomb_r.o)
                              c:/altera/15.0/nios2eds/bin/gnu/h-x86_64-mingw32/bin/../lib/gcc/nios2-elf/4.9.1/../../../../../H-x86_64-mingw32/nios2-elf/lib\libc.a(lib_a-wcrtomb.o) (__wctomb)
c:/altera/15.0/nios2eds/bin/gnu/h-x86_64-mingw32/bin/../lib/gcc/nios2-elf/4.9.1\libgcc.a(_udivdi3.o)
                              c:/altera/15.0/nios2eds/bin/gnu/h-x86_64-mingw32/bin/../lib/gcc/nios2-elf/4.9.1/../../../../../H-x86_64-mingw32/nios2-elf/lib\libc.a(lib_a-svfprintf.o) (__udivdi3)
c:/altera/15.0/nios2eds/bin/gnu/h-x86_64-mingw32/bin/../lib/gcc/nios2-elf/4.9.1\libgcc.a(_umoddi3.o)
                              c:/altera/15.0/nios2eds/bin/gnu/h-x86_64-mingw32/bin/../lib/gcc/nios2-elf/4.9.1/../../../../../H-x86_64-mingw32/nios2-elf/lib\libc.a(lib_a-svfprintf.o) (__umoddi3)
c:/altera/15.0/nios2eds/bin/gnu/h-x86_64-mingw32/bin/../lib/gcc/nios2-elf/4.9.1\libgcc.a(lib2-divmod.o)
                              c:/altera/15.0/nios2eds/bin/gnu/h-x86_64-mingw32/bin/../lib/gcc/nios2-elf/4.9.1/../../../../../H-x86_64-mingw32/nios2-elf/lib\libc.a(lib_a-svfprintf.o) (__divsi3)
c:/altera/15.0/nios2eds/bin/gnu/h-x86_64-mingw32/bin/../lib/gcc/nios2-elf/4.9.1\libgcc.a(adddf3.o)
                              c:/altera/15.0/nios2eds/bin/gnu/h-x86_64-mingw32/bin/../lib/gcc/nios2-elf/4.9.1/../../../../../H-x86_64-mingw32/nios2-elf/lib\libc.a(lib_a-dtoa.o) (__adddf3)
c:/altera/15.0/nios2eds/bin/gnu/h-x86_64-mingw32/bin/../lib/gcc/nios2-elf/4.9.1\libgcc.a(divdf3.o)
                              c:/altera/15.0/nios2eds/bin/gnu/h-x86_64-mingw32/bin/../lib/gcc/nios2-elf/4.9.1/../../../../../H-x86_64-mingw32/nios2-elf/lib\libc.a(lib_a-dtoa.o) (__divdf3)
c:/altera/15.0/nios2eds/bin/gnu/h-x86_64-mingw32/bin/../lib/gcc/nios2-elf/4.9.1\libgcc.a(eqdf2.o)
                              c:/altera/15.0/nios2eds/bin/gnu/h-x86_64-mingw32/bin/../lib/gcc/nios2-elf/4.9.1/../../../../../H-x86_64-mingw32/nios2-elf/lib\libc.a(lib_a-svfprintf.o) (__eqdf2)
c:/altera/15.0/nios2eds/bin/gnu/h-x86_64-mingw32/bin/../lib/gcc/nios2-elf/4.9.1\libgcc.a(gedf2.o)
                              c:/altera/15.0/nios2eds/bin/gnu/h-x86_64-mingw32/bin/../lib/gcc/nios2-elf/4.9.1/../../../../../H-x86_64-mingw32/nios2-elf/lib\libc.a(lib_a-dtoa.o) (__gedf2)
c:/altera/15.0/nios2eds/bin/gnu/h-x86_64-mingw32/bin/../lib/gcc/nios2-elf/4.9.1\libgcc.a(ledf2.o)
                              c:/altera/15.0/nios2eds/bin/gnu/h-x86_64-mingw32/bin/../lib/gcc/nios2-elf/4.9.1/../../../../../H-x86_64-mingw32/nios2-elf/lib\libc.a(lib_a-svfprintf.o) (__ltdf2)
c:/altera/15.0/nios2eds/bin/gnu/h-x86_64-mingw32/bin/../lib/gcc/nios2-elf/4.9.1\libgcc.a(muldf3.o)
                              c:/altera/15.0/nios2eds/bin/gnu/h-x86_64-mingw32/bin/../lib/gcc/nios2-elf/4.9.1/../../../../../H-x86_64-mingw32/nios2-elf/lib\libc.a(lib_a-dtoa.o) (__muldf3)
c:/altera/15.0/nios2eds/bin/gnu/h-x86_64-mingw32/bin/../lib/gcc/nios2-elf/4.9.1\libgcc.a(subdf3.o)
                              c:/altera/15.0/nios2eds/bin/gnu/h-x86_64-mingw32/bin/../lib/gcc/nios2-elf/4.9.1/../../../../../H-x86_64-mingw32/nios2-elf/lib\libc.a(lib_a-dtoa.o) (__subdf3)
c:/altera/15.0/nios2eds/bin/gnu/h-x86_64-mingw32/bin/../lib/gcc/nios2-elf/4.9.1\libgcc.a(fixdfsi.o)
                              c:/altera/15.0/nios2eds/bin/gnu/h-x86_64-mingw32/bin/../lib/gcc/nios2-elf/4.9.1/../../../../../H-x86_64-mingw32/nios2-elf/lib\libc.a(lib_a-dtoa.o) (__fixdfsi)
c:/altera/15.0/nios2eds/bin/gnu/h-x86_64-mingw32/bin/../lib/gcc/nios2-elf/4.9.1\libgcc.a(floatsidf.o)
                              c:/altera/15.0/nios2eds/bin/gnu/h-x86_64-mingw32/bin/../lib/gcc/nios2-elf/4.9.1/../../../../../H-x86_64-mingw32/nios2-elf/lib\libc.a(lib_a-dtoa.o) (__floatsidf)
c:/altera/15.0/nios2eds/bin/gnu/h-x86_64-mingw32/bin/../lib/gcc/nios2-elf/4.9.1\libgcc.a(floatunsidf.o)
                              c:/altera/15.0/nios2eds/bin/gnu/h-x86_64-mingw32/bin/../lib/gcc/nios2-elf/4.9.1/../../../../../H-x86_64-mingw32/nios2-elf/lib\libc.a(lib_a-dtoa.o) (__floatunsidf)
c:/altera/15.0/nios2eds/bin/gnu/h-x86_64-mingw32/bin/../lib/gcc/nios2-elf/4.9.1\libgcc.a(_clz.o)
                              c:/altera/15.0/nios2eds/bin/gnu/h-x86_64-mingw32/bin/../lib/gcc/nios2-elf/4.9.1\libgcc.a(_udivdi3.o) (__clz_tab)
c:/altera/15.0/nios2eds/bin/gnu/h-x86_64-mingw32/bin/../lib/gcc/nios2-elf/4.9.1\libgcc.a(_clzsi2.o)
                              c:/altera/15.0/nios2eds/bin/gnu/h-x86_64-mingw32/bin/../lib/gcc/nios2-elf/4.9.1\libgcc.a(adddf3.o) (__clzsi2)
../DECA_socket_server_bsp/\libucosii_bsp.a(alt_fstat.o)
                              c:/altera/15.0/nios2eds/bin/gnu/h-x86_64-mingw32/bin/../lib/gcc/nios2-elf/4.9.1/../../../../../H-x86_64-mingw32/nios2-elf/lib\libc.a(lib_a-fstatr.o) (fstat)
../DECA_socket_server_bsp/\libucosii_bsp.a(alt_isatty.o)
                              c:/altera/15.0/nios2eds/bin/gnu/h-x86_64-mingw32/bin/../lib/gcc/nios2-elf/4.9.1/../../../../../H-x86_64-mingw32/nios2-elf/lib\libc.a(lib_a-isattyr.o) (isatty)
../DECA_socket_server_bsp/\libucosii_bsp.a(alt_load.o)
                              ../DECA_socket_server_bsp//obj/HAL/src/crt0.o (alt_load)
../DECA_socket_server_bsp/\libucosii_bsp.a(alt_lseek.o)
                              c:/altera/15.0/nios2eds/bin/gnu/h-x86_64-mingw32/bin/../lib/gcc/nios2-elf/4.9.1/../../../../../H-x86_64-mingw32/nios2-elf/lib\libc.a(lib_a-lseekr.o) (lseek)
../DECA_socket_server_bsp/\libucosii_bsp.a(alt_main.o)
                              ../DECA_socket_server_bsp//obj/HAL/src/crt0.o (alt_main)
../DECA_socket_server_bsp/\libucosii_bsp.a(alt_sbrk.o)
                              c:/altera/15.0/nios2eds/bin/gnu/h-x86_64-mingw32/bin/../lib/gcc/nios2-elf/4.9.1/../../../../../H-x86_64-mingw32/nios2-elf/lib\libc.a(lib_a-sbrkr.o) (sbrk)
../DECA_socket_server_bsp/\libucosii_bsp.a(alt_usleep.o)
                              obj/default/ins_tse/altera_avalon_tse.o (usleep)
../DECA_socket_server_bsp/\libucosii_bsp.a(alt_env_lock.o)
                              ../DECA_socket_server_bsp/\libucosii_bsp.a(alt_main.o) (alt_envsem)
../DECA_socket_server_bsp/\libucosii_bsp.a(alt_malloc_lock.o)
                              ../DECA_socket_server_bsp/\libucosii_bsp.a(alt_main.o) (alt_heapsem)
../DECA_socket_server_bsp/\libucosii_bsp.a(os_core.o)
                              ../DECA_socket_server_bsp/\libucosii_bsp.a(alt_usleep.o) (OSRunning)
../DECA_socket_server_bsp/\libucosii_bsp.a(os_dbg.o)
                              ../DECA_socket_server_bsp/\libucosii_bsp.a(os_core.o) (OSDebugInit)
../DECA_socket_server_bsp/\libucosii_bsp.a(os_flag.o)
                              obj/default/simple_socket_server.o (OSFlagCreate)
../DECA_socket_server_bsp/\libucosii_bsp.a(os_mem.o)
                              ../DECA_socket_server_bsp/\libucosii_bsp.a(os_core.o) (OS_MemInit)
../DECA_socket_server_bsp/\libucosii_bsp.a(os_q.o)
                              obj/default/simple_socket_server.o (OSQCreate)
../DECA_socket_server_bsp/\libucosii_bsp.a(os_sem.o)
                              obj/default/simple_socket_server.o (OSSemCreate)
../DECA_socket_server_bsp/\libucosii_bsp.a(os_task.o)
                              obj/default/iniche_init.o (OSTaskCreateExt)
../DECA_socket_server_bsp/\libucosii_bsp.a(os_time.o)
                              obj/default/iniche_init.o (OSTimeDly)
../DECA_socket_server_bsp/\libucosii_bsp.a(alt_sys_init.o)
                              ../DECA_socket_server_bsp/\libucosii_bsp.a(alt_main.o) (alt_irq_init)
../DECA_socket_server_bsp/\libucosii_bsp.a(altera_avalon_jtag_uart_fd.o)
                              ../DECA_socket_server_bsp/\libucosii_bsp.a(alt_sys_init.o) (altera_avalon_jtag_uart_read_fd)
../DECA_socket_server_bsp/\libucosii_bsp.a(altera_avalon_jtag_uart_init.o)
                              ../DECA_socket_server_bsp/\libucosii_bsp.a(alt_sys_init.o) (altera_avalon_jtag_uart_init)
../DECA_socket_server_bsp/\libucosii_bsp.a(altera_avalon_jtag_uart_ioctl.o)
                              ../DECA_socket_server_bsp/\libucosii_bsp.a(altera_avalon_jtag_uart_fd.o) (altera_avalon_jtag_uart_ioctl)
../DECA_socket_server_bsp/\libucosii_bsp.a(altera_avalon_jtag_uart_read.o)
                              ../DECA_socket_server_bsp/\libucosii_bsp.a(altera_avalon_jtag_uart_fd.o) (altera_avalon_jtag_uart_read)
../DECA_socket_server_bsp/\libucosii_bsp.a(altera_avalon_jtag_uart_write.o)
                              ../DECA_socket_server_bsp/\libucosii_bsp.a(altera_avalon_jtag_uart_fd.o) (altera_avalon_jtag_uart_write)
../DECA_socket_server_bsp/\libucosii_bsp.a(altera_avalon_sgdma.o)
                              obj/default/ins_tse/altera_avalon_tse.o (alt_avalon_sgdma_do_async_transfer)
../DECA_socket_server_bsp/\libucosii_bsp.a(altera_avalon_timer_sc.o)
                              ../DECA_socket_server_bsp/\libucosii_bsp.a(alt_sys_init.o) (alt_avalon_timer_sc_init)
../DECA_socket_server_bsp/\libucosii_bsp.a(ins_tse_mac.o)
                              ../DECA_socket_server_bsp/\libucosii_bsp.a(alt_sys_init.o) (number_of_tse_mac)
../DECA_socket_server_bsp/\libucosii_bsp.a(alt_iniche_close.o)
                              obj/default/simple_socket_server.o (close)
../DECA_socket_server_bsp/\libucosii_bsp.a(alt_iniche_dev.o)
                              ../DECA_socket_server_bsp/\libucosii_bsp.a(alt_sys_init.o) (alt_iniche_dev_list)
../DECA_socket_server_bsp/\libucosii_bsp.a(alt_iniche_read.o)
                              c:/altera/15.0/nios2eds/bin/gnu/h-x86_64-mingw32/bin/../lib/gcc/nios2-elf/4.9.1/../../../../../H-x86_64-mingw32/nios2-elf/lib\libc.a(lib_a-readr.o) (read)
../DECA_socket_server_bsp/\libucosii_bsp.a(alt_iniche_write.o)
                              c:/altera/15.0/nios2eds/bin/gnu/h-x86_64-mingw32/bin/../lib/gcc/nios2-elf/4.9.1/../../../../../H-x86_64-mingw32/nios2-elf/lib\libc.a(lib_a-writer.o) (write)
../DECA_socket_server_bsp/\libucosii_bsp.a(ipnet.o)
                              ../DECA_socket_server_bsp/\libucosii_bsp.a(ins_tse_mac.o) (rcvdq)
../DECA_socket_server_bsp/\libucosii_bsp.a(ipstart.o)
                              ../DECA_socket_server_bsp/\libucosii_bsp.a(ins_tse_mac.o) (nets)
../DECA_socket_server_bsp/\libucosii_bsp.a(igmp_cmn.o)
                              ../DECA_socket_server_bsp/\libucosii_bsp.a(ipstart.o) (igmp_all_hosts_group)
../DECA_socket_server_bsp/\libucosii_bsp.a(bsdsock.o)
                              obj/default/simple_socket_server.o (bsd_accept)
../DECA_socket_server_bsp/\libucosii_bsp.a(cksum.o)
                              ../DECA_socket_server_bsp/\libucosii_bsp.a(igmp_cmn.o) (cksum)
../DECA_socket_server_bsp/\libucosii_bsp.a(in_utils.o)
                              ../DECA_socket_server_bsp/\libucosii_bsp.a(ins_tse_mac.o) (ns_printf)
../DECA_socket_server_bsp/\libucosii_bsp.a(netmain.o)
                              obj/default/iniche_init.o (iniche_net_ready)
../DECA_socket_server_bsp/\libucosii_bsp.a(tk_crnos.o)
                              ../DECA_socket_server_bsp/\libucosii_bsp.a(ipnet.o) (tk_yield)
../DECA_socket_server_bsp/\libucosii_bsp.a(dhcpclnt.o)
                              ../DECA_socket_server_bsp/\libucosii_bsp.a(netmain.o) (dhc_second)
../DECA_socket_server_bsp/\libucosii_bsp.a(dhcputil.o)
                              ../DECA_socket_server_bsp/\libucosii_bsp.a(dhcpclnt.o) (find_opt)
../DECA_socket_server_bsp/\libucosii_bsp.a(pktalloc.o)
                              ../DECA_socket_server_bsp/\libucosii_bsp.a(ipnet.o) (bigfreeq)
../DECA_socket_server_bsp/\libucosii_bsp.a(q.o)
                              ../DECA_socket_server_bsp/\libucosii_bsp.a(ipnet.o) (getq)
../DECA_socket_server_bsp/\libucosii_bsp.a(udp_open.o)
                              ../DECA_socket_server_bsp/\libucosii_bsp.a(dhcpclnt.o) (udp_open)
../DECA_socket_server_bsp/\libucosii_bsp.a(asm_cksum.o)
                              ../DECA_socket_server_bsp/\libucosii_bsp.a(cksum.o) (asm_cksum)
../DECA_socket_server_bsp/\libucosii_bsp.a(brdutils.o)
                              ../DECA_socket_server_bsp/\libucosii_bsp.a(ipnet.o) (dtrap)
../DECA_socket_server_bsp/\libucosii_bsp.a(osportco.o)
                              ../DECA_socket_server_bsp/\libucosii_bsp.a(ins_tse_mac.o) (cticks)
../DECA_socket_server_bsp/\libucosii_bsp.a(targnios.o)
                              ../DECA_socket_server_bsp/\libucosii_bsp.a(ins_tse_mac.o) (rcvdq_sem_ptr)
../DECA_socket_server_bsp/\libucosii_bsp.a(nptcp.o)
                              ../DECA_socket_server_bsp/\libucosii_bsp.a(bsdsock.o) (soq)
../DECA_socket_server_bsp/\libucosii_bsp.a(rawsock.o)
                              ../DECA_socket_server_bsp/\libucosii_bsp.a(nptcp.o) (rawip_usrreq)
../DECA_socket_server_bsp/\libucosii_bsp.a(sockcall.o)
                              obj/default/simple_socket_server.o (t_socket)
../DECA_socket_server_bsp/\libucosii_bsp.a(socket.o)
                              ../DECA_socket_server_bsp/\libucosii_bsp.a(sockcall.o) (socreate)
../DECA_socket_server_bsp/\libucosii_bsp.a(socket2.o)
                              ../DECA_socket_server_bsp/\libucosii_bsp.a(sockcall.o) (soqremque)
../DECA_socket_server_bsp/\libucosii_bsp.a(soselect.o)
                              ../DECA_socket_server_bsp/\libucosii_bsp.a(bsdsock.o) (t_select)
../DECA_socket_server_bsp/\libucosii_bsp.a(tcp_in.o)
                              ../DECA_socket_server_bsp/\libucosii_bsp.a(nptcp.o) (tcp_input)
../DECA_socket_server_bsp/\libucosii_bsp.a(tcp_out.o)
                              ../DECA_socket_server_bsp/\libucosii_bsp.a(tcp_in.o) (tcp_output)
../DECA_socket_server_bsp/\libucosii_bsp.a(tcp_subr.o)
                              ../DECA_socket_server_bsp/\libucosii_bsp.a(nptcp.o) (tcpstat)
../DECA_socket_server_bsp/\libucosii_bsp.a(tcp_timr.o)
                              ../DECA_socket_server_bsp/\libucosii_bsp.a(tcp_in.o) (tcp_keepidle)
../DECA_socket_server_bsp/\libucosii_bsp.a(tcp_usr.o)
                              ../DECA_socket_server_bsp/\libucosii_bsp.a(nptcp.o) (tcp_usrreq)
../DECA_socket_server_bsp/\libucosii_bsp.a(tcpport.o)
                              ../DECA_socket_server_bsp/\libucosii_bsp.a(ipstart.o) (tcpinit)
../DECA_socket_server_bsp/\libucosii_bsp.a(udpsock.o)
                              ../DECA_socket_server_bsp/\libucosii_bsp.a(nptcp.o) (udp_usrreq)
../DECA_socket_server_bsp/\libucosii_bsp.a(alt_alarm_start.o)
                              ../DECA_socket_server_bsp/\libucosii_bsp.a(altera_avalon_jtag_uart_init.o) (alt_alarm_start)
../DECA_socket_server_bsp/\libucosii_bsp.a(alt_busy_sleep.o)
                              ../DECA_socket_server_bsp/\libucosii_bsp.a(alt_usleep.o) (alt_busy_sleep)
../DECA_socket_server_bsp/\libucosii_bsp.a(alt_close.o)
                              ../DECA_socket_server_bsp/\libucosii_bsp.a(alt_iniche_close.o) (alt_close)
../DECA_socket_server_bsp/\libucosii_bsp.a(alt_dcache_flush.o)
                              ../DECA_socket_server_bsp/\libucosii_bsp.a(altera_avalon_sgdma.o) (alt_dcache_flush)
../DECA_socket_server_bsp/\libucosii_bsp.a(alt_dcache_flush_all.o)
                              ../DECA_socket_server_bsp/\libucosii_bsp.a(alt_load.o) (alt_dcache_flush_all)
../DECA_socket_server_bsp/\libucosii_bsp.a(alt_dev.o)
                              ../DECA_socket_server_bsp/\libucosii_bsp.a(alt_sys_init.o) (alt_dev_list)
../DECA_socket_server_bsp/\libucosii_bsp.a(alt_dev_llist_insert.o)
                              ../DECA_socket_server_bsp/\libucosii_bsp.a(alt_sys_init.o) (alt_dev_llist_insert)
../DECA_socket_server_bsp/\libucosii_bsp.a(alt_do_ctors.o)
                              ../DECA_socket_server_bsp/\libucosii_bsp.a(alt_main.o) (_do_ctors)
../DECA_socket_server_bsp/\libucosii_bsp.a(alt_do_dtors.o)
                              ../DECA_socket_server_bsp/\libucosii_bsp.a(alt_main.o) (_do_dtors)
../DECA_socket_server_bsp/\libucosii_bsp.a(alt_errno.o)
                              ../DECA_socket_server_bsp/\libucosii_bsp.a(alt_fstat.o) (alt_errno)
../DECA_socket_server_bsp/\libucosii_bsp.a(alt_find_dev.o)
                              ../DECA_socket_server_bsp/\libucosii_bsp.a(altera_avalon_sgdma.o) (alt_find_dev)
../DECA_socket_server_bsp/\libucosii_bsp.a(alt_icache_flush_all.o)
                              ../DECA_socket_server_bsp/\libucosii_bsp.a(alt_load.o) (alt_icache_flush_all)
../DECA_socket_server_bsp/\libucosii_bsp.a(alt_iic.o)
                              ../DECA_socket_server_bsp/\libucosii_bsp.a(altera_avalon_jtag_uart_init.o) (alt_ic_isr_register)
../DECA_socket_server_bsp/\libucosii_bsp.a(alt_iic_isr_register.o)
                              ../DECA_socket_server_bsp/\libucosii_bsp.a(alt_iic.o) (alt_iic_isr_register)
../DECA_socket_server_bsp/\libucosii_bsp.a(alt_io_redirect.o)
                              ../DECA_socket_server_bsp/\libucosii_bsp.a(alt_main.o) (alt_io_redirect)
../DECA_socket_server_bsp/\libucosii_bsp.a(alt_irq_entry.o)
                              ../DECA_socket_server_bsp/\libucosii_bsp.a(alt_iic_isr_register.o) (alt_irq_entry)
../DECA_socket_server_bsp/\libucosii_bsp.a(alt_irq_handler.o)
                              ../DECA_socket_server_bsp/\libucosii_bsp.a(alt_iic_isr_register.o) (alt_irq)
../DECA_socket_server_bsp/\libucosii_bsp.a(alt_irq_vars.o)
                              ../DECA_socket_server_bsp/\libucosii_bsp.a(alt_iic.o) (alt_irq_active)
../DECA_socket_server_bsp/\libucosii_bsp.a(alt_open.o)
                              ../DECA_socket_server_bsp/\libucosii_bsp.a(alt_io_redirect.o) (open)
../DECA_socket_server_bsp/\libucosii_bsp.a(alt_read.o)
                              ../DECA_socket_server_bsp/\libucosii_bsp.a(alt_iniche_read.o) (alt_read)
../DECA_socket_server_bsp/\libucosii_bsp.a(alt_release_fd.o)
                              ../DECA_socket_server_bsp/\libucosii_bsp.a(alt_close.o) (alt_release_fd)
../DECA_socket_server_bsp/\libucosii_bsp.a(alt_remap_cached.o)
                              ../DECA_socket_server_bsp/\libucosii_bsp.a(ins_tse_mac.o) (alt_remap_cached)
../DECA_socket_server_bsp/\libucosii_bsp.a(alt_tick.o)
                              ../DECA_socket_server_bsp/\libucosii_bsp.a(alt_usleep.o) (_alt_tick_rate)
../DECA_socket_server_bsp/\libucosii_bsp.a(alt_uncached_free.o)
                              ../DECA_socket_server_bsp/\libucosii_bsp.a(targnios.o) (alt_uncached_free)
../DECA_socket_server_bsp/\libucosii_bsp.a(alt_uncached_malloc.o)
                              ../DECA_socket_server_bsp/\libucosii_bsp.a(ins_tse_mac.o) (alt_uncached_malloc)
../DECA_socket_server_bsp/\libucosii_bsp.a(alt_write.o)
                              ../DECA_socket_server_bsp/\libucosii_bsp.a(alt_iniche_write.o) (alt_write)
../DECA_socket_server_bsp/\libucosii_bsp.a(altera_nios2_gen2_irq.o)
                              ../DECA_socket_server_bsp/\libucosii_bsp.a(alt_sys_init.o) (altera_nios2_gen2_irq_init)
../DECA_socket_server_bsp/\libucosii_bsp.a(os_cpu_a.o)
                              ../DECA_socket_server_bsp/\libucosii_bsp.a(os_core.o) (OSIntCtxSw)
../DECA_socket_server_bsp/\libucosii_bsp.a(os_cpu_c.o)
                              ../DECA_socket_server_bsp/\libucosii_bsp.a(os_task.o) (OSTaskStkInit)
../DECA_socket_server_bsp/\libucosii_bsp.a(allports.o)
                              ../DECA_socket_server_bsp/\libucosii_bsp.a(dhcpclnt.o) (name)
../DECA_socket_server_bsp/\libucosii_bsp.a(timeouts.o)
                              ../DECA_socket_server_bsp/\libucosii_bsp.a(netmain.o) (inet_timer)
../DECA_socket_server_bsp/\libucosii_bsp.a(tk_misc.o)
                              ../DECA_socket_server_bsp/\libucosii_bsp.a(netmain.o) (create_apptasks)
../DECA_socket_server_bsp/\libucosii_bsp.a(alt_iniche_fcntl.o)
                              ../DECA_socket_server_bsp/\libucosii_bsp.a(brdutils.o) (fcntl)
../DECA_socket_server_bsp/\libucosii_bsp.a(et_arp.o)
                              ../DECA_socket_server_bsp/\libucosii_bsp.a(ipstart.o) (etainit)
../DECA_socket_server_bsp/\libucosii_bsp.a(iface.o)
                              ../DECA_socket_server_bsp/\libucosii_bsp.a(ipnet.o) (netlist)
../DECA_socket_server_bsp/\libucosii_bsp.a(ip.o)
                              ../DECA_socket_server_bsp/\libucosii_bsp.a(igmp_cmn.o) (ip_mib)
../DECA_socket_server_bsp/\libucosii_bsp.a(ip_reasm.o)
                              ../DECA_socket_server_bsp/\libucosii_bsp.a(timeouts.o) (ire_cticks)
../DECA_socket_server_bsp/\libucosii_bsp.a(ipdemux.o)
                              ../DECA_socket_server_bsp/\libucosii_bsp.a(ipnet.o) (ip_rcv)
../DECA_socket_server_bsp/\libucosii_bsp.a(ipmc.o)
                              ../DECA_socket_server_bsp/\libucosii_bsp.a(ipstart.o) (in_addmulti)
../DECA_socket_server_bsp/\libucosii_bsp.a(ipport.o)
                              ../DECA_socket_server_bsp/\libucosii_bsp.a(targnios.o) (port_prep)
../DECA_socket_server_bsp/\libucosii_bsp.a(ipraw.o)
                              ../DECA_socket_server_bsp/\libucosii_bsp.a(rawsock.o) (ipraw_eps)
../DECA_socket_server_bsp/\libucosii_bsp.a(iproute.o)
                              ../DECA_socket_server_bsp/\libucosii_bsp.a(ip.o) (cachedRoute)
../DECA_socket_server_bsp/\libucosii_bsp.a(udp.o)
                              ../DECA_socket_server_bsp/\libucosii_bsp.a(ipdemux.o) (udpdemux)
../DECA_socket_server_bsp/\libucosii_bsp.a(igmp.o)
                              ../DECA_socket_server_bsp/\libucosii_bsp.a(igmp_cmn.o) (igmpv1_input)
../DECA_socket_server_bsp/\libucosii_bsp.a(igmp2.o)
                              ../DECA_socket_server_bsp/\libucosii_bsp.a(igmp_cmn.o) (igmpv2_input)
../DECA_socket_server_bsp/\libucosii_bsp.a(ipopt.o)
                              ../DECA_socket_server_bsp/\libucosii_bsp.a(socket.o) (ip_setmoptions)
../DECA_socket_server_bsp/\libucosii_bsp.a(u_mctest.o)
                              ../DECA_socket_server_bsp/\libucosii_bsp.a(allports.o) (u_mctest_init)
../DECA_socket_server_bsp/\libucosii_bsp.a(dhcsetup.o)
                              ../DECA_socket_server_bsp/\libucosii_bsp.a(allports.o) (dhc_setup)
../DECA_socket_server_bsp/\libucosii_bsp.a(memdev.o)
                              ../DECA_socket_server_bsp/\libucosii_bsp.a(allports.o) (init_memdev)
../DECA_socket_server_bsp/\libucosii_bsp.a(parseip.o)
                              ../DECA_socket_server_bsp/\libucosii_bsp.a(u_mctest.o) (inet_addr)
../DECA_socket_server_bsp/\libucosii_bsp.a(tcpcksum.o)
                              ../DECA_socket_server_bsp/\libucosii_bsp.a(nptcp.o) (tcp_cksum)
../DECA_socket_server_bsp/\libucosii_bsp.a(in_pcb.o)
                              ../DECA_socket_server_bsp/\libucosii_bsp.a(tcp_usr.o) (in_pcballoc)
../DECA_socket_server_bsp/\libucosii_bsp.a(vfsfiles.o)
                              ../DECA_socket_server_bsp/\libucosii_bsp.a(memdev.o) (vfsystems)
../DECA_socket_server_bsp/\libucosii_bsp.a(vfsport.o)
                              ../DECA_socket_server_bsp/\libucosii_bsp.a(allports.o) (prep_vfs)
../DECA_socket_server_bsp/\libucosii_bsp.a(alt_exception_entry.o)
                              ../DECA_socket_server_bsp/\libucosii_bsp.a(alt_irq_entry.o) (alt_exception)
../DECA_socket_server_bsp/\libucosii_bsp.a(alt_fcntl.o)
                              ../DECA_socket_server_bsp/\libucosii_bsp.a(alt_iniche_fcntl.o) (alt_fcntl)
../DECA_socket_server_bsp/\libucosii_bsp.a(alt_find_file.o)
                              ../DECA_socket_server_bsp/\libucosii_bsp.a(alt_open.o) (alt_find_file)
../DECA_socket_server_bsp/\libucosii_bsp.a(alt_get_fd.o)
                              ../DECA_socket_server_bsp/\libucosii_bsp.a(alt_open.o) (alt_get_fd)
../DECA_socket_server_bsp/\libucosii_bsp.a(alt_icache_flush.o)
                              ../DECA_socket_server_bsp/\libucosii_bsp.a(alt_icache_flush_all.o) (alt_icache_flush)
../DECA_socket_server_bsp/\libucosii_bsp.a(alt_instruction_exception_entry.o)
                              ../DECA_socket_server_bsp/\libucosii_bsp.a(alt_exception_entry.o) (alt_instruction_exception_entry)
../DECA_socket_server_bsp/\libucosii_bsp.a(icmp.o)
                              ../DECA_socket_server_bsp/\libucosii_bsp.a(ipdemux.o) (icmprcv)
c:/altera/15.0/nios2eds/bin/gnu/h-x86_64-mingw32/bin/../lib/gcc/nios2-elf/4.9.1/../../../../../H-x86_64-mingw32/nios2-elf/lib\libc.a(lib_a-atexit.o)
                              ../DECA_socket_server_bsp/\libucosii_bsp.a(alt_main.o) (atexit)
c:/altera/15.0/nios2eds/bin/gnu/h-x86_64-mingw32/bin/../lib/gcc/nios2-elf/4.9.1/../../../../../H-x86_64-mingw32/nios2-elf/lib\libc.a(lib_a-atoi.o)
                              ../DECA_socket_server_bsp/\libucosii_bsp.a(parseip.o) (atoi)
c:/altera/15.0/nios2eds/bin/gnu/h-x86_64-mingw32/bin/../lib/gcc/nios2-elf/4.9.1/../../../../../H-x86_64-mingw32/nios2-elf/lib\libc.a(lib_a-exit.o)
                              ../DECA_socket_server_bsp/\libucosii_bsp.a(alt_main.o) (exit)
c:/altera/15.0/nios2eds/bin/gnu/h-x86_64-mingw32/bin/../lib/gcc/nios2-elf/4.9.1/../../../../../H-x86_64-mingw32/nios2-elf/lib\libc.a(lib_a-malign.o)
                              ../DECA_socket_server_bsp/\libucosii_bsp.a(alt_uncached_malloc.o) (memalign)
c:/altera/15.0/nios2eds/bin/gnu/h-x86_64-mingw32/bin/../lib/gcc/nios2-elf/4.9.1/../../../../../H-x86_64-mingw32/nios2-elf/lib\libc.a(lib_a-malignr.o)
                              c:/altera/15.0/nios2eds/bin/gnu/h-x86_64-mingw32/bin/../lib/gcc/nios2-elf/4.9.1/../../../../../H-x86_64-mingw32/nios2-elf/lib\libc.a(lib_a-malign.o) (_memalign_r)
c:/altera/15.0/nios2eds/bin/gnu/h-x86_64-mingw32/bin/../lib/gcc/nios2-elf/4.9.1/../../../../../H-x86_64-mingw32/nios2-elf/lib\libc.a(lib_a-memcmp.o)
                              ../DECA_socket_server_bsp/\libucosii_bsp.a(dhcpclnt.o) (memcmp)
c:/altera/15.0/nios2eds/bin/gnu/h-x86_64-mingw32/bin/../lib/gcc/nios2-elf/4.9.1/../../../../../H-x86_64-mingw32/nios2-elf/lib\libc.a(lib_a-strncmp.o)
                              ../DECA_socket_server_bsp/\libucosii_bsp.a(vfsfiles.o) (strncmp)
c:/altera/15.0/nios2eds/bin/gnu/h-x86_64-mingw32/bin/../lib/gcc/nios2-elf/4.9.1/../../../../../H-x86_64-mingw32/nios2-elf/lib\libc.a(lib_a-strncpy.o)
                              ../DECA_socket_server_bsp/\libucosii_bsp.a(dhcpclnt.o) (strncpy)
c:/altera/15.0/nios2eds/bin/gnu/h-x86_64-mingw32/bin/../lib/gcc/nios2-elf/4.9.1/../../../../../H-x86_64-mingw32/nios2-elf/lib\libc.a(lib_a-strtol.o)
                              c:/altera/15.0/nios2eds/bin/gnu/h-x86_64-mingw32/bin/../lib/gcc/nios2-elf/4.9.1/../../../../../H-x86_64-mingw32/nios2-elf/lib\libc.a(lib_a-atoi.o) (_strtol_r)
c:/altera/15.0/nios2eds/bin/gnu/h-x86_64-mingw32/bin/../lib/gcc/nios2-elf/4.9.1/../../../../../H-x86_64-mingw32/nios2-elf/lib\libc.a(lib_a-vprintf.o)
                              ../DECA_socket_server_bsp/\libucosii_bsp.a(in_utils.o) (vprintf)
c:/altera/15.0/nios2eds/bin/gnu/h-x86_64-mingw32/bin/../lib/gcc/nios2-elf/4.9.1/../../../../../H-x86_64-mingw32/nios2-elf/lib\libc.a(lib_a-vsprintf.o)
                              ../DECA_socket_server_bsp/\libucosii_bsp.a(in_utils.o) (vsprintf)
c:/altera/15.0/nios2eds/bin/gnu/h-x86_64-mingw32/bin/../lib/gcc/nios2-elf/4.9.1/../../../../../H-x86_64-mingw32/nios2-elf/lib\libc.a(lib_a-__atexit.o)
                              c:/altera/15.0/nios2eds/bin/gnu/h-x86_64-mingw32/bin/../lib/gcc/nios2-elf/4.9.1/../../../../../H-x86_64-mingw32/nios2-elf/lib\libc.a(lib_a-atexit.o) (__register_exitproc)
c:/altera/15.0/nios2eds/bin/gnu/h-x86_64-mingw32/bin/../lib/gcc/nios2-elf/4.9.1/../../../../../H-x86_64-mingw32/nios2-elf/lib\libc.a(lib_a-__call_atexit.o)
                              c:/altera/15.0/nios2eds/bin/gnu/h-x86_64-mingw32/bin/../lib/gcc/nios2-elf/4.9.1/../../../../../H-x86_64-mingw32/nios2-elf/lib\libc.a(lib_a-exit.o) (__call_exitprocs)
c:/altera/15.0/nios2eds/bin/gnu/h-x86_64-mingw32/bin/../lib/gcc/nios2-elf/4.9.1/../../../../../H-x86_64-mingw32/nios2-elf/lib\libc.a(lib_a-vfprintfr_1.o)
                              c:/altera/15.0/nios2eds/bin/gnu/h-x86_64-mingw32/bin/../lib/gcc/nios2-elf/4.9.1/../../../../../H-x86_64-mingw32/nios2-elf/lib\libc.a(lib_a-vprintf.o) (_vfprintf_r)
../DECA_socket_server_bsp/\libucosii_bsp.a(alt_exit.o)
                              c:/altera/15.0/nios2eds/bin/gnu/h-x86_64-mingw32/bin/../lib/gcc/nios2-elf/4.9.1/../../../../../H-x86_64-mingw32/nios2-elf/lib\libc.a(lib_a-exit.o) (_exit)

Allocating common symbols
Common symbol       size              file

soq                 0x14              ../DECA_socket_server_bsp/\libucosii_bsp.a(nptcp.o)
alt_irq             0x100             ../DECA_socket_server_bsp/\libucosii_bsp.a(alt_irq_handler.o)
tcp_optionbuf       0x4               ../DECA_socket_server_bsp/\libucosii_bsp.a(tcp_out.o)
last_flash_sector_offset
                    0x4               obj/default/network_utilities.o
rt_mib              0x4               ../DECA_socket_server_bsp/\libucosii_bsp.a(ip.o)
so_evtmap_create    0x4               ../DECA_socket_server_bsp/\libucosii_bsp.a(ipport.o)
SSSLEDCommandQ      0x4               obj/default/simple_socket_server.o
OSLockNesting       0x1               ../DECA_socket_server_bsp/\libucosii_bsp.a(os_core.o)
tcb                 0x2c              ../DECA_socket_server_bsp/\libucosii_bsp.a(tcp_subr.o)
OSRunning           0x1               ../DECA_socket_server_bsp/\libucosii_bsp.a(os_core.o)
dhc_states          0xf0              ../DECA_socket_server_bsp/\libucosii_bsp.a(dhcpclnt.o)
tcpstat             0xe0              ../DECA_socket_server_bsp/\libucosii_bsp.a(tcp_subr.o)
OSIdleCtr           0x4               ../DECA_socket_server_bsp/\libucosii_bsp.a(os_core.o)
SSSLEDLightshowSem  0x4               obj/default/simple_socket_server.o
udp_mib             0x10              ../DECA_socket_server_bsp/\libucosii_bsp.a(udp.o)
to_netmain          0x1               ../DECA_socket_server_bsp/\libucosii_bsp.a(netmain.o)
OSPrioHighRdy       0x1               ../DECA_socket_server_bsp/\libucosii_bsp.a(os_core.o)
errno               0x4               c:/altera/15.0/nios2eds/bin/gnu/h-x86_64-mingw32/bin/../lib/gcc/nios2-elf/4.9.1/../../../../../H-x86_64-mingw32/nios2-elf/lib\libc.a(lib_a-int_errno.o)
lilfreeq            0x14              ../DECA_socket_server_bsp/\libucosii_bsp.a(pktalloc.o)
icmp_mib            0x68              ../DECA_socket_server_bsp/\libucosii_bsp.a(icmp.o)
pmac_groups         0x10              obj/default/ins_tse/altera_avalon_tse.o
resid_semaphore     0x40              ../DECA_socket_server_bsp/\libucosii_bsp.a(targnios.o)
alt_heapsem         0x4               ../DECA_socket_server_bsp/\libucosii_bsp.a(alt_malloc_lock.o)
OSFlagTbl           0x370             ../DECA_socket_server_bsp/\libucosii_bsp.a(os_core.o)
mbstat              0x8               ../DECA_socket_server_bsp/\libucosii_bsp.a(nptcp.o)
netq_intmask        0x4               ../DECA_socket_server_bsp/\libucosii_bsp.a(osportco.o)
select_wait         0x2               ../DECA_socket_server_bsp/\libucosii_bsp.a(nptcp.o)
tse_iniche_dev_driver_data
                    0x30              ../DECA_socket_server_bsp/\libucosii_bsp.a(ins_tse_mac.o)
tcpmib              0x3c              ../DECA_socket_server_bsp/\libucosii_bsp.a(nptcp.o)
OSPrioCur           0x1               ../DECA_socket_server_bsp/\libucosii_bsp.a(os_core.o)
tse                 0x130             ../DECA_socket_server_bsp/\libucosii_bsp.a(ins_tse_mac.o)
mheap_sem_ptr       0x4               ../DECA_socket_server_bsp/\libucosii_bsp.a(targnios.o)
netlist             0x14              ../DECA_socket_server_bsp/\libucosii_bsp.a(iface.o)
mbufq               0x14              ../DECA_socket_server_bsp/\libucosii_bsp.a(nptcp.o)
OSTCBList           0x4               ../DECA_socket_server_bsp/\libucosii_bsp.a(os_core.o)
alt_fd_list_lock    0x4               ../DECA_socket_server_bsp/\libucosii_bsp.a(alt_dev.o)
OSMemTbl            0xc30             ../DECA_socket_server_bsp/\libucosii_bsp.a(os_core.o)
OSTickStepState     0x1               ../DECA_socket_server_bsp/\libucosii_bsp.a(os_core.o)
OSTaskStatStk       0x800             ../DECA_socket_server_bsp/\libucosii_bsp.a(os_core.o)
OSCtxSwCtr          0x4               ../DECA_socket_server_bsp/\libucosii_bsp.a(os_core.o)
igmpstats           0x64              ../DECA_socket_server_bsp/\libucosii_bsp.a(igmp_cmn.o)
ire_stats           0x18              ../DECA_socket_server_bsp/\libucosii_bsp.a(ip_reasm.o)
old_mode            0x4               ../DECA_socket_server_bsp/\libucosii_bsp.a(osportco.o)
vfs_dir_stale       0x4               ../DECA_socket_server_bsp/\libucosii_bsp.a(vfsfiles.o)
pphy_profiles       0x10              obj/default/ins_tse/altera_avalon_tse.o
cticks_factor       0x4               ../DECA_socket_server_bsp/\libucosii_bsp.a(brdutils.o)
OSIdleCtrMax        0x4               ../DECA_socket_server_bsp/\libucosii_bsp.a(os_core.o)
memestats           0x10              ../DECA_socket_server_bsp/\libucosii_bsp.a(pktalloc.o)
intimers            0x64              ../DECA_socket_server_bsp/\libucosii_bsp.a(timeouts.o)
OSTCBFreeList       0x4               ../DECA_socket_server_bsp/\libucosii_bsp.a(os_core.o)
global_TCPwakeup_setIndx
                    0x4               ../DECA_socket_server_bsp/\libucosii_bsp.a(osportco.o)
SSSInitialTaskStk   0x2000            obj/default/iniche_init.o
rcvdq               0x14              ../DECA_socket_server_bsp/\libucosii_bsp.a(ipnet.o)
global_tcb_ext      0xfc              ../DECA_socket_server_bsp/\libucosii_bsp.a(osportco.o)
netstatic           0x300             ../DECA_socket_server_bsp/\libucosii_bsp.a(ipstart.o)
tcp_maxidle         0x4               ../DECA_socket_server_bsp/\libucosii_bsp.a(tcp_timr.o)
LED7SegLightshowTaskStk
                    0x2000            obj/default/simple_socket_server.o
OSCPUUsage          0x1               ../DECA_socket_server_bsp/\libucosii_bsp.a(os_core.o)
nets                0x10              ../DECA_socket_server_bsp/\libucosii_bsp.a(ipstart.o)
pktlog              0xf0              ../DECA_socket_server_bsp/\libucosii_bsp.a(pktalloc.o)
OSTaskCtr           0x1               ../DECA_socket_server_bsp/\libucosii_bsp.a(os_core.o)
SSSLEDEventFlag     0x4               obj/default/simple_socket_server.o
OSMemFreeList       0x4               ../DECA_socket_server_bsp/\libucosii_bsp.a(os_core.o)
vfs_open_files      0x4               ../DECA_socket_server_bsp/\libucosii_bsp.a(vfsfiles.o)
cticks              0x4               ../DECA_socket_server_bsp/\libucosii_bsp.a(osportco.o)
to_nettick          0x1               ../DECA_socket_server_bsp/\libucosii_bsp.a(netmain.o)
last_flash_sector   0x4               obj/default/network_utilities.o
OSQTbl              0x1e0             ../DECA_socket_server_bsp/\libucosii_bsp.a(os_core.o)
OSTCBHighRdy        0x4               ../DECA_socket_server_bsp/\libucosii_bsp.a(os_core.o)
OSQFreeList         0x4               ../DECA_socket_server_bsp/\libucosii_bsp.a(os_core.o)
OSRdyGrp            0x1               ../DECA_socket_server_bsp/\libucosii_bsp.a(os_core.o)
ip_mib              0x50              ../DECA_socket_server_bsp/\libucosii_bsp.a(ip.o)
SSSLEDCommandQTbl   0x78              obj/default/simple_socket_server.o
OS_TPS              0x4               ../DECA_socket_server_bsp/\libucosii_bsp.a(brdutils.o)
OSRdyTbl            0x3               ../DECA_socket_server_bsp/\libucosii_bsp.a(os_core.o)
igmp_all_hosts_group
                    0x4               ../DECA_socket_server_bsp/\libucosii_bsp.a(igmp_cmn.o)
eth_prt_buf         0x12              ../DECA_socket_server_bsp/\libucosii_bsp.a(in_utils.o)
app_semaphore       0x18              ../DECA_socket_server_bsp/\libucosii_bsp.a(targnios.o)
LEDManagementTaskStk
                    0x2000            obj/default/simple_socket_server.o
tse_mac_if          0xe0              ../DECA_socket_server_bsp/\libucosii_bsp.a(alt_sys_init.o)
rcvdq_sem_ptr       0x4               ../DECA_socket_server_bsp/\libucosii_bsp.a(targnios.o)
OSEventFreeList     0x4               ../DECA_socket_server_bsp/\libucosii_bsp.a(os_core.o)
mfreeq              0x14              ../DECA_socket_server_bsp/\libucosii_bsp.a(nptcp.o)
to_ssstask          0x1               obj/default/iniche_init.o
global_TCPwakeup_set
                    0xf0              ../DECA_socket_server_bsp/\libucosii_bsp.a(osportco.o)
bigfreeq            0x14              ../DECA_socket_server_bsp/\libucosii_bsp.a(pktalloc.o)
so_evtmap_delete    0x4               ../DECA_socket_server_bsp/\libucosii_bsp.a(ipport.o)
tcp_saveti          0x28              ../DECA_socket_server_bsp/\libucosii_bsp.a(tcp_in.o)
OSIntNesting        0x1               ../DECA_socket_server_bsp/\libucosii_bsp.a(os_core.o)
so_evtmap           0x1               ../DECA_socket_server_bsp/\libucosii_bsp.a(ipport.o)
OSTCBCur            0x4               ../DECA_socket_server_bsp/\libucosii_bsp.a(os_core.o)
arp_table           0x100             ../DECA_socket_server_bsp/\libucosii_bsp.a(et_arp.o)
tcp_iss             0x4               ../DECA_socket_server_bsp/\libucosii_bsp.a(tcp_timr.o)
vfs_total_rw_space  0x4               ../DECA_socket_server_bsp/\libucosii_bsp.a(vfsfiles.o)
OSTime              0x4               ../DECA_socket_server_bsp/\libucosii_bsp.a(os_core.o)
OSTaskIdleStk       0x800             ../DECA_socket_server_bsp/\libucosii_bsp.a(os_core.o)
OSEventTbl          0xb40             ../DECA_socket_server_bsp/\libucosii_bsp.a(os_core.o)
vfs_total_dyna_files
                    0x4               ../DECA_socket_server_bsp/\libucosii_bsp.a(vfsfiles.o)
OSTCBTbl            0x510             ../DECA_socket_server_bsp/\libucosii_bsp.a(os_core.o)
ipreturn            0x12              ../DECA_socket_server_bsp/\libucosii_bsp.a(in_utils.o)
OSFlagFreeList      0x4               ../DECA_socket_server_bsp/\libucosii_bsp.a(os_core.o)
dropline            0x4               ../DECA_socket_server_bsp/\libucosii_bsp.a(tcp_in.o)
OSStatRdy           0x1               ../DECA_socket_server_bsp/\libucosii_bsp.a(os_core.o)
OSTCBPrioTbl        0x54              ../DECA_socket_server_bsp/\libucosii_bsp.a(os_core.o)
igmp_all_rtrs_group
                    0x4               ../DECA_socket_server_bsp/\libucosii_bsp.a(igmp_cmn.o)
alt_envsem          0x4               ../DECA_socket_server_bsp/\libucosii_bsp.a(alt_env_lock.o)
OSIdleCtrRun        0x4               ../DECA_socket_server_bsp/\libucosii_bsp.a(os_core.o)

Memory Configuration

Name             Origin             Length             Attributes
reset            0x0000000000000000 0x0000000000000020
mem_if_ddr3_emif 0x0000000000000020 0x000000001fffffe0
descriptor_memory 0x0000000021040000 0x0000000000001000
*default*        0x0000000000000000 0xffffffffffffffff

Linker script and memory map

LOAD ../DECA_socket_server_bsp//obj/HAL/src/crt0.o
LOAD obj/default/alt_error_handler.o
LOAD obj/default/iniche_init.o
LOAD obj/default/ins_tse/altera_avalon_tse.o
LOAD obj/default/led.o
LOAD obj/default/network_utilities.o
LOAD obj/default/simple_socket_server.o
LOAD obj/default/tse_my_system.o
LOAD c:/altera/15.0/nios2eds/bin/gnu/h-x86_64-mingw32/bin/../lib/gcc/nios2-elf/4.9.1/../../../../../H-x86_64-mingw32/nios2-elf/lib\libstdc++.a
LOAD c:/altera/15.0/nios2eds/bin/gnu/h-x86_64-mingw32/bin/../lib/gcc/nios2-elf/4.9.1/../../../../../H-x86_64-mingw32/nios2-elf/lib\libm.a
LOAD c:/altera/15.0/nios2eds/bin/gnu/h-x86_64-mingw32/bin/../lib/gcc/nios2-elf/4.9.1\libgcc.a
START GROUP
LOAD c:/altera/15.0/nios2eds/bin/gnu/h-x86_64-mingw32/bin/../lib/gcc/nios2-elf/4.9.1/../../../../../H-x86_64-mingw32/nios2-elf/lib\libc.a
LOAD c:/altera/15.0/nios2eds/bin/gnu/h-x86_64-mingw32/bin/../lib/gcc/nios2-elf/4.9.1\libgcc.a
LOAD ../DECA_socket_server_bsp/\libucosii_bsp.a
LOAD c:/altera/15.0/nios2eds/bin/gnu/h-x86_64-mingw32/bin/../lib/gcc/nios2-elf/4.9.1/../../../../../H-x86_64-mingw32/nios2-elf/lib\libm.a
END GROUP
LOAD c:/altera/15.0/nios2eds/bin/gnu/h-x86_64-mingw32/bin/../lib/gcc/nios2-elf/4.9.1\libgcc.a
                0x0000000000000000                __alt_mem_mem_if_ddr3_emif = 0x0
                0x0000000021040000                __alt_mem_descriptor_memory = 0x21040000

.entry          0x0000000000000000       0x20
 *(.entry)
 .entry         0x0000000000000000       0x20 ../DECA_socket_server_bsp//obj/HAL/src/crt0.o
                0x0000000000000000                __reset

.exceptions     0x0000000000000020      0x220
                0x0000000000000020                PROVIDE (__ram_exceptions_start, ABSOLUTE (.))
                0x0000000000000020                . = ALIGN (0x20)
 *(.irq)
 *(.exceptions.entry.label)
 .exceptions.entry.label
                0x0000000000000020        0x0 ../DECA_socket_server_bsp/\libucosii_bsp.a(alt_irq_entry.o)
                0x0000000000000020                alt_irq_entry
 .exceptions.entry.label
                0x0000000000000020        0x0 ../DECA_socket_server_bsp/\libucosii_bsp.a(alt_exception_entry.o)
                0x0000000000000020                alt_exception
 *(.exceptions.entry.user)
 *(.exceptions.entry.ecc_fatal)
 *(.exceptions.entry)
 .exceptions.entry
                0x0000000000000020       0x54 ../DECA_socket_server_bsp/\libucosii_bsp.a(alt_exception_entry.o)
 *(.exceptions.irqtest.user)
 *(.exceptions.irqtest)
 .exceptions.irqtest
                0x0000000000000074       0x10 ../DECA_socket_server_bsp/\libucosii_bsp.a(alt_irq_entry.o)
 *(.exceptions.irqhandler.user)
 *(.exceptions.irqhandler)
 .exceptions.irqhandler
                0x0000000000000084        0x4 ../DECA_socket_server_bsp/\libucosii_bsp.a(alt_irq_entry.o)
 *(.exceptions.irqreturn.user)
 *(.exceptions.irqreturn)
 .exceptions.irqreturn
                0x0000000000000088        0x4 ../DECA_socket_server_bsp/\libucosii_bsp.a(alt_irq_entry.o)
 *(.exceptions.notirq.label)
 .exceptions.notirq.label
                0x000000000000008c        0x0 ../DECA_socket_server_bsp/\libucosii_bsp.a(alt_irq_entry.o)
 *(.exceptions.notirq.user)
 *(.exceptions.notirq)
 .exceptions.notirq
                0x000000000000008c        0x8 ../DECA_socket_server_bsp/\libucosii_bsp.a(alt_exception_entry.o)
 *(.exceptions.soft.user)
 *(.exceptions.soft)
 *(.exceptions.unknown.user)
 *(.exceptions.unknown)
 .exceptions.unknown
                0x0000000000000094       0x14 ../DECA_socket_server_bsp/\libucosii_bsp.a(alt_exception_entry.o)
 *(.exceptions.exit.label)
 .exceptions.exit.label
                0x00000000000000a8        0x0 ../DECA_socket_server_bsp/\libucosii_bsp.a(alt_irq_entry.o)
 .exceptions.exit.label
                0x00000000000000a8        0x0 ../DECA_socket_server_bsp/\libucosii_bsp.a(alt_exception_entry.o)
 *(.exceptions.exit.user)
 *(.exceptions.exit)
 .exceptions.exit
                0x00000000000000a8       0x54 ../DECA_socket_server_bsp/\libucosii_bsp.a(alt_exception_entry.o)
 *(.exceptions)
 .exceptions    0x00000000000000fc       0xd0 ../DECA_socket_server_bsp/\libucosii_bsp.a(alt_irq_handler.o)
                0x00000000000000fc                alt_irq_handler
 .exceptions    0x00000000000001cc       0x74 ../DECA_socket_server_bsp/\libucosii_bsp.a(alt_instruction_exception_entry.o)
                0x00000000000001cc                alt_instruction_exception_entry
                0x0000000000000240                PROVIDE (__ram_exceptions_end, ABSOLUTE (.))
                0x0000000000000020                PROVIDE (__flash_exceptions_start, LOADADDR (.exceptions))

.text           0x0000000000000240    0x49eb0
                0x0000000000000240                PROVIDE (stext, ABSOLUTE (.))
 *(.interp)
 *(.hash)
 *(.dynsym)
 *(.dynstr)
 *(.gnu.version)
 *(.gnu.version_d)
 *(.gnu.version_r)
 *(.rel.init)
 *(.rela.init)
 *(.rel.text .rel.text.* .rel.gnu.linkonce.t.*)
 *(.rela.text .rela.text.* .rela.gnu.linkonce.t.*)
 *(.rel.fini)
 *(.rela.fini)
 *(.rel.rodata .rel.rodata.* .rel.gnu.linkonce.r.*)
 *(.rela.rodata .rela.rodata.* .rela.gnu.linkonce.r.*)
 *(.rel.data .rel.data.* .rel.gnu.linkonce.d.*)
 *(.rela.data .rela.data.* .rela.gnu.linkonce.d.*)
 *(.rel.tdata .rel.tdata.* .rel.gnu.linkonce.td.*)
 *(.rela.tdata .rela.tdata.* .rela.gnu.linkonce.td.*)
 *(.rel.tbss .rel.tbss.* .rel.gnu.linkonce.tb.*)
 *(.rela.tbss .rela.tbss.* .rela.gnu.linkonce.tb.*)
 *(.rel.ctors)
 *(.rela.ctors)
 *(.rel.dtors)
 *(.rela.dtors)
 *(.rel.got)
 *(.rela.got)
 *(.rel.sdata .rel.sdata.* .rel.gnu.linkonce.s.*)
 *(.rela.sdata .rela.sdata.* .rela.gnu.linkonce.s.*)
 *(.rel.sbss .rel.sbss.* .rel.gnu.linkonce.sb.*)
 *(.rela.sbss .rela.sbss.* .rela.gnu.linkonce.sb.*)
 *(.rel.sdata2 .rel.sdata2.* .rel.gnu.linkonce.s2.*)
 *(.rela.sdata2 .rela.sdata2.* .rela.gnu.linkonce.s2.*)
 *(.rel.sbss2 .rel.sbss2.* .rel.gnu.linkonce.sb2.*)
 *(.rela.sbss2 .rela.sbss2.* .rela.gnu.linkonce.sb2.*)
 *(.rel.bss .rel.bss.* .rel.gnu.linkonce.b.*)
 *(.rela.bss .rela.bss.* .rela.gnu.linkonce.b.*)
 *(.rel.plt)
 *(.rela.plt)
 *(.rel.dyn)
 *(.init)
 *(.plt)
 *(.text .stub .text.* .gnu.linkonce.t.*)
 .text          0x0000000000000240       0x4c ../DECA_socket_server_bsp//obj/HAL/src/crt0.o
                0x0000000000000240                _start
 .text          0x000000000000028c      0xbf8 obj/default/alt_error_handler.o
                0x000000000000028c                alt_uCOSIIErrorHandler
                0x00000000000008d0                alt_NetworkErrorHandler
                0x0000000000000b8c                alt_SSSErrorHandler
 .text          0x0000000000000e84       0xf8 obj/default/iniche_init.o
                0x0000000000000e84                SSSInitialTask
                0x0000000000000efc                main
 .text          0x0000000000000f7c     0x503c obj/default/ins_tse/altera_avalon_tse.o
                0x0000000000000f7c                no_printf
                0x0000000000000fa8                tse_mac_initTransInfo2
                0x0000000000001008                tse_mac_sTxWrite
                0x00000000000010ec                tse_mac_aRxRead
                0x0000000000001194                tse_mac_SwReset
                0x000000000000121c                tse_mac_setMIImode
                0x0000000000001270                tse_mac_setGMIImode
                0x00000000000012c0                alt_tse_phy_add_profile
                0x00000000000014a4                alt_tse_system_add_sys
                0x0000000000001ea0                alt_tse_sys_enable_mdio_sharing
                0x0000000000002008                alt_tse_mac_get_common_speed
                0x0000000000002048                alt_tse_mac_set_common_speed
                0x0000000000002090                alt_tse_get_system_index
                0x00000000000020fc                alt_tse_get_mac_group_index
                0x0000000000002170                alt_tse_get_mac_info_index
                0x00000000000021f0                alt_tse_get_mac_info
                0x00000000000022c8                alt_tse_mac_set_speed
                0x00000000000023a8                alt_tse_mac_set_duplex
                0x0000000000002434                getPHYSpeed
                0x0000000000002ea0                alt_tse_phy_rd_mdio_addr
                0x0000000000002ee8                alt_tse_phy_wr_mdio_addr
                0x0000000000002f40                alt_tse_phy_wr_mdio_reg
                0x0000000000003068                alt_tse_phy_rd_mdio_reg
                0x0000000000003134                alt_tse_phy_add_profile_default
                0x00000000000033f8                alt_tse_phy_print_profile
                0x0000000000003608                alt_tse_mac_group_init
                0x0000000000003ca8                alt_tse_mac_get_phy
                0x00000000000040c4                alt_tse_mac_associate_phy
                0x0000000000004304                alt_tse_phy_cfg_pcs
                0x000000000000442c                alt_tse_phy_init
                0x0000000000004544                alt_tse_phy_restart_an
                0x0000000000004700                alt_tse_phy_check_link
                0x0000000000004860                alt_tse_phy_get_cap
                0x0000000000004df8                alt_tse_phy_set_adv_1000
                0x0000000000004fb4                alt_tse_phy_set_adv_100
                0x00000000000051fc                alt_tse_phy_set_adv_10
                0x00000000000053a4                alt_tse_phy_get_common_speed
                0x00000000000056c4                alt_tse_phy_set_common_speed
                0x0000000000005b78                marvell_phy_cfg
                0x0000000000005c10                marvell_cfg_gmii
                0x0000000000005cf4                marvell_cfg_sgmii
                0x0000000000005dd8                marvell_cfg_rgmii
                0x0000000000005ec8                DP83848C_link_status_read
                0x0000000000005f40                DP83620_link_status_read
 .text          0x0000000000005fb8      0x398 obj/default/led.o
                0x0000000000005fb8                led_bit_toggle
                0x00000000000060dc                LED7SegLightshowTask
                0x0000000000006160                LEDManagementTask
 .text          0x0000000000006350      0x520 obj/default/network_utilities.o
                0x0000000000006350                get_mac_addr
                0x00000000000063a4                get_ip_addr
                0x0000000000006410                get_serial_number
                0x00000000000065e4                generate_and_store_mac_addr
                0x000000000000660c                generate_mac_addr
                0x0000000000006744                get_board_mac_addr
                0x0000000000006848                FindLastFlashSectorOffset
 .text          0x0000000000006870      0x9f0 obj/default/simple_socket_server.o
                0x0000000000006870                SSSCreateOSDataStructs
                0x0000000000006910                SSSCreateTasks
                0x00000000000069dc                sss_reset_connection
                0x0000000000006a4c                sss_send_menu
                0x0000000000006c30                sss_handle_accept
                0x0000000000006cf8                sss_exec_command
                0x0000000000006eb0                sss_handle_receive
                0x000000000000709c                SSSSimpleSocketServerTask
 .text          0x0000000000007260        0x0 obj/default/tse_my_system.o
 .text          0x0000000000007260        0x0 c:/altera/15.0/nios2eds/bin/gnu/h-x86_64-mingw32/bin/../lib/gcc/nios2-elf/4.9.1/../../../../../H-x86_64-mingw32/nios2-elf/lib\libc.a(lib_a-ctype_.o)
 .text          0x0000000000007260       0x4c c:/altera/15.0/nios2eds/bin/gnu/h-x86_64-mingw32/bin/../lib/gcc/nios2-elf/4.9.1/../../../../../H-x86_64-mingw32/nios2-elf/lib\libc.a(lib_a-fprintf.o)
                0x0000000000007260                _fprintf_r
                0x0000000000007288                fprintf
 .text          0x00000000000072ac      0x10c c:/altera/15.0/nios2eds/bin/gnu/h-x86_64-mingw32/bin/../lib/gcc/nios2-elf/4.9.1/../../../../../H-x86_64-mingw32/nios2-elf/lib\libc.a(lib_a-fwrite.o)
                0x00000000000072ac                _fwrite_r
                0x0000000000007378                fwrite
 .text          0x00000000000073b8      0x108 c:/altera/15.0/nios2eds/bin/gnu/h-x86_64-mingw32/bin/../lib/gcc/nios2-elf/4.9.1/../../../../../H-x86_64-mingw32/nios2-elf/lib\libc.a(lib_a-getc.o)
                0x00000000000073b8                _getc_r
                0x0000000000007438                getc
 .text          0x00000000000074c0        0x0 c:/altera/15.0/nios2eds/bin/gnu/h-x86_64-mingw32/bin/../lib/gcc/nios2-elf/4.9.1/../../../../../H-x86_64-mingw32/nios2-elf/lib\libc.a(lib_a-impure.o)
 .text          0x00000000000074c0       0x28 c:/altera/15.0/nios2eds/bin/gnu/h-x86_64-mingw32/bin/../lib/gcc/nios2-elf/4.9.1/../../../../../H-x86_64-mingw32/nios2-elf/lib\libc.a(lib_a-malloc.o)
                0x00000000000074c0                malloc
                0x00000000000074d4                free
 .text          0x00000000000074e8      0x7a8 c:/altera/15.0/nios2eds/bin/gnu/h-x86_64-mingw32/bin/../lib/gcc/nios2-elf/4.9.1/../../../../../H-x86_64-mingw32/nios2-elf/lib\libc.a(lib_a-mallocr.o)
                0x00000000000074e8                _malloc_r
 .text          0x0000000000007c90      0x138 c:/altera/15.0/nios2eds/bin/gnu/h-x86_64-mingw32/bin/../lib/gcc/nios2-elf/4.9.1/../../../../../H-x86_64-mingw32/nios2-elf/lib\libc.a(lib_a-memcpy.o)
                0x0000000000007c90                memcpy
 .text          0x0000000000007dc8      0x15c c:/altera/15.0/nios2eds/bin/gnu/h-x86_64-mingw32/bin/../lib/gcc/nios2-elf/4.9.1/../../../../../H-x86_64-mingw32/nios2-elf/lib\libc.a(lib_a-memmove.o)
                0x0000000000007dc8                memmove
 .text          0x0000000000007f24      0x124 c:/altera/15.0/nios2eds/bin/gnu/h-x86_64-mingw32/bin/../lib/gcc/nios2-elf/4.9.1/../../../../../H-x86_64-mingw32/nios2-elf/lib\libc.a(lib_a-memset.o)
                0x0000000000007f24                memset
 .text          0x0000000000008048       0x84 c:/altera/15.0/nios2eds/bin/gnu/h-x86_64-mingw32/bin/../lib/gcc/nios2-elf/4.9.1/../../../../../H-x86_64-mingw32/nios2-elf/lib\libc.a(lib_a-perror.o)
                0x0000000000008048                _perror_r
                0x00000000000080b8                perror
 .text          0x00000000000080cc       0x68 c:/altera/15.0/nios2eds/bin/gnu/h-x86_64-mingw32/bin/../lib/gcc/nios2-elf/4.9.1/../../../../../H-x86_64-mingw32/nios2-elf/lib\libc.a(lib_a-printf.o)
                0x00000000000080cc                _printf_r
                0x00000000000080f8                printf
 .text          0x0000000000008134      0x168 c:/altera/15.0/nios2eds/bin/gnu/h-x86_64-mingw32/bin/../lib/gcc/nios2-elf/4.9.1/../../../../../H-x86_64-mingw32/nios2-elf/lib\libc.a(lib_a-putc.o)
                0x0000000000008134                _putc_r
                0x00000000000081d4                putc
 .text          0x000000000000829c       0x20 c:/altera/15.0/nios2eds/bin/gnu/h-x86_64-mingw32/bin/../lib/gcc/nios2-elf/4.9.1/../../../../../H-x86_64-mingw32/nios2-elf/lib\libc.a(lib_a-putchar.o)
                0x000000000000829c                _putchar_r
                0x00000000000082a4                putchar
 .text          0x00000000000082bc       0xcc c:/altera/15.0/nios2eds/bin/gnu/h-x86_64-mingw32/bin/../lib/gcc/nios2-elf/4.9.1/../../../../../H-x86_64-mingw32/nios2-elf/lib\libc.a(lib_a-puts.o)
                0x00000000000082bc                _puts_r
                0x0000000000008374                puts
 .text          0x0000000000008388       0x88 c:/altera/15.0/nios2eds/bin/gnu/h-x86_64-mingw32/bin/../lib/gcc/nios2-elf/4.9.1/../../../../../H-x86_64-mingw32/nios2-elf/lib\libc.a(lib_a-rget.o)
                0x0000000000008388                __srget_r
                0x00000000000083fc                __srget
 .text          0x0000000000008410       0x54 c:/altera/15.0/nios2eds/bin/gnu/h-x86_64-mingw32/bin/../lib/gcc/nios2-elf/4.9.1/../../../../../H-x86_64-mingw32/nios2-elf/lib\libc.a(lib_a-sbrkr.o)
                0x0000000000008410                _sbrk_r
 .text          0x0000000000008464       0xc4 c:/altera/15.0/nios2eds/bin/gnu/h-x86_64-mingw32/bin/../lib/gcc/nios2-elf/4.9.1/../../../../../H-x86_64-mingw32/nios2-elf/lib\libc.a(lib_a-sprintf.o)
                0x0000000000008464                _sprintf_r
                0x00000000000084bc                sprintf
 .text          0x0000000000008528      0x164 c:/altera/15.0/nios2eds/bin/gnu/h-x86_64-mingw32/bin/../lib/gcc/nios2-elf/4.9.1/../../../../../H-x86_64-mingw32/nios2-elf/lib\libc.a(lib_a-strchr.o)
                0x0000000000008528                strchr
 .text          0x000000000000868c       0x90 c:/altera/15.0/nios2eds/bin/gnu/h-x86_64-mingw32/bin/../lib/gcc/nios2-elf/4.9.1/../../../../../H-x86_64-mingw32/nios2-elf/lib\libc.a(lib_a-strcpy.o)
                0x000000000000868c                strcpy
 .text          0x000000000000871c      0x5ec c:/altera/15.0/nios2eds/bin/gnu/h-x86_64-mingw32/bin/../lib/gcc/nios2-elf/4.9.1/../../../../../H-x86_64-mingw32/nios2-elf/lib\libc.a(lib_a-strerror.o)
                0x000000000000871c                strerror
 .text          0x0000000000008d08       0x98 c:/altera/15.0/nios2eds/bin/gnu/h-x86_64-mingw32/bin/../lib/gcc/nios2-elf/4.9.1/../../../../../H-x86_64-mingw32/nios2-elf/lib\libc.a(lib_a-strlen.o)
                0x0000000000008d08                strlen
 .text          0x0000000000008da0     0x1f90 c:/altera/15.0/nios2eds/bin/gnu/h-x86_64-mingw32/bin/../lib/gcc/nios2-elf/4.9.1/../../../../../H-x86_64-mingw32/nios2-elf/lib\libc.a(lib_a-svfprintf.o)
                0x0000000000008da0                ___svfprintf_internal_r
 .text          0x000000000000ad30        0x8 c:/altera/15.0/nios2eds/bin/gnu/h-x86_64-mingw32/bin/../lib/gcc/nios2-elf/4.9.1/../../../../../H-x86_64-mingw32/nios2-elf/lib\libc.a(lib_a-u_strerr.o)
                0x000000000000ad30                _user_strerror
 .text          0x000000000000ad38     0x2020 c:/altera/15.0/nios2eds/bin/gnu/h-x86_64-mingw32/bin/../lib/gcc/nios2-elf/4.9.1/../../../../../H-x86_64-mingw32/nios2-elf/lib\libc.a(lib_a-vfprintf.o)
                0x000000000000ad38                ___vfprintf_internal_r
                0x000000000000cd34                __vfprintf_internal
 .text          0x000000000000cd58      0x170 c:/altera/15.0/nios2eds/bin/gnu/h-x86_64-mingw32/bin/../lib/gcc/nios2-elf/4.9.1/../../../../../H-x86_64-mingw32/nios2-elf/lib\libc.a(lib_a-wbuf.o)
                0x000000000000cd58                __swbuf_r
                0x000000000000ceac                __swbuf
 .text          0x000000000000cec8      0x130 c:/altera/15.0/nios2eds/bin/gnu/h-x86_64-mingw32/bin/../lib/gcc/nios2-elf/4.9.1/../../../../../H-x86_64-mingw32/nios2-elf/lib\libc.a(lib_a-wsetup.o)
                0x000000000000cec8                __swsetup_r
 .text          0x000000000000cff8     0x1928 c:/altera/15.0/nios2eds/bin/gnu/h-x86_64-mingw32/bin/../lib/gcc/nios2-elf/4.9.1/../../../../../H-x86_64-mingw32/nios2-elf/lib\libc.a(lib_a-dtoa.o)
                0x000000000000d1f8                _dtoa_r
 .text          0x000000000000e920      0x258 c:/altera/15.0/nios2eds/bin/gnu/h-x86_64-mingw32/bin/../lib/gcc/nios2-elf/4.9.1/../../../../../H-x86_64-mingw32/nios2-elf/lib\libc.a(lib_a-fflush.o)
                0x000000000000e920                _fflush_r
                0x000000000000eb48                fflush
 .text          0x000000000000eb78      0x3a0 c:/altera/15.0/nios2eds/bin/gnu/h-x86_64-mingw32/bin/../lib/gcc/nios2-elf/4.9.1/../../../../../H-x86_64-mingw32/nios2-elf/lib\libc.a(lib_a-findfp.o)
                0x000000000000eb88                _cleanup_r
                0x000000000000ed34                __sfmoreglue
                0x000000000000ed98                __sfp
                0x000000000000eeb0                _cleanup
                0x000000000000eec8                __sinit
                0x000000000000eed8                __sfp_lock_acquire
                0x000000000000eedc                __sfp_lock_release
                0x000000000000eee0                __sinit_lock_acquire
                0x000000000000eee4                __sinit_lock_release
                0x000000000000eee8                __fp_lock_all
                0x000000000000ef00                __fp_unlock_all
 .text          0x000000000000ef18       0x9c c:/altera/15.0/nios2eds/bin/gnu/h-x86_64-mingw32/bin/../lib/gcc/nios2-elf/4.9.1/../../../../../H-x86_64-mingw32/nios2-elf/lib\libc.a(lib_a-fputc.o)
                0x000000000000ef18                _fputc_r
                0x000000000000ef5c                fputc
 .text          0x000000000000efb4       0xb8 c:/altera/15.0/nios2eds/bin/gnu/h-x86_64-mingw32/bin/../lib/gcc/nios2-elf/4.9.1/../../../../../H-x86_64-mingw32/nios2-elf/lib\libc.a(lib_a-fputs.o)
                0x000000000000efb4                _fputs_r
                0x000000000000f050                fputs
 .text          0x000000000000f06c      0x414 c:/altera/15.0/nios2eds/bin/gnu/h-x86_64-mingw32/bin/../lib/gcc/nios2-elf/4.9.1/../../../../../H-x86_64-mingw32/nios2-elf/lib\libc.a(lib_a-freer.o)
                0x000000000000f06c                _malloc_trim_r
                0x000000000000f190                _free_r
 .text          0x000000000000f480      0x4a4 c:/altera/15.0/nios2eds/bin/gnu/h-x86_64-mingw32/bin/../lib/gcc/nios2-elf/4.9.1/../../../../../H-x86_64-mingw32/nios2-elf/lib\libc.a(lib_a-fvwrite.o)
                0x000000000000f480                __sfvwrite_r
 .text          0x000000000000f924      0x170 c:/altera/15.0/nios2eds/bin/gnu/h-x86_64-mingw32/bin/../lib/gcc/nios2-elf/4.9.1/../../../../../H-x86_64-mingw32/nios2-elf/lib\libc.a(lib_a-fwalk.o)
                0x000000000000f924                _fwalk
                0x000000000000f9dc                _fwalk_reent
 .text          0x000000000000fa94        0x0 c:/altera/15.0/nios2eds/bin/gnu/h-x86_64-mingw32/bin/../lib/gcc/nios2-elf/4.9.1/../../../../../H-x86_64-mingw32/nios2-elf/lib\libc.a(lib_a-int_errno.o)
 .text          0x000000000000fa94       0xe0 c:/altera/15.0/nios2eds/bin/gnu/h-x86_64-mingw32/bin/../lib/gcc/nios2-elf/4.9.1/../../../../../H-x86_64-mingw32/nios2-elf/lib\libc.a(lib_a-locale.o)
                0x000000000000fa94                _setlocale_r
                0x000000000000fb10                __locale_charset
                0x000000000000fb1c                __locale_mb_cur_max
                0x000000000000fb2c                __locale_msgcharset
                0x000000000000fb38                __locale_cjk_lang
                0x000000000000fb40                _localeconv_r
                0x000000000000fb4c                setlocale
                0x000000000000fb68                localeconv
 .text          0x000000000000fb74      0x1b8 c:/altera/15.0/nios2eds/bin/gnu/h-x86_64-mingw32/bin/../lib/gcc/nios2-elf/4.9.1/../../../../../H-x86_64-mingw32/nios2-elf/lib\libc.a(lib_a-makebuf.o)
                0x000000000000fb74                __smakebuf_r
 .text          0x000000000000fd2c       0xe8 c:/altera/15.0/nios2eds/bin/gnu/h-x86_64-mingw32/bin/../lib/gcc/nios2-elf/4.9.1/../../../../../H-x86_64-mingw32/nios2-elf/lib\libc.a(lib_a-memchr.o)
                0x000000000000fd2c                memchr
 .text          0x000000000000fe14      0xf8c c:/altera/15.0/nios2eds/bin/gnu/h-x86_64-mingw32/bin/../lib/gcc/nios2-elf/4.9.1/../../../../../H-x86_64-mingw32/nios2-elf/lib\libc.a(lib_a-mprec.o)
                0x000000000000fe14                _Balloc
                0x000000000000febc                _Bfree
                0x000000000000fee4                __multadd
                0x000000000000fff8                __s2b
                0x00000000000100fc                __hi0bits
                0x0000000000010164                __lo0bits
                0x0000000000010214                __i2b
                0x0000000000010250                __multiply
                0x000000000001044c                __pow5mult
                0x000000000001058c                __lshift
                0x00000000000106d4                __mcmp
                0x0000000000010734                __mdiff
                0x00000000000108cc                __ulp
                0x000000000001092c                __b2d
                0x0000000000010a48                __d2b
                0x0000000000010b84                __ratio
                0x0000000000010c28                _mprec_log10
                0x0000000000010c9c                __copybits
                0x0000000000010d14                __any_on
 .text          0x0000000000010da0      0x5a0 c:/altera/15.0/nios2eds/bin/gnu/h-x86_64-mingw32/bin/../lib/gcc/nios2-elf/4.9.1/../../../../../H-x86_64-mingw32/nios2-elf/lib\libc.a(lib_a-reallocr.o)
                0x0000000000010da0                _realloc_r
 .text          0x0000000000011340      0x1c4 c:/altera/15.0/nios2eds/bin/gnu/h-x86_64-mingw32/bin/../lib/gcc/nios2-elf/4.9.1/../../../../../H-x86_64-mingw32/nios2-elf/lib\libc.a(lib_a-refill.o)
                0x000000000001135c                __srefill_r
 .text          0x0000000000011504       0x74 c:/altera/15.0/nios2eds/bin/gnu/h-x86_64-mingw32/bin/../lib/gcc/nios2-elf/4.9.1/../../../../../H-x86_64-mingw32/nios2-elf/lib\libc.a(lib_a-s_fpclassify.o)
                0x0000000000011504                __fpclassifyd
 .text          0x0000000000011578      0x13c c:/altera/15.0/nios2eds/bin/gnu/h-x86_64-mingw32/bin/../lib/gcc/nios2-elf/4.9.1/../../../../../H-x86_64-mingw32/nios2-elf/lib\libc.a(lib_a-stdio.o)
                0x0000000000011578                __sread
                0x00000000000115cc                __seofread
                0x00000000000115d4                __swrite
                0x0000000000011650                __sseek
                0x00000000000116ac                __sclose
 .text          0x00000000000116b4       0xa4 c:/altera/15.0/nios2eds/bin/gnu/h-x86_64-mingw32/bin/../lib/gcc/nios2-elf/4.9.1/../../../../../H-x86_64-mingw32/nios2-elf/lib\libc.a(lib_a-strcmp.o)
                0x00000000000116b4                strcmp
 .text          0x0000000000011758     0x1230 c:/altera/15.0/nios2eds/bin/gnu/h-x86_64-mingw32/bin/../lib/gcc/nios2-elf/4.9.1/../../../../../H-x86_64-mingw32/nios2-elf/lib\libc.a(lib_a-svfiprintf.o)
                0x0000000000011758                __ssprint_r
                0x0000000000011920                ___svfiprintf_internal_r
 .text          0x0000000000012988     0x1494 c:/altera/15.0/nios2eds/bin/gnu/h-x86_64-mingw32/bin/../lib/gcc/nios2-elf/4.9.1/../../../../../H-x86_64-mingw32/nios2-elf/lib\libc.a(lib_a-vfiprintf.o)
                0x0000000000012a84                __sprint_r
                0x0000000000012a9c                ___vfiprintf_internal_r
                0x0000000000013df8                __vfiprintf_internal
 .text          0x0000000000013e1c       0x5c c:/altera/15.0/nios2eds/bin/gnu/h-x86_64-mingw32/bin/../lib/gcc/nios2-elf/4.9.1/../../../../../H-x86_64-mingw32/nios2-elf/lib\libc.a(lib_a-writer.o)
                0x0000000000013e1c                _write_r
 .text          0x0000000000013e78       0x54 c:/altera/15.0/nios2eds/bin/gnu/h-x86_64-mingw32/bin/../lib/gcc/nios2-elf/4.9.1/../../../../../H-x86_64-mingw32/nios2-elf/lib\libc.a(closer.o)
                0x0000000000013e78                _close_r
 .text          0x0000000000013ecc       0xc4 c:/altera/15.0/nios2eds/bin/gnu/h-x86_64-mingw32/bin/../lib/gcc/nios2-elf/4.9.1/../../../../../H-x86_64-mingw32/nios2-elf/lib\libc.a(lib_a-callocr.o)
                0x0000000000013ecc                _calloc_r
 .text          0x0000000000013f90      0x114 c:/altera/15.0/nios2eds/bin/gnu/h-x86_64-mingw32/bin/../lib/gcc/nios2-elf/4.9.1/../../../../../H-x86_64-mingw32/nios2-elf/lib\libc.a(lib_a-fclose.o)
                0x0000000000013f90                _fclose_r
                0x0000000000014090                fclose
 .text          0x00000000000140a4      0x1dc c:/altera/15.0/nios2eds/bin/gnu/h-x86_64-mingw32/bin/../lib/gcc/nios2-elf/4.9.1/../../../../../H-x86_64-mingw32/nios2-elf/lib\libc.a(lib_a-fputwc.o)
                0x00000000000140a4                _fputwc_r
                0x0000000000014228                fputwc
 .text          0x0000000000014280       0x58 c:/altera/15.0/nios2eds/bin/gnu/h-x86_64-mingw32/bin/../lib/gcc/nios2-elf/4.9.1/../../../../../H-x86_64-mingw32/nios2-elf/lib\libc.a(lib_a-fstatr.o)
                0x0000000000014280                _fstat_r
 .text          0x00000000000142d8       0x54 c:/altera/15.0/nios2eds/bin/gnu/h-x86_64-mingw32/bin/../lib/gcc/nios2-elf/4.9.1/../../../../../H-x86_64-mingw32/nios2-elf/lib\libc.a(lib_a-isattyr.o)
                0x00000000000142d8                _isatty_r
 .text          0x000000000001432c       0x5c c:/altera/15.0/nios2eds/bin/gnu/h-x86_64-mingw32/bin/../lib/gcc/nios2-elf/4.9.1/../../../../../H-x86_64-mingw32/nios2-elf/lib\libc.a(lib_a-lseekr.o)
                0x000000000001432c                _lseek_r
 .text          0x0000000000014388       0x5c c:/altera/15.0/nios2eds/bin/gnu/h-x86_64-mingw32/bin/../lib/gcc/nios2-elf/4.9.1/../../../../../H-x86_64-mingw32/nios2-elf/lib\libc.a(lib_a-readr.o)
                0x0000000000014388                _read_r
 .text          0x00000000000143e4      0x174 c:/altera/15.0/nios2eds/bin/gnu/h-x86_64-mingw32/bin/../lib/gcc/nios2-elf/4.9.1/../../../../../H-x86_64-mingw32/nios2-elf/lib\libc.a(lib_a-wcrtomb.o)
                0x00000000000143e4                _wcrtomb_r
                0x0000000000014480                wcrtomb
 .text          0x0000000000014558       0x8c c:/altera/15.0/nios2eds/bin/gnu/h-x86_64-mingw32/bin/../lib/gcc/nios2-elf/4.9.1/../../../../../H-x86_64-mingw32/nios2-elf/lib\libc.a(lib_a-wctomb_r.o)
                0x0000000000014558                __ascii_wctomb
                0x0000000000014588                _wctomb_r
 .text          0x00000000000145e4      0x5c0 c:/altera/15.0/nios2eds/bin/gnu/h-x86_64-mingw32/bin/../lib/gcc/nios2-elf/4.9.1\libgcc.a(_udivdi3.o)
                0x00000000000145e4                __udivdi3
 .text          0x0000000000014ba4      0x590 c:/altera/15.0/nios2eds/bin/gnu/h-x86_64-mingw32/bin/../lib/gcc/nios2-elf/4.9.1\libgcc.a(_umoddi3.o)
                0x0000000000014ba4                __umoddi3
 .text          0x0000000000015134      0x12c c:/altera/15.0/nios2eds/bin/gnu/h-x86_64-mingw32/bin/../lib/gcc/nios2-elf/4.9.1\libgcc.a(lib2-divmod.o)
                0x00000000000151a0                __divsi3
                0x00000000000151f4                __modsi3
                0x0000000000015250                __udivsi3
                0x0000000000015258                __umodsi3
 .text          0x0000000000015260      0x89c c:/altera/15.0/nios2eds/bin/gnu/h-x86_64-mingw32/bin/../lib/gcc/nios2-elf/4.9.1\libgcc.a(adddf3.o)
                0x0000000000015260                __adddf3
 .text          0x0000000000015afc      0x8cc c:/altera/15.0/nios2eds/bin/gnu/h-x86_64-mingw32/bin/../lib/gcc/nios2-elf/4.9.1\libgcc.a(divdf3.o)
                0x0000000000015afc                __divdf3
 .text          0x00000000000163c8       0x84 c:/altera/15.0/nios2eds/bin/gnu/h-x86_64-mingw32/bin/../lib/gcc/nios2-elf/4.9.1\libgcc.a(eqdf2.o)
                0x00000000000163c8                __nedf2
                0x00000000000163c8                __eqdf2
 .text          0x000000000001644c       0xe0 c:/altera/15.0/nios2eds/bin/gnu/h-x86_64-mingw32/bin/../lib/gcc/nios2-elf/4.9.1\libgcc.a(gedf2.o)
                0x000000000001644c                __gedf2
                0x000000000001644c                __gtdf2
 .text          0x000000000001652c       0xe0 c:/altera/15.0/nios2eds/bin/gnu/h-x86_64-mingw32/bin/../lib/gcc/nios2-elf/4.9.1\libgcc.a(ledf2.o)
                0x000000000001652c                __ledf2
                0x000000000001652c                __ltdf2
 .text          0x000000000001660c      0x724 c:/altera/15.0/nios2eds/bin/gnu/h-x86_64-mingw32/bin/../lib/gcc/nios2-elf/4.9.1\libgcc.a(muldf3.o)
                0x000000000001660c                __muldf3
 .text          0x0000000000016d30      0x8d0 c:/altera/15.0/nios2eds/bin/gnu/h-x86_64-mingw32/bin/../lib/gcc/nios2-elf/4.9.1\libgcc.a(subdf3.o)
                0x0000000000016d30                __subdf3
 .text          0x0000000000017600       0x88 c:/altera/15.0/nios2eds/bin/gnu/h-x86_64-mingw32/bin/../lib/gcc/nios2-elf/4.9.1\libgcc.a(fixdfsi.o)
                0x0000000000017600                __fixdfsi
 .text          0x0000000000017688       0xd0 c:/altera/15.0/nios2eds/bin/gnu/h-x86_64-mingw32/bin/../lib/gcc/nios2-elf/4.9.1\libgcc.a(floatsidf.o)
                0x0000000000017688                __floatsidf
 .text          0x0000000000017758       0xa4 c:/altera/15.0/nios2eds/bin/gnu/h-x86_64-mingw32/bin/../lib/gcc/nios2-elf/4.9.1\libgcc.a(floatunsidf.o)
                0x0000000000017758                __floatunsidf
 .text          0x00000000000177fc        0x0 c:/altera/15.0/nios2eds/bin/gnu/h-x86_64-mingw32/bin/../lib/gcc/nios2-elf/4.9.1\libgcc.a(_clz.o)
 .text          0x00000000000177fc       0x64 c:/altera/15.0/nios2eds/bin/gnu/h-x86_64-mingw32/bin/../lib/gcc/nios2-elf/4.9.1\libgcc.a(_clzsi2.o)
                0x00000000000177fc                __clzsi2
 .text          0x0000000000017860      0x100 ../DECA_socket_server_bsp/\libucosii_bsp.a(alt_fstat.o)
                0x00000000000178b0                fstat
 .text          0x0000000000017960       0xf4 ../DECA_socket_server_bsp/\libucosii_bsp.a(alt_isatty.o)
                0x00000000000179b0                isatty
 .text          0x0000000000017a54       0xe4 ../DECA_socket_server_bsp/\libucosii_bsp.a(alt_load.o)
                0x0000000000017ab8                alt_load
 .text          0x0000000000017b38      0x124 ../DECA_socket_server_bsp/\libucosii_bsp.a(alt_lseek.o)
                0x0000000000017b88                lseek
 .text          0x0000000000017c5c       0xd4 ../DECA_socket_server_bsp/\libucosii_bsp.a(alt_main.o)
                0x0000000000017c5c                alt_main
 .text          0x0000000000017d30       0xb0 ../DECA_socket_server_bsp/\libucosii_bsp.a(alt_sbrk.o)
                0x0000000000017d30                sbrk
 .text          0x0000000000017de0      0x124 ../DECA_socket_server_bsp/\libucosii_bsp.a(alt_usleep.o)
                0x0000000000017de0                usleep
 .text          0x0000000000017f04      0x11c ../DECA_socket_server_bsp/\libucosii_bsp.a(alt_env_lock.o)
                0x0000000000017f04                __env_lock
                0x0000000000017fc4                __env_unlock
 .text          0x0000000000018020      0x1f0 ../DECA_socket_server_bsp/\libucosii_bsp.a(alt_malloc_lock.o)
                0x0000000000018020                __malloc_lock
                0x0000000000018140                __malloc_unlock
 .text          0x0000000000018210     0x1fe0 ../DECA_socket_server_bsp/\libucosii_bsp.a(os_core.o)
                0x0000000000018210                OSEventNameGet
                0x0000000000018330                OSEventNameSet
                0x000000000001846c                OSEventPendMulti
                0x0000000000018a7c                OSInit
                0x0000000000018ad0                OSIntEnter
                0x0000000000018b4c                OSIntExit
                0x0000000000018c40                OSSchedLock
                0x0000000000018cc8                OSSchedUnlock
                0x0000000000018da0                OSStart
                0x0000000000018e0c                OSStatInit
                0x0000000000018eb8                OSTimeTick
                0x00000000000190d4                OSVersion
                0x00000000000190f4                OS_Dummy
                0x0000000000019110                OS_EventTaskRdy
                0x00000000000192a8                OS_EventTaskWait
                0x00000000000193b4                OS_EventTaskWaitMulti
                0x0000000000019500                OS_EventTaskRemove
                0x00000000000195b4                OS_EventTaskRemoveMulti
                0x00000000000196b0                OS_EventWaitListInit
                0x0000000000019a74                OS_MemClr
                0x0000000000019ac4                OS_MemCopy
                0x0000000000019b28                OS_Sched
                0x0000000000019c64                OS_StrCopy
                0x0000000000019cd8                OS_StrLen
                0x0000000000019d2c                OS_TaskIdle
                0x0000000000019d88                OS_TaskStat
                0x0000000000019e54                OS_TaskStatStkChk
                0x0000000000019f1c                OS_TCBInit
 .text          0x000000000001a1f0      0x18c ../DECA_socket_server_bsp/\libucosii_bsp.a(os_dbg.o)
                0x000000000001a1f0                OSDebugInit
 .text          0x000000000001a37c     0x181c ../DECA_socket_server_bsp/\libucosii_bsp.a(os_flag.o)
                0x000000000001a37c                OSFlagAccept
                0x000000000001a684                OSFlagCreate
                0x000000000001a7ac                OSFlagDel
                0x000000000001aa1c                OSFlagNameGet
                0x000000000001ab4c                OSFlagNameSet
                0x000000000001ac9c                OSFlagPend
                0x000000000001b28c                OSFlagPendGetFlagsRdy
                0x000000000001b2f4                OSFlagPost
                0x000000000001b67c                OSFlagQuery
                0x000000000001b904                OS_FlagInit
                0x000000000001baf8                OS_FlagUnlink
 .text          0x000000000001bb98      0x784 ../DECA_socket_server_bsp/\libucosii_bsp.a(os_mem.o)
                0x000000000001bb98                OSMemCreate
                0x000000000001bd8c                OSMemGet
                0x000000000001be7c                OSMemNameGet
                0x000000000001bf74                OSMemNameSet
                0x000000000001c08c                OSMemPut
                0x000000000001c164                OSMemQuery
                0x000000000001c24c                OS_MemInit
 .text          0x000000000001c31c     0x1210 ../DECA_socket_server_bsp/\libucosii_bsp.a(os_q.o)
                0x000000000001c31c                OSQAccept
                0x000000000001c45c                OSQCreate
                0x000000000001c658                OSQDel
                0x000000000001c920                OSQFlush
                0x000000000001c9d8                OSQPend
                0x000000000001ccd4                OSQPendAbort
                0x000000000001ce40                OSQPost
                0x000000000001cfa8                OSQPostFront
                0x000000000001d118                OSQPostOpt
                0x000000000001d324                OSQQuery
                0x000000000001d480                OS_QInit
 .text          0x000000000001d52c      0xb08 ../DECA_socket_server_bsp/\libucosii_bsp.a(os_sem.o)
                0x000000000001d52c                OSSemAccept
                0x000000000001d5dc                OSSemCreate
                0x000000000001d6dc                OSSemDel
                0x000000000001d944                OSSemPend
                0x000000000001dbac                OSSemPendAbort
                0x000000000001dd18                OSSemPost
                0x000000000001de28                OSSemQuery
                0x000000000001df38                OSSemSet
 .text          0x000000000001e034     0x18f4 ../DECA_socket_server_bsp/\libucosii_bsp.a(os_task.o)
                0x000000000001e034                OSTaskChangePrio
                0x000000000001e574                OSTaskCreate
                0x000000000001e730                OSTaskCreateExt
                0x000000000001e91c                OSTaskDel
                0x000000000001ecfc                OSTaskDelReq
                0x000000000001ee54                OSTaskNameGet
                0x000000000001effc                OSTaskNameSet
                0x000000000001f1bc                OSTaskResume
                0x000000000001f3b4                OSTaskStkChk
                0x000000000001f57c                OSTaskSuspend
                0x000000000001f790                OSTaskQuery
                0x000000000001f8bc                OS_TaskStkClr
 .text          0x000000000001f928      0x560 ../DECA_socket_server_bsp/\libucosii_bsp.a(os_time.o)
                0x000000000001f928                OSTimeDly
                0x000000000001fa70                OSTimeDlyHMSM
                0x000000000001fbd0                OSTimeDlyResume
                0x000000000001fdc0                OSTimeGet
                0x000000000001fe24                OSTimeSet
 .text          0x000000000001fe88      0x2c8 ../DECA_socket_server_bsp/\libucosii_bsp.a(alt_sys_init.o)
                0x000000000001fec0                alt_irq_init
                0x000000000001fef4                alt_sys_init
 .text          0x0000000000020150      0x164 ../DECA_socket_server_bsp/\libucosii_bsp.a(altera_avalon_jtag_uart_fd.o)
                0x0000000000020150                altera_avalon_jtag_uart_read_fd
                0x00000000000201b0                altera_avalon_jtag_uart_write_fd
                0x0000000000020210                altera_avalon_jtag_uart_close_fd
                0x0000000000020260                altera_avalon_jtag_uart_ioctl_fd
 .text          0x00000000000202b4      0x568 ../DECA_socket_server_bsp/\libucosii_bsp.a(altera_avalon_jtag_uart_init.o)
                0x00000000000202b4                altera_avalon_jtag_uart_init
                0x00000000000207b4                altera_avalon_jtag_uart_close
 .text          0x000000000002081c       0xec ../DECA_socket_server_bsp/\libucosii_bsp.a(altera_avalon_jtag_uart_ioctl.o)
                0x000000000002081c                altera_avalon_jtag_uart_ioctl
 .text          0x0000000000020908      0x2b4 ../DECA_socket_server_bsp/\libucosii_bsp.a(altera_avalon_jtag_uart_read.o)
                0x0000000000020908                altera_avalon_jtag_uart_read
 .text          0x0000000000020bbc      0x2c0 ../DECA_socket_server_bsp/\libucosii_bsp.a(altera_avalon_jtag_uart_write.o)
                0x0000000000020bbc                altera_avalon_jtag_uart_write
 .text          0x0000000000020e7c      0xd70 ../DECA_socket_server_bsp/\libucosii_bsp.a(altera_avalon_sgdma.o)
                0x0000000000020ecc                alt_avalon_sgdma_do_async_transfer
                0x0000000000020ff0                alt_avalon_sgdma_do_sync_transfer
                0x0000000000021100                alt_avalon_sgdma_construct_mem_to_mem_desc
                0x0000000000021170                alt_avalon_sgdma_construct_mem_to_mem_desc_burst
                0x00000000000211f0                alt_avalon_sgdma_construct_stream_to_mem_desc
                0x000000000002124c                alt_avalon_sgdma_construct_stream_to_mem_desc_burst
                0x00000000000212c0                alt_avalon_sgdma_construct_mem_to_stream_desc
                0x0000000000021338                alt_avalon_sgdma_construct_mem_to_stream_desc_burst
                0x00000000000213c0                alt_avalon_sgdma_register_callback
                0x0000000000021410                alt_avalon_sgdma_start
                0x0000000000021464                alt_avalon_sgdma_stop
                0x00000000000214bc                alt_avalon_sgdma_check_descriptor_status
                0x0000000000021520                alt_avalon_sgdma_open
                0x0000000000021574                alt_avalon_sgdma_construct_descriptor
                0x00000000000215fc                alt_avalon_sgdma_enable_desc_poll
                0x000000000002167c                alt_avalon_sgdma_disable_desc_poll
                0x00000000000216dc                alt_avalon_sgdma_construct_descriptor_burst
                0x0000000000021b48                alt_avalon_sgdma_init
 .text          0x0000000000021bec       0xfc ../DECA_socket_server_bsp/\libucosii_bsp.a(altera_avalon_timer_sc.o)
                0x0000000000021c60                alt_avalon_timer_sc_init
 .text          0x0000000000021ce8     0x16c8 ../DECA_socket_server_bsp/\libucosii_bsp.a(ins_tse_mac.o)
                0x0000000000021ce8                altera_eth_tse_init
                0x0000000000021e28                prep_tse_mac
                0x0000000000022088                tse_mac_init
                0x0000000000022ae4                tse_mac_raw_send
                0x0000000000022dcc                tse_sgdmaRx_isr
                0x0000000000022e7c                tse_sgdma_read_init
                0x0000000000023028                tse_mac_rcv
                0x000000000002326c                tse_mac_stats
                0x00000000000232ac                tse_mac_close
 .text          0x00000000000233b0       0x48 ../DECA_socket_server_bsp/\libucosii_bsp.a(alt_iniche_close.o)
                0x00000000000233b0                close
 .text          0x00000000000233f8      0x140 ../DECA_socket_server_bsp/\libucosii_bsp.a(alt_iniche_dev.o)
                0x00000000000233f8                iniche_devices_init
 .text          0x0000000000023538       0x70 ../DECA_socket_server_bsp/\libucosii_bsp.a(alt_iniche_read.o)
                0x0000000000023538                read
 .text          0x00000000000235a8       0x68 ../DECA_socket_server_bsp/\libucosii_bsp.a(alt_iniche_write.o)
                0x00000000000235a8                write
 .text          0x0000000000023610      0xe10 ../DECA_socket_server_bsp/\libucosii_bsp.a(ipnet.o)
                0x0000000000023610                Netinit
                0x0000000000023c08                fixup_subnet_mask
                0x0000000000023d5c                netclose
                0x0000000000023e3c                pktdemux
                0x00000000000241dc                c_older
                0x0000000000024294                ip2mac
 .text          0x0000000000024420      0x464 ../DECA_socket_server_bsp/\libucosii_bsp.a(ipstart.o)
                0x0000000000024420                ip_startup
                0x00000000000246c8                exit_hook
                0x0000000000024734                ip_exit
                0x0000000000024800                if_netnumber
 .text          0x0000000000024884      0xfb4 ../DECA_socket_server_bsp/\libucosii_bsp.a(igmp_cmn.o)
                0x0000000000024884                igmp_init
                0x0000000000024930                igmp_input
                0x0000000000024a10                igmp_fasttimo
                0x0000000000024b90                igmp_send
                0x0000000000024e34                igmp_joingroup
                0x0000000000025088                igmp_leavegroup
                0x0000000000025104                igmp_validate
                0x000000000002541c                igmp_print_stats
 .text          0x0000000000025838      0xa6c ../DECA_socket_server_bsp/\libucosii_bsp.a(bsdsock.o)
                0x0000000000025838                bsd_accept
                0x0000000000025958                bsd_getpeername
                0x0000000000025a78                bsd_getsockname
                0x0000000000025b98                bsd_i_sockoptlen
                0x0000000000025cd4                bsd_getsockopt
                0x0000000000025ddc                bsd_ioctl
                0x0000000000025ecc                bsd_inet_ntoa
                0x0000000000025f00                bsd_recvfrom
                0x0000000000026044                bsd_select
                0x00000000000261c8                bsd_setsockopt
 .text          0x00000000000262a4       0xf8 ../DECA_socket_server_bsp/\libucosii_bsp.a(cksum.o)
                0x00000000000262a4                ccksum
                0x0000000000026348                cksum
 .text          0x000000000002639c      0xa44 ../DECA_socket_server_bsp/\libucosii_bsp.a(in_utils.o)
                0x000000000002639c                do_trap
                0x00000000000263c8                nextarg
                0x0000000000026444                hexdump
                0x0000000000026584                print_ipad
                0x00000000000265f8                print_uptime
                0x0000000000026738                panic
                0x000000000002677c                print_eth
                0x00000000000268d0                uslash
                0x000000000002694c                ns_printf
                0x0000000000026abc                std_out
                0x0000000000026b00                con_page
                0x0000000000026bd8                parse_args
 .text          0x0000000000026de0      0x1a8 ../DECA_socket_server_bsp/\libucosii_bsp.a(netmain.o)
                0x0000000000026de0                netmain
                0x0000000000026ec0                tk_netmain
                0x0000000000026f40                tk_nettick
 .text          0x0000000000026f88      0x5f8 ../DECA_socket_server_bsp/\libucosii_bsp.a(tk_crnos.o)
                0x0000000000026f88                TK_OSTimeDly
                0x0000000000026fb4                TK_OSTaskResume
                0x0000000000027024                tcp_sleep
                0x00000000000271c8                tcp_wakeup
                0x00000000000272cc                TK_OSTaskQuery
                0x0000000000027338                tk_yield
                0x0000000000027364                tk_stats
 .text          0x0000000000027580     0x2c70 ../DECA_socket_server_bsp/\libucosii_bsp.a(dhcpclnt.o)
                0x0000000000027580                dhc_get_srv_ipaddr
                0x0000000000027608                dhc_init
                0x00000000000276b8                dhc_set_callback
                0x00000000000276fc                dhc_upcall
                0x0000000000027eb8                dhc_buildheader
                0x000000000002809c                dhc_discover
                0x0000000000028554                dhc_rx_offer
                0x0000000000028638                dhc_request
                0x00000000000290d4                dhc_setip
                0x0000000000029350                dhc_resetip
                0x0000000000029434                dhc_decline
                0x00000000000295e8                dhc_extract_opts
                0x0000000000029858                dhc_second
                0x0000000000029dc8                dhc_halt
                0x0000000000029e48                dhc_reclaim
                0x000000000002a000                dhc_state_init
                0x000000000002a054                dhc_alldone
                0x000000000002a0dc                dhc_ifacedone
                0x000000000002a144                dhc_set_state
 .text          0x000000000002a1f0       0xc0 ../DECA_socket_server_bsp/\libucosii_bsp.a(dhcputil.o)
                0x000000000002a1f0                find_opt
 .text          0x000000000002a2b0      0x764 ../DECA_socket_server_bsp/\libucosii_bsp.a(pktalloc.o)
                0x000000000002a2b0                pk_init
                0x000000000002a53c                pk_alloc
                0x000000000002a608                pk_validate
                0x000000000002a894                pk_free
                0x000000000002a938                pk_get_max_intrsafe_buf_len
                0x000000000002a958                dump_buf_estats
 .text          0x000000000002aa14      0x264 ../DECA_socket_server_bsp/\libucosii_bsp.a(q.o)
                0x000000000002aa14                getq
                0x000000000002aacc                putq
                0x000000000002ab78                qdel
 .text          0x000000000002ac78      0x2e8 ../DECA_socket_server_bsp/\libucosii_bsp.a(udp_open.o)
                0x000000000002ac78                udp_open
                0x000000000002ae8c                udp_close
 .text          0x000000000002af60      0x194 ../DECA_socket_server_bsp/\libucosii_bsp.a(asm_cksum.o)
                0x000000000002af60                asm_cksum
 .text          0x000000000002b0f4      0x28c ../DECA_socket_server_bsp/\libucosii_bsp.a(brdutils.o)
                0x000000000002b0f4                dtrap
                0x000000000002b124                kbhit
                0x000000000002b1c0                getch
                0x000000000002b224                clock_init
                0x000000000002b260                clock_c
                0x000000000002b27c                cticks_hook
                0x000000000002b2e4                irq_Mask
                0x000000000002b340                irq_Unmask
 .text          0x000000000002b380      0x4a8 ../DECA_socket_server_bsp/\libucosii_bsp.a(osportco.o)
                0x000000000002b380                LOCK_NET_RESOURCE
                0x000000000002b448                UNLOCK_NET_RESOURCE
                0x000000000002b4d0                TK_NEWTASK
                0x000000000002b6f4                wait_app_sem
                0x000000000002b7b0                post_app_sem
 .text          0x000000000002b828      0x598 ../DECA_socket_server_bsp/\libucosii_bsp.a(targnios.o)
                0x000000000002b828                alt_iniche_init
                0x000000000002ba28                pre_task_setup
                0x000000000002ba9c                post_task_setup
                0x000000000002babc                prep_armintcp
                0x000000000002baf4                npalloc_base
                0x000000000002bc00                npfree_base
                0x000000000002bce0                npalloc
                0x000000000002bd14                npfree
                0x000000000002bd50                ncpalloc
                0x000000000002bd84                ncpfree
 .text          0x000000000002bdc0     0x1830 ../DECA_socket_server_bsp/\libucosii_bsp.a(nptcp.o)
                0x000000000002bdc0                pffindtype
                0x000000000002be50                pffindproto
                0x000000000002bf0c                m_getnbuf
                0x000000000002c094                m_free
                0x000000000002c1a4                m_freem
                0x000000000002c1e4                m_copy
                0x000000000002c4d4                m_adj
                0x000000000002c698                mbuf_len
                0x000000000002c6ec                dtom
                0x000000000002c788                remque
                0x000000000002c7f4                insque
                0x000000000002c86c                nptcp_init
                0x000000000002c974                tcp_rcv
                0x000000000002cb44                ip_output
                0x000000000002d110                in_broadcast
                0x000000000002d148                np_stripoptions
                0x000000000002d238                so_icmpdu
                0x000000000002d56c                tcp_tick
 .text          0x000000000002d5f0      0x968 ../DECA_socket_server_bsp/\libucosii_bsp.a(rawsock.o)
                0x000000000002d5f0                rawip_lookup
                0x000000000002d654                rawip_soinput
                0x000000000002d81c                rawip_usrreq
 .text          0x000000000002df58     0x1618 ../DECA_socket_server_bsp/\libucosii_bsp.a(sockcall.o)
                0x000000000002df58                DOMAIN_CHECK
                0x000000000002dfa4                t_socket
                0x000000000002e024                t_bind
                0x000000000002e184                t_listen
                0x000000000002e258                t_accept
                0x000000000002e4a8                t_connect
                0x000000000002e710                t_getpeername
                0x000000000002e754                t_getsockname
                0x000000000002e96c                t_setsockopt
                0x000000000002eb28                t_getsockopt
                0x000000000002ecb0                t_recv
                0x000000000002ed90                t_recvfrom
                0x000000000002eec8                t_sendto
                0x000000000002f0b8                t_send
                0x000000000002f2b8                t_shutdown
                0x000000000002f38c                t_socketclose
                0x000000000002f4d8                t_errno
 .text          0x000000000002f570     0x2034 ../DECA_socket_server_bsp/\libucosii_bsp.a(socket.o)
                0x000000000002f570                socreate
                0x000000000002f724                sobind
                0x000000000002f780                solisten
                0x000000000002f850                sofree
                0x000000000002f96c                soclose
                0x000000000002fc2c                soabort
                0x000000000002fc7c                soaccept
                0x000000000002fd14                soconnect
                0x000000000002fdcc                sodisconnect
                0x000000000002fe64                sosend
                0x00000000000303b0                soreceive
                0x0000000000030af4                soshutdown
                0x0000000000030b8c                sorflush
                0x0000000000030c84                sosetopt
                0x00000000000310b4                sogetopt
                0x000000000003155c                sohasoutofband
 .text          0x00000000000315a4     0x1264 ../DECA_socket_server_bsp/\libucosii_bsp.a(socket2.o)
                0x00000000000315a4                soisconnecting
                0x0000000000031610                soisconnected
                0x0000000000031710                soisdisconnecting
                0x00000000000317a4                soisdisconnected
                0x0000000000031864                sonewconn
                0x0000000000031a78                soqinsque
                0x0000000000031b20                soqremque
                0x0000000000031c2c                socantsendmore
                0x0000000000031c80                socantrcvmore
                0x0000000000031cd4                sbselqueue
                0x0000000000031d0c                sbwait
                0x0000000000031d74                sbwakeup
                0x0000000000031e08                soreserve
                0x0000000000031e90                sbreserve
                0x0000000000031ee0                sbrelease
                0x0000000000031f28                sbappend
                0x0000000000031fc4                sbappendrecord
                0x0000000000032098                sbappendaddr
                0x0000000000032274                sbcompress
                0x000000000003244c                sbflush
                0x00000000000324cc                sbdrop
                0x0000000000032680                sbdropend
                0x000000000003277c                sbdroprecord
 .text          0x0000000000032808      0x88c ../DECA_socket_server_bsp/\libucosii_bsp.a(soselect.o)
                0x0000000000032808                t_select
                0x00000000000329f4                sock_selscan
                0x0000000000032b34                sock_select
                0x0000000000032d18                in_pcbnotify
                0x0000000000032dd8                tcp_notify
                0x0000000000032e54                ifd_clr
                0x0000000000032f44                ifd_set
                0x0000000000032fb8                ifd_isset
                0x0000000000033030                ifd_get
 .text          0x0000000000033094     0x2d8c ../DECA_socket_server_bsp/\libucosii_bsp.a(tcp_in.o)
                0x0000000000033094                tcp_reass
                0x0000000000033498                tcp_input
                0x00000000000357f0                tcp_dooptions
                0x0000000000035964                tcp_pulloutofband
                0x0000000000035a88                tcp_xmit_timer
                0x0000000000035cdc                ip4_tcpmss
                0x0000000000035d28                tcp_mss
 .text          0x0000000000035e20     0x11cc ../DECA_socket_server_bsp/\libucosii_bsp.a(tcp_out.o)
                0x0000000000035e20                tcp_output
                0x0000000000036e28                tcp_setpersist
 .text          0x0000000000036fec      0x948 ../DECA_socket_server_bsp/\libucosii_bsp.a(tcp_subr.o)
                0x0000000000036fec                tcp_init
                0x0000000000037044                tcp_template
                0x000000000003714c                tcp_respond
                0x0000000000037558                tcp_newtcpcb
                0x0000000000037664                tcp_drop
                0x0000000000037710                tcp_close
                0x0000000000037800                tcp_quench
                0x0000000000037848                tcp_putseq
                0x00000000000378c0                tcp_getseq
 .text          0x0000000000037934      0x74c ../DECA_socket_server_bsp/\libucosii_bsp.a(tcp_timr.o)
                0x0000000000037934                tcp_slowtimo
                0x0000000000037bac                tcp_canceltimers
                0x0000000000037c08                tcp_timers
 .text          0x0000000000038080      0x97c ../DECA_socket_server_bsp/\libucosii_bsp.a(tcp_usr.o)
                0x0000000000038080                tcp_usrreq
                0x0000000000038748                tcp_attach
                0x0000000000038860                tcp_disconnect
                0x000000000003892c                tcp_usrclosed
 .text          0x00000000000389fc       0x40 ../DECA_socket_server_bsp/\libucosii_bsp.a(tcpport.o)
                0x00000000000389fc                tcpinit
 .text          0x0000000000038a3c      0xbb4 ../DECA_socket_server_bsp/\libucosii_bsp.a(udpsock.o)
                0x0000000000038a3c                udp_lookup
                0x0000000000038aa0                udp_soinput
                0x0000000000038c40                udp_usrreq
                0x0000000000038e7c                udp4_sockbind
                0x0000000000039154                udp4_socksend
                0x00000000000394c8                udp4_sockaddr
 .text          0x00000000000395f0      0x140 ../DECA_socket_server_bsp/\libucosii_bsp.a(alt_alarm_start.o)
                0x00000000000395f0                alt_alarm_start
 .text          0x0000000000039730      0x158 ../DECA_socket_server_bsp/\libucosii_bsp.a(alt_busy_sleep.o)
                0x0000000000039730                alt_busy_sleep
 .text          0x0000000000039888      0x120 ../DECA_socket_server_bsp/\libucosii_bsp.a(alt_close.o)
                0x00000000000398d8                alt_close
 .text          0x00000000000399a8       0x74 ../DECA_socket_server_bsp/\libucosii_bsp.a(alt_dcache_flush.o)
                0x00000000000399a8                alt_dcache_flush
 .text          0x0000000000039a1c       0x44 ../DECA_socket_server_bsp/\libucosii_bsp.a(alt_dcache_flush_all.o)
                0x0000000000039a1c                alt_dcache_flush_all
 .text          0x0000000000039a60       0x2c ../DECA_socket_server_bsp/\libucosii_bsp.a(alt_dev.o)
 .text          0x0000000000039a8c       0xf4 ../DECA_socket_server_bsp/\libucosii_bsp.a(alt_dev_llist_insert.o)
                0x0000000000039adc                alt_dev_llist_insert
 .text          0x0000000000039b80       0x5c ../DECA_socket_server_bsp/\libucosii_bsp.a(alt_do_ctors.o)
                0x0000000000039b80                _do_ctors
 .text          0x0000000000039bdc       0x5c ../DECA_socket_server_bsp/\libucosii_bsp.a(alt_do_dtors.o)
                0x0000000000039bdc                _do_dtors
 .text          0x0000000000039c38        0x0 ../DECA_socket_server_bsp/\libucosii_bsp.a(alt_errno.o)
 .text          0x0000000000039c38       0x90 ../DECA_socket_server_bsp/\libucosii_bsp.a(alt_find_dev.o)
                0x0000000000039c38                alt_find_dev
 .text          0x0000000000039cc8       0x30 ../DECA_socket_server_bsp/\libucosii_bsp.a(alt_icache_flush_all.o)
                0x0000000000039cc8                alt_icache_flush_all
 .text          0x0000000000039cf8      0x1e0 ../DECA_socket_server_bsp/\libucosii_bsp.a(alt_iic.o)
                0x0000000000039cf8                alt_ic_isr_register
                0x0000000000039d48                alt_ic_irq_enable
                0x0000000000039de8                alt_ic_irq_disable
                0x0000000000039e8c                alt_ic_irq_enabled
 .text          0x0000000000039ed8       0xf0 ../DECA_socket_server_bsp/\libucosii_bsp.a(alt_iic_isr_register.o)
                0x0000000000039ed8                alt_iic_isr_register
 .text          0x0000000000039fc8      0x138 ../DECA_socket_server_bsp/\libucosii_bsp.a(alt_io_redirect.o)
                0x000000000003a088                alt_io_redirect
 .text          0x000000000003a100        0x0 ../DECA_socket_server_bsp/\libucosii_bsp.a(alt_irq_entry.o)
 .text          0x000000000003a100        0x0 ../DECA_socket_server_bsp/\libucosii_bsp.a(alt_irq_handler.o)
 .text          0x000000000003a100        0x0 ../DECA_socket_server_bsp/\libucosii_bsp.a(alt_irq_vars.o)
 .text          0x000000000003a100      0x274 ../DECA_socket_server_bsp/\libucosii_bsp.a(alt_open.o)
                0x000000000003a21c                open
 .text          0x000000000003a374      0x14c ../DECA_socket_server_bsp/\libucosii_bsp.a(alt_read.o)
                0x000000000003a3c4                alt_read
 .text          0x000000000003a4c0       0x60 ../DECA_socket_server_bsp/\libucosii_bsp.a(alt_release_fd.o)
                0x000000000003a4c0                alt_release_fd
 .text          0x000000000003a520       0x34 ../DECA_socket_server_bsp/\libucosii_bsp.a(alt_remap_cached.o)
                0x000000000003a520                alt_remap_cached
 .text          0x000000000003a554      0x19c ../DECA_socket_server_bsp/\libucosii_bsp.a(alt_tick.o)
                0x000000000003a554                alt_alarm_stop
                0x000000000003a5ec                alt_tick
 .text          0x000000000003a6f0       0x40 ../DECA_socket_server_bsp/\libucosii_bsp.a(alt_uncached_free.o)
                0x000000000003a6f0                alt_uncached_free
 .text          0x000000000003a730       0x78 ../DECA_socket_server_bsp/\libucosii_bsp.a(alt_uncached_malloc.o)
                0x000000000003a730                alt_uncached_malloc
 .text          0x000000000003a7a8      0x148 ../DECA_socket_server_bsp/\libucosii_bsp.a(alt_write.o)
                0x000000000003a7f8                alt_write
 .text          0x000000000003a8f0       0x20 ../DECA_socket_server_bsp/\libucosii_bsp.a(altera_nios2_gen2_irq.o)
                0x000000000003a8f0                altera_nios2_gen2_irq_init
 .text          0x000000000003a910       0xd0 ../DECA_socket_server_bsp/\libucosii_bsp.a(os_cpu_a.o)
                0x000000000003a910                OSCtxSw
                0x000000000003a910                OSIntCtxSw
                0x000000000003a99c                OSStartHighRdy
                0x000000000003a9bc                OSStartTsk
 .text          0x000000000003a9e0      0x408 ../DECA_socket_server_bsp/\libucosii_bsp.a(os_cpu_c.o)
                0x000000000003a9e0                OSTaskStkInit
                0x000000000003acd4                OSTaskCreateHook
                0x000000000003acf4                OSTaskDelHook
                0x000000000003ad14                OSTaskSwHook
                0x000000000003ad30                OSTaskStatHook
                0x000000000003ad4c                OSTimeTickHook
                0x000000000003ad74                OSInitHookBegin
                0x000000000003ad90                OSInitHookEnd
                0x000000000003adac                OSTaskIdleHook
                0x000000000003adc8                OSTCBInitHook
 .text          0x000000000003ade8      0x3f8 ../DECA_socket_server_bsp/\libucosii_bsp.a(allports.o)
                0x000000000003ade8                netmain_init
                0x000000000003aee0                icmp_port_du
                0x000000000003af70                station_state
                0x000000000003b0dc                sysuptime
                0x000000000003b11c                packet_check
                0x000000000003b168                mcastlist
                0x000000000003b18c                prep_modules
 .text          0x000000000003b1e0      0x458 ../DECA_socket_server_bsp/\libucosii_bsp.a(timeouts.o)
                0x000000000003b1e0                inet_timer
                0x000000000003b434                in_timerset
                0x000000000003b59c                in_timerkill
 .text          0x000000000003b638       0xac ../DECA_socket_server_bsp/\libucosii_bsp.a(tk_misc.o)
                0x000000000003b638                create_apptasks
                0x000000000003b65c                task_stats
 .text          0x000000000003b6e4       0xa0 ../DECA_socket_server_bsp/\libucosii_bsp.a(alt_iniche_fcntl.o)
                0x000000000003b6e4                fcntl
 .text          0x000000000003b784     0x140c ../DECA_socket_server_bsp/\libucosii_bsp.a(et_arp.o)
                0x000000000003b784                etainit
                0x000000000003b7cc                et_send
                0x000000000003b954                arp_free_pending
                0x000000000003b9d8                arp_send_pending
                0x000000000003ba48                send_arp
                0x000000000003be9c                find_oldest_arp
                0x000000000003c010                make_arp_entry
                0x000000000003c114                arpReply
                0x000000000003c3d4                arprcv
                0x000000000003c640                send_via_arp
                0x000000000003c7c8                cb_arpent_tmo
                0x000000000003c8d8                grat_arp
 .text          0x000000000003cb90      0x264 ../DECA_socket_server_bsp/\libucosii_bsp.a(iface.o)
                0x000000000003cb90                if_getbynum
                0x000000000003cc00                isbcast
                0x000000000003ccd4                reg_type
                0x000000000003cd64                if_killsocks
 .text          0x000000000003cdf4     0x2054 ../DECA_socket_server_bsp/\libucosii_bsp.a(ip.o)
                0x000000000003cdf4                ip_init
                0x000000000003cedc                ip_bldhead
                0x000000000003d060                ip_write_internal
                0x000000000003d78c                ip_write
                0x000000000003d9a4                ip_write2
                0x000000000003dd20                ip_raw_write
                0x000000000003dde4                ip_fragment_lc
                0x000000000003e208                ip_fragment
                0x000000000003e7c4                ip_mymach
                0x000000000003e868                ip_dump
                0x000000000003eaf4                iproute
                0x000000000003ed18                ip_copypkt
 .text          0x000000000003ee48     0x1c24 ../DECA_socket_server_bsp/\libucosii_bsp.a(ip_reasm.o)
                0x000000000003ee48                ip_reasm_match_frag_with_ire
                0x000000000003ef0c                ip_reasm_determine_type_of_frag
                0x000000000003efdc                ip_reasm_check_mem_useage
                0x000000000003f070                ip_reasm_incr_mem_useage
                0x000000000003f110                ip_reasm_decr_mem_useage
                0x000000000003f1a8                ip_reasm_process_first_fragment
                0x000000000003f460                ip_reassm
                0x000000000003f4e8                ip_reasm_compute_overlap
                0x000000000003fa48                ip_reasm_process_subsequent_fragments
                0x000000000003ff74                ip_reasm_find_ire
                0x000000000003ffcc                ip_reasm_copy_queued_fragments_into_reassy_buffer
                0x0000000000040314                ip_reasm_process_timer_tick
                0x00000000000403f4                ip_reasm_delete_ire
                0x00000000000405a4                ip_reasm_mark_compact_rfq
                0x00000000000406d4                ipr_stats
                0x0000000000040a1c                ip_reasm_send_icmp_timex
 .text          0x0000000000040a6c      0xd9c ../DECA_socket_server_bsp/\libucosii_bsp.a(ipdemux.o)
                0x0000000000040a6c                ip_rcv
                0x0000000000040e44                ip_rcv_phase2
                0x0000000000041414                ip_demux
 .text          0x0000000000041808      0x2b8 ../DECA_socket_server_bsp/\libucosii_bsp.a(ipmc.o)
                0x0000000000041808                in_addmulti
                0x0000000000041954                in_delmulti
                0x0000000000041a5c                lookup_mcast
 .text          0x0000000000041ac0       0xd8 ../DECA_socket_server_bsp/\libucosii_bsp.a(ipport.o)
                0x0000000000041ac0                prep_ifaces
                0x0000000000041b48                netexit
                0x0000000000041b70                evtmap_setup
 .text          0x0000000000041b98      0x50c ../DECA_socket_server_bsp/\libucosii_bsp.a(ipraw.o)
                0x0000000000041b98                ip_raw_open
                0x0000000000041c78                ip_raw_close
                0x0000000000041d30                ip_raw_input
                0x0000000000041f4c                ip_raw_alloc
                0x000000000004200c                ip_raw_free
                0x000000000004204c                ip_raw_maxalloc
 .text          0x00000000000420a4      0x684 ../DECA_socket_server_bsp/\libucosii_bsp.a(iproute.o)
                0x00000000000420a4                rt_lookup
                0x0000000000042210                add_route
                0x00000000000425fc                del_route
 .text          0x0000000000042728      0xd7c ../DECA_socket_server_bsp/\libucosii_bsp.a(udp.o)
                0x0000000000042728                udpdemux
                0x0000000000042f24                udp_send
                0x00000000000431c4                udpswap
                0x00000000000432b4                udp_socket
                0x000000000004337c                udp_alloc
                0x0000000000043438                udp_maxalloc
                0x0000000000043464                udp_free
 .text          0x00000000000434a4      0x2c8 ../DECA_socket_server_bsp/\libucosii_bsp.a(igmp.o)
                0x00000000000434a4                igmpv1_input
 .text          0x000000000004376c      0x6f0 ../DECA_socket_server_bsp/\libucosii_bsp.a(igmp2.o)
                0x000000000004376c                igmpv2_input
                0x0000000000043890                igmpv2_process_report
                0x00000000000439d4                igmpv2_process_query
                0x0000000000043bcc                igmpv2_chk_set_timer
                0x0000000000043d1c                igmpv2_chk4_rtr_alert_opt
 .text          0x0000000000043e5c      0x890 ../DECA_socket_server_bsp/\libucosii_bsp.a(ipopt.o)
                0x0000000000043e5c                IPADDR_TO_NETP
                0x0000000000043fa0                ip_setmoptions
                0x0000000000044560                ip_getmoptions
                0x0000000000044668                ip_freemoptions
 .text          0x00000000000446ec      0x6f0 ../DECA_socket_server_bsp/\libucosii_bsp.a(u_mctest.o)
                0x00000000000446ec                u_mctest_init
                0x000000000004471c                u_mctest_run
 .text          0x0000000000044ddc      0x378 ../DECA_socket_server_bsp/\libucosii_bsp.a(dhcsetup.o)
                0x0000000000044ddc                dhc_setup
                0x0000000000045040                dhc_main_ipset
 .text          0x0000000000045154      0x3d0 ../DECA_socket_server_bsp/\libucosii_bsp.a(memdev.o)
                0x0000000000045154                init_memdev
                0x00000000000451cc                md_fopen
                0x00000000000451f4                md_fclose
                0x0000000000045214                md_fread
                0x0000000000045370                md_fwrite
                0x00000000000453e8                md_fseek
                0x0000000000045414                md_ftell
                0x0000000000045438                md_fgetc
                0x0000000000045500                md_unlink
 .text          0x0000000000045524      0x77c ../DECA_socket_server_bsp/\libucosii_bsp.a(parseip.o)
                0x0000000000045524                parse_ipad
                0x0000000000045820                inet_addr
                0x0000000000045880                hextoa
                0x00000000000458cc                inet_pton
                0x0000000000045960                inet_ntop
                0x00000000000459e4                print46_addr
                0x0000000000045a40                inet46_addr
                0x0000000000045b04                inet_setport
                0x0000000000045b6c                convert_ip
 .text          0x0000000000045ca0      0x1a0 ../DECA_socket_server_bsp/\libucosii_bsp.a(tcpcksum.o)
                0x0000000000045ca0                tcp_cksum
 .text          0x0000000000045e40      0x854 ../DECA_socket_server_bsp/\libucosii_bsp.a(in_pcb.o)
                0x0000000000045e40                in_pcballoc
                0x0000000000045ec8                in_pcbdetach
                0x0000000000045f1c                in_pcbbind
                0x0000000000046128                in_pcbconnect
                0x0000000000046300                in_pcbdisconnect
                0x0000000000046358                in_setsockaddr
                0x00000000000463d8                in_setpeeraddr
                0x0000000000046458                in_pcblookup
 .text          0x0000000000046694     0x18c0 ../DECA_socket_server_bsp/\libucosii_bsp.a(vfsfiles.o)
                0x0000000000046694                set_vfopen_error
                0x00000000000466bc                get_vfopen_error
                0x00000000000466dc                vf_alloc_and_link_vop
                0x000000000004674c                vf_alloc_buffer
                0x0000000000046814                vf_free_buffer
                0x0000000000046860                vfopen_locked
                0x0000000000046b98                vfopen
                0x0000000000046be8                vfclose_locked
                0x0000000000046d98                vfclose
                0x0000000000046dd8                vfflush
                0x0000000000046e20                vfgets
                0x0000000000046eec                vfeof
                0x0000000000046f3c                vunlink_flag_open_files
                0x0000000000046f94                vunlink
                0x0000000000047190                vfread
                0x000000000004731c                vfwrite_locked
                0x00000000000476cc                vfwrite
                0x000000000004772c                vfseek
                0x0000000000047878                vftell
                0x0000000000047988                vgetc_locked
                0x0000000000047a80                vgetc
                0x0000000000047ac8                vfslookup_locked
                0x0000000000047bec                vfslookup
                0x0000000000047c34                strippath
                0x0000000000047e00                isvfile_locked
                0x0000000000047e58                isvfile
                0x0000000000047ea0                vferror
                0x0000000000047efc                vclearerr
 .text          0x0000000000047f54       0x24 ../DECA_socket_server_bsp/\libucosii_bsp.a(vfsport.o)
                0x0000000000047f54                prep_vfs
 .text          0x0000000000047f78        0x0 ../DECA_socket_server_bsp/\libucosii_bsp.a(alt_exception_entry.o)
 .text          0x0000000000047f78      0x170 ../DECA_socket_server_bsp/\libucosii_bsp.a(alt_fcntl.o)
                0x0000000000047fc8                alt_fcntl
 .text          0x00000000000480e8      0x114 ../DECA_socket_server_bsp/\libucosii_bsp.a(alt_find_file.o)
                0x00000000000480e8                alt_find_file
 .text          0x00000000000481fc       0xfc ../DECA_socket_server_bsp/\libucosii_bsp.a(alt_get_fd.o)
                0x00000000000481fc                alt_get_fd
 .text          0x00000000000482f8       0x8c ../DECA_socket_server_bsp/\libucosii_bsp.a(alt_icache_flush.o)
                0x00000000000482f8                alt_icache_flush
 .text          0x0000000000048384       0x9c ../DECA_socket_server_bsp/\libucosii_bsp.a(alt_instruction_exception_entry.o)
                0x0000000000048384                alt_exception_cause_generated_bad_addr
 .text          0x0000000000048420     0x1248 ../DECA_socket_server_bsp/\libucosii_bsp.a(icmp.o)
                0x0000000000048420                icmprcv
                0x0000000000048fe0                icmp_destun
                0x00000000000492e8                icmp_timex
                0x0000000000049618                icmp_du
 .text          0x0000000000049668       0x14 c:/altera/15.0/nios2eds/bin/gnu/h-x86_64-mingw32/bin/../lib/gcc/nios2-elf/4.9.1/../../../../../H-x86_64-mingw32/nios2-elf/lib\libc.a(lib_a-atexit.o)
                0x0000000000049668                atexit
 .text          0x000000000004967c       0x18 c:/altera/15.0/nios2eds/bin/gnu/h-x86_64-mingw32/bin/../lib/gcc/nios2-elf/4.9.1/../../../../../H-x86_64-mingw32/nios2-elf/lib\libc.a(lib_a-atoi.o)
                0x000000000004967c                atoi
                0x0000000000049688                _atoi_r
 .text          0x0000000000049694       0x38 c:/altera/15.0/nios2eds/bin/gnu/h-x86_64-mingw32/bin/../lib/gcc/nios2-elf/4.9.1/../../../../../H-x86_64-mingw32/nios2-elf/lib\libc.a(lib_a-exit.o)
                0x0000000000049694                exit
 .text          0x00000000000496cc       0x1c c:/altera/15.0/nios2eds/bin/gnu/h-x86_64-mingw32/bin/../lib/gcc/nios2-elf/4.9.1/../../../../../H-x86_64-mingw32/nios2-elf/lib\libc.a(lib_a-malign.o)
                0x00000000000496cc                memalign
 .text          0x00000000000496e8      0x1b4 c:/altera/15.0/nios2eds/bin/gnu/h-x86_64-mingw32/bin/../lib/gcc/nios2-elf/4.9.1/../../../../../H-x86_64-mingw32/nios2-elf/lib\libc.a(lib_a-malignr.o)
                0x00000000000496e8                _memalign_r
 .text          0x000000000004989c       0x7c c:/altera/15.0/nios2eds/bin/gnu/h-x86_64-mingw32/bin/../lib/gcc/nios2-elf/4.9.1/../../../../../H-x86_64-mingw32/nios2-elf/lib\libc.a(lib_a-memcmp.o)
                0x000000000004989c                memcmp
 .text          0x0000000000049918       0xc0 c:/altera/15.0/nios2eds/bin/gnu/h-x86_64-mingw32/bin/../lib/gcc/nios2-elf/4.9.1/../../../../../H-x86_64-mingw32/nios2-elf/lib\libc.a(lib_a-strncmp.o)
                0x0000000000049918                strncmp
 .text          0x00000000000499d8       0xec c:/altera/15.0/nios2eds/bin/gnu/h-x86_64-mingw32/bin/../lib/gcc/nios2-elf/4.9.1/../../../../../H-x86_64-mingw32/nios2-elf/lib\libc.a(lib_a-strncpy.o)
                0x00000000000499d8                strncpy
 .text          0x0000000000049ac4      0x284 c:/altera/15.0/nios2eds/bin/gnu/h-x86_64-mingw32/bin/../lib/gcc/nios2-elf/4.9.1/../../../../../H-x86_64-mingw32/nios2-elf/lib\libc.a(lib_a-strtol.o)
                0x0000000000049ac4                _strtol_r
                0x0000000000049d24                strtol
 .text          0x0000000000049d48       0x34 c:/altera/15.0/nios2eds/bin/gnu/h-x86_64-mingw32/bin/../lib/gcc/nios2-elf/4.9.1/../../../../../H-x86_64-mingw32/nios2-elf/lib\libc.a(lib_a-vprintf.o)
                0x0000000000049d48                vprintf
                0x0000000000049d68                _vprintf_r
 .text          0x0000000000049d7c       0x74 c:/altera/15.0/nios2eds/bin/gnu/h-x86_64-mingw32/bin/../lib/gcc/nios2-elf/4.9.1/../../../../../H-x86_64-mingw32/nios2-elf/lib\libc.a(lib_a-vsprintf.o)
                0x0000000000049d7c                _vsprintf_r
                0x0000000000049dcc                vsprintf
 .text          0x0000000000049df0      0x114 c:/altera/15.0/nios2eds/bin/gnu/h-x86_64-mingw32/bin/../lib/gcc/nios2-elf/4.9.1/../../../../../H-x86_64-mingw32/nios2-elf/lib\libc.a(lib_a-__atexit.o)
                0x0000000000049df0                __register_exitproc
 .text          0x0000000000049f04      0x194 c:/altera/15.0/nios2eds/bin/gnu/h-x86_64-mingw32/bin/../lib/gcc/nios2-elf/4.9.1/../../../../../H-x86_64-mingw32/nios2-elf/lib\libc.a(lib_a-__call_atexit.o)
                0x0000000000049f04                __call_exitprocs
 .text          0x000000000004a098       0x1c c:/altera/15.0/nios2eds/bin/gnu/h-x86_64-mingw32/bin/../lib/gcc/nios2-elf/4.9.1/../../../../../H-x86_64-mingw32/nios2-elf/lib\libc.a(lib_a-vfprintfr_1.o)
                0x000000000004a098                _vfprintf_r
 .text          0x000000000004a0b4       0x3c ../DECA_socket_server_bsp/\libucosii_bsp.a(alt_exit.o)
                0x000000000004a0b4                _exit
 *(.gnu.warning.*)
 *(.fini)
                0x000000000004a0f0                PROVIDE (__etext, ABSOLUTE (.))
                0x000000000004a0f0                PROVIDE (_etext, ABSOLUTE (.))
                0x000000000004a0f0                PROVIDE (etext, ABSOLUTE (.))
 *(.eh_frame_hdr)
                0x000000000004a0f0                . = ALIGN (0x4)
                0x000000000004a0f0                PROVIDE (__preinit_array_start, ABSOLUTE (.))
 *(.preinit_array)
                0x000000000004a0f0                PROVIDE (__preinit_array_end, ABSOLUTE (.))
                0x000000000004a0f0                PROVIDE (__init_array_start, ABSOLUTE (.))
 *(.init_array)
                0x000000000004a0f0                PROVIDE (__init_array_end, ABSOLUTE (.))
                0x000000000004a0f0                PROVIDE (__fini_array_start, ABSOLUTE (.))
 *(.fini_array)
                0x000000000004a0f0                PROVIDE (__fini_array_end, ABSOLUTE (.))
 *(.eh_frame)
 *(.gcc_except_table .gcc_except_table.*)
 *(.dynamic)
                0x000000000004a0f0                PROVIDE (__CTOR_LIST__, ABSOLUTE (.))
 *(.ctors)
 *(SORT(.ctors.*))
                0x000000000004a0f0                PROVIDE (__CTOR_END__, ABSOLUTE (.))
                0x000000000004a0f0                PROVIDE (__DTOR_LIST__, ABSOLUTE (.))
 *(.dtors)
 *(SORT(.dtors.*))
                0x000000000004a0f0                PROVIDE (__DTOR_END__, ABSOLUTE (.))
 *(.jcr)
                0x000000000004a0f0                . = ALIGN (0x4)

.rodata         0x000000000004a0f0     0x5d48
                0x000000000004a0f0                PROVIDE (__ram_rodata_start, ABSOLUTE (.))
                0x000000000004a0f0                . = ALIGN (0x4)
 *(.rodata .rodata.* .gnu.linkonce.r.*)
 .rodata        0x000000000004a0f0      0xba4 obj/default/alt_error_handler.o
 .rodata        0x000000000004ac94       0x3c obj/default/iniche_init.o
 .rodata        0x000000000004acd0     0x1c48 obj/default/ins_tse/altera_avalon_tse.o
 .rodata        0x000000000004c918       0x24 obj/default/led.o
 .rodata        0x000000000004c93c      0x180 obj/default/network_utilities.o
 .rodata        0x000000000004cabc      0x2b4 obj/default/simple_socket_server.o
 .rodata        0x000000000004cd70       0x20 obj/default/tse_my_system.o
 .rodata        0x000000000004cd90      0x281 c:/altera/15.0/nios2eds/bin/gnu/h-x86_64-mingw32/bin/../lib/gcc/nios2-elf/4.9.1/../../../../../H-x86_64-mingw32/nios2-elf/lib\libc.a(lib_a-ctype_.o)
                0x000000000004cd90                _ctype_
 *fill*         0x000000000004d011        0x3 
 .rodata.str1.4
                0x000000000004d014        0x2 c:/altera/15.0/nios2eds/bin/gnu/h-x86_64-mingw32/bin/../lib/gcc/nios2-elf/4.9.1/../../../../../H-x86_64-mingw32/nios2-elf/lib\libc.a(lib_a-impure.o)
                                          0x4 (size before relaxing)
 *fill*         0x000000000004d016        0x2 
 .rodata.str1.4
                0x000000000004d018        0x3 c:/altera/15.0/nios2eds/bin/gnu/h-x86_64-mingw32/bin/../lib/gcc/nios2-elf/4.9.1/../../../../../H-x86_64-mingw32/nios2-elf/lib\libc.a(lib_a-perror.o)
                                          0x4 (size before relaxing)
 *fill*         0x000000000004d01b        0x1 
 .rodata.str1.4
                0x000000000004d01c        0x2 c:/altera/15.0/nios2eds/bin/gnu/h-x86_64-mingw32/bin/../lib/gcc/nios2-elf/4.9.1/../../../../../H-x86_64-mingw32/nios2-elf/lib\libc.a(lib_a-puts.o)
                                          0x4 (size before relaxing)
 *fill*         0x000000000004d01e        0x2 
 .rodata.str1.4
                0x000000000004d020      0x62d c:/altera/15.0/nios2eds/bin/gnu/h-x86_64-mingw32/bin/../lib/gcc/nios2-elf/4.9.1/../../../../../H-x86_64-mingw32/nios2-elf/lib\libc.a(lib_a-strerror.o)
                                        0x634 (size before relaxing)
 *fill*         0x000000000004d64d        0x3 
 .rodata.str1.4
                0x000000000004d650       0x42 c:/altera/15.0/nios2eds/bin/gnu/h-x86_64-mingw32/bin/../lib/gcc/nios2-elf/4.9.1/../../../../../H-x86_64-mingw32/nios2-elf/lib\libc.a(lib_a-svfprintf.o)
                                         0x44 (size before relaxing)
 .rodata        0x000000000004d692       0x20 c:/altera/15.0/nios2eds/bin/gnu/h-x86_64-mingw32/bin/../lib/gcc/nios2-elf/4.9.1/../../../../../H-x86_64-mingw32/nios2-elf/lib\libc.a(lib_a-svfprintf.o)
 .rodata.str1.4
                0x0000000000000000       0x44 c:/altera/15.0/nios2eds/bin/gnu/h-x86_64-mingw32/bin/../lib/gcc/nios2-elf/4.9.1/../../../../../H-x86_64-mingw32/nios2-elf/lib\libc.a(lib_a-vfprintf.o)
 .rodata        0x000000000004d6b2       0x20 c:/altera/15.0/nios2eds/bin/gnu/h-x86_64-mingw32/bin/../lib/gcc/nios2-elf/4.9.1/../../../../../H-x86_64-mingw32/nios2-elf/lib\libc.a(lib_a-vfprintf.o)
 *fill*         0x000000000004d6d2        0x2 
 .rodata.str1.4
                0x000000000004d6d4       0x10 c:/altera/15.0/nios2eds/bin/gnu/h-x86_64-mingw32/bin/../lib/gcc/nios2-elf/4.9.1/../../../../../H-x86_64-mingw32/nios2-elf/lib\libc.a(lib_a-dtoa.o)
                                         0x14 (size before relaxing)
 .rodata.str1.4
                0x000000000004d6e4        0xc c:/altera/15.0/nios2eds/bin/gnu/h-x86_64-mingw32/bin/../lib/gcc/nios2-elf/4.9.1/../../../../../H-x86_64-mingw32/nios2-elf/lib\libc.a(lib_a-locale.o)
                                         0x14 (size before relaxing)
 .rodata        0x000000000004d6f0      0x124 c:/altera/15.0/nios2eds/bin/gnu/h-x86_64-mingw32/bin/../lib/gcc/nios2-elf/4.9.1/../../../../../H-x86_64-mingw32/nios2-elf/lib\libc.a(lib_a-mprec.o)
                0x000000000004d6fc                __mprec_tinytens
                0x000000000004d724                __mprec_bigtens
                0x000000000004d74c                __mprec_tens
 .rodata.str1.4
                0x0000000000000000       0x30 c:/altera/15.0/nios2eds/bin/gnu/h-x86_64-mingw32/bin/../lib/gcc/nios2-elf/4.9.1/../../../../../H-x86_64-mingw32/nios2-elf/lib\libc.a(lib_a-svfiprintf.o)
 .rodata        0x000000000004d814       0x20 c:/altera/15.0/nios2eds/bin/gnu/h-x86_64-mingw32/bin/../lib/gcc/nios2-elf/4.9.1/../../../../../H-x86_64-mingw32/nios2-elf/lib\libc.a(lib_a-svfiprintf.o)
 .rodata.str1.4
                0x0000000000000000       0x30 c:/altera/15.0/nios2eds/bin/gnu/h-x86_64-mingw32/bin/../lib/gcc/nios2-elf/4.9.1/../../../../../H-x86_64-mingw32/nios2-elf/lib\libc.a(lib_a-vfiprintf.o)
 .rodata        0x000000000004d834       0x20 c:/altera/15.0/nios2eds/bin/gnu/h-x86_64-mingw32/bin/../lib/gcc/nios2-elf/4.9.1/../../../../../H-x86_64-mingw32/nios2-elf/lib\libc.a(lib_a-vfiprintf.o)
 .rodata        0x000000000004d854      0x100 c:/altera/15.0/nios2eds/bin/gnu/h-x86_64-mingw32/bin/../lib/gcc/nios2-elf/4.9.1\libgcc.a(_clz.o)
                0x000000000004d854                __clz_tab
 .rodata        0x000000000004d954       0x10 ../DECA_socket_server_bsp/\libucosii_bsp.a(alt_main.o)
 .rodata        0x000000000004d964      0x120 ../DECA_socket_server_bsp/\libucosii_bsp.a(os_core.o)
                0x000000000004d964                OSUnMapTbl
 .rodata        0x000000000004da84       0x40 ../DECA_socket_server_bsp/\libucosii_bsp.a(alt_sys_init.o)
 .rodata        0x000000000004dac4      0x36c ../DECA_socket_server_bsp/\libucosii_bsp.a(ins_tse_mac.o)
 .rodata        0x000000000004de30       0xd8 ../DECA_socket_server_bsp/\libucosii_bsp.a(ipnet.o)
 .rodata        0x000000000004df08       0xec ../DECA_socket_server_bsp/\libucosii_bsp.a(ipstart.o)
 .rodata        0x000000000004dff4      0x54c ../DECA_socket_server_bsp/\libucosii_bsp.a(igmp_cmn.o)
 .rodata        0x000000000004e540       0xb8 ../DECA_socket_server_bsp/\libucosii_bsp.a(in_utils.o)
 .rodata        0x000000000004e5f8       0x34 ../DECA_socket_server_bsp/\libucosii_bsp.a(netmain.o)
 .rodata        0x000000000004e62c      0x1a8 ../DECA_socket_server_bsp/\libucosii_bsp.a(tk_crnos.o)
 .rodata        0x000000000004e7d4        0x8 ../DECA_socket_server_bsp/\libucosii_bsp.a(dhcpclnt.o)
 .rodata        0x000000000004e7dc      0x118 ../DECA_socket_server_bsp/\libucosii_bsp.a(pktalloc.o)
 .rodata        0x000000000004e8f4       0x84 ../DECA_socket_server_bsp/\libucosii_bsp.a(udp_open.o)
 .rodata        0x000000000004e978       0x2c ../DECA_socket_server_bsp/\libucosii_bsp.a(brdutils.o)
 .rodata        0x000000000004e9a4      0x26c ../DECA_socket_server_bsp/\libucosii_bsp.a(osportco.o)
 .rodata        0x000000000004ec10       0xa0 ../DECA_socket_server_bsp/\libucosii_bsp.a(targnios.o)
 .rodata        0x000000000004ecb0       0x90 ../DECA_socket_server_bsp/\libucosii_bsp.a(nptcp.o)
 .rodata        0x000000000004ed40        0x8 ../DECA_socket_server_bsp/\libucosii_bsp.a(sockcall.o)
 .rodata        0x000000000004ed48       0x50 ../DECA_socket_server_bsp/\libucosii_bsp.a(socket.o)
 .rodata        0x000000000004ed98       0x40 ../DECA_socket_server_bsp/\libucosii_bsp.a(socket2.o)
 .rodata        0x000000000004edd8       0x20 ../DECA_socket_server_bsp/\libucosii_bsp.a(tcp_in.o)
 .rodata        0x000000000004edf8       0x40 ../DECA_socket_server_bsp/\libucosii_bsp.a(tcp_out.o)
 .rodata        0x000000000004ee38       0x24 ../DECA_socket_server_bsp/\libucosii_bsp.a(tcp_subr.o)
 .rodata        0x000000000004ee5c       0x2c ../DECA_socket_server_bsp/\libucosii_bsp.a(tcp_usr.o)
 .rodata        0x000000000004ee88        0xc ../DECA_socket_server_bsp/\libucosii_bsp.a(alt_dev.o)
 .rodata        0x000000000004ee94        0x4 ../DECA_socket_server_bsp/\libucosii_bsp.a(os_cpu_c.o)
 .rodata        0x000000000004ee98      0x1d4 ../DECA_socket_server_bsp/\libucosii_bsp.a(allports.o)
 .rodata        0x000000000004f06c       0x34 ../DECA_socket_server_bsp/\libucosii_bsp.a(tk_misc.o)
 .rodata        0x000000000004f0a0       0x44 ../DECA_socket_server_bsp/\libucosii_bsp.a(et_arp.o)
 .rodata        0x000000000004f0e4      0x1dc ../DECA_socket_server_bsp/\libucosii_bsp.a(ip.o)
 .rodata        0x000000000004f2c0      0x158 ../DECA_socket_server_bsp/\libucosii_bsp.a(ip_reasm.o)
 .rodata        0x000000000004f418      0x120 ../DECA_socket_server_bsp/\libucosii_bsp.a(ipdemux.o)
 .rodata        0x000000000004f538       0x34 ../DECA_socket_server_bsp/\libucosii_bsp.a(ipport.o)
 .rodata        0x000000000004f56c       0x24 ../DECA_socket_server_bsp/\libucosii_bsp.a(ipraw.o)
 .rodata        0x000000000004f590       0x38 ../DECA_socket_server_bsp/\libucosii_bsp.a(iproute.o)
 .rodata        0x000000000004f5c8       0xe8 ../DECA_socket_server_bsp/\libucosii_bsp.a(udp.o)
 .rodata        0x000000000004f6b0      0x2b0 ../DECA_socket_server_bsp/\libucosii_bsp.a(u_mctest.o)
 .rodata        0x000000000004f960       0xf8 ../DECA_socket_server_bsp/\libucosii_bsp.a(dhcsetup.o)
 .rodata        0x000000000004fa58       0x94 ../DECA_socket_server_bsp/\libucosii_bsp.a(parseip.o)
 .rodata        0x000000000004faec       0x34 ../DECA_socket_server_bsp/\libucosii_bsp.a(vfsfiles.o)
 .rodata        0x000000000004fb20      0x318 ../DECA_socket_server_bsp/\libucosii_bsp.a(icmp.o)
 *(.rodata1)
                0x000000000004fe38                . = ALIGN (0x4)
                0x000000000004fe38                PROVIDE (__ram_rodata_end, ABSOLUTE (.))
                0x000000000004a0f0                PROVIDE (__flash_rodata_start, LOADADDR (.rodata))

.rwdata         0x000000000004fe38     0x1fbc load address 0x0000000000051df4
                0x000000000004fe38                PROVIDE (__ram_rwdata_start, ABSOLUTE (.))
                0x000000000004fe38                . = ALIGN (0x4)
 *(.got.plt)
 *(.got)
 *(.data1)
 *(.data .data.* .gnu.linkonce.d.*)
 .data          0x000000000004fe38        0x0 ../DECA_socket_server_bsp//obj/HAL/src/crt0.o
 .data          0x000000000004fe38        0x0 obj/default/alt_error_handler.o
 .data          0x000000000004fe38       0x18 obj/default/iniche_init.o
                0x000000000004fe38                ssstask
 .data          0x000000000004fe50        0x0 obj/default/ins_tse/altera_avalon_tse.o
 .data          0x000000000004fe50        0x0 obj/default/led.o
 .data          0x000000000004fe50        0x0 obj/default/network_utilities.o
 .data          0x000000000004fe50        0x0 obj/default/simple_socket_server.o
 .data          0x000000000004fe50      0x120 obj/default/tse_my_system.o
                0x000000000004fe50                tse_mac_device
 .data          0x000000000004ff70        0x0 c:/altera/15.0/nios2eds/bin/gnu/h-x86_64-mingw32/bin/../lib/gcc/nios2-elf/4.9.1/../../../../../H-x86_64-mingw32/nios2-elf/lib\libc.a(lib_a-ctype_.o)
 .data          0x000000000004ff70        0x0 c:/altera/15.0/nios2eds/bin/gnu/h-x86_64-mingw32/bin/../lib/gcc/nios2-elf/4.9.1/../../../../../H-x86_64-mingw32/nios2-elf/lib\libc.a(lib_a-fprintf.o)
 .data          0x000000000004ff70        0x0 c:/altera/15.0/nios2eds/bin/gnu/h-x86_64-mingw32/bin/../lib/gcc/nios2-elf/4.9.1/../../../../../H-x86_64-mingw32/nios2-elf/lib\libc.a(lib_a-fwrite.o)
 .data          0x000000000004ff70        0x0 c:/altera/15.0/nios2eds/bin/gnu/h-x86_64-mingw32/bin/../lib/gcc/nios2-elf/4.9.1/../../../../../H-x86_64-mingw32/nios2-elf/lib\libc.a(lib_a-getc.o)
 .data          0x000000000004ff70      0x424 c:/altera/15.0/nios2eds/bin/gnu/h-x86_64-mingw32/bin/../lib/gcc/nios2-elf/4.9.1/../../../../../H-x86_64-mingw32/nios2-elf/lib\libc.a(lib_a-impure.o)
 .data          0x0000000000050394        0x0 c:/altera/15.0/nios2eds/bin/gnu/h-x86_64-mingw32/bin/../lib/gcc/nios2-elf/4.9.1/../../../../../H-x86_64-mingw32/nios2-elf/lib\libc.a(lib_a-malloc.o)
 .data          0x0000000000050394      0x408 c:/altera/15.0/nios2eds/bin/gnu/h-x86_64-mingw32/bin/../lib/gcc/nios2-elf/4.9.1/../../../../../H-x86_64-mingw32/nios2-elf/lib\libc.a(lib_a-mallocr.o)
                0x0000000000050394                __malloc_av_
 .data          0x000000000005079c        0x0 c:/altera/15.0/nios2eds/bin/gnu/h-x86_64-mingw32/bin/../lib/gcc/nios2-elf/4.9.1/../../../../../H-x86_64-mingw32/nios2-elf/lib\libc.a(lib_a-memcpy.o)
 .data          0x000000000005079c        0x0 c:/altera/15.0/nios2eds/bin/gnu/h-x86_64-mingw32/bin/../lib/gcc/nios2-elf/4.9.1/../../../../../H-x86_64-mingw32/nios2-elf/lib\libc.a(lib_a-memmove.o)
 .data          0x000000000005079c        0x0 c:/altera/15.0/nios2eds/bin/gnu/h-x86_64-mingw32/bin/../lib/gcc/nios2-elf/4.9.1/../../../../../H-x86_64-mingw32/nios2-elf/lib\libc.a(lib_a-memset.o)
 .data          0x000000000005079c        0x0 c:/altera/15.0/nios2eds/bin/gnu/h-x86_64-mingw32/bin/../lib/gcc/nios2-elf/4.9.1/../../../../../H-x86_64-mingw32/nios2-elf/lib\libc.a(lib_a-perror.o)
 .data          0x000000000005079c        0x0 c:/altera/15.0/nios2eds/bin/gnu/h-x86_64-mingw32/bin/../lib/gcc/nios2-elf/4.9.1/../../../../../H-x86_64-mingw32/nios2-elf/lib\libc.a(lib_a-printf.o)
 .data          0x000000000005079c        0x0 c:/altera/15.0/nios2eds/bin/gnu/h-x86_64-mingw32/bin/../lib/gcc/nios2-elf/4.9.1/../../../../../H-x86_64-mingw32/nios2-elf/lib\libc.a(lib_a-putc.o)
 .data          0x000000000005079c        0x0 c:/altera/15.0/nios2eds/bin/gnu/h-x86_64-mingw32/bin/../lib/gcc/nios2-elf/4.9.1/../../../../../H-x86_64-mingw32/nios2-elf/lib\libc.a(lib_a-putchar.o)
 .data          0x000000000005079c        0x0 c:/altera/15.0/nios2eds/bin/gnu/h-x86_64-mingw32/bin/../lib/gcc/nios2-elf/4.9.1/../../../../../H-x86_64-mingw32/nios2-elf/lib\libc.a(lib_a-puts.o)
 .data          0x000000000005079c        0x0 c:/altera/15.0/nios2eds/bin/gnu/h-x86_64-mingw32/bin/../lib/gcc/nios2-elf/4.9.1/../../../../../H-x86_64-mingw32/nios2-elf/lib\libc.a(lib_a-rget.o)
 .data          0x000000000005079c        0x0 c:/altera/15.0/nios2eds/bin/gnu/h-x86_64-mingw32/bin/../lib/gcc/nios2-elf/4.9.1/../../../../../H-x86_64-mingw32/nios2-elf/lib\libc.a(lib_a-sbrkr.o)
 .data          0x000000000005079c        0x0 c:/altera/15.0/nios2eds/bin/gnu/h-x86_64-mingw32/bin/../lib/gcc/nios2-elf/4.9.1/../../../../../H-x86_64-mingw32/nios2-elf/lib\libc.a(lib_a-sprintf.o)
 .data          0x000000000005079c        0x0 c:/altera/15.0/nios2eds/bin/gnu/h-x86_64-mingw32/bin/../lib/gcc/nios2-elf/4.9.1/../../../../../H-x86_64-mingw32/nios2-elf/lib\libc.a(lib_a-strchr.o)
 .data          0x000000000005079c        0x0 c:/altera/15.0/nios2eds/bin/gnu/h-x86_64-mingw32/bin/../lib/gcc/nios2-elf/4.9.1/../../../../../H-x86_64-mingw32/nios2-elf/lib\libc.a(lib_a-strcpy.o)
 .data          0x000000000005079c        0x0 c:/altera/15.0/nios2eds/bin/gnu/h-x86_64-mingw32/bin/../lib/gcc/nios2-elf/4.9.1/../../../../../H-x86_64-mingw32/nios2-elf/lib\libc.a(lib_a-strerror.o)
 .data          0x000000000005079c        0x0 c:/altera/15.0/nios2eds/bin/gnu/h-x86_64-mingw32/bin/../lib/gcc/nios2-elf/4.9.1/../../../../../H-x86_64-mingw32/nios2-elf/lib\libc.a(lib_a-strlen.o)
 .data          0x000000000005079c        0x0 c:/altera/15.0/nios2eds/bin/gnu/h-x86_64-mingw32/bin/../lib/gcc/nios2-elf/4.9.1/../../../../../H-x86_64-mingw32/nios2-elf/lib\libc.a(lib_a-svfprintf.o)
 .data          0x000000000005079c        0x0 c:/altera/15.0/nios2eds/bin/gnu/h-x86_64-mingw32/bin/../lib/gcc/nios2-elf/4.9.1/../../../../../H-x86_64-mingw32/nios2-elf/lib\libc.a(lib_a-u_strerr.o)
 .data          0x000000000005079c        0x0 c:/altera/15.0/nios2eds/bin/gnu/h-x86_64-mingw32/bin/../lib/gcc/nios2-elf/4.9.1/../../../../../H-x86_64-mingw32/nios2-elf/lib\libc.a(lib_a-vfprintf.o)
 .data          0x000000000005079c        0x0 c:/altera/15.0/nios2eds/bin/gnu/h-x86_64-mingw32/bin/../lib/gcc/nios2-elf/4.9.1/../../../../../H-x86_64-mingw32/nios2-elf/lib\libc.a(lib_a-wbuf.o)
 .data          0x000000000005079c        0x0 c:/altera/15.0/nios2eds/bin/gnu/h-x86_64-mingw32/bin/../lib/gcc/nios2-elf/4.9.1/../../../../../H-x86_64-mingw32/nios2-elf/lib\libc.a(lib_a-wsetup.o)
 .data          0x000000000005079c        0x0 c:/altera/15.0/nios2eds/bin/gnu/h-x86_64-mingw32/bin/../lib/gcc/nios2-elf/4.9.1/../../../../../H-x86_64-mingw32/nios2-elf/lib\libc.a(lib_a-dtoa.o)
 .data          0x000000000005079c        0x0 c:/altera/15.0/nios2eds/bin/gnu/h-x86_64-mingw32/bin/../lib/gcc/nios2-elf/4.9.1/../../../../../H-x86_64-mingw32/nios2-elf/lib\libc.a(lib_a-fflush.o)
 .data          0x000000000005079c        0x0 c:/altera/15.0/nios2eds/bin/gnu/h-x86_64-mingw32/bin/../lib/gcc/nios2-elf/4.9.1/../../../../../H-x86_64-mingw32/nios2-elf/lib\libc.a(lib_a-findfp.o)
 .data          0x000000000005079c        0x0 c:/altera/15.0/nios2eds/bin/gnu/h-x86_64-mingw32/bin/../lib/gcc/nios2-elf/4.9.1/../../../../../H-x86_64-mingw32/nios2-elf/lib\libc.a(lib_a-fputc.o)
 .data          0x000000000005079c        0x0 c:/altera/15.0/nios2eds/bin/gnu/h-x86_64-mingw32/bin/../lib/gcc/nios2-elf/4.9.1/../../../../../H-x86_64-mingw32/nios2-elf/lib\libc.a(lib_a-fputs.o)
 .data          0x000000000005079c        0x0 c:/altera/15.0/nios2eds/bin/gnu/h-x86_64-mingw32/bin/../lib/gcc/nios2-elf/4.9.1/../../../../../H-x86_64-mingw32/nios2-elf/lib\libc.a(lib_a-freer.o)
 .data          0x000000000005079c        0x0 c:/altera/15.0/nios2eds/bin/gnu/h-x86_64-mingw32/bin/../lib/gcc/nios2-elf/4.9.1/../../../../../H-x86_64-mingw32/nios2-elf/lib\libc.a(lib_a-fvwrite.o)
 .data          0x000000000005079c        0x0 c:/altera/15.0/nios2eds/bin/gnu/h-x86_64-mingw32/bin/../lib/gcc/nios2-elf/4.9.1/../../../../../H-x86_64-mingw32/nios2-elf/lib\libc.a(lib_a-fwalk.o)
 .data          0x000000000005079c        0x0 c:/altera/15.0/nios2eds/bin/gnu/h-x86_64-mingw32/bin/../lib/gcc/nios2-elf/4.9.1/../../../../../H-x86_64-mingw32/nios2-elf/lib\libc.a(lib_a-int_errno.o)
 .data          0x000000000005079c       0x78 c:/altera/15.0/nios2eds/bin/gnu/h-x86_64-mingw32/bin/../lib/gcc/nios2-elf/4.9.1/../../../../../H-x86_64-mingw32/nios2-elf/lib\libc.a(lib_a-locale.o)
 .data          0x0000000000050814        0x0 c:/altera/15.0/nios2eds/bin/gnu/h-x86_64-mingw32/bin/../lib/gcc/nios2-elf/4.9.1/../../../../../H-x86_64-mingw32/nios2-elf/lib\libc.a(lib_a-makebuf.o)
 .data          0x0000000000050814        0x0 c:/altera/15.0/nios2eds/bin/gnu/h-x86_64-mingw32/bin/../lib/gcc/nios2-elf/4.9.1/../../../../../H-x86_64-mingw32/nios2-elf/lib\libc.a(lib_a-memchr.o)
 .data          0x0000000000050814        0x0 c:/altera/15.0/nios2eds/bin/gnu/h-x86_64-mingw32/bin/../lib/gcc/nios2-elf/4.9.1/../../../../../H-x86_64-mingw32/nios2-elf/lib\libc.a(lib_a-mprec.o)
 .data          0x0000000000050814        0x0 c:/altera/15.0/nios2eds/bin/gnu/h-x86_64-mingw32/bin/../lib/gcc/nios2-elf/4.9.1/../../../../../H-x86_64-mingw32/nios2-elf/lib\libc.a(lib_a-reallocr.o)
 .data          0x0000000000050814        0x0 c:/altera/15.0/nios2eds/bin/gnu/h-x86_64-mingw32/bin/../lib/gcc/nios2-elf/4.9.1/../../../../../H-x86_64-mingw32/nios2-elf/lib\libc.a(lib_a-refill.o)
 .data          0x0000000000050814        0x0 c:/altera/15.0/nios2eds/bin/gnu/h-x86_64-mingw32/bin/../lib/gcc/nios2-elf/4.9.1/../../../../../H-x86_64-mingw32/nios2-elf/lib\libc.a(lib_a-s_fpclassify.o)
 .data          0x0000000000050814        0x0 c:/altera/15.0/nios2eds/bin/gnu/h-x86_64-mingw32/bin/../lib/gcc/nios2-elf/4.9.1/../../../../../H-x86_64-mingw32/nios2-elf/lib\libc.a(lib_a-stdio.o)
 .data          0x0000000000050814        0x0 c:/altera/15.0/nios2eds/bin/gnu/h-x86_64-mingw32/bin/../lib/gcc/nios2-elf/4.9.1/../../../../../H-x86_64-mingw32/nios2-elf/lib\libc.a(lib_a-strcmp.o)
 .data          0x0000000000050814        0x0 c:/altera/15.0/nios2eds/bin/gnu/h-x86_64-mingw32/bin/../lib/gcc/nios2-elf/4.9.1/../../../../../H-x86_64-mingw32/nios2-elf/lib\libc.a(lib_a-svfiprintf.o)
 .data          0x0000000000050814        0x0 c:/altera/15.0/nios2eds/bin/gnu/h-x86_64-mingw32/bin/../lib/gcc/nios2-elf/4.9.1/../../../../../H-x86_64-mingw32/nios2-elf/lib\libc.a(lib_a-vfiprintf.o)
 .data          0x0000000000050814        0x0 c:/altera/15.0/nios2eds/bin/gnu/h-x86_64-mingw32/bin/../lib/gcc/nios2-elf/4.9.1/../../../../../H-x86_64-mingw32/nios2-elf/lib\libc.a(lib_a-writer.o)
 .data          0x0000000000050814        0x0 c:/altera/15.0/nios2eds/bin/gnu/h-x86_64-mingw32/bin/../lib/gcc/nios2-elf/4.9.1/../../../../../H-x86_64-mingw32/nios2-elf/lib\libc.a(closer.o)
 .data          0x0000000000050814        0x0 c:/altera/15.0/nios2eds/bin/gnu/h-x86_64-mingw32/bin/../lib/gcc/nios2-elf/4.9.1/../../../../../H-x86_64-mingw32/nios2-elf/lib\libc.a(lib_a-callocr.o)
 .data          0x0000000000050814        0x0 c:/altera/15.0/nios2eds/bin/gnu/h-x86_64-mingw32/bin/../lib/gcc/nios2-elf/4.9.1/../../../../../H-x86_64-mingw32/nios2-elf/lib\libc.a(lib_a-fclose.o)
 .data          0x0000000000050814        0x0 c:/altera/15.0/nios2eds/bin/gnu/h-x86_64-mingw32/bin/../lib/gcc/nios2-elf/4.9.1/../../../../../H-x86_64-mingw32/nios2-elf/lib\libc.a(lib_a-fputwc.o)
 .data          0x0000000000050814        0x0 c:/altera/15.0/nios2eds/bin/gnu/h-x86_64-mingw32/bin/../lib/gcc/nios2-elf/4.9.1/../../../../../H-x86_64-mingw32/nios2-elf/lib\libc.a(lib_a-fstatr.o)
 .data          0x0000000000050814        0x0 c:/altera/15.0/nios2eds/bin/gnu/h-x86_64-mingw32/bin/../lib/gcc/nios2-elf/4.9.1/../../../../../H-x86_64-mingw32/nios2-elf/lib\libc.a(lib_a-isattyr.o)
 .data          0x0000000000050814        0x0 c:/altera/15.0/nios2eds/bin/gnu/h-x86_64-mingw32/bin/../lib/gcc/nios2-elf/4.9.1/../../../../../H-x86_64-mingw32/nios2-elf/lib\libc.a(lib_a-lseekr.o)
 .data          0x0000000000050814        0x0 c:/altera/15.0/nios2eds/bin/gnu/h-x86_64-mingw32/bin/../lib/gcc/nios2-elf/4.9.1/../../../../../H-x86_64-mingw32/nios2-elf/lib\libc.a(lib_a-readr.o)
 .data          0x0000000000050814        0x0 c:/altera/15.0/nios2eds/bin/gnu/h-x86_64-mingw32/bin/../lib/gcc/nios2-elf/4.9.1/../../../../../H-x86_64-mingw32/nios2-elf/lib\libc.a(lib_a-wcrtomb.o)
 .data          0x0000000000050814        0x0 c:/altera/15.0/nios2eds/bin/gnu/h-x86_64-mingw32/bin/../lib/gcc/nios2-elf/4.9.1/../../../../../H-x86_64-mingw32/nios2-elf/lib\libc.a(lib_a-wctomb_r.o)
 .data          0x0000000000050814        0x0 c:/altera/15.0/nios2eds/bin/gnu/h-x86_64-mingw32/bin/../lib/gcc/nios2-elf/4.9.1\libgcc.a(_udivdi3.o)
 .data          0x0000000000050814        0x0 c:/altera/15.0/nios2eds/bin/gnu/h-x86_64-mingw32/bin/../lib/gcc/nios2-elf/4.9.1\libgcc.a(_umoddi3.o)
 .data          0x0000000000050814        0x0 c:/altera/15.0/nios2eds/bin/gnu/h-x86_64-mingw32/bin/../lib/gcc/nios2-elf/4.9.1\libgcc.a(lib2-divmod.o)
 .data          0x0000000000050814        0x0 c:/altera/15.0/nios2eds/bin/gnu/h-x86_64-mingw32/bin/../lib/gcc/nios2-elf/4.9.1\libgcc.a(adddf3.o)
 .data          0x0000000000050814        0x0 c:/altera/15.0/nios2eds/bin/gnu/h-x86_64-mingw32/bin/../lib/gcc/nios2-elf/4.9.1\libgcc.a(divdf3.o)
 .data          0x0000000000050814        0x0 c:/altera/15.0/nios2eds/bin/gnu/h-x86_64-mingw32/bin/../lib/gcc/nios2-elf/4.9.1\libgcc.a(eqdf2.o)
 .data          0x0000000000050814        0x0 c:/altera/15.0/nios2eds/bin/gnu/h-x86_64-mingw32/bin/../lib/gcc/nios2-elf/4.9.1\libgcc.a(gedf2.o)
 .data          0x0000000000050814        0x0 c:/altera/15.0/nios2eds/bin/gnu/h-x86_64-mingw32/bin/../lib/gcc/nios2-elf/4.9.1\libgcc.a(ledf2.o)
 .data          0x0000000000050814        0x0 c:/altera/15.0/nios2eds/bin/gnu/h-x86_64-mingw32/bin/../lib/gcc/nios2-elf/4.9.1\libgcc.a(muldf3.o)
 .data          0x0000000000050814        0x0 c:/altera/15.0/nios2eds/bin/gnu/h-x86_64-mingw32/bin/../lib/gcc/nios2-elf/4.9.1\libgcc.a(subdf3.o)
 .data          0x0000000000050814        0x0 c:/altera/15.0/nios2eds/bin/gnu/h-x86_64-mingw32/bin/../lib/gcc/nios2-elf/4.9.1\libgcc.a(fixdfsi.o)
 .data          0x0000000000050814        0x0 c:/altera/15.0/nios2eds/bin/gnu/h-x86_64-mingw32/bin/../lib/gcc/nios2-elf/4.9.1\libgcc.a(floatsidf.o)
 .data          0x0000000000050814        0x0 c:/altera/15.0/nios2eds/bin/gnu/h-x86_64-mingw32/bin/../lib/gcc/nios2-elf/4.9.1\libgcc.a(floatunsidf.o)
 .data          0x0000000000050814        0x0 c:/altera/15.0/nios2eds/bin/gnu/h-x86_64-mingw32/bin/../lib/gcc/nios2-elf/4.9.1\libgcc.a(_clz.o)
 .data          0x0000000000050814        0x0 c:/altera/15.0/nios2eds/bin/gnu/h-x86_64-mingw32/bin/../lib/gcc/nios2-elf/4.9.1\libgcc.a(_clzsi2.o)
 .data          0x0000000000050814        0x0 ../DECA_socket_server_bsp/\libucosii_bsp.a(alt_fstat.o)
 .data          0x0000000000050814        0x0 ../DECA_socket_server_bsp/\libucosii_bsp.a(alt_isatty.o)
 .data          0x0000000000050814        0x0 ../DECA_socket_server_bsp/\libucosii_bsp.a(alt_load.o)
 .data          0x0000000000050814        0x0 ../DECA_socket_server_bsp/\libucosii_bsp.a(alt_lseek.o)
 .data          0x0000000000050814        0x0 ../DECA_socket_server_bsp/\libucosii_bsp.a(alt_main.o)
 .data          0x0000000000050814        0x0 ../DECA_socket_server_bsp/\libucosii_bsp.a(alt_sbrk.o)
 .data          0x0000000000050814        0x0 ../DECA_socket_server_bsp/\libucosii_bsp.a(alt_usleep.o)
 .data          0x0000000000050814        0x0 ../DECA_socket_server_bsp/\libucosii_bsp.a(alt_env_lock.o)
 .data          0x0000000000050814        0x0 ../DECA_socket_server_bsp/\libucosii_bsp.a(alt_malloc_lock.o)
 .data          0x0000000000050814        0x0 ../DECA_socket_server_bsp/\libucosii_bsp.a(os_core.o)
 .data          0x0000000000050814        0x0 ../DECA_socket_server_bsp/\libucosii_bsp.a(os_dbg.o)
 .data          0x0000000000050814        0x0 ../DECA_socket_server_bsp/\libucosii_bsp.a(os_flag.o)
 .data          0x0000000000050814        0x0 ../DECA_socket_server_bsp/\libucosii_bsp.a(os_mem.o)
 .data          0x0000000000050814        0x0 ../DECA_socket_server_bsp/\libucosii_bsp.a(os_q.o)
 .data          0x0000000000050814        0x0 ../DECA_socket_server_bsp/\libucosii_bsp.a(os_sem.o)
 .data          0x0000000000050814        0x0 ../DECA_socket_server_bsp/\libucosii_bsp.a(os_task.o)
 .data          0x0000000000050814        0x0 ../DECA_socket_server_bsp/\libucosii_bsp.a(os_time.o)
 .data          0x0000000000050814     0x10cc ../DECA_socket_server_bsp/\libucosii_bsp.a(alt_sys_init.o)
 .data          0x00000000000518e0        0x0 ../DECA_socket_server_bsp/\libucosii_bsp.a(altera_avalon_jtag_uart_fd.o)
 .data          0x00000000000518e0        0x0 ../DECA_socket_server_bsp/\libucosii_bsp.a(altera_avalon_jtag_uart_init.o)
 .data          0x00000000000518e0        0x0 ../DECA_socket_server_bsp/\libucosii_bsp.a(altera_avalon_jtag_uart_ioctl.o)
 .data          0x00000000000518e0        0x0 ../DECA_socket_server_bsp/\libucosii_bsp.a(altera_avalon_jtag_uart_read.o)
 .data          0x00000000000518e0        0x0 ../DECA_socket_server_bsp/\libucosii_bsp.a(altera_avalon_jtag_uart_write.o)
 .data          0x00000000000518e0        0x0 ../DECA_socket_server_bsp/\libucosii_bsp.a(altera_avalon_sgdma.o)
 .data          0x00000000000518e0        0x0 ../DECA_socket_server_bsp/\libucosii_bsp.a(altera_avalon_timer_sc.o)
 .data          0x00000000000518e0        0x0 ../DECA_socket_server_bsp/\libucosii_bsp.a(ins_tse_mac.o)
 .data          0x00000000000518e0        0x0 ../DECA_socket_server_bsp/\libucosii_bsp.a(alt_iniche_close.o)
 .data          0x00000000000518e0        0x0 ../DECA_socket_server_bsp/\libucosii_bsp.a(alt_iniche_dev.o)
 .data          0x00000000000518e0        0x0 ../DECA_socket_server_bsp/\libucosii_bsp.a(alt_iniche_read.o)
 .data          0x00000000000518e0        0x0 ../DECA_socket_server_bsp/\libucosii_bsp.a(alt_iniche_write.o)
 .data          0x00000000000518e0        0x0 ../DECA_socket_server_bsp/\libucosii_bsp.a(ipnet.o)
 .data          0x00000000000518e0        0x0 ../DECA_socket_server_bsp/\libucosii_bsp.a(ipstart.o)
 .data          0x00000000000518e0        0x0 ../DECA_socket_server_bsp/\libucosii_bsp.a(igmp_cmn.o)
 .data          0x00000000000518e0        0x0 ../DECA_socket_server_bsp/\libucosii_bsp.a(bsdsock.o)
 .data          0x00000000000518e0        0x0 ../DECA_socket_server_bsp/\libucosii_bsp.a(cksum.o)
 .data          0x00000000000518e0        0x0 ../DECA_socket_server_bsp/\libucosii_bsp.a(in_utils.o)
 .data          0x00000000000518e0       0x30 ../DECA_socket_server_bsp/\libucosii_bsp.a(netmain.o)
                0x00000000000518e0                nettasks
 .data          0x0000000000051910        0x0 ../DECA_socket_server_bsp/\libucosii_bsp.a(tk_crnos.o)
 .data          0x0000000000051910        0x0 ../DECA_socket_server_bsp/\libucosii_bsp.a(dhcpclnt.o)
 .data          0x0000000000051910        0x0 ../DECA_socket_server_bsp/\libucosii_bsp.a(dhcputil.o)
 .data          0x0000000000051910        0x0 ../DECA_socket_server_bsp/\libucosii_bsp.a(pktalloc.o)
 .data          0x0000000000051910        0x0 ../DECA_socket_server_bsp/\libucosii_bsp.a(q.o)
 .data          0x0000000000051910        0x0 ../DECA_socket_server_bsp/\libucosii_bsp.a(udp_open.o)
 .data          0x0000000000051910        0x0 ../DECA_socket_server_bsp/\libucosii_bsp.a(asm_cksum.o)
 .data          0x0000000000051910        0x0 ../DECA_socket_server_bsp/\libucosii_bsp.a(brdutils.o)
 .data          0x0000000000051910        0x0 ../DECA_socket_server_bsp/\libucosii_bsp.a(osportco.o)
 .data          0x0000000000051910        0x0 ../DECA_socket_server_bsp/\libucosii_bsp.a(targnios.o)
 .data          0x0000000000051910       0x48 ../DECA_socket_server_bsp/\libucosii_bsp.a(nptcp.o)
                0x0000000000051910                tcp_protosw
                0x0000000000051928                udp_protosw
                0x0000000000051940                rawip_protosw
 .data          0x0000000000051958        0x0 ../DECA_socket_server_bsp/\libucosii_bsp.a(rawsock.o)
 .data          0x0000000000051958        0x0 ../DECA_socket_server_bsp/\libucosii_bsp.a(sockcall.o)
 .data          0x0000000000051958        0x0 ../DECA_socket_server_bsp/\libucosii_bsp.a(socket.o)
 .data          0x0000000000051958        0x0 ../DECA_socket_server_bsp/\libucosii_bsp.a(socket2.o)
 .data          0x0000000000051958        0x0 ../DECA_socket_server_bsp/\libucosii_bsp.a(soselect.o)
 .data          0x0000000000051958        0x0 ../DECA_socket_server_bsp/\libucosii_bsp.a(tcp_in.o)
 .data          0x0000000000051958        0xb ../DECA_socket_server_bsp/\libucosii_bsp.a(tcp_out.o)
                0x0000000000051958                tcp_outflags
 .data          0x0000000000051963        0x0 ../DECA_socket_server_bsp/\libucosii_bsp.a(tcp_subr.o)
 .data          0x0000000000051963        0xd ../DECA_socket_server_bsp/\libucosii_bsp.a(tcp_timr.o)
                0x0000000000051963                tcp_backoff
 .data          0x0000000000051970        0x0 ../DECA_socket_server_bsp/\libucosii_bsp.a(tcp_usr.o)
 .data          0x0000000000051970        0x0 ../DECA_socket_server_bsp/\libucosii_bsp.a(tcpport.o)
 .data          0x0000000000051970        0x0 ../DECA_socket_server_bsp/\libucosii_bsp.a(udpsock.o)
 .data          0x0000000000051970        0x0 ../DECA_socket_server_bsp/\libucosii_bsp.a(alt_alarm_start.o)
 .data          0x0000000000051970        0x0 ../DECA_socket_server_bsp/\libucosii_bsp.a(alt_busy_sleep.o)
 .data          0x0000000000051970        0x0 ../DECA_socket_server_bsp/\libucosii_bsp.a(alt_close.o)
 .data          0x0000000000051970        0x0 ../DECA_socket_server_bsp/\libucosii_bsp.a(alt_dcache_flush.o)
 .data          0x0000000000051970        0x0 ../DECA_socket_server_bsp/\libucosii_bsp.a(alt_dcache_flush_all.o)
 .data          0x0000000000051970      0x1a8 ../DECA_socket_server_bsp/\libucosii_bsp.a(alt_dev.o)
                0x0000000000051970                alt_dev_null
                0x0000000000051998                alt_fd_list
 .data          0x0000000000051b18        0x0 ../DECA_socket_server_bsp/\libucosii_bsp.a(alt_dev_llist_insert.o)
 .data          0x0000000000051b18        0x0 ../DECA_socket_server_bsp/\libucosii_bsp.a(alt_do_ctors.o)
 .data          0x0000000000051b18        0x0 ../DECA_socket_server_bsp/\libucosii_bsp.a(alt_do_dtors.o)
 .data          0x0000000000051b18        0x0 ../DECA_socket_server_bsp/\libucosii_bsp.a(alt_errno.o)
 .data          0x0000000000051b18        0x0 ../DECA_socket_server_bsp/\libucosii_bsp.a(alt_find_dev.o)
 .data          0x0000000000051b18        0x0 ../DECA_socket_server_bsp/\libucosii_bsp.a(alt_icache_flush_all.o)
 .data          0x0000000000051b18        0x0 ../DECA_socket_server_bsp/\libucosii_bsp.a(alt_iic.o)
 .data          0x0000000000051b18        0x0 ../DECA_socket_server_bsp/\libucosii_bsp.a(alt_iic_isr_register.o)
 .data          0x0000000000051b18        0x0 ../DECA_socket_server_bsp/\libucosii_bsp.a(alt_io_redirect.o)
 .data          0x0000000000051b18        0x0 ../DECA_socket_server_bsp/\libucosii_bsp.a(alt_irq_entry.o)
 .data          0x0000000000051b18        0x0 ../DECA_socket_server_bsp/\libucosii_bsp.a(alt_irq_handler.o)
 .data          0x0000000000051b18        0x0 ../DECA_socket_server_bsp/\libucosii_bsp.a(alt_irq_vars.o)
 .data          0x0000000000051b18        0x0 ../DECA_socket_server_bsp/\libucosii_bsp.a(alt_open.o)
 .data          0x0000000000051b18        0x0 ../DECA_socket_server_bsp/\libucosii_bsp.a(alt_read.o)
 .data          0x0000000000051b18        0x0 ../DECA_socket_server_bsp/\libucosii_bsp.a(alt_release_fd.o)
 .data          0x0000000000051b18        0x0 ../DECA_socket_server_bsp/\libucosii_bsp.a(alt_remap_cached.o)
 .data          0x0000000000051b18        0x0 ../DECA_socket_server_bsp/\libucosii_bsp.a(alt_tick.o)
 .data          0x0000000000051b18        0x0 ../DECA_socket_server_bsp/\libucosii_bsp.a(alt_uncached_free.o)
 .data          0x0000000000051b18        0x0 ../DECA_socket_server_bsp/\libucosii_bsp.a(alt_uncached_malloc.o)
 .data          0x0000000000051b18        0x0 ../DECA_socket_server_bsp/\libucosii_bsp.a(alt_write.o)
 .data          0x0000000000051b18        0x0 ../DECA_socket_server_bsp/\libucosii_bsp.a(altera_nios2_gen2_irq.o)
 .data          0x0000000000051b18        0x0 ../DECA_socket_server_bsp/\libucosii_bsp.a(os_cpu_a.o)
 .data          0x0000000000051b18        0x0 ../DECA_socket_server_bsp/\libucosii_bsp.a(os_cpu_c.o)
 .data          0x0000000000051b18       0x18 ../DECA_socket_server_bsp/\libucosii_bsp.a(allports.o)
                0x0000000000051b18                icmpdu_types
 .data          0x0000000000051b30        0x0 ../DECA_socket_server_bsp/\libucosii_bsp.a(timeouts.o)
 .data          0x0000000000051b30        0x0 ../DECA_socket_server_bsp/\libucosii_bsp.a(tk_misc.o)
 .data          0x0000000000051b30        0x0 ../DECA_socket_server_bsp/\libucosii_bsp.a(alt_iniche_fcntl.o)
 .data          0x0000000000051b30        0x0 ../DECA_socket_server_bsp/\libucosii_bsp.a(et_arp.o)
 .data          0x0000000000051b30        0x0 ../DECA_socket_server_bsp/\libucosii_bsp.a(iface.o)
 .data          0x0000000000051b30        0x0 ../DECA_socket_server_bsp/\libucosii_bsp.a(ip.o)
 .data          0x0000000000051b30        0x0 ../DECA_socket_server_bsp/\libucosii_bsp.a(ip_reasm.o)
 .data          0x0000000000051b30        0x0 ../DECA_socket_server_bsp/\libucosii_bsp.a(ipdemux.o)
 .data          0x0000000000051b30        0x0 ../DECA_socket_server_bsp/\libucosii_bsp.a(ipmc.o)
 .data          0x0000000000051b30        0x0 ../DECA_socket_server_bsp/\libucosii_bsp.a(ipport.o)
 .data          0x0000000000051b30        0x0 ../DECA_socket_server_bsp/\libucosii_bsp.a(ipraw.o)
 .data          0x0000000000051b30        0x9 ../DECA_socket_server_bsp/\libucosii_bsp.a(iproute.o)
                0x0000000000051b30                rtp_priority
 .data          0x0000000000051b39        0x0 ../DECA_socket_server_bsp/\libucosii_bsp.a(udp.o)
 .data          0x0000000000051b39        0x0 ../DECA_socket_server_bsp/\libucosii_bsp.a(igmp.o)
 .data          0x0000000000051b39        0x0 ../DECA_socket_server_bsp/\libucosii_bsp.a(igmp2.o)
 .data          0x0000000000051b39        0x0 ../DECA_socket_server_bsp/\libucosii_bsp.a(ipopt.o)
 .data          0x0000000000051b39        0x0 ../DECA_socket_server_bsp/\libucosii_bsp.a(u_mctest.o)
 .data          0x0000000000051b39        0x0 ../DECA_socket_server_bsp/\libucosii_bsp.a(dhcsetup.o)
 *fill*         0x0000000000051b39        0x3 
 .data          0x0000000000051b3c       0xd4 ../DECA_socket_server_bsp/\libucosii_bsp.a(memdev.o)
                0x0000000000051b3c                mdio
                0x0000000000051b60                mdlist
 .data          0x0000000000051c10        0x0 ../DECA_socket_server_bsp/\libucosii_bsp.a(parseip.o)
 .data          0x0000000000051c10        0x0 ../DECA_socket_server_bsp/\libucosii_bsp.a(tcpcksum.o)
 .data          0x0000000000051c10        0x0 ../DECA_socket_server_bsp/\libucosii_bsp.a(in_pcb.o)
 .data          0x0000000000051c10       0x80 ../DECA_socket_server_bsp/\libucosii_bsp.a(vfsfiles.o)
                0x0000000000051c10                vfs_root_path
 .data          0x0000000000051c90        0x0 ../DECA_socket_server_bsp/\libucosii_bsp.a(vfsport.o)
 .data          0x0000000000051c90        0x0 ../DECA_socket_server_bsp/\libucosii_bsp.a(alt_exception_entry.o)
 .data          0x0000000000051c90        0x0 ../DECA_socket_server_bsp/\libucosii_bsp.a(alt_fcntl.o)
 .data          0x0000000000051c90        0x0 ../DECA_socket_server_bsp/\libucosii_bsp.a(alt_find_file.o)
 .data          0x0000000000051c90        0x0 ../DECA_socket_server_bsp/\libucosii_bsp.a(alt_get_fd.o)
 .data          0x0000000000051c90        0x0 ../DECA_socket_server_bsp/\libucosii_bsp.a(alt_icache_flush.o)
 .data          0x0000000000051c90        0x0 ../DECA_socket_server_bsp/\libucosii_bsp.a(alt_instruction_exception_entry.o)
 .data          0x0000000000051c90       0x18 ../DECA_socket_server_bsp/\libucosii_bsp.a(icmp.o)
 .data          0x0000000000051ca8        0x0 c:/altera/15.0/nios2eds/bin/gnu/h-x86_64-mingw32/bin/../lib/gcc/nios2-elf/4.9.1/../../../../../H-x86_64-mingw32/nios2-elf/lib\libc.a(lib_a-atexit.o)
 .data          0x0000000000051ca8        0x0 c:/altera/15.0/nios2eds/bin/gnu/h-x86_64-mingw32/bin/../lib/gcc/nios2-elf/4.9.1/../../../../../H-x86_64-mingw32/nios2-elf/lib\libc.a(lib_a-atoi.o)
 .data          0x0000000000051ca8        0x0 c:/altera/15.0/nios2eds/bin/gnu/h-x86_64-mingw32/bin/../lib/gcc/nios2-elf/4.9.1/../../../../../H-x86_64-mingw32/nios2-elf/lib\libc.a(lib_a-exit.o)
 .data          0x0000000000051ca8        0x0 c:/altera/15.0/nios2eds/bin/gnu/h-x86_64-mingw32/bin/../lib/gcc/nios2-elf/4.9.1/../../../../../H-x86_64-mingw32/nios2-elf/lib\libc.a(lib_a-malign.o)
 .data          0x0000000000051ca8        0x0 c:/altera/15.0/nios2eds/bin/gnu/h-x86_64-mingw32/bin/../lib/gcc/nios2-elf/4.9.1/../../../../../H-x86_64-mingw32/nios2-elf/lib\libc.a(lib_a-malignr.o)
 .data          0x0000000000051ca8        0x0 c:/altera/15.0/nios2eds/bin/gnu/h-x86_64-mingw32/bin/../lib/gcc/nios2-elf/4.9.1/../../../../../H-x86_64-mingw32/nios2-elf/lib\libc.a(lib_a-memcmp.o)
 .data          0x0000000000051ca8        0x0 c:/altera/15.0/nios2eds/bin/gnu/h-x86_64-mingw32/bin/../lib/gcc/nios2-elf/4.9.1/../../../../../H-x86_64-mingw32/nios2-elf/lib\libc.a(lib_a-strncmp.o)
 .data          0x0000000000051ca8        0x0 c:/altera/15.0/nios2eds/bin/gnu/h-x86_64-mingw32/bin/../lib/gcc/nios2-elf/4.9.1/../../../../../H-x86_64-mingw32/nios2-elf/lib\libc.a(lib_a-strncpy.o)
 .data          0x0000000000051ca8        0x0 c:/altera/15.0/nios2eds/bin/gnu/h-x86_64-mingw32/bin/../lib/gcc/nios2-elf/4.9.1/../../../../../H-x86_64-mingw32/nios2-elf/lib\libc.a(lib_a-strtol.o)
 .data          0x0000000000051ca8        0x0 c:/altera/15.0/nios2eds/bin/gnu/h-x86_64-mingw32/bin/../lib/gcc/nios2-elf/4.9.1/../../../../../H-x86_64-mingw32/nios2-elf/lib\libc.a(lib_a-vprintf.o)
 .data          0x0000000000051ca8        0x0 c:/altera/15.0/nios2eds/bin/gnu/h-x86_64-mingw32/bin/../lib/gcc/nios2-elf/4.9.1/../../../../../H-x86_64-mingw32/nios2-elf/lib\libc.a(lib_a-vsprintf.o)
 .data          0x0000000000051ca8        0x0 c:/altera/15.0/nios2eds/bin/gnu/h-x86_64-mingw32/bin/../lib/gcc/nios2-elf/4.9.1/../../../../../H-x86_64-mingw32/nios2-elf/lib\libc.a(lib_a-__atexit.o)
 .data          0x0000000000051ca8        0x0 c:/altera/15.0/nios2eds/bin/gnu/h-x86_64-mingw32/bin/../lib/gcc/nios2-elf/4.9.1/../../../../../H-x86_64-mingw32/nios2-elf/lib\libc.a(lib_a-__call_atexit.o)
 .data          0x0000000000051ca8        0x0 c:/altera/15.0/nios2eds/bin/gnu/h-x86_64-mingw32/bin/../lib/gcc/nios2-elf/4.9.1/../../../../../H-x86_64-mingw32/nios2-elf/lib\libc.a(lib_a-vfprintfr_1.o)
 .data          0x0000000000051ca8        0x0 ../DECA_socket_server_bsp/\libucosii_bsp.a(alt_exit.o)
                0x0000000000059ca8                _gp = ABSOLUTE ((. + 0x8000))
                0x0000000000059ca8                PROVIDE (gp, _gp)
 *(.rwdata .rwdata.*)
 *(.sdata .sdata.* .gnu.linkonce.s.*)
 .sdata         0x0000000000051ca8        0x1 obj/default/ins_tse/altera_avalon_tse.o
                0x0000000000051ca8                max_mac_system
 *fill*         0x0000000000051ca9        0x3 
 .sdata         0x0000000000051cac        0x4 c:/altera/15.0/nios2eds/bin/gnu/h-x86_64-mingw32/bin/../lib/gcc/nios2-elf/4.9.1/../../../../../H-x86_64-mingw32/nios2-elf/lib\libc.a(lib_a-ctype_.o)
                0x0000000000051cac                __ctype_ptr__
 .sdata         0x0000000000051cb0        0x8 c:/altera/15.0/nios2eds/bin/gnu/h-x86_64-mingw32/bin/../lib/gcc/nios2-elf/4.9.1/../../../../../H-x86_64-mingw32/nios2-elf/lib\libc.a(lib_a-impure.o)
                0x0000000000051cb0                _global_impure_ptr
                0x0000000000051cb4                _impure_ptr
 .sdata         0x0000000000051cb8        0x8 c:/altera/15.0/nios2eds/bin/gnu/h-x86_64-mingw32/bin/../lib/gcc/nios2-elf/4.9.1/../../../../../H-x86_64-mingw32/nios2-elf/lib\libc.a(lib_a-mallocr.o)
                0x0000000000051cb8                __malloc_sbrk_base
                0x0000000000051cbc                __malloc_trim_threshold
 .sdata         0x0000000000051cc0        0x4 c:/altera/15.0/nios2eds/bin/gnu/h-x86_64-mingw32/bin/../lib/gcc/nios2-elf/4.9.1/../../../../../H-x86_64-mingw32/nios2-elf/lib\libc.a(lib_a-locale.o)
                0x0000000000051cc0                __mb_cur_max
 .sdata         0x0000000000051cc4        0x4 c:/altera/15.0/nios2eds/bin/gnu/h-x86_64-mingw32/bin/../lib/gcc/nios2-elf/4.9.1/../../../../../H-x86_64-mingw32/nios2-elf/lib\libc.a(lib_a-wctomb_r.o)
                0x0000000000051cc4                __wctomb
 .sdata         0x0000000000051cc8        0x4 ../DECA_socket_server_bsp/\libucosii_bsp.a(alt_sbrk.o)
 .sdata         0x0000000000051ccc        0x4 ../DECA_socket_server_bsp/\libucosii_bsp.a(alt_env_lock.o)
 .sdata         0x0000000000051cd0        0x4 ../DECA_socket_server_bsp/\libucosii_bsp.a(alt_malloc_lock.o)
 .sdata         0x0000000000051cd4       0x74 ../DECA_socket_server_bsp/\libucosii_bsp.a(os_dbg.o)
                0x0000000000051cd4                OSDebugEn
                0x0000000000051cd8                OSEndiannessTest
                0x0000000000051cdc                OSEventEn
                0x0000000000051cde                OSEventMax
                0x0000000000051ce0                OSEventNameSize
                0x0000000000051ce2                OSEventSize
                0x0000000000051ce4                OSEventTblSize
                0x0000000000051ce6                OSEventMultiEn
                0x0000000000051ce8                OSFlagEn
                0x0000000000051cea                OSFlagGrpSize
                0x0000000000051cec                OSFlagNodeSize
                0x0000000000051cee                OSFlagWidth
                0x0000000000051cf0                OSFlagMax
                0x0000000000051cf2                OSFlagNameSize
                0x0000000000051cf4                OSLowestPrio
                0x0000000000051cf6                OSMboxEn
                0x0000000000051cf8                OSMemEn
                0x0000000000051cfa                OSMemMax
                0x0000000000051cfc                OSMemNameSize
                0x0000000000051cfe                OSMemSize
                0x0000000000051d00                OSMemTblSize
                0x0000000000051d02                OSMutexEn
                0x0000000000051d04                OSPtrSize
                0x0000000000051d06                OSQEn
                0x0000000000051d08                OSQMax
                0x0000000000051d0a                OSQSize
                0x0000000000051d0c                OSRdyTblSize
                0x0000000000051d0e                OSSemEn
                0x0000000000051d10                OSStkWidth
                0x0000000000051d12                OSTaskCreateEn
                0x0000000000051d14                OSTaskCreateExtEn
                0x0000000000051d16                OSTaskDelEn
                0x0000000000051d18                OSTaskIdleStkSize
                0x0000000000051d1a                OSTaskProfileEn
                0x0000000000051d1c                OSTaskMax
                0x0000000000051d1e                OSTaskNameSize
                0x0000000000051d20                OSTaskStatEn
                0x0000000000051d22                OSTaskStatStkSize
                0x0000000000051d24                OSTaskStatStkChkEn
                0x0000000000051d26                OSTaskSwHookEn
                0x0000000000051d28                OSTCBPrioTblMax
                0x0000000000051d2a                OSTCBSize
                0x0000000000051d2c                OSTicksPerSec
                0x0000000000051d2e                OSTimeTickHookEn
                0x0000000000051d30                OSVersionNbr
                0x0000000000051d32                OSTmrEn
                0x0000000000051d34                OSTmrCfgMax
                0x0000000000051d36                OSTmrCfgNameSize
                0x0000000000051d38                OSTmrCfgWheelSize
                0x0000000000051d3a                OSTmrCfgTicksPerSec
                0x0000000000051d3c                OSTmrSize
                0x0000000000051d3e                OSTmrTblSize
                0x0000000000051d40                OSTmrWheelSize
                0x0000000000051d42                OSTmrWheelTblSize
                0x0000000000051d44                OSDataSize
 .sdata         0x0000000000051d48        0x4 ../DECA_socket_server_bsp/\libucosii_bsp.a(alt_sys_init.o)
                0x0000000000051d48                tse_mac_name
 .sdata         0x0000000000051d4c        0x8 ../DECA_socket_server_bsp/\libucosii_bsp.a(altera_avalon_sgdma.o)
                0x0000000000051d4c                alt_sgdma_list
 .sdata         0x0000000000051d54        0x8 ../DECA_socket_server_bsp/\libucosii_bsp.a(alt_iniche_dev.o)
                0x0000000000051d54                alt_iniche_dev_list
 .sdata         0x0000000000051d5c        0x4 ../DECA_socket_server_bsp/\libucosii_bsp.a(ipstart.o)
                0x0000000000051d5c                ipmcfail_str
 .sdata         0x0000000000051d60        0x4 ../DECA_socket_server_bsp/\libucosii_bsp.a(cksum.o)
 .sdata         0x0000000000051d64        0x4 ../DECA_socket_server_bsp/\libucosii_bsp.a(netmain.o)
                0x0000000000051d64                num_net_tasks
 .sdata         0x0000000000051d68        0xc ../DECA_socket_server_bsp/\libucosii_bsp.a(dhcpclnt.o)
                0x0000000000051d68                xids
                0x0000000000051d6c                reqlist
                0x0000000000051d70                reqlist_len
 .sdata         0x0000000000051d74       0x10 ../DECA_socket_server_bsp/\libucosii_bsp.a(pktalloc.o)
                0x0000000000051d74                lilbufs
                0x0000000000051d78                lilbufsiz
                0x0000000000051d7c                bigbufs
                0x0000000000051d80                bigbufsiz
 .sdata         0x0000000000051d84        0x4 ../DECA_socket_server_bsp/\libucosii_bsp.a(brdutils.o)
                0x0000000000051d84                kb_last
 .sdata         0x0000000000051d88        0x4 ../DECA_socket_server_bsp/\libucosii_bsp.a(nptcp.o)
                0x0000000000051d88                TCPTV_MSL
 .sdata         0x0000000000051d8c        0x2 ../DECA_socket_server_bsp/\libucosii_bsp.a(socket.o)
                0x0000000000051d8c                socket_defaults
 .sdata         0x0000000000051d8e        0x1 ../DECA_socket_server_bsp/\libucosii_bsp.a(tcp_in.o)
                0x0000000000051d8e                tcprexmtthresh
 *fill*         0x0000000000051d8f        0x1 
 .sdata         0x0000000000051d90        0x4 ../DECA_socket_server_bsp/\libucosii_bsp.a(tcp_subr.o)
                0x0000000000051d90                tcp_ttl
 .sdata         0x0000000000051d94        0x8 ../DECA_socket_server_bsp/\libucosii_bsp.a(tcp_timr.o)
                0x0000000000051d94                tcp_keepidle
                0x0000000000051d98                tcp_keepintvl
 .sdata         0x0000000000051d9c        0x8 ../DECA_socket_server_bsp/\libucosii_bsp.a(tcp_usr.o)
                0x0000000000051d9c                tcp_sendspace
                0x0000000000051da0                tcp_recvspace
 .sdata         0x0000000000051da4       0x14 ../DECA_socket_server_bsp/\libucosii_bsp.a(alt_dev.o)
                0x0000000000051da4                alt_fs_list
                0x0000000000051dac                alt_dev_list
                0x0000000000051db4                alt_max_fd
 .sdata         0x0000000000051db8        0x4 ../DECA_socket_server_bsp/\libucosii_bsp.a(alt_errno.o)
                0x0000000000051db8                alt_errno
 .sdata         0x0000000000051dbc        0x4 ../DECA_socket_server_bsp/\libucosii_bsp.a(alt_irq_vars.o)
                0x0000000000051dbc                alt_priority_mask
 .sdata         0x0000000000051dc0        0x8 ../DECA_socket_server_bsp/\libucosii_bsp.a(alt_tick.o)
                0x0000000000051dc0                alt_alarm_list
 .sdata         0x0000000000051dc8       0x10 ../DECA_socket_server_bsp/\libucosii_bsp.a(allports.o)
                0x0000000000051dc8                name
                0x0000000000051dcc                prompt
                0x0000000000051dd0                pingdelay
                0x0000000000051dd4                deflength
 .sdata         0x0000000000051dd8        0x4 ../DECA_socket_server_bsp/\libucosii_bsp.a(et_arp.o)
                0x0000000000051dd8                arp_ageout
 .sdata         0x0000000000051ddc        0x8 ../DECA_socket_server_bsp/\libucosii_bsp.a(ip.o)
                0x0000000000051de0                ipRoutes
 .sdata         0x0000000000051de4        0x4 ../DECA_socket_server_bsp/\libucosii_bsp.a(u_mctest.o)
 .sdata         0x0000000000051de8        0x4 ../DECA_socket_server_bsp/\libucosii_bsp.a(memdev.o)
                0x0000000000051de8                mdlist_size
 .sdata         0x0000000000051dec        0x4 ../DECA_socket_server_bsp/\libucosii_bsp.a(parseip.o)
                0x0000000000051dec                pton_error
 .sdata         0x0000000000051df0        0x4 ../DECA_socket_server_bsp/\libucosii_bsp.a(vfsfiles.o)
                0x0000000000051df0                http_root_path
 *(.sdata2 .sdata2.* .gnu.linkonce.s2.*)
                0x0000000000051df4                . = ALIGN (0x4)
                0x0000000000051df4                _edata = ABSOLUTE (.)
                0x0000000000051df4                PROVIDE (edata, ABSOLUTE (.))
                0x0000000000051df4                PROVIDE (__ram_rwdata_end, ABSOLUTE (.))
                0x0000000000051df4                PROVIDE (__flash_rwdata_start, LOADADDR (.rwdata))

.bss            0x0000000000053db0     0xaab4
                0x0000000000053db0                __bss_start = ABSOLUTE (.)
                0x0000000000053db0                PROVIDE (__sbss_start, ABSOLUTE (.))
                0x0000000000053db0                PROVIDE (___sbss_start, ABSOLUTE (.))
 *(.dynsbss)
 *(.sbss .sbss.* .gnu.linkonce.sb.*)
 .sbss          0x0000000000053db0        0x1 obj/default/iniche_init.o
                0x0000000000053db0                to_ssstask
 .sbss          0x0000000000053db1        0x4 obj/default/ins_tse/altera_avalon_tse.o
                0x0000000000053db1                phy_profile_count
                0x0000000000053db2                mac_group_count
 *fill*         0x0000000000053db5        0x3 
 .sbss          0x0000000000053db8        0x8 obj/default/network_utilities.o
                0x0000000000053db8                last_flash_sector_offset
                0x0000000000053dbc                last_flash_sector
 .sbss          0x0000000000053dc0       0x10 obj/default/simple_socket_server.o
                0x0000000000053dc4                SSSLEDCommandQ
                0x0000000000053dc8                SSSLEDLightshowSem
                0x0000000000053dcc                SSSLEDEventFlag
 .sbss          0x0000000000053dd0        0xc c:/altera/15.0/nios2eds/bin/gnu/h-x86_64-mingw32/bin/../lib/gcc/nios2-elf/4.9.1/../../../../../H-x86_64-mingw32/nios2-elf/lib\libc.a(lib_a-mallocr.o)
                0x0000000000053dd0                __malloc_max_total_mem
                0x0000000000053dd4                __malloc_max_sbrked_mem
                0x0000000000053dd8                __malloc_top_pad
 .sbss          0x0000000000053ddc        0x4 c:/altera/15.0/nios2eds/bin/gnu/h-x86_64-mingw32/bin/../lib/gcc/nios2-elf/4.9.1/../../../../../H-x86_64-mingw32/nios2-elf/lib\libc.a(lib_a-int_errno.o)
                0x0000000000053ddc                errno
 .sbss          0x0000000000053de0        0xc c:/altera/15.0/nios2eds/bin/gnu/h-x86_64-mingw32/bin/../lib/gcc/nios2-elf/4.9.1/../../../../../H-x86_64-mingw32/nios2-elf/lib\libc.a(lib_a-locale.o)
                0x0000000000053de0                _PathLocale
                0x0000000000053de4                __mlocale_changed
                0x0000000000053de8                __nlocale_changed
 .sbss          0x0000000000053dec        0xc ../DECA_socket_server_bsp/\libucosii_bsp.a(alt_main.o)
                0x0000000000053dec                alt_argc
                0x0000000000053df0                alt_argv
                0x0000000000053df4                alt_envp
 .sbss          0x0000000000053df8        0x8 ../DECA_socket_server_bsp/\libucosii_bsp.a(alt_env_lock.o)
                0x0000000000053dfc                alt_envsem
 .sbss          0x0000000000053e00        0x8 ../DECA_socket_server_bsp/\libucosii_bsp.a(alt_malloc_lock.o)
                0x0000000000053e04                alt_heapsem
 .sbss          0x0000000000053e08       0x50 ../DECA_socket_server_bsp/\libucosii_bsp.a(os_core.o)
                0x0000000000053e08                OSLockNesting
                0x0000000000053e09                OSRunning
                0x0000000000053e0c                OSIdleCtr
                0x0000000000053e10                OSPrioHighRdy
                0x0000000000053e11                OSPrioCur
                0x0000000000053e14                OSTCBList
                0x0000000000053e18                OSTickStepState
                0x0000000000053e1c                OSCtxSwCtr
                0x0000000000053e20                OSIdleCtrMax
                0x0000000000053e24                OSTCBFreeList
                0x0000000000053e28                OSCPUUsage
                0x0000000000053e29                OSTaskCtr
                0x0000000000053e2c                OSMemFreeList
                0x0000000000053e30                OSTCBHighRdy
                0x0000000000053e34                OSQFreeList
                0x0000000000053e38                OSRdyGrp
                0x0000000000053e39                OSRdyTbl
                0x0000000000053e3c                OSEventFreeList
                0x0000000000053e40                OSIntNesting
                0x0000000000053e44                OSTCBCur
                0x0000000000053e48                OSTime
                0x0000000000053e4c                OSFlagFreeList
                0x0000000000053e50                OSStatRdy
                0x0000000000053e54                OSIdleCtrRun
 .sbss          0x0000000000053e58        0x1 ../DECA_socket_server_bsp/\libucosii_bsp.a(ins_tse_mac.o)
                0x0000000000053e58                number_of_tse_mac
 *fill*         0x0000000000053e59        0x3 
 .sbss          0x0000000000053e5c        0xc ../DECA_socket_server_bsp/\libucosii_bsp.a(ipnet.o)
                0x0000000000053e5c                MaxLnh
                0x0000000000053e60                MaxMtu
                0x0000000000053e64                NDEBUG
 .sbss          0x0000000000053e68        0x8 ../DECA_socket_server_bsp/\libucosii_bsp.a(ipstart.o)
                0x0000000000053e68                ifNumber
 .sbss          0x0000000000053e70       0x10 ../DECA_socket_server_bsp/\libucosii_bsp.a(igmp_cmn.o)
                0x0000000000053e70                igmp_timers_are_running
                0x0000000000053e74                igmp_cticks
                0x0000000000053e78                igmp_all_hosts_group
                0x0000000000053e7c                igmp_all_rtrs_group
 .sbss          0x0000000000053e80        0xe ../DECA_socket_server_bsp/\libucosii_bsp.a(netmain.o)
                0x0000000000053e80                netmain_wakes
                0x0000000000053e84                nettick_wakes
                0x0000000000053e88                iniche_net_ready
                0x0000000000053e8c                to_netmain
                0x0000000000053e8d                to_nettick
 *fill*         0x0000000000053e8e        0x2 
 .sbss          0x0000000000053e90        0x4 ../DECA_socket_server_bsp/\libucosii_bsp.a(tk_crnos.o)
                0x0000000000053e90                tcp_sleep_timeout
 .sbss          0x0000000000053e94       0x34 ../DECA_socket_server_bsp/\libucosii_bsp.a(dhcpclnt.o)
                0x0000000000053e94                dhc_conn
                0x0000000000053e98                dsc_errors
                0x0000000000053e9c                dsc_discovers
                0x0000000000053ea0                dsc_offers
                0x0000000000053ea4                dsc_requests
                0x0000000000053ea8                dsc_acks
                0x0000000000053eac                dsc_bpreplys
                0x0000000000053eb0                dsc_declines
                0x0000000000053eb4                dsc_releases
                0x0000000000053eb8                dsc_naks
                0x0000000000053ebc                dsc_renew
                0x0000000000053ec0                dsc_rebind
                0x0000000000053ec4                dsc_rlyerrs
 .sbss          0x0000000000053ec8        0x4 ../DECA_socket_server_bsp/\libucosii_bsp.a(udp_open.o)
                0x0000000000053ec8                firstudp
 .sbss          0x0000000000053ecc       0x18 ../DECA_socket_server_bsp/\libucosii_bsp.a(brdutils.o)
                0x0000000000053ecc                cticks_initialized
                0x0000000000053ed0                irq_level
                0x0000000000053edc                cticks_factor
                0x0000000000053ee0                OS_TPS
 .sbss          0x0000000000053ee4       0x18 ../DECA_socket_server_bsp/\libucosii_bsp.a(osportco.o)
                0x0000000000053ee4                tcp_sleep_count
                0x0000000000053ee8                tcp_wakeup_count
                0x0000000000053eec                netq_intmask
                0x0000000000053ef0                old_mode
                0x0000000000053ef4                global_TCPwakeup_setIndx
                0x0000000000053ef8                cticks
 .sbss          0x0000000000053efc        0xc ../DECA_socket_server_bsp/\libucosii_bsp.a(targnios.o)
                0x0000000000053efc                memtrapsize
                0x0000000000053f00                mheap_sem_ptr
                0x0000000000053f04                rcvdq_sem_ptr
 .sbss          0x0000000000053f08       0x12 ../DECA_socket_server_bsp/\libucosii_bsp.a(nptcp.o)
                0x0000000000053f08                nextslow
                0x0000000000053f10                mbstat
                0x0000000000053f18                select_wait
 *fill*         0x0000000000053f1a        0x2 
 .sbss          0x0000000000053f1c        0x8 ../DECA_socket_server_bsp/\libucosii_bsp.a(tcp_in.o)
                0x0000000000053f1c                tcpprintfs
                0x0000000000053f20                dropline
 .sbss          0x0000000000053f24        0x4 ../DECA_socket_server_bsp/\libucosii_bsp.a(tcp_out.o)
                0x0000000000053f24                tcp_optionbuf
 .sbss          0x0000000000053f28        0x8 ../DECA_socket_server_bsp/\libucosii_bsp.a(tcp_timr.o)
                0x0000000000053f28                tcp_maxidle
                0x0000000000053f2c                tcp_iss
 .sbss          0x0000000000053f30        0x4 ../DECA_socket_server_bsp/\libucosii_bsp.a(alt_dev.o)
                0x0000000000053f30                alt_fd_list_lock
 .sbss          0x0000000000053f34        0x4 ../DECA_socket_server_bsp/\libucosii_bsp.a(alt_irq_vars.o)
                0x0000000000053f34                alt_irq_active
 .sbss          0x0000000000053f38        0x8 ../DECA_socket_server_bsp/\libucosii_bsp.a(alt_tick.o)
                0x0000000000053f38                _alt_tick_rate
                0x0000000000053f3c                _alt_nticks
 .sbss          0x0000000000053f40        0x8 ../DECA_socket_server_bsp/\libucosii_bsp.a(allports.o)
                0x0000000000053f40                activehost
 .sbss          0x0000000000053f48        0xc ../DECA_socket_server_bsp/\libucosii_bsp.a(timeouts.o)
                0x0000000000053f48                nextppp
                0x0000000000053f4c                port_1s_callout
 .sbss          0x0000000000053f54       0x1c ../DECA_socket_server_bsp/\libucosii_bsp.a(et_arp.o)
                0x0000000000053f58                arpcache
                0x0000000000053f60                arpReqsIn
                0x0000000000053f64                arpReqsOut
                0x0000000000053f68                arpRepsIn
                0x0000000000053f6c                arpRepsOut
 .sbss          0x0000000000053f70        0x4 ../DECA_socket_server_bsp/\libucosii_bsp.a(ip.o)
                0x0000000000053f70                rt_mib
 .sbss          0x0000000000053f74        0xc ../DECA_socket_server_bsp/\libucosii_bsp.a(ip_reasm.o)
                0x0000000000053f74                ipr_curr_mem
                0x0000000000053f78                h_ireq
                0x0000000000053f7c                ire_cticks
 .sbss          0x0000000000053f80       0x11 ../DECA_socket_server_bsp/\libucosii_bsp.a(ipport.o)
                0x0000000000053f80                port_prep
                0x0000000000053f84                net_system_exit
                0x0000000000053f88                so_evtmap_create
                0x0000000000053f8c                so_evtmap_delete
                0x0000000000053f90                so_evtmap
 *fill*         0x0000000000053f91        0x3 
 .sbss          0x0000000000053f94        0x4 ../DECA_socket_server_bsp/\libucosii_bsp.a(ipraw.o)
                0x0000000000053f94                ipraw_eps
 .sbss          0x0000000000053f98        0x4 ../DECA_socket_server_bsp/\libucosii_bsp.a(iproute.o)
                0x0000000000053f98                cachedRoute
 .sbss          0x0000000000053f9c        0x2 ../DECA_socket_server_bsp/\libucosii_bsp.a(udp.o)
 *fill*         0x0000000000053f9e        0x2 
 .sbss          0x0000000000053fa0        0x8 ../DECA_socket_server_bsp/\libucosii_bsp.a(in_pcb.o)
                0x0000000000053fa0                inpcb_cachehits
                0x0000000000053fa4                inpcb_cachemiss
 .sbss          0x0000000000053fa8       0x20 ../DECA_socket_server_bsp/\libucosii_bsp.a(vfsfiles.o)
                0x0000000000053fa8                vfsystems
                0x0000000000053fac                vfiles
                0x0000000000053fb0                vfsfiles
                0x0000000000053fb4                vfopen_error
                0x0000000000053fb8                vfs_dir_stale
                0x0000000000053fbc                vfs_open_files
                0x0000000000053fc0                vfs_total_rw_space
                0x0000000000053fc4                vfs_total_dyna_files
 .sbss          0x0000000000053fc8        0x4 ../DECA_socket_server_bsp/\libucosii_bsp.a(alt_instruction_exception_entry.o)
                0x0000000000053fc8                alt_instruction_exception_handler
 .sbss          0x0000000000053fcc        0x4 ../DECA_socket_server_bsp/\libucosii_bsp.a(icmp.o)
                0x0000000000053fcc                icmpdu_hook
 *(.sbss2 .sbss2.* .gnu.linkonce.sb2.*)
 *(.scommon)
                0x0000000000053fd0                PROVIDE (__sbss_end, ABSOLUTE (.))
                0x0000000000053fd0                PROVIDE (___sbss_end, ABSOLUTE (.))
 *(.dynbss)
 *(.bss .bss.* .gnu.linkonce.b.*)
 .bss           0x0000000000053fd0        0x0 ../DECA_socket_server_bsp//obj/HAL/src/crt0.o
 .bss           0x0000000000053fd0        0x0 obj/default/alt_error_handler.o
 .bss           0x0000000000053fd0        0x0 obj/default/iniche_init.o
 .bss           0x0000000000053fd0        0x0 obj/default/ins_tse/altera_avalon_tse.o
 .bss           0x0000000000053fd0        0x0 obj/default/led.o
 .bss           0x0000000000053fd0        0x0 obj/default/network_utilities.o
 .bss           0x0000000000053fd0      0x5f0 obj/default/simple_socket_server.o
 .bss           0x00000000000545c0        0x0 obj/default/tse_my_system.o
 .bss           0x00000000000545c0        0x0 c:/altera/15.0/nios2eds/bin/gnu/h-x86_64-mingw32/bin/../lib/gcc/nios2-elf/4.9.1/../../../../../H-x86_64-mingw32/nios2-elf/lib\libc.a(lib_a-ctype_.o)
 .bss           0x00000000000545c0        0x0 c:/altera/15.0/nios2eds/bin/gnu/h-x86_64-mingw32/bin/../lib/gcc/nios2-elf/4.9.1/../../../../../H-x86_64-mingw32/nios2-elf/lib\libc.a(lib_a-fprintf.o)
 .bss           0x00000000000545c0        0x0 c:/altera/15.0/nios2eds/bin/gnu/h-x86_64-mingw32/bin/../lib/gcc/nios2-elf/4.9.1/../../../../../H-x86_64-mingw32/nios2-elf/lib\libc.a(lib_a-fwrite.o)
 .bss           0x00000000000545c0        0x0 c:/altera/15.0/nios2eds/bin/gnu/h-x86_64-mingw32/bin/../lib/gcc/nios2-elf/4.9.1/../../../../../H-x86_64-mingw32/nios2-elf/lib\libc.a(lib_a-getc.o)
 .bss           0x00000000000545c0        0x0 c:/altera/15.0/nios2eds/bin/gnu/h-x86_64-mingw32/bin/../lib/gcc/nios2-elf/4.9.1/../../../../../H-x86_64-mingw32/nios2-elf/lib\libc.a(lib_a-impure.o)
 .bss           0x00000000000545c0        0x0 c:/altera/15.0/nios2eds/bin/gnu/h-x86_64-mingw32/bin/../lib/gcc/nios2-elf/4.9.1/../../../../../H-x86_64-mingw32/nios2-elf/lib\libc.a(lib_a-malloc.o)
 .bss           0x00000000000545c0       0x28 c:/altera/15.0/nios2eds/bin/gnu/h-x86_64-mingw32/bin/../lib/gcc/nios2-elf/4.9.1/../../../../../H-x86_64-mingw32/nios2-elf/lib\libc.a(lib_a-mallocr.o)
                0x00000000000545c0                __malloc_current_mallinfo
 .bss           0x00000000000545e8        0x0 c:/altera/15.0/nios2eds/bin/gnu/h-x86_64-mingw32/bin/../lib/gcc/nios2-elf/4.9.1/../../../../../H-x86_64-mingw32/nios2-elf/lib\libc.a(lib_a-memcpy.o)
 .bss           0x00000000000545e8        0x0 c:/altera/15.0/nios2eds/bin/gnu/h-x86_64-mingw32/bin/../lib/gcc/nios2-elf/4.9.1/../../../../../H-x86_64-mingw32/nios2-elf/lib\libc.a(lib_a-memmove.o)
 .bss           0x00000000000545e8        0x0 c:/altera/15.0/nios2eds/bin/gnu/h-x86_64-mingw32/bin/../lib/gcc/nios2-elf/4.9.1/../../../../../H-x86_64-mingw32/nios2-elf/lib\libc.a(lib_a-memset.o)
 .bss           0x00000000000545e8        0x0 c:/altera/15.0/nios2eds/bin/gnu/h-x86_64-mingw32/bin/../lib/gcc/nios2-elf/4.9.1/../../../../../H-x86_64-mingw32/nios2-elf/lib\libc.a(lib_a-perror.o)
 .bss           0x00000000000545e8        0x0 c:/altera/15.0/nios2eds/bin/gnu/h-x86_64-mingw32/bin/../lib/gcc/nios2-elf/4.9.1/../../../../../H-x86_64-mingw32/nios2-elf/lib\libc.a(lib_a-printf.o)
 .bss           0x00000000000545e8        0x0 c:/altera/15.0/nios2eds/bin/gnu/h-x86_64-mingw32/bin/../lib/gcc/nios2-elf/4.9.1/../../../../../H-x86_64-mingw32/nios2-elf/lib\libc.a(lib_a-putc.o)
 .bss           0x00000000000545e8        0x0 c:/altera/15.0/nios2eds/bin/gnu/h-x86_64-mingw32/bin/../lib/gcc/nios2-elf/4.9.1/../../../../../H-x86_64-mingw32/nios2-elf/lib\libc.a(lib_a-putchar.o)
 .bss           0x00000000000545e8        0x0 c:/altera/15.0/nios2eds/bin/gnu/h-x86_64-mingw32/bin/../lib/gcc/nios2-elf/4.9.1/../../../../../H-x86_64-mingw32/nios2-elf/lib\libc.a(lib_a-puts.o)
 .bss           0x00000000000545e8        0x0 c:/altera/15.0/nios2eds/bin/gnu/h-x86_64-mingw32/bin/../lib/gcc/nios2-elf/4.9.1/../../../../../H-x86_64-mingw32/nios2-elf/lib\libc.a(lib_a-rget.o)
 .bss           0x00000000000545e8        0x0 c:/altera/15.0/nios2eds/bin/gnu/h-x86_64-mingw32/bin/../lib/gcc/nios2-elf/4.9.1/../../../../../H-x86_64-mingw32/nios2-elf/lib\libc.a(lib_a-sbrkr.o)
 .bss           0x00000000000545e8        0x0 c:/altera/15.0/nios2eds/bin/gnu/h-x86_64-mingw32/bin/../lib/gcc/nios2-elf/4.9.1/../../../../../H-x86_64-mingw32/nios2-elf/lib\libc.a(lib_a-sprintf.o)
 .bss           0x00000000000545e8        0x0 c:/altera/15.0/nios2eds/bin/gnu/h-x86_64-mingw32/bin/../lib/gcc/nios2-elf/4.9.1/../../../../../H-x86_64-mingw32/nios2-elf/lib\libc.a(lib_a-strchr.o)
 .bss           0x00000000000545e8        0x0 c:/altera/15.0/nios2eds/bin/gnu/h-x86_64-mingw32/bin/../lib/gcc/nios2-elf/4.9.1/../../../../../H-x86_64-mingw32/nios2-elf/lib\libc.a(lib_a-strcpy.o)
 .bss           0x00000000000545e8        0x0 c:/altera/15.0/nios2eds/bin/gnu/h-x86_64-mingw32/bin/../lib/gcc/nios2-elf/4.9.1/../../../../../H-x86_64-mingw32/nios2-elf/lib\libc.a(lib_a-strerror.o)
 .bss           0x00000000000545e8        0x0 c:/altera/15.0/nios2eds/bin/gnu/h-x86_64-mingw32/bin/../lib/gcc/nios2-elf/4.9.1/../../../../../H-x86_64-mingw32/nios2-elf/lib\libc.a(lib_a-strlen.o)
 .bss           0x00000000000545e8        0x0 c:/altera/15.0/nios2eds/bin/gnu/h-x86_64-mingw32/bin/../lib/gcc/nios2-elf/4.9.1/../../../../../H-x86_64-mingw32/nios2-elf/lib\libc.a(lib_a-svfprintf.o)
 .bss           0x00000000000545e8        0x0 c:/altera/15.0/nios2eds/bin/gnu/h-x86_64-mingw32/bin/../lib/gcc/nios2-elf/4.9.1/../../../../../H-x86_64-mingw32/nios2-elf/lib\libc.a(lib_a-u_strerr.o)
 .bss           0x00000000000545e8        0x0 c:/altera/15.0/nios2eds/bin/gnu/h-x86_64-mingw32/bin/../lib/gcc/nios2-elf/4.9.1/../../../../../H-x86_64-mingw32/nios2-elf/lib\libc.a(lib_a-vfprintf.o)
 .bss           0x00000000000545e8        0x0 c:/altera/15.0/nios2eds/bin/gnu/h-x86_64-mingw32/bin/../lib/gcc/nios2-elf/4.9.1/../../../../../H-x86_64-mingw32/nios2-elf/lib\libc.a(lib_a-wbuf.o)
 .bss           0x00000000000545e8        0x0 c:/altera/15.0/nios2eds/bin/gnu/h-x86_64-mingw32/bin/../lib/gcc/nios2-elf/4.9.1/../../../../../H-x86_64-mingw32/nios2-elf/lib\libc.a(lib_a-wsetup.o)
 .bss           0x00000000000545e8        0x0 c:/altera/15.0/nios2eds/bin/gnu/h-x86_64-mingw32/bin/../lib/gcc/nios2-elf/4.9.1/../../../../../H-x86_64-mingw32/nios2-elf/lib\libc.a(lib_a-dtoa.o)
 .bss           0x00000000000545e8        0x0 c:/altera/15.0/nios2eds/bin/gnu/h-x86_64-mingw32/bin/../lib/gcc/nios2-elf/4.9.1/../../../../../H-x86_64-mingw32/nios2-elf/lib\libc.a(lib_a-fflush.o)
 .bss           0x00000000000545e8        0x0 c:/altera/15.0/nios2eds/bin/gnu/h-x86_64-mingw32/bin/../lib/gcc/nios2-elf/4.9.1/../../../../../H-x86_64-mingw32/nios2-elf/lib\libc.a(lib_a-findfp.o)
 .bss           0x00000000000545e8        0x0 c:/altera/15.0/nios2eds/bin/gnu/h-x86_64-mingw32/bin/../lib/gcc/nios2-elf/4.9.1/../../../../../H-x86_64-mingw32/nios2-elf/lib\libc.a(lib_a-fputc.o)
 .bss           0x00000000000545e8        0x0 c:/altera/15.0/nios2eds/bin/gnu/h-x86_64-mingw32/bin/../lib/gcc/nios2-elf/4.9.1/../../../../../H-x86_64-mingw32/nios2-elf/lib\libc.a(lib_a-fputs.o)
 .bss           0x00000000000545e8        0x0 c:/altera/15.0/nios2eds/bin/gnu/h-x86_64-mingw32/bin/../lib/gcc/nios2-elf/4.9.1/../../../../../H-x86_64-mingw32/nios2-elf/lib\libc.a(lib_a-freer.o)
 .bss           0x00000000000545e8        0x0 c:/altera/15.0/nios2eds/bin/gnu/h-x86_64-mingw32/bin/../lib/gcc/nios2-elf/4.9.1/../../../../../H-x86_64-mingw32/nios2-elf/lib\libc.a(lib_a-fvwrite.o)
 .bss           0x00000000000545e8        0x0 c:/altera/15.0/nios2eds/bin/gnu/h-x86_64-mingw32/bin/../lib/gcc/nios2-elf/4.9.1/../../../../../H-x86_64-mingw32/nios2-elf/lib\libc.a(lib_a-fwalk.o)
 .bss           0x00000000000545e8        0x0 c:/altera/15.0/nios2eds/bin/gnu/h-x86_64-mingw32/bin/../lib/gcc/nios2-elf/4.9.1/../../../../../H-x86_64-mingw32/nios2-elf/lib\libc.a(lib_a-int_errno.o)
 .bss           0x00000000000545e8        0x0 c:/altera/15.0/nios2eds/bin/gnu/h-x86_64-mingw32/bin/../lib/gcc/nios2-elf/4.9.1/../../../../../H-x86_64-mingw32/nios2-elf/lib\libc.a(lib_a-locale.o)
 .bss           0x00000000000545e8        0x0 c:/altera/15.0/nios2eds/bin/gnu/h-x86_64-mingw32/bin/../lib/gcc/nios2-elf/4.9.1/../../../../../H-x86_64-mingw32/nios2-elf/lib\libc.a(lib_a-makebuf.o)
 .bss           0x00000000000545e8        0x0 c:/altera/15.0/nios2eds/bin/gnu/h-x86_64-mingw32/bin/../lib/gcc/nios2-elf/4.9.1/../../../../../H-x86_64-mingw32/nios2-elf/lib\libc.a(lib_a-memchr.o)
 .bss           0x00000000000545e8        0x0 c:/altera/15.0/nios2eds/bin/gnu/h-x86_64-mingw32/bin/../lib/gcc/nios2-elf/4.9.1/../../../../../H-x86_64-mingw32/nios2-elf/lib\libc.a(lib_a-mprec.o)
 .bss           0x00000000000545e8        0x0 c:/altera/15.0/nios2eds/bin/gnu/h-x86_64-mingw32/bin/../lib/gcc/nios2-elf/4.9.1/../../../../../H-x86_64-mingw32/nios2-elf/lib\libc.a(lib_a-reallocr.o)
 .bss           0x00000000000545e8        0x0 c:/altera/15.0/nios2eds/bin/gnu/h-x86_64-mingw32/bin/../lib/gcc/nios2-elf/4.9.1/../../../../../H-x86_64-mingw32/nios2-elf/lib\libc.a(lib_a-refill.o)
 .bss           0x00000000000545e8        0x0 c:/altera/15.0/nios2eds/bin/gnu/h-x86_64-mingw32/bin/../lib/gcc/nios2-elf/4.9.1/../../../../../H-x86_64-mingw32/nios2-elf/lib\libc.a(lib_a-s_fpclassify.o)
 .bss           0x00000000000545e8        0x0 c:/altera/15.0/nios2eds/bin/gnu/h-x86_64-mingw32/bin/../lib/gcc/nios2-elf/4.9.1/../../../../../H-x86_64-mingw32/nios2-elf/lib\libc.a(lib_a-stdio.o)
 .bss           0x00000000000545e8        0x0 c:/altera/15.0/nios2eds/bin/gnu/h-x86_64-mingw32/bin/../lib/gcc/nios2-elf/4.9.1/../../../../../H-x86_64-mingw32/nios2-elf/lib\libc.a(lib_a-strcmp.o)
 .bss           0x00000000000545e8        0x0 c:/altera/15.0/nios2eds/bin/gnu/h-x86_64-mingw32/bin/../lib/gcc/nios2-elf/4.9.1/../../../../../H-x86_64-mingw32/nios2-elf/lib\libc.a(lib_a-svfiprintf.o)
 .bss           0x00000000000545e8        0x0 c:/altera/15.0/nios2eds/bin/gnu/h-x86_64-mingw32/bin/../lib/gcc/nios2-elf/4.9.1/../../../../../H-x86_64-mingw32/nios2-elf/lib\libc.a(lib_a-vfiprintf.o)
 .bss           0x00000000000545e8        0x0 c:/altera/15.0/nios2eds/bin/gnu/h-x86_64-mingw32/bin/../lib/gcc/nios2-elf/4.9.1/../../../../../H-x86_64-mingw32/nios2-elf/lib\libc.a(lib_a-writer.o)
 .bss           0x00000000000545e8        0x0 c:/altera/15.0/nios2eds/bin/gnu/h-x86_64-mingw32/bin/../lib/gcc/nios2-elf/4.9.1/../../../../../H-x86_64-mingw32/nios2-elf/lib\libc.a(closer.o)
 .bss           0x00000000000545e8        0x0 c:/altera/15.0/nios2eds/bin/gnu/h-x86_64-mingw32/bin/../lib/gcc/nios2-elf/4.9.1/../../../../../H-x86_64-mingw32/nios2-elf/lib\libc.a(lib_a-callocr.o)
 .bss           0x00000000000545e8        0x0 c:/altera/15.0/nios2eds/bin/gnu/h-x86_64-mingw32/bin/../lib/gcc/nios2-elf/4.9.1/../../../../../H-x86_64-mingw32/nios2-elf/lib\libc.a(lib_a-fclose.o)
 .bss           0x00000000000545e8        0x0 c:/altera/15.0/nios2eds/bin/gnu/h-x86_64-mingw32/bin/../lib/gcc/nios2-elf/4.9.1/../../../../../H-x86_64-mingw32/nios2-elf/lib\libc.a(lib_a-fputwc.o)
 .bss           0x00000000000545e8        0x0 c:/altera/15.0/nios2eds/bin/gnu/h-x86_64-mingw32/bin/../lib/gcc/nios2-elf/4.9.1/../../../../../H-x86_64-mingw32/nios2-elf/lib\libc.a(lib_a-fstatr.o)
 .bss           0x00000000000545e8        0x0 c:/altera/15.0/nios2eds/bin/gnu/h-x86_64-mingw32/bin/../lib/gcc/nios2-elf/4.9.1/../../../../../H-x86_64-mingw32/nios2-elf/lib\libc.a(lib_a-isattyr.o)
 .bss           0x00000000000545e8        0x0 c:/altera/15.0/nios2eds/bin/gnu/h-x86_64-mingw32/bin/../lib/gcc/nios2-elf/4.9.1/../../../../../H-x86_64-mingw32/nios2-elf/lib\libc.a(lib_a-lseekr.o)
 .bss           0x00000000000545e8        0x0 c:/altera/15.0/nios2eds/bin/gnu/h-x86_64-mingw32/bin/../lib/gcc/nios2-elf/4.9.1/../../../../../H-x86_64-mingw32/nios2-elf/lib\libc.a(lib_a-readr.o)
 .bss           0x00000000000545e8        0x0 c:/altera/15.0/nios2eds/bin/gnu/h-x86_64-mingw32/bin/../lib/gcc/nios2-elf/4.9.1/../../../../../H-x86_64-mingw32/nios2-elf/lib\libc.a(lib_a-wcrtomb.o)
 .bss           0x00000000000545e8        0x0 c:/altera/15.0/nios2eds/bin/gnu/h-x86_64-mingw32/bin/../lib/gcc/nios2-elf/4.9.1/../../../../../H-x86_64-mingw32/nios2-elf/lib\libc.a(lib_a-wctomb_r.o)
 .bss           0x00000000000545e8        0x0 c:/altera/15.0/nios2eds/bin/gnu/h-x86_64-mingw32/bin/../lib/gcc/nios2-elf/4.9.1\libgcc.a(_udivdi3.o)
 .bss           0x00000000000545e8        0x0 c:/altera/15.0/nios2eds/bin/gnu/h-x86_64-mingw32/bin/../lib/gcc/nios2-elf/4.9.1\libgcc.a(_umoddi3.o)
 .bss           0x00000000000545e8        0x0 c:/altera/15.0/nios2eds/bin/gnu/h-x86_64-mingw32/bin/../lib/gcc/nios2-elf/4.9.1\libgcc.a(lib2-divmod.o)
 .bss           0x00000000000545e8        0x0 c:/altera/15.0/nios2eds/bin/gnu/h-x86_64-mingw32/bin/../lib/gcc/nios2-elf/4.9.1\libgcc.a(adddf3.o)
 .bss           0x00000000000545e8        0x0 c:/altera/15.0/nios2eds/bin/gnu/h-x86_64-mingw32/bin/../lib/gcc/nios2-elf/4.9.1\libgcc.a(divdf3.o)
 .bss           0x00000000000545e8        0x0 c:/altera/15.0/nios2eds/bin/gnu/h-x86_64-mingw32/bin/../lib/gcc/nios2-elf/4.9.1\libgcc.a(eqdf2.o)
 .bss           0x00000000000545e8        0x0 c:/altera/15.0/nios2eds/bin/gnu/h-x86_64-mingw32/bin/../lib/gcc/nios2-elf/4.9.1\libgcc.a(gedf2.o)
 .bss           0x00000000000545e8        0x0 c:/altera/15.0/nios2eds/bin/gnu/h-x86_64-mingw32/bin/../lib/gcc/nios2-elf/4.9.1\libgcc.a(ledf2.o)
 .bss           0x00000000000545e8        0x0 c:/altera/15.0/nios2eds/bin/gnu/h-x86_64-mingw32/bin/../lib/gcc/nios2-elf/4.9.1\libgcc.a(muldf3.o)
 .bss           0x00000000000545e8        0x0 c:/altera/15.0/nios2eds/bin/gnu/h-x86_64-mingw32/bin/../lib/gcc/nios2-elf/4.9.1\libgcc.a(subdf3.o)
 .bss           0x00000000000545e8        0x0 c:/altera/15.0/nios2eds/bin/gnu/h-x86_64-mingw32/bin/../lib/gcc/nios2-elf/4.9.1\libgcc.a(fixdfsi.o)
 .bss           0x00000000000545e8        0x0 c:/altera/15.0/nios2eds/bin/gnu/h-x86_64-mingw32/bin/../lib/gcc/nios2-elf/4.9.1\libgcc.a(floatsidf.o)
 .bss           0x00000000000545e8        0x0 c:/altera/15.0/nios2eds/bin/gnu/h-x86_64-mingw32/bin/../lib/gcc/nios2-elf/4.9.1\libgcc.a(floatunsidf.o)
 .bss           0x00000000000545e8        0x0 c:/altera/15.0/nios2eds/bin/gnu/h-x86_64-mingw32/bin/../lib/gcc/nios2-elf/4.9.1\libgcc.a(_clz.o)
 .bss           0x00000000000545e8        0x0 c:/altera/15.0/nios2eds/bin/gnu/h-x86_64-mingw32/bin/../lib/gcc/nios2-elf/4.9.1\libgcc.a(_clzsi2.o)
 .bss           0x00000000000545e8        0x0 ../DECA_socket_server_bsp/\libucosii_bsp.a(alt_fstat.o)
 .bss           0x00000000000545e8        0x0 ../DECA_socket_server_bsp/\libucosii_bsp.a(alt_isatty.o)
 .bss           0x00000000000545e8        0x0 ../DECA_socket_server_bsp/\libucosii_bsp.a(alt_load.o)
 .bss           0x00000000000545e8        0x0 ../DECA_socket_server_bsp/\libucosii_bsp.a(alt_lseek.o)
 .bss           0x00000000000545e8        0x0 ../DECA_socket_server_bsp/\libucosii_bsp.a(alt_main.o)
 .bss           0x00000000000545e8        0x0 ../DECA_socket_server_bsp/\libucosii_bsp.a(alt_sbrk.o)
 .bss           0x00000000000545e8        0x0 ../DECA_socket_server_bsp/\libucosii_bsp.a(alt_usleep.o)
 .bss           0x00000000000545e8        0x0 ../DECA_socket_server_bsp/\libucosii_bsp.a(alt_env_lock.o)
 .bss           0x00000000000545e8        0x0 ../DECA_socket_server_bsp/\libucosii_bsp.a(alt_malloc_lock.o)
 .bss           0x00000000000545e8        0x0 ../DECA_socket_server_bsp/\libucosii_bsp.a(os_core.o)
 .bss           0x00000000000545e8        0x0 ../DECA_socket_server_bsp/\libucosii_bsp.a(os_dbg.o)
 .bss           0x00000000000545e8        0x0 ../DECA_socket_server_bsp/\libucosii_bsp.a(os_flag.o)
 .bss           0x00000000000545e8        0x0 ../DECA_socket_server_bsp/\libucosii_bsp.a(os_mem.o)
 .bss           0x00000000000545e8        0x0 ../DECA_socket_server_bsp/\libucosii_bsp.a(os_q.o)
 .bss           0x00000000000545e8        0x0 ../DECA_socket_server_bsp/\libucosii_bsp.a(os_sem.o)
 .bss           0x00000000000545e8        0x0 ../DECA_socket_server_bsp/\libucosii_bsp.a(os_task.o)
 .bss           0x00000000000545e8        0x0 ../DECA_socket_server_bsp/\libucosii_bsp.a(os_time.o)
 .bss           0x00000000000545e8        0x0 ../DECA_socket_server_bsp/\libucosii_bsp.a(alt_sys_init.o)
 .bss           0x00000000000545e8        0x0 ../DECA_socket_server_bsp/\libucosii_bsp.a(altera_avalon_jtag_uart_fd.o)
 .bss           0x00000000000545e8        0x0 ../DECA_socket_server_bsp/\libucosii_bsp.a(altera_avalon_jtag_uart_init.o)
 .bss           0x00000000000545e8        0x0 ../DECA_socket_server_bsp/\libucosii_bsp.a(altera_avalon_jtag_uart_ioctl.o)
 .bss           0x00000000000545e8        0x0 ../DECA_socket_server_bsp/\libucosii_bsp.a(altera_avalon_jtag_uart_read.o)
 .bss           0x00000000000545e8        0x0 ../DECA_socket_server_bsp/\libucosii_bsp.a(altera_avalon_jtag_uart_write.o)
 .bss           0x00000000000545e8        0x0 ../DECA_socket_server_bsp/\libucosii_bsp.a(altera_avalon_sgdma.o)
 .bss           0x00000000000545e8        0x0 ../DECA_socket_server_bsp/\libucosii_bsp.a(altera_avalon_timer_sc.o)
 .bss           0x00000000000545e8        0x0 ../DECA_socket_server_bsp/\libucosii_bsp.a(ins_tse_mac.o)
 .bss           0x00000000000545e8        0x0 ../DECA_socket_server_bsp/\libucosii_bsp.a(alt_iniche_close.o)
 .bss           0x00000000000545e8        0x0 ../DECA_socket_server_bsp/\libucosii_bsp.a(alt_iniche_dev.o)
 .bss           0x00000000000545e8        0x0 ../DECA_socket_server_bsp/\libucosii_bsp.a(alt_iniche_read.o)
 .bss           0x00000000000545e8        0x0 ../DECA_socket_server_bsp/\libucosii_bsp.a(alt_iniche_write.o)
 .bss           0x00000000000545e8        0x0 ../DECA_socket_server_bsp/\libucosii_bsp.a(ipnet.o)
 .bss           0x00000000000545e8       0x3c ../DECA_socket_server_bsp/\libucosii_bsp.a(ipstart.o)
 .bss           0x0000000000054624        0x0 ../DECA_socket_server_bsp/\libucosii_bsp.a(igmp_cmn.o)
 .bss           0x0000000000054624        0x0 ../DECA_socket_server_bsp/\libucosii_bsp.a(bsdsock.o)
 .bss           0x0000000000054624        0x0 ../DECA_socket_server_bsp/\libucosii_bsp.a(cksum.o)
 .bss           0x0000000000054624       0x18 ../DECA_socket_server_bsp/\libucosii_bsp.a(in_utils.o)
 .bss           0x000000000005463c        0x0 ../DECA_socket_server_bsp/\libucosii_bsp.a(netmain.o)
 .bss           0x000000000005463c        0x0 ../DECA_socket_server_bsp/\libucosii_bsp.a(tk_crnos.o)
 .bss           0x000000000005463c        0x0 ../DECA_socket_server_bsp/\libucosii_bsp.a(dhcpclnt.o)
 .bss           0x000000000005463c        0x0 ../DECA_socket_server_bsp/\libucosii_bsp.a(dhcputil.o)
 .bss           0x000000000005463c        0x0 ../DECA_socket_server_bsp/\libucosii_bsp.a(pktalloc.o)
 .bss           0x000000000005463c        0x0 ../DECA_socket_server_bsp/\libucosii_bsp.a(q.o)
 .bss           0x000000000005463c        0x0 ../DECA_socket_server_bsp/\libucosii_bsp.a(udp_open.o)
 .bss           0x000000000005463c        0x0 ../DECA_socket_server_bsp/\libucosii_bsp.a(asm_cksum.o)
 .bss           0x000000000005463c        0x0 ../DECA_socket_server_bsp/\libucosii_bsp.a(brdutils.o)
 .bss           0x000000000005463c        0x0 ../DECA_socket_server_bsp/\libucosii_bsp.a(osportco.o)
 .bss           0x000000000005463c        0x0 ../DECA_socket_server_bsp/\libucosii_bsp.a(targnios.o)
 .bss           0x000000000005463c        0x0 ../DECA_socket_server_bsp/\libucosii_bsp.a(nptcp.o)
 .bss           0x000000000005463c        0x0 ../DECA_socket_server_bsp/\libucosii_bsp.a(rawsock.o)
 .bss           0x000000000005463c        0x0 ../DECA_socket_server_bsp/\libucosii_bsp.a(sockcall.o)
 .bss           0x000000000005463c        0x0 ../DECA_socket_server_bsp/\libucosii_bsp.a(socket.o)
 .bss           0x000000000005463c        0x0 ../DECA_socket_server_bsp/\libucosii_bsp.a(socket2.o)
 .bss           0x000000000005463c        0x0 ../DECA_socket_server_bsp/\libucosii_bsp.a(soselect.o)
 .bss           0x000000000005463c        0x0 ../DECA_socket_server_bsp/\libucosii_bsp.a(tcp_in.o)
 .bss           0x000000000005463c        0x0 ../DECA_socket_server_bsp/\libucosii_bsp.a(tcp_out.o)
 .bss           0x000000000005463c        0x0 ../DECA_socket_server_bsp/\libucosii_bsp.a(tcp_subr.o)
 .bss           0x000000000005463c        0x0 ../DECA_socket_server_bsp/\libucosii_bsp.a(tcp_timr.o)
 .bss           0x000000000005463c        0x0 ../DECA_socket_server_bsp/\libucosii_bsp.a(tcp_usr.o)
 .bss           0x000000000005463c        0x0 ../DECA_socket_server_bsp/\libucosii_bsp.a(tcpport.o)
 .bss           0x000000000005463c        0x0 ../DECA_socket_server_bsp/\libucosii_bsp.a(udpsock.o)
 .bss           0x000000000005463c        0x0 ../DECA_socket_server_bsp/\libucosii_bsp.a(alt_alarm_start.o)
 .bss           0x000000000005463c        0x0 ../DECA_socket_server_bsp/\libucosii_bsp.a(alt_busy_sleep.o)
 .bss           0x000000000005463c        0x0 ../DECA_socket_server_bsp/\libucosii_bsp.a(alt_close.o)
 .bss           0x000000000005463c        0x0 ../DECA_socket_server_bsp/\libucosii_bsp.a(alt_dcache_flush.o)
 .bss           0x000000000005463c        0x0 ../DECA_socket_server_bsp/\libucosii_bsp.a(alt_dcache_flush_all.o)
 .bss           0x000000000005463c        0x0 ../DECA_socket_server_bsp/\libucosii_bsp.a(alt_dev.o)
 .bss           0x000000000005463c        0x0 ../DECA_socket_server_bsp/\libucosii_bsp.a(alt_dev_llist_insert.o)
 .bss           0x000000000005463c        0x0 ../DECA_socket_server_bsp/\libucosii_bsp.a(alt_do_ctors.o)
 .bss           0x000000000005463c        0x0 ../DECA_socket_server_bsp/\libucosii_bsp.a(alt_do_dtors.o)
 .bss           0x000000000005463c        0x0 ../DECA_socket_server_bsp/\libucosii_bsp.a(alt_errno.o)
 .bss           0x000000000005463c        0x0 ../DECA_socket_server_bsp/\libucosii_bsp.a(alt_find_dev.o)
 .bss           0x000000000005463c        0x0 ../DECA_socket_server_bsp/\libucosii_bsp.a(alt_icache_flush_all.o)
 .bss           0x000000000005463c        0x0 ../DECA_socket_server_bsp/\libucosii_bsp.a(alt_iic.o)
 .bss           0x000000000005463c        0x0 ../DECA_socket_server_bsp/\libucosii_bsp.a(alt_iic_isr_register.o)
 .bss           0x000000000005463c        0x0 ../DECA_socket_server_bsp/\libucosii_bsp.a(alt_io_redirect.o)
 .bss           0x000000000005463c        0x0 ../DECA_socket_server_bsp/\libucosii_bsp.a(alt_irq_entry.o)
 .bss           0x000000000005463c        0x0 ../DECA_socket_server_bsp/\libucosii_bsp.a(alt_irq_handler.o)
 .bss           0x000000000005463c        0x0 ../DECA_socket_server_bsp/\libucosii_bsp.a(alt_irq_vars.o)
 .bss           0x000000000005463c        0x0 ../DECA_socket_server_bsp/\libucosii_bsp.a(alt_open.o)
 .bss           0x000000000005463c        0x0 ../DECA_socket_server_bsp/\libucosii_bsp.a(alt_read.o)
 .bss           0x000000000005463c        0x0 ../DECA_socket_server_bsp/\libucosii_bsp.a(alt_release_fd.o)
 .bss           0x000000000005463c        0x0 ../DECA_socket_server_bsp/\libucosii_bsp.a(alt_remap_cached.o)
 .bss           0x000000000005463c        0x0 ../DECA_socket_server_bsp/\libucosii_bsp.a(alt_tick.o)
 .bss           0x000000000005463c        0x0 ../DECA_socket_server_bsp/\libucosii_bsp.a(alt_uncached_free.o)
 .bss           0x000000000005463c        0x0 ../DECA_socket_server_bsp/\libucosii_bsp.a(alt_uncached_malloc.o)
 .bss           0x000000000005463c        0x0 ../DECA_socket_server_bsp/\libucosii_bsp.a(alt_write.o)
 .bss           0x000000000005463c        0x0 ../DECA_socket_server_bsp/\libucosii_bsp.a(altera_nios2_gen2_irq.o)
 .bss           0x000000000005463c        0x0 ../DECA_socket_server_bsp/\libucosii_bsp.a(os_cpu_a.o)
 .bss           0x000000000005463c        0x0 ../DECA_socket_server_bsp/\libucosii_bsp.a(os_cpu_c.o)
 .bss           0x000000000005463c        0x0 ../DECA_socket_server_bsp/\libucosii_bsp.a(allports.o)
 .bss           0x000000000005463c        0x0 ../DECA_socket_server_bsp/\libucosii_bsp.a(timeouts.o)
 .bss           0x000000000005463c        0x0 ../DECA_socket_server_bsp/\libucosii_bsp.a(tk_misc.o)
 .bss           0x000000000005463c        0x0 ../DECA_socket_server_bsp/\libucosii_bsp.a(alt_iniche_fcntl.o)
 .bss           0x000000000005463c        0x0 ../DECA_socket_server_bsp/\libucosii_bsp.a(et_arp.o)
 .bss           0x000000000005463c        0x0 ../DECA_socket_server_bsp/\libucosii_bsp.a(iface.o)
 .bss           0x000000000005463c        0x0 ../DECA_socket_server_bsp/\libucosii_bsp.a(ip.o)
 .bss           0x000000000005463c        0x0 ../DECA_socket_server_bsp/\libucosii_bsp.a(ip_reasm.o)
 .bss           0x000000000005463c        0x0 ../DECA_socket_server_bsp/\libucosii_bsp.a(ipdemux.o)
 .bss           0x000000000005463c        0x0 ../DECA_socket_server_bsp/\libucosii_bsp.a(ipmc.o)
 .bss           0x000000000005463c        0x0 ../DECA_socket_server_bsp/\libucosii_bsp.a(ipport.o)
 .bss           0x000000000005463c        0x0 ../DECA_socket_server_bsp/\libucosii_bsp.a(ipraw.o)
 .bss           0x000000000005463c        0x0 ../DECA_socket_server_bsp/\libucosii_bsp.a(iproute.o)
 .bss           0x000000000005463c        0x0 ../DECA_socket_server_bsp/\libucosii_bsp.a(udp.o)
 .bss           0x000000000005463c        0x0 ../DECA_socket_server_bsp/\libucosii_bsp.a(igmp.o)
 .bss           0x000000000005463c        0x0 ../DECA_socket_server_bsp/\libucosii_bsp.a(igmp2.o)
 .bss           0x000000000005463c        0x0 ../DECA_socket_server_bsp/\libucosii_bsp.a(ipopt.o)
 .bss           0x000000000005463c        0x0 ../DECA_socket_server_bsp/\libucosii_bsp.a(u_mctest.o)
 .bss           0x000000000005463c        0x0 ../DECA_socket_server_bsp/\libucosii_bsp.a(dhcsetup.o)
 .bss           0x000000000005463c        0x0 ../DECA_socket_server_bsp/\libucosii_bsp.a(memdev.o)
 .bss           0x000000000005463c       0x1e ../DECA_socket_server_bsp/\libucosii_bsp.a(parseip.o)
 .bss           0x000000000005465a        0x0 ../DECA_socket_server_bsp/\libucosii_bsp.a(tcpcksum.o)
 .bss           0x000000000005465a        0x0 ../DECA_socket_server_bsp/\libucosii_bsp.a(in_pcb.o)
 .bss           0x000000000005465a        0x0 ../DECA_socket_server_bsp/\libucosii_bsp.a(vfsfiles.o)
 .bss           0x000000000005465a        0x0 ../DECA_socket_server_bsp/\libucosii_bsp.a(vfsport.o)
 .bss           0x000000000005465a        0x0 ../DECA_socket_server_bsp/\libucosii_bsp.a(alt_exception_entry.o)
 .bss           0x000000000005465a        0x0 ../DECA_socket_server_bsp/\libucosii_bsp.a(alt_fcntl.o)
 .bss           0x000000000005465a        0x0 ../DECA_socket_server_bsp/\libucosii_bsp.a(alt_find_file.o)
 .bss           0x000000000005465a        0x0 ../DECA_socket_server_bsp/\libucosii_bsp.a(alt_get_fd.o)
 .bss           0x000000000005465a        0x0 ../DECA_socket_server_bsp/\libucosii_bsp.a(alt_icache_flush.o)
 .bss           0x000000000005465a        0x0 ../DECA_socket_server_bsp/\libucosii_bsp.a(alt_instruction_exception_entry.o)
 .bss           0x000000000005465a        0x0 ../DECA_socket_server_bsp/\libucosii_bsp.a(icmp.o)
 .bss           0x000000000005465a        0x0 c:/altera/15.0/nios2eds/bin/gnu/h-x86_64-mingw32/bin/../lib/gcc/nios2-elf/4.9.1/../../../../../H-x86_64-mingw32/nios2-elf/lib\libc.a(lib_a-atexit.o)
 .bss           0x000000000005465a        0x0 c:/altera/15.0/nios2eds/bin/gnu/h-x86_64-mingw32/bin/../lib/gcc/nios2-elf/4.9.1/../../../../../H-x86_64-mingw32/nios2-elf/lib\libc.a(lib_a-atoi.o)
 .bss           0x000000000005465a        0x0 c:/altera/15.0/nios2eds/bin/gnu/h-x86_64-mingw32/bin/../lib/gcc/nios2-elf/4.9.1/../../../../../H-x86_64-mingw32/nios2-elf/lib\libc.a(lib_a-exit.o)
 .bss           0x000000000005465a        0x0 c:/altera/15.0/nios2eds/bin/gnu/h-x86_64-mingw32/bin/../lib/gcc/nios2-elf/4.9.1/../../../../../H-x86_64-mingw32/nios2-elf/lib\libc.a(lib_a-malign.o)
 .bss           0x000000000005465a        0x0 c:/altera/15.0/nios2eds/bin/gnu/h-x86_64-mingw32/bin/../lib/gcc/nios2-elf/4.9.1/../../../../../H-x86_64-mingw32/nios2-elf/lib\libc.a(lib_a-malignr.o)
 .bss           0x000000000005465a        0x0 c:/altera/15.0/nios2eds/bin/gnu/h-x86_64-mingw32/bin/../lib/gcc/nios2-elf/4.9.1/../../../../../H-x86_64-mingw32/nios2-elf/lib\libc.a(lib_a-memcmp.o)
 .bss           0x000000000005465a        0x0 c:/altera/15.0/nios2eds/bin/gnu/h-x86_64-mingw32/bin/../lib/gcc/nios2-elf/4.9.1/../../../../../H-x86_64-mingw32/nios2-elf/lib\libc.a(lib_a-strncmp.o)
 .bss           0x000000000005465a        0x0 c:/altera/15.0/nios2eds/bin/gnu/h-x86_64-mingw32/bin/../lib/gcc/nios2-elf/4.9.1/../../../../../H-x86_64-mingw32/nios2-elf/lib\libc.a(lib_a-strncpy.o)
 .bss           0x000000000005465a        0x0 c:/altera/15.0/nios2eds/bin/gnu/h-x86_64-mingw32/bin/../lib/gcc/nios2-elf/4.9.1/../../../../../H-x86_64-mingw32/nios2-elf/lib\libc.a(lib_a-strtol.o)
 .bss           0x000000000005465a        0x0 c:/altera/15.0/nios2eds/bin/gnu/h-x86_64-mingw32/bin/../lib/gcc/nios2-elf/4.9.1/../../../../../H-x86_64-mingw32/nios2-elf/lib\libc.a(lib_a-vprintf.o)
 .bss           0x000000000005465a        0x0 c:/altera/15.0/nios2eds/bin/gnu/h-x86_64-mingw32/bin/../lib/gcc/nios2-elf/4.9.1/../../../../../H-x86_64-mingw32/nios2-elf/lib\libc.a(lib_a-vsprintf.o)
 .bss           0x000000000005465a        0x0 c:/altera/15.0/nios2eds/bin/gnu/h-x86_64-mingw32/bin/../lib/gcc/nios2-elf/4.9.1/../../../../../H-x86_64-mingw32/nios2-elf/lib\libc.a(lib_a-__atexit.o)
 .bss           0x000000000005465a        0x0 c:/altera/15.0/nios2eds/bin/gnu/h-x86_64-mingw32/bin/../lib/gcc/nios2-elf/4.9.1/../../../../../H-x86_64-mingw32/nios2-elf/lib\libc.a(lib_a-__call_atexit.o)
 .bss           0x000000000005465a        0x0 c:/altera/15.0/nios2eds/bin/gnu/h-x86_64-mingw32/bin/../lib/gcc/nios2-elf/4.9.1/../../../../../H-x86_64-mingw32/nios2-elf/lib\libc.a(lib_a-vfprintfr_1.o)
 .bss           0x000000000005465a        0x0 ../DECA_socket_server_bsp/\libucosii_bsp.a(alt_exit.o)
 *(COMMON)
 *fill*         0x000000000005465a        0x2 
 COMMON         0x000000000005465c     0x2000 obj/default/iniche_init.o
                0x000000000005465c                SSSInitialTaskStk
 COMMON         0x000000000005665c       0x20 obj/default/ins_tse/altera_avalon_tse.o
                0x000000000005665c                pmac_groups
                0x000000000005666c                pphy_profiles
 COMMON         0x000000000005667c     0x4078 obj/default/simple_socket_server.o
                0x000000000005667c                LED7SegLightshowTaskStk
                0x000000000005867c                SSSLEDCommandQTbl
                0x00000000000586f4                LEDManagementTaskStk
 COMMON         0x000000000005a6f4     0x3224 ../DECA_socket_server_bsp/\libucosii_bsp.a(os_core.o)
                0x000000000005a6f4                OSFlagTbl
                0x000000000005aa64                OSMemTbl
                0x000000000005b694                OSTaskStatStk
                0x000000000005be94                OSQTbl
                0x000000000005c074                OSTaskIdleStk
                0x000000000005c874                OSEventTbl
                0x000000000005d3b4                OSTCBTbl
                0x000000000005d8c4                OSTCBPrioTbl
 COMMON         0x000000000005d918       0xe0 ../DECA_socket_server_bsp/\libucosii_bsp.a(alt_sys_init.o)
                0x000000000005d918                tse_mac_if
 COMMON         0x000000000005d9f8      0x160 ../DECA_socket_server_bsp/\libucosii_bsp.a(ins_tse_mac.o)
                0x000000000005d9f8                tse_iniche_dev_driver_data
                0x000000000005da28                tse
 COMMON         0x000000000005db58       0x14 ../DECA_socket_server_bsp/\libucosii_bsp.a(ipnet.o)
                0x000000000005db58                rcvdq
 COMMON         0x000000000005db6c      0x310 ../DECA_socket_server_bsp/\libucosii_bsp.a(ipstart.o)
                0x000000000005db6c                netstatic
                0x000000000005de6c                nets
 COMMON         0x000000000005de7c       0x64 ../DECA_socket_server_bsp/\libucosii_bsp.a(igmp_cmn.o)
                0x000000000005de7c                igmpstats
 COMMON         0x000000000005dee0       0x24 ../DECA_socket_server_bsp/\libucosii_bsp.a(in_utils.o)
                0x000000000005dee0                eth_prt_buf
                0x000000000005def2                ipreturn
 COMMON         0x000000000005df04       0xf0 ../DECA_socket_server_bsp/\libucosii_bsp.a(dhcpclnt.o)
                0x000000000005df04                dhc_states
 COMMON         0x000000000005dff4      0x128 ../DECA_socket_server_bsp/\libucosii_bsp.a(pktalloc.o)
                0x000000000005dff4                lilfreeq
                0x000000000005e008                memestats
                0x000000000005e018                pktlog
                0x000000000005e108                bigfreeq
 COMMON         0x000000000005e11c      0x1ec ../DECA_socket_server_bsp/\libucosii_bsp.a(osportco.o)
                0x000000000005e11c                global_tcb_ext
                0x000000000005e218                global_TCPwakeup_set
 COMMON         0x000000000005e308       0x58 ../DECA_socket_server_bsp/\libucosii_bsp.a(targnios.o)
                0x000000000005e308                resid_semaphore
                0x000000000005e348                app_semaphore
 COMMON         0x000000000005e360       0x78 ../DECA_socket_server_bsp/\libucosii_bsp.a(nptcp.o)
                0x000000000005e360                soq
                0x000000000005e374                tcpmib
                0x000000000005e3b0                mbufq
                0x000000000005e3c4                mfreeq
 COMMON         0x000000000005e3d8       0x28 ../DECA_socket_server_bsp/\libucosii_bsp.a(tcp_in.o)
                0x000000000005e3d8                tcp_saveti
 COMMON         0x000000000005e400      0x10c ../DECA_socket_server_bsp/\libucosii_bsp.a(tcp_subr.o)
                0x000000000005e400                tcb
                0x000000000005e42c                tcpstat
 COMMON         0x000000000005e50c      0x100 ../DECA_socket_server_bsp/\libucosii_bsp.a(alt_irq_handler.o)
                0x000000000005e50c                alt_irq
 COMMON         0x000000000005e60c       0x64 ../DECA_socket_server_bsp/\libucosii_bsp.a(timeouts.o)
                0x000000000005e60c                intimers
 COMMON         0x000000000005e670      0x100 ../DECA_socket_server_bsp/\libucosii_bsp.a(et_arp.o)
                0x000000000005e670                arp_table
 COMMON         0x000000000005e770       0x14 ../DECA_socket_server_bsp/\libucosii_bsp.a(iface.o)
                0x000000000005e770                netlist
 COMMON         0x000000000005e784       0x50 ../DECA_socket_server_bsp/\libucosii_bsp.a(ip.o)
                0x000000000005e784                ip_mib
 COMMON         0x000000000005e7d4       0x18 ../DECA_socket_server_bsp/\libucosii_bsp.a(ip_reasm.o)
                0x000000000005e7d4                ire_stats
 COMMON         0x000000000005e7ec       0x10 ../DECA_socket_server_bsp/\libucosii_bsp.a(udp.o)
                0x000000000005e7ec                udp_mib
 COMMON         0x000000000005e7fc       0x68 ../DECA_socket_server_bsp/\libucosii_bsp.a(icmp.o)
                0x000000000005e7fc                icmp_mib
                0x000000000005e864                . = ALIGN (0x4)
                0x000000000005e864                __bss_end = ABSOLUTE (.)

.mem_if_ddr3_emif
                0x000000000005e864        0x0
                0x000000000005e864                PROVIDE (_alt_partition_mem_if_ddr3_emif_start, ABSOLUTE (.))
 *(.mem_if_ddr3_emif .mem_if_ddr3_emif. mem_if_ddr3_emif.*)
                0x000000000005e864                . = ALIGN (0x4)
                0x000000000005e864                PROVIDE (_alt_partition_mem_if_ddr3_emif_end, ABSOLUTE (.))
                0x000000000005e864                _end = ABSOLUTE (.)
                0x000000000005e864                end = ABSOLUTE (.)
                0x000000000005e864                __alt_stack_base = ABSOLUTE (.)
                0x000000000005e864                PROVIDE (_alt_partition_mem_if_ddr3_emif_load_addr, LOADADDR (.mem_if_ddr3_emif))

.descriptor_memory
                0x0000000021040000        0x0 load address 0x000000000005e864
                0x0000000021040000                PROVIDE (_alt_partition_descriptor_memory_start, ABSOLUTE (.))
 *(.descriptor_memory .descriptor_memory. descriptor_memory.*)
                0x0000000021040000                . = ALIGN (0x4)
                0x0000000021040000                PROVIDE (_alt_partition_descriptor_memory_end, ABSOLUTE (.))
                0x000000000005e864                PROVIDE (_alt_partition_descriptor_memory_load_addr, LOADADDR (.descriptor_memory))

.stab
 *(.stab)

.stabstr
 *(.stabstr)

.stab.excl
 *(.stab.excl)

.stab.exclstr
 *(.stab.exclstr)

.stab.index
 *(.stab.index)

.stab.indexstr
 *(.stab.indexstr)

.comment        0x0000000000000000       0x23
 *(.comment)
 .comment       0x0000000000000000       0x23 obj/default/alt_error_handler.o
                                         0x24 (size before relaxing)
 .comment       0x0000000000000000       0x24 obj/default/iniche_init.o
 .comment       0x0000000000000000       0x24 obj/default/ins_tse/altera_avalon_tse.o
 .comment       0x0000000000000000       0x24 obj/default/led.o
 .comment       0x0000000000000000       0x24 obj/default/network_utilities.o
 .comment       0x0000000000000000       0x24 obj/default/simple_socket_server.o
 .comment       0x0000000000000000       0x24 obj/default/tse_my_system.o
 .comment       0x0000000000000000       0x24 c:/altera/15.0/nios2eds/bin/gnu/h-x86_64-mingw32/bin/../lib/gcc/nios2-elf/4.9.1/../../../../../H-x86_64-mingw32/nios2-elf/lib\libc.a(lib_a-ctype_.o)
 .comment       0x0000000000000000       0x24 c:/altera/15.0/nios2eds/bin/gnu/h-x86_64-mingw32/bin/../lib/gcc/nios2-elf/4.9.1/../../../../../H-x86_64-mingw32/nios2-elf/lib\libc.a(lib_a-fprintf.o)
 .comment       0x0000000000000000       0x24 c:/altera/15.0/nios2eds/bin/gnu/h-x86_64-mingw32/bin/../lib/gcc/nios2-elf/4.9.1/../../../../../H-x86_64-mingw32/nios2-elf/lib\libc.a(lib_a-fwrite.o)
 .comment       0x0000000000000000       0x24 c:/altera/15.0/nios2eds/bin/gnu/h-x86_64-mingw32/bin/../lib/gcc/nios2-elf/4.9.1/../../../../../H-x86_64-mingw32/nios2-elf/lib\libc.a(lib_a-getc.o)
 .comment       0x0000000000000000       0x24 c:/altera/15.0/nios2eds/bin/gnu/h-x86_64-mingw32/bin/../lib/gcc/nios2-elf/4.9.1/../../../../../H-x86_64-mingw32/nios2-elf/lib\libc.a(lib_a-impure.o)
 .comment       0x0000000000000000       0x24 c:/altera/15.0/nios2eds/bin/gnu/h-x86_64-mingw32/bin/../lib/gcc/nios2-elf/4.9.1/../../../../../H-x86_64-mingw32/nios2-elf/lib\libc.a(lib_a-malloc.o)
 .comment       0x0000000000000000       0x24 c:/altera/15.0/nios2eds/bin/gnu/h-x86_64-mingw32/bin/../lib/gcc/nios2-elf/4.9.1/../../../../../H-x86_64-mingw32/nios2-elf/lib\libc.a(lib_a-mallocr.o)
 .comment       0x0000000000000000       0x24 c:/altera/15.0/nios2eds/bin/gnu/h-x86_64-mingw32/bin/../lib/gcc/nios2-elf/4.9.1/../../../../../H-x86_64-mingw32/nios2-elf/lib\libc.a(lib_a-memcpy.o)
 .comment       0x0000000000000000       0x24 c:/altera/15.0/nios2eds/bin/gnu/h-x86_64-mingw32/bin/../lib/gcc/nios2-elf/4.9.1/../../../../../H-x86_64-mingw32/nios2-elf/lib\libc.a(lib_a-memmove.o)
 .comment       0x0000000000000000       0x24 c:/altera/15.0/nios2eds/bin/gnu/h-x86_64-mingw32/bin/../lib/gcc/nios2-elf/4.9.1/../../../../../H-x86_64-mingw32/nios2-elf/lib\libc.a(lib_a-memset.o)
 .comment       0x0000000000000000       0x24 c:/altera/15.0/nios2eds/bin/gnu/h-x86_64-mingw32/bin/../lib/gcc/nios2-elf/4.9.1/../../../../../H-x86_64-mingw32/nios2-elf/lib\libc.a(lib_a-perror.o)
 .comment       0x0000000000000000       0x24 c:/altera/15.0/nios2eds/bin/gnu/h-x86_64-mingw32/bin/../lib/gcc/nios2-elf/4.9.1/../../../../../H-x86_64-mingw32/nios2-elf/lib\libc.a(lib_a-printf.o)
 .comment       0x0000000000000000       0x24 c:/altera/15.0/nios2eds/bin/gnu/h-x86_64-mingw32/bin/../lib/gcc/nios2-elf/4.9.1/../../../../../H-x86_64-mingw32/nios2-elf/lib\libc.a(lib_a-putc.o)
 .comment       0x0000000000000000       0x24 c:/altera/15.0/nios2eds/bin/gnu/h-x86_64-mingw32/bin/../lib/gcc/nios2-elf/4.9.1/../../../../../H-x86_64-mingw32/nios2-elf/lib\libc.a(lib_a-putchar.o)
 .comment       0x0000000000000000       0x24 c:/altera/15.0/nios2eds/bin/gnu/h-x86_64-mingw32/bin/../lib/gcc/nios2-elf/4.9.1/../../../../../H-x86_64-mingw32/nios2-elf/lib\libc.a(lib_a-puts.o)
 .comment       0x0000000000000000       0x24 c:/altera/15.0/nios2eds/bin/gnu/h-x86_64-mingw32/bin/../lib/gcc/nios2-elf/4.9.1/../../../../../H-x86_64-mingw32/nios2-elf/lib\libc.a(lib_a-rget.o)
 .comment       0x0000000000000000       0x24 c:/altera/15.0/nios2eds/bin/gnu/h-x86_64-mingw32/bin/../lib/gcc/nios2-elf/4.9.1/../../../../../H-x86_64-mingw32/nios2-elf/lib\libc.a(lib_a-sbrkr.o)
 .comment       0x0000000000000000       0x24 c:/altera/15.0/nios2eds/bin/gnu/h-x86_64-mingw32/bin/../lib/gcc/nios2-elf/4.9.1/../../../../../H-x86_64-mingw32/nios2-elf/lib\libc.a(lib_a-sprintf.o)
 .comment       0x0000000000000000       0x24 c:/altera/15.0/nios2eds/bin/gnu/h-x86_64-mingw32/bin/../lib/gcc/nios2-elf/4.9.1/../../../../../H-x86_64-mingw32/nios2-elf/lib\libc.a(lib_a-strchr.o)
 .comment       0x0000000000000000       0x24 c:/altera/15.0/nios2eds/bin/gnu/h-x86_64-mingw32/bin/../lib/gcc/nios2-elf/4.9.1/../../../../../H-x86_64-mingw32/nios2-elf/lib\libc.a(lib_a-strcpy.o)
 .comment       0x0000000000000000       0x24 c:/altera/15.0/nios2eds/bin/gnu/h-x86_64-mingw32/bin/../lib/gcc/nios2-elf/4.9.1/../../../../../H-x86_64-mingw32/nios2-elf/lib\libc.a(lib_a-strerror.o)
 .comment       0x0000000000000000       0x24 c:/altera/15.0/nios2eds/bin/gnu/h-x86_64-mingw32/bin/../lib/gcc/nios2-elf/4.9.1/../../../../../H-x86_64-mingw32/nios2-elf/lib\libc.a(lib_a-strlen.o)
 .comment       0x0000000000000000       0x24 c:/altera/15.0/nios2eds/bin/gnu/h-x86_64-mingw32/bin/../lib/gcc/nios2-elf/4.9.1/../../../../../H-x86_64-mingw32/nios2-elf/lib\libc.a(lib_a-svfprintf.o)
 .comment       0x0000000000000000       0x24 c:/altera/15.0/nios2eds/bin/gnu/h-x86_64-mingw32/bin/../lib/gcc/nios2-elf/4.9.1/../../../../../H-x86_64-mingw32/nios2-elf/lib\libc.a(lib_a-u_strerr.o)
 .comment       0x0000000000000000       0x24 c:/altera/15.0/nios2eds/bin/gnu/h-x86_64-mingw32/bin/../lib/gcc/nios2-elf/4.9.1/../../../../../H-x86_64-mingw32/nios2-elf/lib\libc.a(lib_a-vfprintf.o)
 .comment       0x0000000000000000       0x24 c:/altera/15.0/nios2eds/bin/gnu/h-x86_64-mingw32/bin/../lib/gcc/nios2-elf/4.9.1/../../../../../H-x86_64-mingw32/nios2-elf/lib\libc.a(lib_a-wbuf.o)
 .comment       0x0000000000000000       0x24 c:/altera/15.0/nios2eds/bin/gnu/h-x86_64-mingw32/bin/../lib/gcc/nios2-elf/4.9.1/../../../../../H-x86_64-mingw32/nios2-elf/lib\libc.a(lib_a-wsetup.o)
 .comment       0x0000000000000000       0x24 c:/altera/15.0/nios2eds/bin/gnu/h-x86_64-mingw32/bin/../lib/gcc/nios2-elf/4.9.1/../../../../../H-x86_64-mingw32/nios2-elf/lib\libc.a(lib_a-dtoa.o)
 .comment       0x0000000000000000       0x24 c:/altera/15.0/nios2eds/bin/gnu/h-x86_64-mingw32/bin/../lib/gcc/nios2-elf/4.9.1/../../../../../H-x86_64-mingw32/nios2-elf/lib\libc.a(lib_a-fflush.o)
 .comment       0x0000000000000000       0x24 c:/altera/15.0/nios2eds/bin/gnu/h-x86_64-mingw32/bin/../lib/gcc/nios2-elf/4.9.1/../../../../../H-x86_64-mingw32/nios2-elf/lib\libc.a(lib_a-findfp.o)
 .comment       0x0000000000000000       0x24 c:/altera/15.0/nios2eds/bin/gnu/h-x86_64-mingw32/bin/../lib/gcc/nios2-elf/4.9.1/../../../../../H-x86_64-mingw32/nios2-elf/lib\libc.a(lib_a-fputc.o)
 .comment       0x0000000000000000       0x24 c:/altera/15.0/nios2eds/bin/gnu/h-x86_64-mingw32/bin/../lib/gcc/nios2-elf/4.9.1/../../../../../H-x86_64-mingw32/nios2-elf/lib\libc.a(lib_a-fputs.o)
 .comment       0x0000000000000000       0x24 c:/altera/15.0/nios2eds/bin/gnu/h-x86_64-mingw32/bin/../lib/gcc/nios2-elf/4.9.1/../../../../../H-x86_64-mingw32/nios2-elf/lib\libc.a(lib_a-freer.o)
 .comment       0x0000000000000000       0x24 c:/altera/15.0/nios2eds/bin/gnu/h-x86_64-mingw32/bin/../lib/gcc/nios2-elf/4.9.1/../../../../../H-x86_64-mingw32/nios2-elf/lib\libc.a(lib_a-fvwrite.o)
 .comment       0x0000000000000000       0x24 c:/altera/15.0/nios2eds/bin/gnu/h-x86_64-mingw32/bin/../lib/gcc/nios2-elf/4.9.1/../../../../../H-x86_64-mingw32/nios2-elf/lib\libc.a(lib_a-fwalk.o)
 .comment       0x0000000000000000       0x24 c:/altera/15.0/nios2eds/bin/gnu/h-x86_64-mingw32/bin/../lib/gcc/nios2-elf/4.9.1/../../../../../H-x86_64-mingw32/nios2-elf/lib\libc.a(lib_a-int_errno.o)
 .comment       0x0000000000000000       0x24 c:/altera/15.0/nios2eds/bin/gnu/h-x86_64-mingw32/bin/../lib/gcc/nios2-elf/4.9.1/../../../../../H-x86_64-mingw32/nios2-elf/lib\libc.a(lib_a-locale.o)
 .comment       0x0000000000000000       0x24 c:/altera/15.0/nios2eds/bin/gnu/h-x86_64-mingw32/bin/../lib/gcc/nios2-elf/4.9.1/../../../../../H-x86_64-mingw32/nios2-elf/lib\libc.a(lib_a-makebuf.o)
 .comment       0x0000000000000000       0x24 c:/altera/15.0/nios2eds/bin/gnu/h-x86_64-mingw32/bin/../lib/gcc/nios2-elf/4.9.1/../../../../../H-x86_64-mingw32/nios2-elf/lib\libc.a(lib_a-memchr.o)
 .comment       0x0000000000000000       0x24 c:/altera/15.0/nios2eds/bin/gnu/h-x86_64-mingw32/bin/../lib/gcc/nios2-elf/4.9.1/../../../../../H-x86_64-mingw32/nios2-elf/lib\libc.a(lib_a-mprec.o)
 .comment       0x0000000000000000       0x24 c:/altera/15.0/nios2eds/bin/gnu/h-x86_64-mingw32/bin/../lib/gcc/nios2-elf/4.9.1/../../../../../H-x86_64-mingw32/nios2-elf/lib\libc.a(lib_a-reallocr.o)
 .comment       0x0000000000000000       0x24 c:/altera/15.0/nios2eds/bin/gnu/h-x86_64-mingw32/bin/../lib/gcc/nios2-elf/4.9.1/../../../../../H-x86_64-mingw32/nios2-elf/lib\libc.a(lib_a-refill.o)
 .comment       0x0000000000000000       0x24 c:/altera/15.0/nios2eds/bin/gnu/h-x86_64-mingw32/bin/../lib/gcc/nios2-elf/4.9.1/../../../../../H-x86_64-mingw32/nios2-elf/lib\libc.a(lib_a-s_fpclassify.o)
 .comment       0x0000000000000000       0x24 c:/altera/15.0/nios2eds/bin/gnu/h-x86_64-mingw32/bin/../lib/gcc/nios2-elf/4.9.1/../../../../../H-x86_64-mingw32/nios2-elf/lib\libc.a(lib_a-stdio.o)
 .comment       0x0000000000000000       0x24 c:/altera/15.0/nios2eds/bin/gnu/h-x86_64-mingw32/bin/../lib/gcc/nios2-elf/4.9.1/../../../../../H-x86_64-mingw32/nios2-elf/lib\libc.a(lib_a-strcmp.o)
 .comment       0x0000000000000000       0x24 c:/altera/15.0/nios2eds/bin/gnu/h-x86_64-mingw32/bin/../lib/gcc/nios2-elf/4.9.1/../../../../../H-x86_64-mingw32/nios2-elf/lib\libc.a(lib_a-svfiprintf.o)
 .comment       0x0000000000000000       0x24 c:/altera/15.0/nios2eds/bin/gnu/h-x86_64-mingw32/bin/../lib/gcc/nios2-elf/4.9.1/../../../../../H-x86_64-mingw32/nios2-elf/lib\libc.a(lib_a-vfiprintf.o)
 .comment       0x0000000000000000       0x24 c:/altera/15.0/nios2eds/bin/gnu/h-x86_64-mingw32/bin/../lib/gcc/nios2-elf/4.9.1/../../../../../H-x86_64-mingw32/nios2-elf/lib\libc.a(lib_a-writer.o)
 .comment       0x0000000000000000       0x24 c:/altera/15.0/nios2eds/bin/gnu/h-x86_64-mingw32/bin/../lib/gcc/nios2-elf/4.9.1/../../../../../H-x86_64-mingw32/nios2-elf/lib\libc.a(closer.o)
 .comment       0x0000000000000000       0x24 c:/altera/15.0/nios2eds/bin/gnu/h-x86_64-mingw32/bin/../lib/gcc/nios2-elf/4.9.1/../../../../../H-x86_64-mingw32/nios2-elf/lib\libc.a(lib_a-callocr.o)
 .comment       0x0000000000000000       0x24 c:/altera/15.0/nios2eds/bin/gnu/h-x86_64-mingw32/bin/../lib/gcc/nios2-elf/4.9.1/../../../../../H-x86_64-mingw32/nios2-elf/lib\libc.a(lib_a-fclose.o)
 .comment       0x0000000000000000       0x24 c:/altera/15.0/nios2eds/bin/gnu/h-x86_64-mingw32/bin/../lib/gcc/nios2-elf/4.9.1/../../../../../H-x86_64-mingw32/nios2-elf/lib\libc.a(lib_a-fputwc.o)
 .comment       0x0000000000000000       0x24 c:/altera/15.0/nios2eds/bin/gnu/h-x86_64-mingw32/bin/../lib/gcc/nios2-elf/4.9.1/../../../../../H-x86_64-mingw32/nios2-elf/lib\libc.a(lib_a-fstatr.o)
 .comment       0x0000000000000000       0x24 c:/altera/15.0/nios2eds/bin/gnu/h-x86_64-mingw32/bin/../lib/gcc/nios2-elf/4.9.1/../../../../../H-x86_64-mingw32/nios2-elf/lib\libc.a(lib_a-isattyr.o)
 .comment       0x0000000000000000       0x24 c:/altera/15.0/nios2eds/bin/gnu/h-x86_64-mingw32/bin/../lib/gcc/nios2-elf/4.9.1/../../../../../H-x86_64-mingw32/nios2-elf/lib\libc.a(lib_a-lseekr.o)
 .comment       0x0000000000000000       0x24 c:/altera/15.0/nios2eds/bin/gnu/h-x86_64-mingw32/bin/../lib/gcc/nios2-elf/4.9.1/../../../../../H-x86_64-mingw32/nios2-elf/lib\libc.a(lib_a-readr.o)
 .comment       0x0000000000000000       0x24 c:/altera/15.0/nios2eds/bin/gnu/h-x86_64-mingw32/bin/../lib/gcc/nios2-elf/4.9.1/../../../../../H-x86_64-mingw32/nios2-elf/lib\libc.a(lib_a-wcrtomb.o)
 .comment       0x0000000000000000       0x24 c:/altera/15.0/nios2eds/bin/gnu/h-x86_64-mingw32/bin/../lib/gcc/nios2-elf/4.9.1/../../../../../H-x86_64-mingw32/nios2-elf/lib\libc.a(lib_a-wctomb_r.o)
 .comment       0x0000000000000000       0x24 c:/altera/15.0/nios2eds/bin/gnu/h-x86_64-mingw32/bin/../lib/gcc/nios2-elf/4.9.1\libgcc.a(_udivdi3.o)
 .comment       0x0000000000000000       0x24 c:/altera/15.0/nios2eds/bin/gnu/h-x86_64-mingw32/bin/../lib/gcc/nios2-elf/4.9.1\libgcc.a(_umoddi3.o)
 .comment       0x0000000000000000       0x24 c:/altera/15.0/nios2eds/bin/gnu/h-x86_64-mingw32/bin/../lib/gcc/nios2-elf/4.9.1\libgcc.a(lib2-divmod.o)
 .comment       0x0000000000000000       0x24 c:/altera/15.0/nios2eds/bin/gnu/h-x86_64-mingw32/bin/../lib/gcc/nios2-elf/4.9.1\libgcc.a(adddf3.o)
 .comment       0x0000000000000000       0x24 c:/altera/15.0/nios2eds/bin/gnu/h-x86_64-mingw32/bin/../lib/gcc/nios2-elf/4.9.1\libgcc.a(divdf3.o)
 .comment       0x0000000000000000       0x24 c:/altera/15.0/nios2eds/bin/gnu/h-x86_64-mingw32/bin/../lib/gcc/nios2-elf/4.9.1\libgcc.a(eqdf2.o)
 .comment       0x0000000000000000       0x24 c:/altera/15.0/nios2eds/bin/gnu/h-x86_64-mingw32/bin/../lib/gcc/nios2-elf/4.9.1\libgcc.a(gedf2.o)
 .comment       0x0000000000000000       0x24 c:/altera/15.0/nios2eds/bin/gnu/h-x86_64-mingw32/bin/../lib/gcc/nios2-elf/4.9.1\libgcc.a(ledf2.o)
 .comment       0x0000000000000000       0x24 c:/altera/15.0/nios2eds/bin/gnu/h-x86_64-mingw32/bin/../lib/gcc/nios2-elf/4.9.1\libgcc.a(muldf3.o)
 .comment       0x0000000000000000       0x24 c:/altera/15.0/nios2eds/bin/gnu/h-x86_64-mingw32/bin/../lib/gcc/nios2-elf/4.9.1\libgcc.a(subdf3.o)
 .comment       0x0000000000000000       0x24 c:/altera/15.0/nios2eds/bin/gnu/h-x86_64-mingw32/bin/../lib/gcc/nios2-elf/4.9.1\libgcc.a(fixdfsi.o)
 .comment       0x0000000000000000       0x24 c:/altera/15.0/nios2eds/bin/gnu/h-x86_64-mingw32/bin/../lib/gcc/nios2-elf/4.9.1\libgcc.a(floatsidf.o)
 .comment       0x0000000000000000       0x24 c:/altera/15.0/nios2eds/bin/gnu/h-x86_64-mingw32/bin/../lib/gcc/nios2-elf/4.9.1\libgcc.a(floatunsidf.o)
 .comment       0x0000000000000000       0x24 c:/altera/15.0/nios2eds/bin/gnu/h-x86_64-mingw32/bin/../lib/gcc/nios2-elf/4.9.1\libgcc.a(_clz.o)
 .comment       0x0000000000000000       0x24 c:/altera/15.0/nios2eds/bin/gnu/h-x86_64-mingw32/bin/../lib/gcc/nios2-elf/4.9.1\libgcc.a(_clzsi2.o)
 .comment       0x0000000000000000       0x24 ../DECA_socket_server_bsp/\libucosii_bsp.a(alt_fstat.o)
 .comment       0x0000000000000000       0x24 ../DECA_socket_server_bsp/\libucosii_bsp.a(alt_isatty.o)
 .comment       0x0000000000000000       0x24 ../DECA_socket_server_bsp/\libucosii_bsp.a(alt_load.o)
 .comment       0x0000000000000000       0x24 ../DECA_socket_server_bsp/\libucosii_bsp.a(alt_lseek.o)
 .comment       0x0000000000000000       0x24 ../DECA_socket_server_bsp/\libucosii_bsp.a(alt_main.o)
 .comment       0x0000000000000000       0x24 ../DECA_socket_server_bsp/\libucosii_bsp.a(alt_sbrk.o)
 .comment       0x0000000000000000       0x24 ../DECA_socket_server_bsp/\libucosii_bsp.a(alt_usleep.o)
 .comment       0x0000000000000000       0x24 ../DECA_socket_server_bsp/\libucosii_bsp.a(alt_env_lock.o)
 .comment       0x0000000000000000       0x24 ../DECA_socket_server_bsp/\libucosii_bsp.a(alt_malloc_lock.o)
 .comment       0x0000000000000000       0x24 ../DECA_socket_server_bsp/\libucosii_bsp.a(os_core.o)
 .comment       0x0000000000000000       0x24 ../DECA_socket_server_bsp/\libucosii_bsp.a(os_dbg.o)
 .comment       0x0000000000000000       0x24 ../DECA_socket_server_bsp/\libucosii_bsp.a(os_flag.o)
 .comment       0x0000000000000000       0x24 ../DECA_socket_server_bsp/\libucosii_bsp.a(os_mem.o)
 .comment       0x0000000000000000       0x24 ../DECA_socket_server_bsp/\libucosii_bsp.a(os_q.o)
 .comment       0x0000000000000000       0x24 ../DECA_socket_server_bsp/\libucosii_bsp.a(os_sem.o)
 .comment       0x0000000000000000       0x24 ../DECA_socket_server_bsp/\libucosii_bsp.a(os_task.o)
 .comment       0x0000000000000000       0x24 ../DECA_socket_server_bsp/\libucosii_bsp.a(os_time.o)
 .comment       0x0000000000000000       0x24 ../DECA_socket_server_bsp/\libucosii_bsp.a(alt_sys_init.o)
 .comment       0x0000000000000000       0x24 ../DECA_socket_server_bsp/\libucosii_bsp.a(altera_avalon_jtag_uart_fd.o)
 .comment       0x0000000000000000       0x24 ../DECA_socket_server_bsp/\libucosii_bsp.a(altera_avalon_jtag_uart_init.o)
 .comment       0x0000000000000000       0x24 ../DECA_socket_server_bsp/\libucosii_bsp.a(altera_avalon_jtag_uart_ioctl.o)
 .comment       0x0000000000000000       0x24 ../DECA_socket_server_bsp/\libucosii_bsp.a(altera_avalon_jtag_uart_read.o)
 .comment       0x0000000000000000       0x24 ../DECA_socket_server_bsp/\libucosii_bsp.a(altera_avalon_jtag_uart_write.o)
 .comment       0x0000000000000000       0x24 ../DECA_socket_server_bsp/\libucosii_bsp.a(altera_avalon_sgdma.o)
 .comment       0x0000000000000000       0x24 ../DECA_socket_server_bsp/\libucosii_bsp.a(altera_avalon_timer_sc.o)
 .comment       0x0000000000000000       0x24 ../DECA_socket_server_bsp/\libucosii_bsp.a(ins_tse_mac.o)
 .comment       0x0000000000000000       0x24 ../DECA_socket_server_bsp/\libucosii_bsp.a(alt_iniche_close.o)
 .comment       0x0000000000000000       0x24 ../DECA_socket_server_bsp/\libucosii_bsp.a(alt_iniche_dev.o)
 .comment       0x0000000000000000       0x24 ../DECA_socket_server_bsp/\libucosii_bsp.a(alt_iniche_read.o)
 .comment       0x0000000000000000       0x24 ../DECA_socket_server_bsp/\libucosii_bsp.a(alt_iniche_write.o)
 .comment       0x0000000000000000       0x24 ../DECA_socket_server_bsp/\libucosii_bsp.a(ipnet.o)
 .comment       0x0000000000000000       0x24 ../DECA_socket_server_bsp/\libucosii_bsp.a(ipstart.o)
 .comment       0x0000000000000000       0x24 ../DECA_socket_server_bsp/\libucosii_bsp.a(igmp_cmn.o)
 .comment       0x0000000000000000       0x24 ../DECA_socket_server_bsp/\libucosii_bsp.a(bsdsock.o)
 .comment       0x0000000000000000       0x24 ../DECA_socket_server_bsp/\libucosii_bsp.a(cksum.o)
 .comment       0x0000000000000000       0x24 ../DECA_socket_server_bsp/\libucosii_bsp.a(in_utils.o)
 .comment       0x0000000000000000       0x24 ../DECA_socket_server_bsp/\libucosii_bsp.a(netmain.o)
 .comment       0x0000000000000000       0x24 ../DECA_socket_server_bsp/\libucosii_bsp.a(tk_crnos.o)
 .comment       0x0000000000000000       0x24 ../DECA_socket_server_bsp/\libucosii_bsp.a(dhcpclnt.o)
 .comment       0x0000000000000000       0x24 ../DECA_socket_server_bsp/\libucosii_bsp.a(dhcputil.o)
 .comment       0x0000000000000000       0x24 ../DECA_socket_server_bsp/\libucosii_bsp.a(pktalloc.o)
 .comment       0x0000000000000000       0x24 ../DECA_socket_server_bsp/\libucosii_bsp.a(q.o)
 .comment       0x0000000000000000       0x24 ../DECA_socket_server_bsp/\libucosii_bsp.a(udp_open.o)
 .comment       0x0000000000000000       0x24 ../DECA_socket_server_bsp/\libucosii_bsp.a(brdutils.o)
 .comment       0x0000000000000000       0x24 ../DECA_socket_server_bsp/\libucosii_bsp.a(osportco.o)
 .comment       0x0000000000000000       0x24 ../DECA_socket_server_bsp/\libucosii_bsp.a(targnios.o)
 .comment       0x0000000000000000       0x24 ../DECA_socket_server_bsp/\libucosii_bsp.a(nptcp.o)
 .comment       0x0000000000000000       0x24 ../DECA_socket_server_bsp/\libucosii_bsp.a(rawsock.o)
 .comment       0x0000000000000000       0x24 ../DECA_socket_server_bsp/\libucosii_bsp.a(sockcall.o)
 .comment       0x0000000000000000       0x24 ../DECA_socket_server_bsp/\libucosii_bsp.a(socket.o)
 .comment       0x0000000000000000       0x24 ../DECA_socket_server_bsp/\libucosii_bsp.a(socket2.o)
 .comment       0x0000000000000000       0x24 ../DECA_socket_server_bsp/\libucosii_bsp.a(soselect.o)
 .comment       0x0000000000000000       0x24 ../DECA_socket_server_bsp/\libucosii_bsp.a(tcp_in.o)
 .comment       0x0000000000000000       0x24 ../DECA_socket_server_bsp/\libucosii_bsp.a(tcp_out.o)
 .comment       0x0000000000000000       0x24 ../DECA_socket_server_bsp/\libucosii_bsp.a(tcp_subr.o)
 .comment       0x0000000000000000       0x24 ../DECA_socket_server_bsp/\libucosii_bsp.a(tcp_timr.o)
 .comment       0x0000000000000000       0x24 ../DECA_socket_server_bsp/\libucosii_bsp.a(tcp_usr.o)
 .comment       0x0000000000000000       0x24 ../DECA_socket_server_bsp/\libucosii_bsp.a(tcpport.o)
 .comment       0x0000000000000000       0x24 ../DECA_socket_server_bsp/\libucosii_bsp.a(udpsock.o)
 .comment       0x0000000000000000       0x24 ../DECA_socket_server_bsp/\libucosii_bsp.a(alt_alarm_start.o)
 .comment       0x0000000000000000       0x24 ../DECA_socket_server_bsp/\libucosii_bsp.a(alt_busy_sleep.o)
 .comment       0x0000000000000000       0x24 ../DECA_socket_server_bsp/\libucosii_bsp.a(alt_close.o)
 .comment       0x0000000000000000       0x24 ../DECA_socket_server_bsp/\libucosii_bsp.a(alt_dcache_flush.o)
 .comment       0x0000000000000000       0x24 ../DECA_socket_server_bsp/\libucosii_bsp.a(alt_dcache_flush_all.o)
 .comment       0x0000000000000000       0x24 ../DECA_socket_server_bsp/\libucosii_bsp.a(alt_dev.o)
 .comment       0x0000000000000000       0x24 ../DECA_socket_server_bsp/\libucosii_bsp.a(alt_dev_llist_insert.o)
 .comment       0x0000000000000000       0x24 ../DECA_socket_server_bsp/\libucosii_bsp.a(alt_do_ctors.o)
 .comment       0x0000000000000000       0x24 ../DECA_socket_server_bsp/\libucosii_bsp.a(alt_do_dtors.o)
 .comment       0x0000000000000000       0x24 ../DECA_socket_server_bsp/\libucosii_bsp.a(alt_errno.o)
 .comment       0x0000000000000000       0x24 ../DECA_socket_server_bsp/\libucosii_bsp.a(alt_find_dev.o)
 .comment       0x0000000000000000       0x24 ../DECA_socket_server_bsp/\libucosii_bsp.a(alt_icache_flush_all.o)
 .comment       0x0000000000000000       0x24 ../DECA_socket_server_bsp/\libucosii_bsp.a(alt_iic.o)
 .comment       0x0000000000000000       0x24 ../DECA_socket_server_bsp/\libucosii_bsp.a(alt_iic_isr_register.o)
 .comment       0x0000000000000000       0x24 ../DECA_socket_server_bsp/\libucosii_bsp.a(alt_io_redirect.o)
 .comment       0x0000000000000000       0x24 ../DECA_socket_server_bsp/\libucosii_bsp.a(alt_irq_handler.o)
 .comment       0x0000000000000000       0x24 ../DECA_socket_server_bsp/\libucosii_bsp.a(alt_irq_vars.o)
 .comment       0x0000000000000000       0x24 ../DECA_socket_server_bsp/\libucosii_bsp.a(alt_open.o)
 .comment       0x0000000000000000       0x24 ../DECA_socket_server_bsp/\libucosii_bsp.a(alt_read.o)
 .comment       0x0000000000000000       0x24 ../DECA_socket_server_bsp/\libucosii_bsp.a(alt_release_fd.o)
 .comment       0x0000000000000000       0x24 ../DECA_socket_server_bsp/\libucosii_bsp.a(alt_remap_cached.o)
 .comment       0x0000000000000000       0x24 ../DECA_socket_server_bsp/\libucosii_bsp.a(alt_tick.o)
 .comment       0x0000000000000000       0x24 ../DECA_socket_server_bsp/\libucosii_bsp.a(alt_uncached_free.o)
 .comment       0x0000000000000000       0x24 ../DECA_socket_server_bsp/\libucosii_bsp.a(alt_uncached_malloc.o)
 .comment       0x0000000000000000       0x24 ../DECA_socket_server_bsp/\libucosii_bsp.a(alt_write.o)
 .comment       0x0000000000000000       0x24 ../DECA_socket_server_bsp/\libucosii_bsp.a(altera_nios2_gen2_irq.o)
 .comment       0x0000000000000000       0x24 ../DECA_socket_server_bsp/\libucosii_bsp.a(os_cpu_c.o)
 .comment       0x0000000000000000       0x24 ../DECA_socket_server_bsp/\libucosii_bsp.a(allports.o)
 .comment       0x0000000000000000       0x24 ../DECA_socket_server_bsp/\libucosii_bsp.a(timeouts.o)
 .comment       0x0000000000000000       0x24 ../DECA_socket_server_bsp/\libucosii_bsp.a(tk_misc.o)
 .comment       0x0000000000000000       0x24 ../DECA_socket_server_bsp/\libucosii_bsp.a(alt_iniche_fcntl.o)
 .comment       0x0000000000000000       0x24 ../DECA_socket_server_bsp/\libucosii_bsp.a(et_arp.o)
 .comment       0x0000000000000000       0x24 ../DECA_socket_server_bsp/\libucosii_bsp.a(iface.o)
 .comment       0x0000000000000000       0x24 ../DECA_socket_server_bsp/\libucosii_bsp.a(ip.o)
 .comment       0x0000000000000000       0x24 ../DECA_socket_server_bsp/\libucosii_bsp.a(ip_reasm.o)
 .comment       0x0000000000000000       0x24 ../DECA_socket_server_bsp/\libucosii_bsp.a(ipdemux.o)
 .comment       0x0000000000000000       0x24 ../DECA_socket_server_bsp/\libucosii_bsp.a(ipmc.o)
 .comment       0x0000000000000000       0x24 ../DECA_socket_server_bsp/\libucosii_bsp.a(ipport.o)
 .comment       0x0000000000000000       0x24 ../DECA_socket_server_bsp/\libucosii_bsp.a(ipraw.o)
 .comment       0x0000000000000000       0x24 ../DECA_socket_server_bsp/\libucosii_bsp.a(iproute.o)
 .comment       0x0000000000000000       0x24 ../DECA_socket_server_bsp/\libucosii_bsp.a(udp.o)
 .comment       0x0000000000000000       0x24 ../DECA_socket_server_bsp/\libucosii_bsp.a(igmp.o)
 .comment       0x0000000000000000       0x24 ../DECA_socket_server_bsp/\libucosii_bsp.a(igmp2.o)
 .comment       0x0000000000000000       0x24 ../DECA_socket_server_bsp/\libucosii_bsp.a(ipopt.o)
 .comment       0x0000000000000000       0x24 ../DECA_socket_server_bsp/\libucosii_bsp.a(u_mctest.o)
 .comment       0x0000000000000000       0x24 ../DECA_socket_server_bsp/\libucosii_bsp.a(dhcsetup.o)
 .comment       0x0000000000000000       0x24 ../DECA_socket_server_bsp/\libucosii_bsp.a(memdev.o)
 .comment       0x0000000000000000       0x24 ../DECA_socket_server_bsp/\libucosii_bsp.a(parseip.o)
 .comment       0x0000000000000000       0x24 ../DECA_socket_server_bsp/\libucosii_bsp.a(tcpcksum.o)
 .comment       0x0000000000000000       0x24 ../DECA_socket_server_bsp/\libucosii_bsp.a(in_pcb.o)
 .comment       0x0000000000000000       0x24 ../DECA_socket_server_bsp/\libucosii_bsp.a(vfsfiles.o)
 .comment       0x0000000000000000       0x24 ../DECA_socket_server_bsp/\libucosii_bsp.a(vfsport.o)
 .comment       0x0000000000000000       0x24 ../DECA_socket_server_bsp/\libucosii_bsp.a(alt_fcntl.o)
 .comment       0x0000000000000000       0x24 ../DECA_socket_server_bsp/\libucosii_bsp.a(alt_find_file.o)
 .comment       0x0000000000000000       0x24 ../DECA_socket_server_bsp/\libucosii_bsp.a(alt_get_fd.o)
 .comment       0x0000000000000000       0x24 ../DECA_socket_server_bsp/\libucosii_bsp.a(alt_icache_flush.o)
 .comment       0x0000000000000000       0x24 ../DECA_socket_server_bsp/\libucosii_bsp.a(alt_instruction_exception_entry.o)
 .comment       0x0000000000000000       0x24 ../DECA_socket_server_bsp/\libucosii_bsp.a(icmp.o)
 .comment       0x0000000000000000       0x24 c:/altera/15.0/nios2eds/bin/gnu/h-x86_64-mingw32/bin/../lib/gcc/nios2-elf/4.9.1/../../../../../H-x86_64-mingw32/nios2-elf/lib\libc.a(lib_a-atexit.o)
 .comment       0x0000000000000000       0x24 c:/altera/15.0/nios2eds/bin/gnu/h-x86_64-mingw32/bin/../lib/gcc/nios2-elf/4.9.1/../../../../../H-x86_64-mingw32/nios2-elf/lib\libc.a(lib_a-atoi.o)
 .comment       0x0000000000000000       0x24 c:/altera/15.0/nios2eds/bin/gnu/h-x86_64-mingw32/bin/../lib/gcc/nios2-elf/4.9.1/../../../../../H-x86_64-mingw32/nios2-elf/lib\libc.a(lib_a-exit.o)
 .comment       0x0000000000000000       0x24 c:/altera/15.0/nios2eds/bin/gnu/h-x86_64-mingw32/bin/../lib/gcc/nios2-elf/4.9.1/../../../../../H-x86_64-mingw32/nios2-elf/lib\libc.a(lib_a-malign.o)
 .comment       0x0000000000000000       0x24 c:/altera/15.0/nios2eds/bin/gnu/h-x86_64-mingw32/bin/../lib/gcc/nios2-elf/4.9.1/../../../../../H-x86_64-mingw32/nios2-elf/lib\libc.a(lib_a-malignr.o)
 .comment       0x0000000000000000       0x24 c:/altera/15.0/nios2eds/bin/gnu/h-x86_64-mingw32/bin/../lib/gcc/nios2-elf/4.9.1/../../../../../H-x86_64-mingw32/nios2-elf/lib\libc.a(lib_a-memcmp.o)
 .comment       0x0000000000000000       0x24 c:/altera/15.0/nios2eds/bin/gnu/h-x86_64-mingw32/bin/../lib/gcc/nios2-elf/4.9.1/../../../../../H-x86_64-mingw32/nios2-elf/lib\libc.a(lib_a-strncmp.o)
 .comment       0x0000000000000000       0x24 c:/altera/15.0/nios2eds/bin/gnu/h-x86_64-mingw32/bin/../lib/gcc/nios2-elf/4.9.1/../../../../../H-x86_64-mingw32/nios2-elf/lib\libc.a(lib_a-strncpy.o)
 .comment       0x0000000000000000       0x24 c:/altera/15.0/nios2eds/bin/gnu/h-x86_64-mingw32/bin/../lib/gcc/nios2-elf/4.9.1/../../../../../H-x86_64-mingw32/nios2-elf/lib\libc.a(lib_a-strtol.o)
 .comment       0x0000000000000000       0x24 c:/altera/15.0/nios2eds/bin/gnu/h-x86_64-mingw32/bin/../lib/gcc/nios2-elf/4.9.1/../../../../../H-x86_64-mingw32/nios2-elf/lib\libc.a(lib_a-vprintf.o)
 .comment       0x0000000000000000       0x24 c:/altera/15.0/nios2eds/bin/gnu/h-x86_64-mingw32/bin/../lib/gcc/nios2-elf/4.9.1/../../../../../H-x86_64-mingw32/nios2-elf/lib\libc.a(lib_a-vsprintf.o)
 .comment       0x0000000000000000       0x24 c:/altera/15.0/nios2eds/bin/gnu/h-x86_64-mingw32/bin/../lib/gcc/nios2-elf/4.9.1/../../../../../H-x86_64-mingw32/nios2-elf/lib\libc.a(lib_a-__atexit.o)
 .comment       0x0000000000000000       0x24 c:/altera/15.0/nios2eds/bin/gnu/h-x86_64-mingw32/bin/../lib/gcc/nios2-elf/4.9.1/../../../../../H-x86_64-mingw32/nios2-elf/lib\libc.a(lib_a-__call_atexit.o)
 .comment       0x0000000000000000       0x24 c:/altera/15.0/nios2eds/bin/gnu/h-x86_64-mingw32/bin/../lib/gcc/nios2-elf/4.9.1/../../../../../H-x86_64-mingw32/nios2-elf/lib\libc.a(lib_a-vfprintfr_1.o)
 .comment       0x0000000000000000       0x24 ../DECA_socket_server_bsp/\libucosii_bsp.a(alt_exit.o)

.debug
 *(.debug)

.line
 *(.line)

.debug_srcinfo
 *(.debug_srcinfo)

.debug_sfnames
 *(.debug_sfnames)

.debug_aranges  0x0000000000000000     0x1b20
 *(.debug_aranges)
 .debug_aranges
                0x0000000000000000       0x28 ../DECA_socket_server_bsp//obj/HAL/src/crt0.o
 .debug_aranges
                0x0000000000000028       0x20 obj/default/alt_error_handler.o
 .debug_aranges
                0x0000000000000048       0x20 obj/default/iniche_init.o
 .debug_aranges
                0x0000000000000068       0x20 obj/default/ins_tse/altera_avalon_tse.o
 .debug_aranges
                0x0000000000000088       0x20 obj/default/led.o
 .debug_aranges
                0x00000000000000a8       0x20 obj/default/network_utilities.o
 .debug_aranges
                0x00000000000000c8       0x20 obj/default/simple_socket_server.o
 .debug_aranges
                0x00000000000000e8       0x18 obj/default/tse_my_system.o
 .debug_aranges
                0x0000000000000100       0x18 c:/altera/15.0/nios2eds/bin/gnu/h-x86_64-mingw32/bin/../lib/gcc/nios2-elf/4.9.1/../../../../../H-x86_64-mingw32/nios2-elf/lib\libc.a(lib_a-ctype_.o)
 .debug_aranges
                0x0000000000000118       0x20 c:/altera/15.0/nios2eds/bin/gnu/h-x86_64-mingw32/bin/../lib/gcc/nios2-elf/4.9.1/../../../../../H-x86_64-mingw32/nios2-elf/lib\libc.a(lib_a-fprintf.o)
 .debug_aranges
                0x0000000000000138       0x20 c:/altera/15.0/nios2eds/bin/gnu/h-x86_64-mingw32/bin/../lib/gcc/nios2-elf/4.9.1/../../../../../H-x86_64-mingw32/nios2-elf/lib\libc.a(lib_a-fwrite.o)
 .debug_aranges
                0x0000000000000158       0x20 c:/altera/15.0/nios2eds/bin/gnu/h-x86_64-mingw32/bin/../lib/gcc/nios2-elf/4.9.1/../../../../../H-x86_64-mingw32/nios2-elf/lib\libc.a(lib_a-getc.o)
 .debug_aranges
                0x0000000000000178       0x18 c:/altera/15.0/nios2eds/bin/gnu/h-x86_64-mingw32/bin/../lib/gcc/nios2-elf/4.9.1/../../../../../H-x86_64-mingw32/nios2-elf/lib\libc.a(lib_a-impure.o)
 .debug_aranges
                0x0000000000000190       0x20 c:/altera/15.0/nios2eds/bin/gnu/h-x86_64-mingw32/bin/../lib/gcc/nios2-elf/4.9.1/../../../../../H-x86_64-mingw32/nios2-elf/lib\libc.a(lib_a-malloc.o)
 .debug_aranges
                0x00000000000001b0       0x20 c:/altera/15.0/nios2eds/bin/gnu/h-x86_64-mingw32/bin/../lib/gcc/nios2-elf/4.9.1/../../../../../H-x86_64-mingw32/nios2-elf/lib\libc.a(lib_a-mallocr.o)
 .debug_aranges
                0x00000000000001d0       0x20 c:/altera/15.0/nios2eds/bin/gnu/h-x86_64-mingw32/bin/../lib/gcc/nios2-elf/4.9.1/../../../../../H-x86_64-mingw32/nios2-elf/lib\libc.a(lib_a-memcpy.o)
 .debug_aranges
                0x00000000000001f0       0x20 c:/altera/15.0/nios2eds/bin/gnu/h-x86_64-mingw32/bin/../lib/gcc/nios2-elf/4.9.1/../../../../../H-x86_64-mingw32/nios2-elf/lib\libc.a(lib_a-memmove.o)
 .debug_aranges
                0x0000000000000210       0x20 c:/altera/15.0/nios2eds/bin/gnu/h-x86_64-mingw32/bin/../lib/gcc/nios2-elf/4.9.1/../../../../../H-x86_64-mingw32/nios2-elf/lib\libc.a(lib_a-memset.o)
 .debug_aranges
                0x0000000000000230       0x20 c:/altera/15.0/nios2eds/bin/gnu/h-x86_64-mingw32/bin/../lib/gcc/nios2-elf/4.9.1/../../../../../H-x86_64-mingw32/nios2-elf/lib\libc.a(lib_a-perror.o)
 .debug_aranges
                0x0000000000000250       0x20 c:/altera/15.0/nios2eds/bin/gnu/h-x86_64-mingw32/bin/../lib/gcc/nios2-elf/4.9.1/../../../../../H-x86_64-mingw32/nios2-elf/lib\libc.a(lib_a-printf.o)
 .debug_aranges
                0x0000000000000270       0x20 c:/altera/15.0/nios2eds/bin/gnu/h-x86_64-mingw32/bin/../lib/gcc/nios2-elf/4.9.1/../../../../../H-x86_64-mingw32/nios2-elf/lib\libc.a(lib_a-putc.o)
 .debug_aranges
                0x0000000000000290       0x20 c:/altera/15.0/nios2eds/bin/gnu/h-x86_64-mingw32/bin/../lib/gcc/nios2-elf/4.9.1/../../../../../H-x86_64-mingw32/nios2-elf/lib\libc.a(lib_a-putchar.o)
 .debug_aranges
                0x00000000000002b0       0x20 c:/altera/15.0/nios2eds/bin/gnu/h-x86_64-mingw32/bin/../lib/gcc/nios2-elf/4.9.1/../../../../../H-x86_64-mingw32/nios2-elf/lib\libc.a(lib_a-puts.o)
 .debug_aranges
                0x00000000000002d0       0x20 c:/altera/15.0/nios2eds/bin/gnu/h-x86_64-mingw32/bin/../lib/gcc/nios2-elf/4.9.1/../../../../../H-x86_64-mingw32/nios2-elf/lib\libc.a(lib_a-rget.o)
 .debug_aranges
                0x00000000000002f0       0x20 c:/altera/15.0/nios2eds/bin/gnu/h-x86_64-mingw32/bin/../lib/gcc/nios2-elf/4.9.1/../../../../../H-x86_64-mingw32/nios2-elf/lib\libc.a(lib_a-sbrkr.o)
 .debug_aranges
                0x0000000000000310       0x20 c:/altera/15.0/nios2eds/bin/gnu/h-x86_64-mingw32/bin/../lib/gcc/nios2-elf/4.9.1/../../../../../H-x86_64-mingw32/nios2-elf/lib\libc.a(lib_a-sprintf.o)
 .debug_aranges
                0x0000000000000330       0x20 c:/altera/15.0/nios2eds/bin/gnu/h-x86_64-mingw32/bin/../lib/gcc/nios2-elf/4.9.1/../../../../../H-x86_64-mingw32/nios2-elf/lib\libc.a(lib_a-strchr.o)
 .debug_aranges
                0x0000000000000350       0x20 c:/altera/15.0/nios2eds/bin/gnu/h-x86_64-mingw32/bin/../lib/gcc/nios2-elf/4.9.1/../../../../../H-x86_64-mingw32/nios2-elf/lib\libc.a(lib_a-strcpy.o)
 .debug_aranges
                0x0000000000000370       0x20 c:/altera/15.0/nios2eds/bin/gnu/h-x86_64-mingw32/bin/../lib/gcc/nios2-elf/4.9.1/../../../../../H-x86_64-mingw32/nios2-elf/lib\libc.a(lib_a-strerror.o)
 .debug_aranges
                0x0000000000000390       0x20 c:/altera/15.0/nios2eds/bin/gnu/h-x86_64-mingw32/bin/../lib/gcc/nios2-elf/4.9.1/../../../../../H-x86_64-mingw32/nios2-elf/lib\libc.a(lib_a-strlen.o)
 .debug_aranges
                0x00000000000003b0       0x20 c:/altera/15.0/nios2eds/bin/gnu/h-x86_64-mingw32/bin/../lib/gcc/nios2-elf/4.9.1/../../../../../H-x86_64-mingw32/nios2-elf/lib\libc.a(lib_a-svfprintf.o)
 .debug_aranges
                0x00000000000003d0       0x20 c:/altera/15.0/nios2eds/bin/gnu/h-x86_64-mingw32/bin/../lib/gcc/nios2-elf/4.9.1/../../../../../H-x86_64-mingw32/nios2-elf/lib\libc.a(lib_a-u_strerr.o)
 .debug_aranges
                0x00000000000003f0       0x20 c:/altera/15.0/nios2eds/bin/gnu/h-x86_64-mingw32/bin/../lib/gcc/nios2-elf/4.9.1/../../../../../H-x86_64-mingw32/nios2-elf/lib\libc.a(lib_a-vfprintf.o)
 .debug_aranges
                0x0000000000000410       0x20 c:/altera/15.0/nios2eds/bin/gnu/h-x86_64-mingw32/bin/../lib/gcc/nios2-elf/4.9.1/../../../../../H-x86_64-mingw32/nios2-elf/lib\libc.a(lib_a-wbuf.o)
 .debug_aranges
                0x0000000000000430       0x20 c:/altera/15.0/nios2eds/bin/gnu/h-x86_64-mingw32/bin/../lib/gcc/nios2-elf/4.9.1/../../../../../H-x86_64-mingw32/nios2-elf/lib\libc.a(lib_a-wsetup.o)
 .debug_aranges
                0x0000000000000450       0x20 c:/altera/15.0/nios2eds/bin/gnu/h-x86_64-mingw32/bin/../lib/gcc/nios2-elf/4.9.1/../../../../../H-x86_64-mingw32/nios2-elf/lib\libc.a(lib_a-dtoa.o)
 .debug_aranges
                0x0000000000000470       0x20 c:/altera/15.0/nios2eds/bin/gnu/h-x86_64-mingw32/bin/../lib/gcc/nios2-elf/4.9.1/../../../../../H-x86_64-mingw32/nios2-elf/lib\libc.a(lib_a-fflush.o)
 .debug_aranges
                0x0000000000000490       0x20 c:/altera/15.0/nios2eds/bin/gnu/h-x86_64-mingw32/bin/../lib/gcc/nios2-elf/4.9.1/../../../../../H-x86_64-mingw32/nios2-elf/lib\libc.a(lib_a-findfp.o)
 .debug_aranges
                0x00000000000004b0       0x20 c:/altera/15.0/nios2eds/bin/gnu/h-x86_64-mingw32/bin/../lib/gcc/nios2-elf/4.9.1/../../../../../H-x86_64-mingw32/nios2-elf/lib\libc.a(lib_a-fputc.o)
 .debug_aranges
                0x00000000000004d0       0x20 c:/altera/15.0/nios2eds/bin/gnu/h-x86_64-mingw32/bin/../lib/gcc/nios2-elf/4.9.1/../../../../../H-x86_64-mingw32/nios2-elf/lib\libc.a(lib_a-fputs.o)
 .debug_aranges
                0x00000000000004f0       0x20 c:/altera/15.0/nios2eds/bin/gnu/h-x86_64-mingw32/bin/../lib/gcc/nios2-elf/4.9.1/../../../../../H-x86_64-mingw32/nios2-elf/lib\libc.a(lib_a-freer.o)
 .debug_aranges
                0x0000000000000510       0x20 c:/altera/15.0/nios2eds/bin/gnu/h-x86_64-mingw32/bin/../lib/gcc/nios2-elf/4.9.1/../../../../../H-x86_64-mingw32/nios2-elf/lib\libc.a(lib_a-fvwrite.o)
 .debug_aranges
                0x0000000000000530       0x20 c:/altera/15.0/nios2eds/bin/gnu/h-x86_64-mingw32/bin/../lib/gcc/nios2-elf/4.9.1/../../../../../H-x86_64-mingw32/nios2-elf/lib\libc.a(lib_a-fwalk.o)
 .debug_aranges
                0x0000000000000550       0x18 c:/altera/15.0/nios2eds/bin/gnu/h-x86_64-mingw32/bin/../lib/gcc/nios2-elf/4.9.1/../../../../../H-x86_64-mingw32/nios2-elf/lib\libc.a(lib_a-int_errno.o)
 .debug_aranges
                0x0000000000000568       0x20 c:/altera/15.0/nios2eds/bin/gnu/h-x86_64-mingw32/bin/../lib/gcc/nios2-elf/4.9.1/../../../../../H-x86_64-mingw32/nios2-elf/lib\libc.a(lib_a-locale.o)
 .debug_aranges
                0x0000000000000588       0x20 c:/altera/15.0/nios2eds/bin/gnu/h-x86_64-mingw32/bin/../lib/gcc/nios2-elf/4.9.1/../../../../../H-x86_64-mingw32/nios2-elf/lib\libc.a(lib_a-makebuf.o)
 .debug_aranges
                0x00000000000005a8       0x20 c:/altera/15.0/nios2eds/bin/gnu/h-x86_64-mingw32/bin/../lib/gcc/nios2-elf/4.9.1/../../../../../H-x86_64-mingw32/nios2-elf/lib\libc.a(lib_a-memchr.o)
 .debug_aranges
                0x00000000000005c8       0x20 c:/altera/15.0/nios2eds/bin/gnu/h-x86_64-mingw32/bin/../lib/gcc/nios2-elf/4.9.1/../../../../../H-x86_64-mingw32/nios2-elf/lib\libc.a(lib_a-mprec.o)
 .debug_aranges
                0x00000000000005e8       0x20 c:/altera/15.0/nios2eds/bin/gnu/h-x86_64-mingw32/bin/../lib/gcc/nios2-elf/4.9.1/../../../../../H-x86_64-mingw32/nios2-elf/lib\libc.a(lib_a-reallocr.o)
 .debug_aranges
                0x0000000000000608       0x20 c:/altera/15.0/nios2eds/bin/gnu/h-x86_64-mingw32/bin/../lib/gcc/nios2-elf/4.9.1/../../../../../H-x86_64-mingw32/nios2-elf/lib\libc.a(lib_a-refill.o)
 .debug_aranges
                0x0000000000000628       0x20 c:/altera/15.0/nios2eds/bin/gnu/h-x86_64-mingw32/bin/../lib/gcc/nios2-elf/4.9.1/../../../../../H-x86_64-mingw32/nios2-elf/lib\libc.a(lib_a-s_fpclassify.o)
 .debug_aranges
                0x0000000000000648       0x20 c:/altera/15.0/nios2eds/bin/gnu/h-x86_64-mingw32/bin/../lib/gcc/nios2-elf/4.9.1/../../../../../H-x86_64-mingw32/nios2-elf/lib\libc.a(lib_a-stdio.o)
 .debug_aranges
                0x0000000000000668       0x20 c:/altera/15.0/nios2eds/bin/gnu/h-x86_64-mingw32/bin/../lib/gcc/nios2-elf/4.9.1/../../../../../H-x86_64-mingw32/nios2-elf/lib\libc.a(lib_a-strcmp.o)
 .debug_aranges
                0x0000000000000688       0x20 c:/altera/15.0/nios2eds/bin/gnu/h-x86_64-mingw32/bin/../lib/gcc/nios2-elf/4.9.1/../../../../../H-x86_64-mingw32/nios2-elf/lib\libc.a(lib_a-svfiprintf.o)
 .debug_aranges
                0x00000000000006a8       0x20 c:/altera/15.0/nios2eds/bin/gnu/h-x86_64-mingw32/bin/../lib/gcc/nios2-elf/4.9.1/../../../../../H-x86_64-mingw32/nios2-elf/lib\libc.a(lib_a-vfiprintf.o)
 .debug_aranges
                0x00000000000006c8       0x20 c:/altera/15.0/nios2eds/bin/gnu/h-x86_64-mingw32/bin/../lib/gcc/nios2-elf/4.9.1/../../../../../H-x86_64-mingw32/nios2-elf/lib\libc.a(lib_a-writer.o)
 .debug_aranges
                0x00000000000006e8       0x20 c:/altera/15.0/nios2eds/bin/gnu/h-x86_64-mingw32/bin/../lib/gcc/nios2-elf/4.9.1/../../../../../H-x86_64-mingw32/nios2-elf/lib\libc.a(closer.o)
 .debug_aranges
                0x0000000000000708       0x20 c:/altera/15.0/nios2eds/bin/gnu/h-x86_64-mingw32/bin/../lib/gcc/nios2-elf/4.9.1/../../../../../H-x86_64-mingw32/nios2-elf/lib\libc.a(lib_a-callocr.o)
 .debug_aranges
                0x0000000000000728       0x20 c:/altera/15.0/nios2eds/bin/gnu/h-x86_64-mingw32/bin/../lib/gcc/nios2-elf/4.9.1/../../../../../H-x86_64-mingw32/nios2-elf/lib\libc.a(lib_a-fclose.o)
 .debug_aranges
                0x0000000000000748       0x20 c:/altera/15.0/nios2eds/bin/gnu/h-x86_64-mingw32/bin/../lib/gcc/nios2-elf/4.9.1/../../../../../H-x86_64-mingw32/nios2-elf/lib\libc.a(lib_a-fputwc.o)
 .debug_aranges
                0x0000000000000768       0x20 c:/altera/15.0/nios2eds/bin/gnu/h-x86_64-mingw32/bin/../lib/gcc/nios2-elf/4.9.1/../../../../../H-x86_64-mingw32/nios2-elf/lib\libc.a(lib_a-fstatr.o)
 .debug_aranges
                0x0000000000000788       0x20 c:/altera/15.0/nios2eds/bin/gnu/h-x86_64-mingw32/bin/../lib/gcc/nios2-elf/4.9.1/../../../../../H-x86_64-mingw32/nios2-elf/lib\libc.a(lib_a-isattyr.o)
 .debug_aranges
                0x00000000000007a8       0x20 c:/altera/15.0/nios2eds/bin/gnu/h-x86_64-mingw32/bin/../lib/gcc/nios2-elf/4.9.1/../../../../../H-x86_64-mingw32/nios2-elf/lib\libc.a(lib_a-lseekr.o)
 .debug_aranges
                0x00000000000007c8       0x20 c:/altera/15.0/nios2eds/bin/gnu/h-x86_64-mingw32/bin/../lib/gcc/nios2-elf/4.9.1/../../../../../H-x86_64-mingw32/nios2-elf/lib\libc.a(lib_a-readr.o)
 .debug_aranges
                0x00000000000007e8       0x20 c:/altera/15.0/nios2eds/bin/gnu/h-x86_64-mingw32/bin/../lib/gcc/nios2-elf/4.9.1/../../../../../H-x86_64-mingw32/nios2-elf/lib\libc.a(lib_a-wcrtomb.o)
 .debug_aranges
                0x0000000000000808       0x20 c:/altera/15.0/nios2eds/bin/gnu/h-x86_64-mingw32/bin/../lib/gcc/nios2-elf/4.9.1/../../../../../H-x86_64-mingw32/nios2-elf/lib\libc.a(lib_a-wctomb_r.o)
 .debug_aranges
                0x0000000000000828       0x20 c:/altera/15.0/nios2eds/bin/gnu/h-x86_64-mingw32/bin/../lib/gcc/nios2-elf/4.9.1\libgcc.a(_udivdi3.o)
 .debug_aranges
                0x0000000000000848       0x20 c:/altera/15.0/nios2eds/bin/gnu/h-x86_64-mingw32/bin/../lib/gcc/nios2-elf/4.9.1\libgcc.a(_umoddi3.o)
 .debug_aranges
                0x0000000000000868       0x20 c:/altera/15.0/nios2eds/bin/gnu/h-x86_64-mingw32/bin/../lib/gcc/nios2-elf/4.9.1\libgcc.a(lib2-divmod.o)
 .debug_aranges
                0x0000000000000888       0x20 c:/altera/15.0/nios2eds/bin/gnu/h-x86_64-mingw32/bin/../lib/gcc/nios2-elf/4.9.1\libgcc.a(adddf3.o)
 .debug_aranges
                0x00000000000008a8       0x20 c:/altera/15.0/nios2eds/bin/gnu/h-x86_64-mingw32/bin/../lib/gcc/nios2-elf/4.9.1\libgcc.a(divdf3.o)
 .debug_aranges
                0x00000000000008c8       0x20 c:/altera/15.0/nios2eds/bin/gnu/h-x86_64-mingw32/bin/../lib/gcc/nios2-elf/4.9.1\libgcc.a(eqdf2.o)
 .debug_aranges
                0x00000000000008e8       0x20 c:/altera/15.0/nios2eds/bin/gnu/h-x86_64-mingw32/bin/../lib/gcc/nios2-elf/4.9.1\libgcc.a(gedf2.o)
 .debug_aranges
                0x0000000000000908       0x20 c:/altera/15.0/nios2eds/bin/gnu/h-x86_64-mingw32/bin/../lib/gcc/nios2-elf/4.9.1\libgcc.a(ledf2.o)
 .debug_aranges
                0x0000000000000928       0x20 c:/altera/15.0/nios2eds/bin/gnu/h-x86_64-mingw32/bin/../lib/gcc/nios2-elf/4.9.1\libgcc.a(muldf3.o)
 .debug_aranges
                0x0000000000000948       0x20 c:/altera/15.0/nios2eds/bin/gnu/h-x86_64-mingw32/bin/../lib/gcc/nios2-elf/4.9.1\libgcc.a(subdf3.o)
 .debug_aranges
                0x0000000000000968       0x20 c:/altera/15.0/nios2eds/bin/gnu/h-x86_64-mingw32/bin/../lib/gcc/nios2-elf/4.9.1\libgcc.a(fixdfsi.o)
 .debug_aranges
                0x0000000000000988       0x20 c:/altera/15.0/nios2eds/bin/gnu/h-x86_64-mingw32/bin/../lib/gcc/nios2-elf/4.9.1\libgcc.a(floatsidf.o)
 .debug_aranges
                0x00000000000009a8       0x20 c:/altera/15.0/nios2eds/bin/gnu/h-x86_64-mingw32/bin/../lib/gcc/nios2-elf/4.9.1\libgcc.a(floatunsidf.o)
 .debug_aranges
                0x00000000000009c8       0x18 c:/altera/15.0/nios2eds/bin/gnu/h-x86_64-mingw32/bin/../lib/gcc/nios2-elf/4.9.1\libgcc.a(_clz.o)
 .debug_aranges
                0x00000000000009e0       0x20 c:/altera/15.0/nios2eds/bin/gnu/h-x86_64-mingw32/bin/../lib/gcc/nios2-elf/4.9.1\libgcc.a(_clzsi2.o)
 .debug_aranges
                0x0000000000000a00       0x20 ../DECA_socket_server_bsp/\libucosii_bsp.a(alt_fstat.o)
 .debug_aranges
                0x0000000000000a20       0x20 ../DECA_socket_server_bsp/\libucosii_bsp.a(alt_isatty.o)
 .debug_aranges
                0x0000000000000a40       0x20 ../DECA_socket_server_bsp/\libucosii_bsp.a(alt_load.o)
 .debug_aranges
                0x0000000000000a60       0x20 ../DECA_socket_server_bsp/\libucosii_bsp.a(alt_lseek.o)
 .debug_aranges
                0x0000000000000a80       0x20 ../DECA_socket_server_bsp/\libucosii_bsp.a(alt_main.o)
 .debug_aranges
                0x0000000000000aa0       0x20 ../DECA_socket_server_bsp/\libucosii_bsp.a(alt_sbrk.o)
 .debug_aranges
                0x0000000000000ac0       0x20 ../DECA_socket_server_bsp/\libucosii_bsp.a(alt_usleep.o)
 .debug_aranges
                0x0000000000000ae0       0x20 ../DECA_socket_server_bsp/\libucosii_bsp.a(alt_env_lock.o)
 .debug_aranges
                0x0000000000000b00       0x20 ../DECA_socket_server_bsp/\libucosii_bsp.a(alt_malloc_lock.o)
 .debug_aranges
                0x0000000000000b20       0x20 ../DECA_socket_server_bsp/\libucosii_bsp.a(os_core.o)
 .debug_aranges
                0x0000000000000b40       0x20 ../DECA_socket_server_bsp/\libucosii_bsp.a(os_dbg.o)
 .debug_aranges
                0x0000000000000b60       0x20 ../DECA_socket_server_bsp/\libucosii_bsp.a(os_flag.o)
 .debug_aranges
                0x0000000000000b80       0x20 ../DECA_socket_server_bsp/\libucosii_bsp.a(os_mem.o)
 .debug_aranges
                0x0000000000000ba0       0x20 ../DECA_socket_server_bsp/\libucosii_bsp.a(os_q.o)
 .debug_aranges
                0x0000000000000bc0       0x20 ../DECA_socket_server_bsp/\libucosii_bsp.a(os_sem.o)
 .debug_aranges
                0x0000000000000be0       0x20 ../DECA_socket_server_bsp/\libucosii_bsp.a(os_task.o)
 .debug_aranges
                0x0000000000000c00       0x20 ../DECA_socket_server_bsp/\libucosii_bsp.a(os_time.o)
 .debug_aranges
                0x0000000000000c20       0x20 ../DECA_socket_server_bsp/\libucosii_bsp.a(alt_sys_init.o)
 .debug_aranges
                0x0000000000000c40       0x20 ../DECA_socket_server_bsp/\libucosii_bsp.a(altera_avalon_jtag_uart_fd.o)
 .debug_aranges
                0x0000000000000c60       0x20 ../DECA_socket_server_bsp/\libucosii_bsp.a(altera_avalon_jtag_uart_init.o)
 .debug_aranges
                0x0000000000000c80       0x20 ../DECA_socket_server_bsp/\libucosii_bsp.a(altera_avalon_jtag_uart_ioctl.o)
 .debug_aranges
                0x0000000000000ca0       0x20 ../DECA_socket_server_bsp/\libucosii_bsp.a(altera_avalon_jtag_uart_read.o)
 .debug_aranges
                0x0000000000000cc0       0x20 ../DECA_socket_server_bsp/\libucosii_bsp.a(altera_avalon_jtag_uart_write.o)
 .debug_aranges
                0x0000000000000ce0       0x20 ../DECA_socket_server_bsp/\libucosii_bsp.a(altera_avalon_sgdma.o)
 .debug_aranges
                0x0000000000000d00       0x20 ../DECA_socket_server_bsp/\libucosii_bsp.a(altera_avalon_timer_sc.o)
 .debug_aranges
                0x0000000000000d20       0x20 ../DECA_socket_server_bsp/\libucosii_bsp.a(ins_tse_mac.o)
 .debug_aranges
                0x0000000000000d40       0x20 ../DECA_socket_server_bsp/\libucosii_bsp.a(alt_iniche_close.o)
 .debug_aranges
                0x0000000000000d60       0x20 ../DECA_socket_server_bsp/\libucosii_bsp.a(alt_iniche_dev.o)
 .debug_aranges
                0x0000000000000d80       0x20 ../DECA_socket_server_bsp/\libucosii_bsp.a(alt_iniche_read.o)
 .debug_aranges
                0x0000000000000da0       0x20 ../DECA_socket_server_bsp/\libucosii_bsp.a(alt_iniche_write.o)
 .debug_aranges
                0x0000000000000dc0       0x20 ../DECA_socket_server_bsp/\libucosii_bsp.a(ipnet.o)
 .debug_aranges
                0x0000000000000de0       0x20 ../DECA_socket_server_bsp/\libucosii_bsp.a(ipstart.o)
 .debug_aranges
                0x0000000000000e00       0x20 ../DECA_socket_server_bsp/\libucosii_bsp.a(igmp_cmn.o)
 .debug_aranges
                0x0000000000000e20       0x20 ../DECA_socket_server_bsp/\libucosii_bsp.a(bsdsock.o)
 .debug_aranges
                0x0000000000000e40       0x20 ../DECA_socket_server_bsp/\libucosii_bsp.a(cksum.o)
 .debug_aranges
                0x0000000000000e60       0x20 ../DECA_socket_server_bsp/\libucosii_bsp.a(in_utils.o)
 .debug_aranges
                0x0000000000000e80       0x20 ../DECA_socket_server_bsp/\libucosii_bsp.a(netmain.o)
 .debug_aranges
                0x0000000000000ea0       0x20 ../DECA_socket_server_bsp/\libucosii_bsp.a(tk_crnos.o)
 .debug_aranges
                0x0000000000000ec0       0x20 ../DECA_socket_server_bsp/\libucosii_bsp.a(dhcpclnt.o)
 .debug_aranges
                0x0000000000000ee0       0x20 ../DECA_socket_server_bsp/\libucosii_bsp.a(dhcputil.o)
 .debug_aranges
                0x0000000000000f00       0x20 ../DECA_socket_server_bsp/\libucosii_bsp.a(pktalloc.o)
 .debug_aranges
                0x0000000000000f20       0x20 ../DECA_socket_server_bsp/\libucosii_bsp.a(q.o)
 .debug_aranges
                0x0000000000000f40       0x20 ../DECA_socket_server_bsp/\libucosii_bsp.a(udp_open.o)
 .debug_aranges
                0x0000000000000f60       0x20 ../DECA_socket_server_bsp/\libucosii_bsp.a(asm_cksum.o)
 .debug_aranges
                0x0000000000000f80       0x20 ../DECA_socket_server_bsp/\libucosii_bsp.a(brdutils.o)
 .debug_aranges
                0x0000000000000fa0       0x20 ../DECA_socket_server_bsp/\libucosii_bsp.a(osportco.o)
 .debug_aranges
                0x0000000000000fc0       0x20 ../DECA_socket_server_bsp/\libucosii_bsp.a(targnios.o)
 .debug_aranges
                0x0000000000000fe0       0x20 ../DECA_socket_server_bsp/\libucosii_bsp.a(nptcp.o)
 .debug_aranges
                0x0000000000001000       0x20 ../DECA_socket_server_bsp/\libucosii_bsp.a(rawsock.o)
 .debug_aranges
                0x0000000000001020       0x20 ../DECA_socket_server_bsp/\libucosii_bsp.a(sockcall.o)
 .debug_aranges
                0x0000000000001040       0x20 ../DECA_socket_server_bsp/\libucosii_bsp.a(socket.o)
 .debug_aranges
                0x0000000000001060       0x20 ../DECA_socket_server_bsp/\libucosii_bsp.a(socket2.o)
 .debug_aranges
                0x0000000000001080       0x20 ../DECA_socket_server_bsp/\libucosii_bsp.a(soselect.o)
 .debug_aranges
                0x00000000000010a0       0x20 ../DECA_socket_server_bsp/\libucosii_bsp.a(tcp_in.o)
 .debug_aranges
                0x00000000000010c0       0x20 ../DECA_socket_server_bsp/\libucosii_bsp.a(tcp_out.o)
 .debug_aranges
                0x00000000000010e0       0x20 ../DECA_socket_server_bsp/\libucosii_bsp.a(tcp_subr.o)
 .debug_aranges
                0x0000000000001100       0x20 ../DECA_socket_server_bsp/\libucosii_bsp.a(tcp_timr.o)
 .debug_aranges
                0x0000000000001120       0x20 ../DECA_socket_server_bsp/\libucosii_bsp.a(tcp_usr.o)
 .debug_aranges
                0x0000000000001140       0x20 ../DECA_socket_server_bsp/\libucosii_bsp.a(tcpport.o)
 .debug_aranges
                0x0000000000001160       0x20 ../DECA_socket_server_bsp/\libucosii_bsp.a(udpsock.o)
 .debug_aranges
                0x0000000000001180       0x20 ../DECA_socket_server_bsp/\libucosii_bsp.a(alt_alarm_start.o)
 .debug_aranges
                0x00000000000011a0       0x20 ../DECA_socket_server_bsp/\libucosii_bsp.a(alt_busy_sleep.o)
 .debug_aranges
                0x00000000000011c0       0x20 ../DECA_socket_server_bsp/\libucosii_bsp.a(alt_close.o)
 .debug_aranges
                0x00000000000011e0       0x20 ../DECA_socket_server_bsp/\libucosii_bsp.a(alt_dcache_flush.o)
 .debug_aranges
                0x0000000000001200       0x20 ../DECA_socket_server_bsp/\libucosii_bsp.a(alt_dcache_flush_all.o)
 .debug_aranges
                0x0000000000001220       0x20 ../DECA_socket_server_bsp/\libucosii_bsp.a(alt_dev.o)
 .debug_aranges
                0x0000000000001240       0x20 ../DECA_socket_server_bsp/\libucosii_bsp.a(alt_dev_llist_insert.o)
 .debug_aranges
                0x0000000000001260       0x20 ../DECA_socket_server_bsp/\libucosii_bsp.a(alt_do_ctors.o)
 .debug_aranges
                0x0000000000001280       0x20 ../DECA_socket_server_bsp/\libucosii_bsp.a(alt_do_dtors.o)
 .debug_aranges
                0x00000000000012a0       0x18 ../DECA_socket_server_bsp/\libucosii_bsp.a(alt_errno.o)
 .debug_aranges
                0x00000000000012b8       0x20 ../DECA_socket_server_bsp/\libucosii_bsp.a(alt_find_dev.o)
 .debug_aranges
                0x00000000000012d8       0x20 ../DECA_socket_server_bsp/\libucosii_bsp.a(alt_icache_flush_all.o)
 .debug_aranges
                0x00000000000012f8       0x20 ../DECA_socket_server_bsp/\libucosii_bsp.a(alt_iic.o)
 .debug_aranges
                0x0000000000001318       0x20 ../DECA_socket_server_bsp/\libucosii_bsp.a(alt_iic_isr_register.o)
 .debug_aranges
                0x0000000000001338       0x20 ../DECA_socket_server_bsp/\libucosii_bsp.a(alt_io_redirect.o)
 .debug_aranges
                0x0000000000001358       0x30 ../DECA_socket_server_bsp/\libucosii_bsp.a(alt_irq_entry.o)
 .debug_aranges
                0x0000000000001388       0x20 ../DECA_socket_server_bsp/\libucosii_bsp.a(alt_irq_handler.o)
 .debug_aranges
                0x00000000000013a8       0x18 ../DECA_socket_server_bsp/\libucosii_bsp.a(alt_irq_vars.o)
 .debug_aranges
                0x00000000000013c0       0x20 ../DECA_socket_server_bsp/\libucosii_bsp.a(alt_open.o)
 .debug_aranges
                0x00000000000013e0       0x20 ../DECA_socket_server_bsp/\libucosii_bsp.a(alt_read.o)
 .debug_aranges
                0x0000000000001400       0x20 ../DECA_socket_server_bsp/\libucosii_bsp.a(alt_release_fd.o)
 .debug_aranges
                0x0000000000001420       0x20 ../DECA_socket_server_bsp/\libucosii_bsp.a(alt_remap_cached.o)
 .debug_aranges
                0x0000000000001440       0x20 ../DECA_socket_server_bsp/\libucosii_bsp.a(alt_tick.o)
 .debug_aranges
                0x0000000000001460       0x20 ../DECA_socket_server_bsp/\libucosii_bsp.a(alt_uncached_free.o)
 .debug_aranges
                0x0000000000001480       0x20 ../DECA_socket_server_bsp/\libucosii_bsp.a(alt_uncached_malloc.o)
 .debug_aranges
                0x00000000000014a0       0x20 ../DECA_socket_server_bsp/\libucosii_bsp.a(alt_write.o)
 .debug_aranges
                0x00000000000014c0       0x20 ../DECA_socket_server_bsp/\libucosii_bsp.a(altera_nios2_gen2_irq.o)
 .debug_aranges
                0x00000000000014e0       0x20 ../DECA_socket_server_bsp/\libucosii_bsp.a(os_cpu_a.o)
 .debug_aranges
                0x0000000000001500       0x20 ../DECA_socket_server_bsp/\libucosii_bsp.a(os_cpu_c.o)
 .debug_aranges
                0x0000000000001520       0x20 ../DECA_socket_server_bsp/\libucosii_bsp.a(allports.o)
 .debug_aranges
                0x0000000000001540       0x20 ../DECA_socket_server_bsp/\libucosii_bsp.a(timeouts.o)
 .debug_aranges
                0x0000000000001560       0x20 ../DECA_socket_server_bsp/\libucosii_bsp.a(tk_misc.o)
 .debug_aranges
                0x0000000000001580       0x20 ../DECA_socket_server_bsp/\libucosii_bsp.a(alt_iniche_fcntl.o)
 .debug_aranges
                0x00000000000015a0       0x20 ../DECA_socket_server_bsp/\libucosii_bsp.a(et_arp.o)
 .debug_aranges
                0x00000000000015c0       0x20 ../DECA_socket_server_bsp/\libucosii_bsp.a(iface.o)
 .debug_aranges
                0x00000000000015e0       0x20 ../DECA_socket_server_bsp/\libucosii_bsp.a(ip.o)
 .debug_aranges
                0x0000000000001600       0x20 ../DECA_socket_server_bsp/\libucosii_bsp.a(ip_reasm.o)
 .debug_aranges
                0x0000000000001620       0x20 ../DECA_socket_server_bsp/\libucosii_bsp.a(ipdemux.o)
 .debug_aranges
                0x0000000000001640       0x20 ../DECA_socket_server_bsp/\libucosii_bsp.a(ipmc.o)
 .debug_aranges
                0x0000000000001660       0x20 ../DECA_socket_server_bsp/\libucosii_bsp.a(ipport.o)
 .debug_aranges
                0x0000000000001680       0x20 ../DECA_socket_server_bsp/\libucosii_bsp.a(ipraw.o)
 .debug_aranges
                0x00000000000016a0       0x20 ../DECA_socket_server_bsp/\libucosii_bsp.a(iproute.o)
 .debug_aranges
                0x00000000000016c0       0x20 ../DECA_socket_server_bsp/\libucosii_bsp.a(udp.o)
 .debug_aranges
                0x00000000000016e0       0x20 ../DECA_socket_server_bsp/\libucosii_bsp.a(igmp.o)
 .debug_aranges
                0x0000000000001700       0x20 ../DECA_socket_server_bsp/\libucosii_bsp.a(igmp2.o)
 .debug_aranges
                0x0000000000001720       0x20 ../DECA_socket_server_bsp/\libucosii_bsp.a(ipopt.o)
 .debug_aranges
                0x0000000000001740       0x20 ../DECA_socket_server_bsp/\libucosii_bsp.a(u_mctest.o)
 .debug_aranges
                0x0000000000001760       0x20 ../DECA_socket_server_bsp/\libucosii_bsp.a(dhcsetup.o)
 .debug_aranges
                0x0000000000001780       0x20 ../DECA_socket_server_bsp/\libucosii_bsp.a(memdev.o)
 .debug_aranges
                0x00000000000017a0       0x20 ../DECA_socket_server_bsp/\libucosii_bsp.a(parseip.o)
 .debug_aranges
                0x00000000000017c0       0x20 ../DECA_socket_server_bsp/\libucosii_bsp.a(tcpcksum.o)
 .debug_aranges
                0x00000000000017e0       0x20 ../DECA_socket_server_bsp/\libucosii_bsp.a(in_pcb.o)
 .debug_aranges
                0x0000000000001800       0x20 ../DECA_socket_server_bsp/\libucosii_bsp.a(vfsfiles.o)
 .debug_aranges
                0x0000000000001820       0x20 ../DECA_socket_server_bsp/\libucosii_bsp.a(vfsport.o)
 .debug_aranges
                0x0000000000001840       0x38 ../DECA_socket_server_bsp/\libucosii_bsp.a(alt_exception_entry.o)
 .debug_aranges
                0x0000000000001878       0x20 ../DECA_socket_server_bsp/\libucosii_bsp.a(alt_fcntl.o)
 .debug_aranges
                0x0000000000001898       0x20 ../DECA_socket_server_bsp/\libucosii_bsp.a(alt_find_file.o)
 .debug_aranges
                0x00000000000018b8       0x20 ../DECA_socket_server_bsp/\libucosii_bsp.a(alt_get_fd.o)
 .debug_aranges
                0x00000000000018d8       0x20 ../DECA_socket_server_bsp/\libucosii_bsp.a(alt_icache_flush.o)
 .debug_aranges
                0x00000000000018f8       0x28 ../DECA_socket_server_bsp/\libucosii_bsp.a(alt_instruction_exception_entry.o)
 .debug_aranges
                0x0000000000001920       0x20 ../DECA_socket_server_bsp/\libucosii_bsp.a(icmp.o)
 .debug_aranges
                0x0000000000001940       0x20 c:/altera/15.0/nios2eds/bin/gnu/h-x86_64-mingw32/bin/../lib/gcc/nios2-elf/4.9.1/../../../../../H-x86_64-mingw32/nios2-elf/lib\libc.a(lib_a-atexit.o)
 .debug_aranges
                0x0000000000001960       0x20 c:/altera/15.0/nios2eds/bin/gnu/h-x86_64-mingw32/bin/../lib/gcc/nios2-elf/4.9.1/../../../../../H-x86_64-mingw32/nios2-elf/lib\libc.a(lib_a-atoi.o)
 .debug_aranges
                0x0000000000001980       0x20 c:/altera/15.0/nios2eds/bin/gnu/h-x86_64-mingw32/bin/../lib/gcc/nios2-elf/4.9.1/../../../../../H-x86_64-mingw32/nios2-elf/lib\libc.a(lib_a-exit.o)
 .debug_aranges
                0x00000000000019a0       0x20 c:/altera/15.0/nios2eds/bin/gnu/h-x86_64-mingw32/bin/../lib/gcc/nios2-elf/4.9.1/../../../../../H-x86_64-mingw32/nios2-elf/lib\libc.a(lib_a-malign.o)
 .debug_aranges
                0x00000000000019c0       0x20 c:/altera/15.0/nios2eds/bin/gnu/h-x86_64-mingw32/bin/../lib/gcc/nios2-elf/4.9.1/../../../../../H-x86_64-mingw32/nios2-elf/lib\libc.a(lib_a-malignr.o)
 .debug_aranges
                0x00000000000019e0       0x20 c:/altera/15.0/nios2eds/bin/gnu/h-x86_64-mingw32/bin/../lib/gcc/nios2-elf/4.9.1/../../../../../H-x86_64-mingw32/nios2-elf/lib\libc.a(lib_a-memcmp.o)
 .debug_aranges
                0x0000000000001a00       0x20 c:/altera/15.0/nios2eds/bin/gnu/h-x86_64-mingw32/bin/../lib/gcc/nios2-elf/4.9.1/../../../../../H-x86_64-mingw32/nios2-elf/lib\libc.a(lib_a-strncmp.o)
 .debug_aranges
                0x0000000000001a20       0x20 c:/altera/15.0/nios2eds/bin/gnu/h-x86_64-mingw32/bin/../lib/gcc/nios2-elf/4.9.1/../../../../../H-x86_64-mingw32/nios2-elf/lib\libc.a(lib_a-strncpy.o)
 .debug_aranges
                0x0000000000001a40       0x20 c:/altera/15.0/nios2eds/bin/gnu/h-x86_64-mingw32/bin/../lib/gcc/nios2-elf/4.9.1/../../../../../H-x86_64-mingw32/nios2-elf/lib\libc.a(lib_a-strtol.o)
 .debug_aranges
                0x0000000000001a60       0x20 c:/altera/15.0/nios2eds/bin/gnu/h-x86_64-mingw32/bin/../lib/gcc/nios2-elf/4.9.1/../../../../../H-x86_64-mingw32/nios2-elf/lib\libc.a(lib_a-vprintf.o)
 .debug_aranges
                0x0000000000001a80       0x20 c:/altera/15.0/nios2eds/bin/gnu/h-x86_64-mingw32/bin/../lib/gcc/nios2-elf/4.9.1/../../../../../H-x86_64-mingw32/nios2-elf/lib\libc.a(lib_a-vsprintf.o)
 .debug_aranges
                0x0000000000001aa0       0x20 c:/altera/15.0/nios2eds/bin/gnu/h-x86_64-mingw32/bin/../lib/gcc/nios2-elf/4.9.1/../../../../../H-x86_64-mingw32/nios2-elf/lib\libc.a(lib_a-__atexit.o)
 .debug_aranges
                0x0000000000001ac0       0x20 c:/altera/15.0/nios2eds/bin/gnu/h-x86_64-mingw32/bin/../lib/gcc/nios2-elf/4.9.1/../../../../../H-x86_64-mingw32/nios2-elf/lib\libc.a(lib_a-__call_atexit.o)
 .debug_aranges
                0x0000000000001ae0       0x20 c:/altera/15.0/nios2eds/bin/gnu/h-x86_64-mingw32/bin/../lib/gcc/nios2-elf/4.9.1/../../../../../H-x86_64-mingw32/nios2-elf/lib\libc.a(lib_a-vfprintfr_1.o)
 .debug_aranges
                0x0000000000001b00       0x20 ../DECA_socket_server_bsp/\libucosii_bsp.a(alt_exit.o)

.debug_pubnames
 *(.debug_pubnames)

.debug_info     0x0000000000000000    0x662da
 *(.debug_info .gnu.linkonce.wi.*)
 .debug_info    0x0000000000000000       0x82 ../DECA_socket_server_bsp//obj/HAL/src/crt0.o
 .debug_info    0x0000000000000082      0x996 obj/default/alt_error_handler.o
 .debug_info    0x0000000000000a18      0x211 obj/default/iniche_init.o
 .debug_info    0x0000000000000c29     0x2424 obj/default/ins_tse/altera_avalon_tse.o
 .debug_info    0x000000000000304d      0x2b3 obj/default/led.o
 .debug_info    0x0000000000003300     0x1074 obj/default/network_utilities.o
 .debug_info    0x0000000000004374      0x653 obj/default/simple_socket_server.o
 .debug_info    0x00000000000049c7      0x879 obj/default/tse_my_system.o
 .debug_info    0x0000000000005240       0x96 c:/altera/15.0/nios2eds/bin/gnu/h-x86_64-mingw32/bin/../lib/gcc/nios2-elf/4.9.1/../../../../../H-x86_64-mingw32/nios2-elf/lib\libc.a(lib_a-ctype_.o)
 .debug_info    0x00000000000052d6      0x997 c:/altera/15.0/nios2eds/bin/gnu/h-x86_64-mingw32/bin/../lib/gcc/nios2-elf/4.9.1/../../../../../H-x86_64-mingw32/nios2-elf/lib\libc.a(lib_a-fprintf.o)
 .debug_info    0x0000000000005c6d      0xa47 c:/altera/15.0/nios2eds/bin/gnu/h-x86_64-mingw32/bin/../lib/gcc/nios2-elf/4.9.1/../../../../../H-x86_64-mingw32/nios2-elf/lib\libc.a(lib_a-fwrite.o)
 .debug_info    0x00000000000066b4      0x98a c:/altera/15.0/nios2eds/bin/gnu/h-x86_64-mingw32/bin/../lib/gcc/nios2-elf/4.9.1/../../../../../H-x86_64-mingw32/nios2-elf/lib\libc.a(lib_a-getc.o)
 .debug_info    0x000000000000703e      0x88f c:/altera/15.0/nios2eds/bin/gnu/h-x86_64-mingw32/bin/../lib/gcc/nios2-elf/4.9.1/../../../../../H-x86_64-mingw32/nios2-elf/lib\libc.a(lib_a-impure.o)
 .debug_info    0x00000000000078cd      0x910 c:/altera/15.0/nios2eds/bin/gnu/h-x86_64-mingw32/bin/../lib/gcc/nios2-elf/4.9.1/../../../../../H-x86_64-mingw32/nios2-elf/lib\libc.a(lib_a-malloc.o)
 .debug_info    0x00000000000081dd      0xd71 c:/altera/15.0/nios2eds/bin/gnu/h-x86_64-mingw32/bin/../lib/gcc/nios2-elf/4.9.1/../../../../../H-x86_64-mingw32/nios2-elf/lib\libc.a(lib_a-mallocr.o)
 .debug_info    0x0000000000008f4e      0x133 c:/altera/15.0/nios2eds/bin/gnu/h-x86_64-mingw32/bin/../lib/gcc/nios2-elf/4.9.1/../../../../../H-x86_64-mingw32/nios2-elf/lib\libc.a(lib_a-memcpy.o)
 .debug_info    0x0000000000009081      0x133 c:/altera/15.0/nios2eds/bin/gnu/h-x86_64-mingw32/bin/../lib/gcc/nios2-elf/4.9.1/../../../../../H-x86_64-mingw32/nios2-elf/lib\libc.a(lib_a-memmove.o)
 .debug_info    0x00000000000091b4      0x11a c:/altera/15.0/nios2eds/bin/gnu/h-x86_64-mingw32/bin/../lib/gcc/nios2-elf/4.9.1/../../../../../H-x86_64-mingw32/nios2-elf/lib\libc.a(lib_a-memset.o)
 .debug_info    0x00000000000092ce      0x983 c:/altera/15.0/nios2eds/bin/gnu/h-x86_64-mingw32/bin/../lib/gcc/nios2-elf/4.9.1/../../../../../H-x86_64-mingw32/nios2-elf/lib\libc.a(lib_a-perror.o)
 .debug_info    0x0000000000009c51      0x9af c:/altera/15.0/nios2eds/bin/gnu/h-x86_64-mingw32/bin/../lib/gcc/nios2-elf/4.9.1/../../../../../H-x86_64-mingw32/nios2-elf/lib\libc.a(lib_a-printf.o)
 .debug_info    0x000000000000a600      0x977 c:/altera/15.0/nios2eds/bin/gnu/h-x86_64-mingw32/bin/../lib/gcc/nios2-elf/4.9.1/../../../../../H-x86_64-mingw32/nios2-elf/lib\libc.a(lib_a-putc.o)
 .debug_info    0x000000000000af77      0x921 c:/altera/15.0/nios2eds/bin/gnu/h-x86_64-mingw32/bin/../lib/gcc/nios2-elf/4.9.1/../../../../../H-x86_64-mingw32/nios2-elf/lib\libc.a(lib_a-putchar.o)
 .debug_info    0x000000000000b898      0x9f4 c:/altera/15.0/nios2eds/bin/gnu/h-x86_64-mingw32/bin/../lib/gcc/nios2-elf/4.9.1/../../../../../H-x86_64-mingw32/nios2-elf/lib\libc.a(lib_a-puts.o)
 .debug_info    0x000000000000c28c      0x935 c:/altera/15.0/nios2eds/bin/gnu/h-x86_64-mingw32/bin/../lib/gcc/nios2-elf/4.9.1/../../../../../H-x86_64-mingw32/nios2-elf/lib\libc.a(lib_a-rget.o)
 .debug_info    0x000000000000cbc1      0x8ef c:/altera/15.0/nios2eds/bin/gnu/h-x86_64-mingw32/bin/../lib/gcc/nios2-elf/4.9.1/../../../../../H-x86_64-mingw32/nios2-elf/lib\libc.a(lib_a-sbrkr.o)
 .debug_info    0x000000000000d4b0      0x9e1 c:/altera/15.0/nios2eds/bin/gnu/h-x86_64-mingw32/bin/../lib/gcc/nios2-elf/4.9.1/../../../../../H-x86_64-mingw32/nios2-elf/lib\libc.a(lib_a-sprintf.o)
 .debug_info    0x000000000000de91      0x116 c:/altera/15.0/nios2eds/bin/gnu/h-x86_64-mingw32/bin/../lib/gcc/nios2-elf/4.9.1/../../../../../H-x86_64-mingw32/nios2-elf/lib\libc.a(lib_a-strchr.o)
 .debug_info    0x000000000000dfa7      0x110 c:/altera/15.0/nios2eds/bin/gnu/h-x86_64-mingw32/bin/../lib/gcc/nios2-elf/4.9.1/../../../../../H-x86_64-mingw32/nios2-elf/lib\libc.a(lib_a-strcpy.o)
 .debug_info    0x000000000000e0b7       0xeb c:/altera/15.0/nios2eds/bin/gnu/h-x86_64-mingw32/bin/../lib/gcc/nios2-elf/4.9.1/../../../../../H-x86_64-mingw32/nios2-elf/lib\libc.a(lib_a-strerror.o)
 .debug_info    0x000000000000e1a2       0xdb c:/altera/15.0/nios2eds/bin/gnu/h-x86_64-mingw32/bin/../lib/gcc/nios2-elf/4.9.1/../../../../../H-x86_64-mingw32/nios2-elf/lib\libc.a(lib_a-strlen.o)
 .debug_info    0x000000000000e27d     0x1615 c:/altera/15.0/nios2eds/bin/gnu/h-x86_64-mingw32/bin/../lib/gcc/nios2-elf/4.9.1/../../../../../H-x86_64-mingw32/nios2-elf/lib\libc.a(lib_a-svfprintf.o)
 .debug_info    0x000000000000f892       0x61 c:/altera/15.0/nios2eds/bin/gnu/h-x86_64-mingw32/bin/../lib/gcc/nios2-elf/4.9.1/../../../../../H-x86_64-mingw32/nios2-elf/lib\libc.a(lib_a-u_strerr.o)
 .debug_info    0x000000000000f8f3     0x17d1 c:/altera/15.0/nios2eds/bin/gnu/h-x86_64-mingw32/bin/../lib/gcc/nios2-elf/4.9.1/../../../../../H-x86_64-mingw32/nios2-elf/lib\libc.a(lib_a-vfprintf.o)
 .debug_info    0x00000000000110c4      0x9b2 c:/altera/15.0/nios2eds/bin/gnu/h-x86_64-mingw32/bin/../lib/gcc/nios2-elf/4.9.1/../../../../../H-x86_64-mingw32/nios2-elf/lib\libc.a(lib_a-wbuf.o)
 .debug_info    0x0000000000011a76      0x91d c:/altera/15.0/nios2eds/bin/gnu/h-x86_64-mingw32/bin/../lib/gcc/nios2-elf/4.9.1/../../../../../H-x86_64-mingw32/nios2-elf/lib\libc.a(lib_a-wsetup.o)
 .debug_info    0x0000000000012393     0x1348 c:/altera/15.0/nios2eds/bin/gnu/h-x86_64-mingw32/bin/../lib/gcc/nios2-elf/4.9.1/../../../../../H-x86_64-mingw32/nios2-elf/lib\libc.a(lib_a-dtoa.o)
 .debug_info    0x00000000000136db      0xa3a c:/altera/15.0/nios2eds/bin/gnu/h-x86_64-mingw32/bin/../lib/gcc/nios2-elf/4.9.1/../../../../../H-x86_64-mingw32/nios2-elf/lib\libc.a(lib_a-fflush.o)
 .debug_info    0x0000000000014115      0xd38 c:/altera/15.0/nios2eds/bin/gnu/h-x86_64-mingw32/bin/../lib/gcc/nios2-elf/4.9.1/../../../../../H-x86_64-mingw32/nios2-elf/lib\libc.a(lib_a-findfp.o)
 .debug_info    0x0000000000014e4d      0x97a c:/altera/15.0/nios2eds/bin/gnu/h-x86_64-mingw32/bin/../lib/gcc/nios2-elf/4.9.1/../../../../../H-x86_64-mingw32/nios2-elf/lib\libc.a(lib_a-fputc.o)
 .debug_info    0x00000000000157c7      0xa31 c:/altera/15.0/nios2eds/bin/gnu/h-x86_64-mingw32/bin/../lib/gcc/nios2-elf/4.9.1/../../../../../H-x86_64-mingw32/nios2-elf/lib\libc.a(lib_a-fputs.o)
 .debug_info    0x00000000000161f8      0xc02 c:/altera/15.0/nios2eds/bin/gnu/h-x86_64-mingw32/bin/../lib/gcc/nios2-elf/4.9.1/../../../../../H-x86_64-mingw32/nios2-elf/lib\libc.a(lib_a-freer.o)
 .debug_info    0x0000000000016dfa      0xc31 c:/altera/15.0/nios2eds/bin/gnu/h-x86_64-mingw32/bin/../lib/gcc/nios2-elf/4.9.1/../../../../../H-x86_64-mingw32/nios2-elf/lib\libc.a(lib_a-fvwrite.o)
 .debug_info    0x0000000000017a2b      0xab7 c:/altera/15.0/nios2eds/bin/gnu/h-x86_64-mingw32/bin/../lib/gcc/nios2-elf/4.9.1/../../../../../H-x86_64-mingw32/nios2-elf/lib\libc.a(lib_a-fwalk.o)
 .debug_info    0x00000000000184e2       0x83 c:/altera/15.0/nios2eds/bin/gnu/h-x86_64-mingw32/bin/../lib/gcc/nios2-elf/4.9.1/../../../../../H-x86_64-mingw32/nios2-elf/lib\libc.a(lib_a-int_errno.o)
 .debug_info    0x0000000000018565      0xc19 c:/altera/15.0/nios2eds/bin/gnu/h-x86_64-mingw32/bin/../lib/gcc/nios2-elf/4.9.1/../../../../../H-x86_64-mingw32/nios2-elf/lib\libc.a(lib_a-locale.o)
 .debug_info    0x000000000001917e      0xaff c:/altera/15.0/nios2eds/bin/gnu/h-x86_64-mingw32/bin/../lib/gcc/nios2-elf/4.9.1/../../../../../H-x86_64-mingw32/nios2-elf/lib\libc.a(lib_a-makebuf.o)
 .debug_info    0x0000000000019c7d      0x12b c:/altera/15.0/nios2eds/bin/gnu/h-x86_64-mingw32/bin/../lib/gcc/nios2-elf/4.9.1/../../../../../H-x86_64-mingw32/nios2-elf/lib\libc.a(lib_a-memchr.o)
 .debug_info    0x0000000000019da8     0x1680 c:/altera/15.0/nios2eds/bin/gnu/h-x86_64-mingw32/bin/../lib/gcc/nios2-elf/4.9.1/../../../../../H-x86_64-mingw32/nios2-elf/lib\libc.a(lib_a-mprec.o)
 .debug_info    0x000000000001b428      0xcc6 c:/altera/15.0/nios2eds/bin/gnu/h-x86_64-mingw32/bin/../lib/gcc/nios2-elf/4.9.1/../../../../../H-x86_64-mingw32/nios2-elf/lib\libc.a(lib_a-reallocr.o)
 .debug_info    0x000000000001c0ee      0x9f3 c:/altera/15.0/nios2eds/bin/gnu/h-x86_64-mingw32/bin/../lib/gcc/nios2-elf/4.9.1/../../../../../H-x86_64-mingw32/nios2-elf/lib\libc.a(lib_a-refill.o)
 .debug_info    0x000000000001cae1       0xdc c:/altera/15.0/nios2eds/bin/gnu/h-x86_64-mingw32/bin/../lib/gcc/nios2-elf/4.9.1/../../../../../H-x86_64-mingw32/nios2-elf/lib\libc.a(lib_a-s_fpclassify.o)
 .debug_info    0x000000000001cbbd      0xb83 c:/altera/15.0/nios2eds/bin/gnu/h-x86_64-mingw32/bin/../lib/gcc/nios2-elf/4.9.1/../../../../../H-x86_64-mingw32/nios2-elf/lib\libc.a(lib_a-stdio.o)
 .debug_info    0x000000000001d740       0xdd c:/altera/15.0/nios2eds/bin/gnu/h-x86_64-mingw32/bin/../lib/gcc/nios2-elf/4.9.1/../../../../../H-x86_64-mingw32/nios2-elf/lib\libc.a(lib_a-strcmp.o)
 .debug_info    0x000000000001d81d      0xfdf c:/altera/15.0/nios2eds/bin/gnu/h-x86_64-mingw32/bin/../lib/gcc/nios2-elf/4.9.1/../../../../../H-x86_64-mingw32/nios2-elf/lib\libc.a(lib_a-svfiprintf.o)
 .debug_info    0x000000000001e7fc     0x1567 c:/altera/15.0/nios2eds/bin/gnu/h-x86_64-mingw32/bin/../lib/gcc/nios2-elf/4.9.1/../../../../../H-x86_64-mingw32/nios2-elf/lib\libc.a(lib_a-vfiprintf.o)
 .debug_info    0x000000000001fd63      0x921 c:/altera/15.0/nios2eds/bin/gnu/h-x86_64-mingw32/bin/../lib/gcc/nios2-elf/4.9.1/../../../../../H-x86_64-mingw32/nios2-elf/lib\libc.a(lib_a-writer.o)
 .debug_info    0x0000000000020684      0x8ce c:/altera/15.0/nios2eds/bin/gnu/h-x86_64-mingw32/bin/../lib/gcc/nios2-elf/4.9.1/../../../../../H-x86_64-mingw32/nios2-elf/lib\libc.a(closer.o)
 .debug_info    0x0000000000020f52      0x9e1 c:/altera/15.0/nios2eds/bin/gnu/h-x86_64-mingw32/bin/../lib/gcc/nios2-elf/4.9.1/../../../../../H-x86_64-mingw32/nios2-elf/lib\libc.a(lib_a-callocr.o)
 .debug_info    0x0000000000021933      0xa12 c:/altera/15.0/nios2eds/bin/gnu/h-x86_64-mingw32/bin/../lib/gcc/nios2-elf/4.9.1/../../../../../H-x86_64-mingw32/nios2-elf/lib\libc.a(lib_a-fclose.o)
 .debug_info    0x0000000000022345      0xaac c:/altera/15.0/nios2eds/bin/gnu/h-x86_64-mingw32/bin/../lib/gcc/nios2-elf/4.9.1/../../../../../H-x86_64-mingw32/nios2-elf/lib\libc.a(lib_a-fputwc.o)
 .debug_info    0x0000000000022df1      0xa5c c:/altera/15.0/nios2eds/bin/gnu/h-x86_64-mingw32/bin/../lib/gcc/nios2-elf/4.9.1/../../../../../H-x86_64-mingw32/nios2-elf/lib\libc.a(lib_a-fstatr.o)
 .debug_info    0x000000000002384d      0x8ce c:/altera/15.0/nios2eds/bin/gnu/h-x86_64-mingw32/bin/../lib/gcc/nios2-elf/4.9.1/../../../../../H-x86_64-mingw32/nios2-elf/lib\libc.a(lib_a-isattyr.o)
 .debug_info    0x000000000002411b      0x91a c:/altera/15.0/nios2eds/bin/gnu/h-x86_64-mingw32/bin/../lib/gcc/nios2-elf/4.9.1/../../../../../H-x86_64-mingw32/nios2-elf/lib\libc.a(lib_a-lseekr.o)
 .debug_info    0x0000000000024a35      0x91a c:/altera/15.0/nios2eds/bin/gnu/h-x86_64-mingw32/bin/../lib/gcc/nios2-elf/4.9.1/../../../../../H-x86_64-mingw32/nios2-elf/lib\libc.a(lib_a-readr.o)
 .debug_info    0x000000000002534f      0xa52 c:/altera/15.0/nios2eds/bin/gnu/h-x86_64-mingw32/bin/../lib/gcc/nios2-elf/4.9.1/../../../../../H-x86_64-mingw32/nios2-elf/lib\libc.a(lib_a-wcrtomb.o)
 .debug_info    0x0000000000025da1      0x99a c:/altera/15.0/nios2eds/bin/gnu/h-x86_64-mingw32/bin/../lib/gcc/nios2-elf/4.9.1/../../../../../H-x86_64-mingw32/nios2-elf/lib\libc.a(lib_a-wctomb_r.o)
 .debug_info    0x000000000002673b      0x70c c:/altera/15.0/nios2eds/bin/gnu/h-x86_64-mingw32/bin/../lib/gcc/nios2-elf/4.9.1\libgcc.a(_udivdi3.o)
 .debug_info    0x0000000000026e47      0x765 c:/altera/15.0/nios2eds/bin/gnu/h-x86_64-mingw32/bin/../lib/gcc/nios2-elf/4.9.1\libgcc.a(_umoddi3.o)
 .debug_info    0x00000000000275ac      0x234 c:/altera/15.0/nios2eds/bin/gnu/h-x86_64-mingw32/bin/../lib/gcc/nios2-elf/4.9.1\libgcc.a(lib2-divmod.o)
 .debug_info    0x00000000000277e0      0x485 c:/altera/15.0/nios2eds/bin/gnu/h-x86_64-mingw32/bin/../lib/gcc/nios2-elf/4.9.1\libgcc.a(adddf3.o)
 .debug_info    0x0000000000027c65      0x5c6 c:/altera/15.0/nios2eds/bin/gnu/h-x86_64-mingw32/bin/../lib/gcc/nios2-elf/4.9.1\libgcc.a(divdf3.o)
 .debug_info    0x000000000002822b      0x1e2 c:/altera/15.0/nios2eds/bin/gnu/h-x86_64-mingw32/bin/../lib/gcc/nios2-elf/4.9.1\libgcc.a(eqdf2.o)
 .debug_info    0x000000000002840d      0x202 c:/altera/15.0/nios2eds/bin/gnu/h-x86_64-mingw32/bin/../lib/gcc/nios2-elf/4.9.1\libgcc.a(gedf2.o)
 .debug_info    0x000000000002860f      0x202 c:/altera/15.0/nios2eds/bin/gnu/h-x86_64-mingw32/bin/../lib/gcc/nios2-elf/4.9.1\libgcc.a(ledf2.o)
 .debug_info    0x0000000000028811      0x5f2 c:/altera/15.0/nios2eds/bin/gnu/h-x86_64-mingw32/bin/../lib/gcc/nios2-elf/4.9.1\libgcc.a(muldf3.o)
 .debug_info    0x0000000000028e03      0x4a2 c:/altera/15.0/nios2eds/bin/gnu/h-x86_64-mingw32/bin/../lib/gcc/nios2-elf/4.9.1\libgcc.a(subdf3.o)
 .debug_info    0x00000000000292a5      0x1a6 c:/altera/15.0/nios2eds/bin/gnu/h-x86_64-mingw32/bin/../lib/gcc/nios2-elf/4.9.1\libgcc.a(fixdfsi.o)
 .debug_info    0x000000000002944b      0x1b6 c:/altera/15.0/nios2eds/bin/gnu/h-x86_64-mingw32/bin/../lib/gcc/nios2-elf/4.9.1\libgcc.a(floatsidf.o)
 .debug_info    0x0000000000029601      0x1af c:/altera/15.0/nios2eds/bin/gnu/h-x86_64-mingw32/bin/../lib/gcc/nios2-elf/4.9.1\libgcc.a(floatunsidf.o)
 .debug_info    0x00000000000297b0       0xab c:/altera/15.0/nios2eds/bin/gnu/h-x86_64-mingw32/bin/../lib/gcc/nios2-elf/4.9.1\libgcc.a(_clz.o)
 .debug_info    0x000000000002985b      0x11d c:/altera/15.0/nios2eds/bin/gnu/h-x86_64-mingw32/bin/../lib/gcc/nios2-elf/4.9.1\libgcc.a(_clzsi2.o)
 .debug_info    0x0000000000029978      0x4b5 ../DECA_socket_server_bsp/\libucosii_bsp.a(alt_fstat.o)
 .debug_info    0x0000000000029e2d      0x4b8 ../DECA_socket_server_bsp/\libucosii_bsp.a(alt_isatty.o)
 .debug_info    0x000000000002a2e5      0x13e ../DECA_socket_server_bsp/\libucosii_bsp.a(alt_load.o)
 .debug_info    0x000000000002a423      0x37f ../DECA_socket_server_bsp/\libucosii_bsp.a(alt_lseek.o)
 .debug_info    0x000000000002a7a2      0x266 ../DECA_socket_server_bsp/\libucosii_bsp.a(alt_main.o)
 .debug_info    0x000000000002aa08      0x1a5 ../DECA_socket_server_bsp/\libucosii_bsp.a(alt_sbrk.o)
 .debug_info    0x000000000002abad      0x13a ../DECA_socket_server_bsp/\libucosii_bsp.a(alt_usleep.o)
 .debug_info    0x000000000002ace7      0xc50 ../DECA_socket_server_bsp/\libucosii_bsp.a(alt_env_lock.o)
 .debug_info    0x000000000002b937      0xd96 ../DECA_socket_server_bsp/\libucosii_bsp.a(alt_malloc_lock.o)
 .debug_info    0x000000000002c6cd     0x1606 ../DECA_socket_server_bsp/\libucosii_bsp.a(os_core.o)
 .debug_info    0x000000000002dcd3      0xaa1 ../DECA_socket_server_bsp/\libucosii_bsp.a(os_dbg.o)
 .debug_info    0x000000000002e774      0xf95 ../DECA_socket_server_bsp/\libucosii_bsp.a(os_flag.o)
 .debug_info    0x000000000002f709      0x673 ../DECA_socket_server_bsp/\libucosii_bsp.a(os_mem.o)
 .debug_info    0x000000000002fd7c      0xd9c ../DECA_socket_server_bsp/\libucosii_bsp.a(os_q.o)
 .debug_info    0x0000000000030b18      0x9fd ../DECA_socket_server_bsp/\libucosii_bsp.a(os_sem.o)
 .debug_info    0x0000000000031515     0x1110 ../DECA_socket_server_bsp/\libucosii_bsp.a(os_task.o)
 .debug_info    0x0000000000032625      0x6e2 ../DECA_socket_server_bsp/\libucosii_bsp.a(os_time.o)
 .debug_info    0x0000000000032d07      0xe79 ../DECA_socket_server_bsp/\libucosii_bsp.a(alt_sys_init.o)
 .debug_info    0x0000000000033b80      0x674 ../DECA_socket_server_bsp/\libucosii_bsp.a(altera_avalon_jtag_uart_fd.o)
 .debug_info    0x00000000000341f4      0x6b4 ../DECA_socket_server_bsp/\libucosii_bsp.a(altera_avalon_jtag_uart_init.o)
 .debug_info    0x00000000000348a8      0x3c6 ../DECA_socket_server_bsp/\libucosii_bsp.a(altera_avalon_jtag_uart_ioctl.o)
 .debug_info    0x0000000000034c6e      0x578 ../DECA_socket_server_bsp/\libucosii_bsp.a(altera_avalon_jtag_uart_read.o)
 .debug_info    0x00000000000351e6      0x572 ../DECA_socket_server_bsp/\libucosii_bsp.a(altera_avalon_jtag_uart_write.o)
 .debug_info    0x0000000000035758      0xa7b ../DECA_socket_server_bsp/\libucosii_bsp.a(altera_avalon_sgdma.o)
 .debug_info    0x00000000000361d3      0x21f ../DECA_socket_server_bsp/\libucosii_bsp.a(altera_avalon_timer_sc.o)
 .debug_info    0x00000000000363f2     0x1c05 ../DECA_socket_server_bsp/\libucosii_bsp.a(ins_tse_mac.o)
 .debug_info    0x0000000000037ff7       0xd5 ../DECA_socket_server_bsp/\libucosii_bsp.a(alt_iniche_close.o)
 .debug_info    0x00000000000380cc      0x728 ../DECA_socket_server_bsp/\libucosii_bsp.a(alt_iniche_dev.o)
 .debug_info    0x00000000000387f4       0xfe ../DECA_socket_server_bsp/\libucosii_bsp.a(alt_iniche_read.o)
 .debug_info    0x00000000000388f2      0x103 ../DECA_socket_server_bsp/\libucosii_bsp.a(alt_iniche_write.o)
 .debug_info    0x00000000000389f5      0x83c ../DECA_socket_server_bsp/\libucosii_bsp.a(ipnet.o)
 .debug_info    0x0000000000039231      0x79c ../DECA_socket_server_bsp/\libucosii_bsp.a(ipstart.o)
 .debug_info    0x00000000000399cd      0xc91 ../DECA_socket_server_bsp/\libucosii_bsp.a(igmp_cmn.o)
 .debug_info    0x000000000003a65e      0xe83 ../DECA_socket_server_bsp/\libucosii_bsp.a(bsdsock.o)
 .debug_info    0x000000000003b4e1      0x15d ../DECA_socket_server_bsp/\libucosii_bsp.a(cksum.o)
 .debug_info    0x000000000003b63e      0x57e ../DECA_socket_server_bsp/\libucosii_bsp.a(in_utils.o)
 .debug_info    0x000000000003bbbc      0x378 ../DECA_socket_server_bsp/\libucosii_bsp.a(netmain.o)
 .debug_info    0x000000000003bf34      0x5c6 ../DECA_socket_server_bsp/\libucosii_bsp.a(tk_crnos.o)
 .debug_info    0x000000000003c4fa      0xfe4 ../DECA_socket_server_bsp/\libucosii_bsp.a(dhcpclnt.o)
 .debug_info    0x000000000003d4de       0xf8 ../DECA_socket_server_bsp/\libucosii_bsp.a(dhcputil.o)
 .debug_info    0x000000000003d5d6      0x86f ../DECA_socket_server_bsp/\libucosii_bsp.a(pktalloc.o)
 .debug_info    0x000000000003de45      0x1e7 ../DECA_socket_server_bsp/\libucosii_bsp.a(q.o)
 .debug_info    0x000000000003e02c      0x744 ../DECA_socket_server_bsp/\libucosii_bsp.a(udp_open.o)
 .debug_info    0x000000000003e770       0x94 ../DECA_socket_server_bsp/\libucosii_bsp.a(asm_cksum.o)
 .debug_info    0x000000000003e804      0xa66 ../DECA_socket_server_bsp/\libucosii_bsp.a(brdutils.o)
 .debug_info    0x000000000003f26a      0x48f ../DECA_socket_server_bsp/\libucosii_bsp.a(osportco.o)
 .debug_info    0x000000000003f6f9      0x4a8 ../DECA_socket_server_bsp/\libucosii_bsp.a(targnios.o)
 .debug_info    0x000000000003fba1     0x18ec ../DECA_socket_server_bsp/\libucosii_bsp.a(nptcp.o)
 .debug_info    0x000000000004148d      0xc4b ../DECA_socket_server_bsp/\libucosii_bsp.a(rawsock.o)
 .debug_info    0x00000000000420d8     0x1553 ../DECA_socket_server_bsp/\libucosii_bsp.a(sockcall.o)
 .debug_info    0x000000000004362b     0x131f ../DECA_socket_server_bsp/\libucosii_bsp.a(socket.o)
 .debug_info    0x000000000004494a      0xf19 ../DECA_socket_server_bsp/\libucosii_bsp.a(socket2.o)
 .debug_info    0x0000000000045863      0xcbd ../DECA_socket_server_bsp/\libucosii_bsp.a(soselect.o)
 .debug_info    0x0000000000046520     0x15ba ../DECA_socket_server_bsp/\libucosii_bsp.a(tcp_in.o)
 .debug_info    0x0000000000047ada     0x1336 ../DECA_socket_server_bsp/\libucosii_bsp.a(tcp_out.o)
 .debug_info    0x0000000000048e10     0x1390 ../DECA_socket_server_bsp/\libucosii_bsp.a(tcp_subr.o)
 .debug_info    0x000000000004a1a0     0x11e1 ../DECA_socket_server_bsp/\libucosii_bsp.a(tcp_timr.o)
 .debug_info    0x000000000004b381     0x11b5 ../DECA_socket_server_bsp/\libucosii_bsp.a(tcp_usr.o)
 .debug_info    0x000000000004c536       0xd4 ../DECA_socket_server_bsp/\libucosii_bsp.a(tcpport.o)
 .debug_info    0x000000000004c60a      0xd96 ../DECA_socket_server_bsp/\libucosii_bsp.a(udpsock.o)
 .debug_info    0x000000000004d3a0      0x2c5 ../DECA_socket_server_bsp/\libucosii_bsp.a(alt_alarm_start.o)
 .debug_info    0x000000000004d665       0xd0 ../DECA_socket_server_bsp/\libucosii_bsp.a(alt_busy_sleep.o)
 .debug_info    0x000000000004d735      0x34e ../DECA_socket_server_bsp/\libucosii_bsp.a(alt_close.o)
 .debug_info    0x000000000004da83       0xd5 ../DECA_socket_server_bsp/\libucosii_bsp.a(alt_dcache_flush.o)
 .debug_info    0x000000000004db58       0x9e ../DECA_socket_server_bsp/\libucosii_bsp.a(alt_dcache_flush_all.o)
 .debug_info    0x000000000004dbf6      0x57e ../DECA_socket_server_bsp/\libucosii_bsp.a(alt_dev.o)
 .debug_info    0x000000000004e174      0x1a2 ../DECA_socket_server_bsp/\libucosii_bsp.a(alt_dev_llist_insert.o)
 .debug_info    0x000000000004e316       0x83 ../DECA_socket_server_bsp/\libucosii_bsp.a(alt_do_ctors.o)
 .debug_info    0x000000000004e399       0x83 ../DECA_socket_server_bsp/\libucosii_bsp.a(alt_do_dtors.o)
 .debug_info    0x000000000004e41c       0x9f ../DECA_socket_server_bsp/\libucosii_bsp.a(alt_errno.o)
 .debug_info    0x000000000004e4bb      0x316 ../DECA_socket_server_bsp/\libucosii_bsp.a(alt_find_dev.o)
 .debug_info    0x000000000004e7d1       0x8b ../DECA_socket_server_bsp/\libucosii_bsp.a(alt_icache_flush_all.o)
 .debug_info    0x000000000004e85c      0x349 ../DECA_socket_server_bsp/\libucosii_bsp.a(alt_iic.o)
 .debug_info    0x000000000004eba5      0x1e8 ../DECA_socket_server_bsp/\libucosii_bsp.a(alt_iic_isr_register.o)
 .debug_info    0x000000000004ed8d      0x4d2 ../DECA_socket_server_bsp/\libucosii_bsp.a(alt_io_redirect.o)
 .debug_info    0x000000000004f25f       0x8b ../DECA_socket_server_bsp/\libucosii_bsp.a(alt_irq_entry.o)
 .debug_info    0x000000000004f2ea      0x1a9 ../DECA_socket_server_bsp/\libucosii_bsp.a(alt_irq_handler.o)
 .debug_info    0x000000000004f493       0x88 ../DECA_socket_server_bsp/\libucosii_bsp.a(alt_irq_vars.o)
 .debug_info    0x000000000004f51b      0x3dd ../DECA_socket_server_bsp/\libucosii_bsp.a(alt_open.o)
 .debug_info    0x000000000004f8f8      0x4dd ../DECA_socket_server_bsp/\libucosii_bsp.a(alt_read.o)
 .debug_info    0x000000000004fdd5      0x2f2 ../DECA_socket_server_bsp/\libucosii_bsp.a(alt_release_fd.o)
 .debug_info    0x00000000000500c7       0xc4 ../DECA_socket_server_bsp/\libucosii_bsp.a(alt_remap_cached.o)
 .debug_info    0x000000000005018b      0x2a0 ../DECA_socket_server_bsp/\libucosii_bsp.a(alt_tick.o)
 .debug_info    0x000000000005042b       0xb0 ../DECA_socket_server_bsp/\libucosii_bsp.a(alt_uncached_free.o)
 .debug_info    0x00000000000504db       0xf0 ../DECA_socket_server_bsp/\libucosii_bsp.a(alt_uncached_malloc.o)
 .debug_info    0x00000000000505cb      0x4e4 ../DECA_socket_server_bsp/\libucosii_bsp.a(alt_write.o)
 .debug_info    0x0000000000050aaf       0x8b ../DECA_socket_server_bsp/\libucosii_bsp.a(altera_nios2_gen2_irq.o)
 .debug_info    0x0000000000050b3a       0x8a ../DECA_socket_server_bsp/\libucosii_bsp.a(os_cpu_a.o)
 .debug_info    0x0000000000050bc4      0xcd3 ../DECA_socket_server_bsp/\libucosii_bsp.a(os_cpu_c.o)
 .debug_info    0x0000000000051897      0x901 ../DECA_socket_server_bsp/\libucosii_bsp.a(allports.o)
 .debug_info    0x0000000000052198      0x257 ../DECA_socket_server_bsp/\libucosii_bsp.a(timeouts.o)
 .debug_info    0x00000000000523ef      0x112 ../DECA_socket_server_bsp/\libucosii_bsp.a(tk_misc.o)
 .debug_info    0x0000000000052501      0x11d ../DECA_socket_server_bsp/\libucosii_bsp.a(alt_iniche_fcntl.o)
 .debug_info    0x000000000005261e      0xdae ../DECA_socket_server_bsp/\libucosii_bsp.a(et_arp.o)
 .debug_info    0x00000000000533cc      0xa56 ../DECA_socket_server_bsp/\libucosii_bsp.a(iface.o)
 .debug_info    0x0000000000053e22      0xfcd ../DECA_socket_server_bsp/\libucosii_bsp.a(ip.o)
 .debug_info    0x0000000000054def     0x1054 ../DECA_socket_server_bsp/\libucosii_bsp.a(ip_reasm.o)
 .debug_info    0x0000000000055e43      0x8f1 ../DECA_socket_server_bsp/\libucosii_bsp.a(ipdemux.o)
 .debug_info    0x0000000000056734      0x6a0 ../DECA_socket_server_bsp/\libucosii_bsp.a(ipmc.o)
 .debug_info    0x0000000000056dd4      0x1a1 ../DECA_socket_server_bsp/\libucosii_bsp.a(ipport.o)
 .debug_info    0x0000000000056f75      0x9e6 ../DECA_socket_server_bsp/\libucosii_bsp.a(ipraw.o)
 .debug_info    0x000000000005795b      0x962 ../DECA_socket_server_bsp/\libucosii_bsp.a(iproute.o)
 .debug_info    0x00000000000582bd      0xcb2 ../DECA_socket_server_bsp/\libucosii_bsp.a(udp.o)
 .debug_info    0x0000000000058f6f      0x96c ../DECA_socket_server_bsp/\libucosii_bsp.a(igmp.o)
 .debug_info    0x00000000000598db      0xaf2 ../DECA_socket_server_bsp/\libucosii_bsp.a(igmp2.o)
 .debug_info    0x000000000005a3cd      0xb4c ../DECA_socket_server_bsp/\libucosii_bsp.a(ipopt.o)
 .debug_info    0x000000000005af19      0x7da ../DECA_socket_server_bsp/\libucosii_bsp.a(u_mctest.o)
 .debug_info    0x000000000005b6f3      0x6c1 ../DECA_socket_server_bsp/\libucosii_bsp.a(dhcsetup.o)
 .debug_info    0x000000000005bdb4      0x54a ../DECA_socket_server_bsp/\libucosii_bsp.a(memdev.o)
 .debug_info    0x000000000005c2fe      0x52c ../DECA_socket_server_bsp/\libucosii_bsp.a(parseip.o)
 .debug_info    0x000000000005c82a      0x267 ../DECA_socket_server_bsp/\libucosii_bsp.a(tcpcksum.o)
 .debug_info    0x000000000005ca91      0xcb9 ../DECA_socket_server_bsp/\libucosii_bsp.a(in_pcb.o)
 .debug_info    0x000000000005d74a      0xc78 ../DECA_socket_server_bsp/\libucosii_bsp.a(vfsfiles.o)
 .debug_info    0x000000000005e3c2       0xd4 ../DECA_socket_server_bsp/\libucosii_bsp.a(vfsport.o)
 .debug_info    0x000000000005e496       0x91 ../DECA_socket_server_bsp/\libucosii_bsp.a(alt_exception_entry.o)
 .debug_info    0x000000000005e527      0x4ef ../DECA_socket_server_bsp/\libucosii_bsp.a(alt_fcntl.o)
 .debug_info    0x000000000005ea16      0x313 ../DECA_socket_server_bsp/\libucosii_bsp.a(alt_find_file.o)
 .debug_info    0x000000000005ed29      0x444 ../DECA_socket_server_bsp/\libucosii_bsp.a(alt_get_fd.o)
 .debug_info    0x000000000005f16d       0xd5 ../DECA_socket_server_bsp/\libucosii_bsp.a(alt_icache_flush.o)
 .debug_info    0x000000000005f242      0x1d8 ../DECA_socket_server_bsp/\libucosii_bsp.a(alt_instruction_exception_entry.o)
 .debug_info    0x000000000005f41a      0xb88 ../DECA_socket_server_bsp/\libucosii_bsp.a(icmp.o)
 .debug_info    0x000000000005ffa2      0x10a c:/altera/15.0/nios2eds/bin/gnu/h-x86_64-mingw32/bin/../lib/gcc/nios2-elf/4.9.1/../../../../../H-x86_64-mingw32/nios2-elf/lib\libc.a(lib_a-atexit.o)
 .debug_info    0x00000000000600ac      0x93c c:/altera/15.0/nios2eds/bin/gnu/h-x86_64-mingw32/bin/../lib/gcc/nios2-elf/4.9.1/../../../../../H-x86_64-mingw32/nios2-elf/lib\libc.a(lib_a-atoi.o)
 .debug_info    0x00000000000609e8      0x8df c:/altera/15.0/nios2eds/bin/gnu/h-x86_64-mingw32/bin/../lib/gcc/nios2-elf/4.9.1/../../../../../H-x86_64-mingw32/nios2-elf/lib\libc.a(lib_a-exit.o)
 .debug_info    0x00000000000612c7      0x8df c:/altera/15.0/nios2eds/bin/gnu/h-x86_64-mingw32/bin/../lib/gcc/nios2-elf/4.9.1/../../../../../H-x86_64-mingw32/nios2-elf/lib\libc.a(lib_a-malign.o)
 .debug_info    0x0000000000061ba6      0xa68 c:/altera/15.0/nios2eds/bin/gnu/h-x86_64-mingw32/bin/../lib/gcc/nios2-elf/4.9.1/../../../../../H-x86_64-mingw32/nios2-elf/lib\libc.a(lib_a-malignr.o)
 .debug_info    0x000000000006260e      0x113 c:/altera/15.0/nios2eds/bin/gnu/h-x86_64-mingw32/bin/../lib/gcc/nios2-elf/4.9.1/../../../../../H-x86_64-mingw32/nios2-elf/lib\libc.a(lib_a-memcmp.o)
 .debug_info    0x0000000000062721       0xf5 c:/altera/15.0/nios2eds/bin/gnu/h-x86_64-mingw32/bin/../lib/gcc/nios2-elf/4.9.1/../../../../../H-x86_64-mingw32/nios2-elf/lib\libc.a(lib_a-strncmp.o)
 .debug_info    0x0000000000062816      0x12a c:/altera/15.0/nios2eds/bin/gnu/h-x86_64-mingw32/bin/../lib/gcc/nios2-elf/4.9.1/../../../../../H-x86_64-mingw32/nios2-elf/lib\libc.a(lib_a-strncpy.o)
 .debug_info    0x0000000000062940      0x999 c:/altera/15.0/nios2eds/bin/gnu/h-x86_64-mingw32/bin/../lib/gcc/nios2-elf/4.9.1/../../../../../H-x86_64-mingw32/nios2-elf/lib\libc.a(lib_a-strtol.o)
 .debug_info    0x00000000000632d9      0x970 c:/altera/15.0/nios2eds/bin/gnu/h-x86_64-mingw32/bin/../lib/gcc/nios2-elf/4.9.1/../../../../../H-x86_64-mingw32/nios2-elf/lib\libc.a(lib_a-vprintf.o)
 .debug_info    0x0000000000063c49      0x9a8 c:/altera/15.0/nios2eds/bin/gnu/h-x86_64-mingw32/bin/../lib/gcc/nios2-elf/4.9.1/../../../../../H-x86_64-mingw32/nios2-elf/lib\libc.a(lib_a-vsprintf.o)
 .debug_info    0x00000000000645f1      0x93b c:/altera/15.0/nios2eds/bin/gnu/h-x86_64-mingw32/bin/../lib/gcc/nios2-elf/4.9.1/../../../../../H-x86_64-mingw32/nios2-elf/lib\libc.a(lib_a-__atexit.o)
 .debug_info    0x0000000000064f2c      0x948 c:/altera/15.0/nios2eds/bin/gnu/h-x86_64-mingw32/bin/../lib/gcc/nios2-elf/4.9.1/../../../../../H-x86_64-mingw32/nios2-elf/lib\libc.a(lib_a-__call_atexit.o)
 .debug_info    0x0000000000065874      0x932 c:/altera/15.0/nios2eds/bin/gnu/h-x86_64-mingw32/bin/../lib/gcc/nios2-elf/4.9.1/../../../../../H-x86_64-mingw32/nios2-elf/lib\libc.a(lib_a-vfprintfr_1.o)
 .debug_info    0x00000000000661a6      0x134 ../DECA_socket_server_bsp/\libucosii_bsp.a(alt_exit.o)

.debug_abbrev   0x0000000000000000    0x15195
 *(.debug_abbrev)
 .debug_abbrev  0x0000000000000000       0x12 ../DECA_socket_server_bsp//obj/HAL/src/crt0.o
 .debug_abbrev  0x0000000000000012      0x215 obj/default/alt_error_handler.o
 .debug_abbrev  0x0000000000000227      0x104 obj/default/iniche_init.o
 .debug_abbrev  0x000000000000032b      0x274 obj/default/ins_tse/altera_avalon_tse.o
 .debug_abbrev  0x000000000000059f       0xf9 obj/default/led.o
 .debug_abbrev  0x0000000000000698      0x29e obj/default/network_utilities.o
 .debug_abbrev  0x0000000000000936      0x1da obj/default/simple_socket_server.o
 .debug_abbrev  0x0000000000000b10       0xff obj/default/tse_my_system.o
 .debug_abbrev  0x0000000000000c0f       0x5d c:/altera/15.0/nios2eds/bin/gnu/h-x86_64-mingw32/bin/../lib/gcc/nios2-elf/4.9.1/../../../../../H-x86_64-mingw32/nios2-elf/lib\libc.a(lib_a-ctype_.o)
 .debug_abbrev  0x0000000000000c6c      0x201 c:/altera/15.0/nios2eds/bin/gnu/h-x86_64-mingw32/bin/../lib/gcc/nios2-elf/4.9.1/../../../../../H-x86_64-mingw32/nios2-elf/lib\libc.a(lib_a-fprintf.o)
 .debug_abbrev  0x0000000000000e6d      0x243 c:/altera/15.0/nios2eds/bin/gnu/h-x86_64-mingw32/bin/../lib/gcc/nios2-elf/4.9.1/../../../../../H-x86_64-mingw32/nios2-elf/lib\libc.a(lib_a-fwrite.o)
 .debug_abbrev  0x00000000000010b0      0x224 c:/altera/15.0/nios2eds/bin/gnu/h-x86_64-mingw32/bin/../lib/gcc/nios2-elf/4.9.1/../../../../../H-x86_64-mingw32/nios2-elf/lib\libc.a(lib_a-getc.o)
 .debug_abbrev  0x00000000000012d4      0x180 c:/altera/15.0/nios2eds/bin/gnu/h-x86_64-mingw32/bin/../lib/gcc/nios2-elf/4.9.1/../../../../../H-x86_64-mingw32/nios2-elf/lib\libc.a(lib_a-impure.o)
 .debug_abbrev  0x0000000000001454      0x1fa c:/altera/15.0/nios2eds/bin/gnu/h-x86_64-mingw32/bin/../lib/gcc/nios2-elf/4.9.1/../../../../../H-x86_64-mingw32/nios2-elf/lib\libc.a(lib_a-malloc.o)
 .debug_abbrev  0x000000000000164e      0x2ad c:/altera/15.0/nios2eds/bin/gnu/h-x86_64-mingw32/bin/../lib/gcc/nios2-elf/4.9.1/../../../../../H-x86_64-mingw32/nios2-elf/lib\libc.a(lib_a-mallocr.o)
 .debug_abbrev  0x00000000000018fb       0x9c c:/altera/15.0/nios2eds/bin/gnu/h-x86_64-mingw32/bin/../lib/gcc/nios2-elf/4.9.1/../../../../../H-x86_64-mingw32/nios2-elf/lib\libc.a(lib_a-memcpy.o)
 .debug_abbrev  0x0000000000001997       0x9c c:/altera/15.0/nios2eds/bin/gnu/h-x86_64-mingw32/bin/../lib/gcc/nios2-elf/4.9.1/../../../../../H-x86_64-mingw32/nios2-elf/lib\libc.a(lib_a-memmove.o)
 .debug_abbrev  0x0000000000001a33       0xae c:/altera/15.0/nios2eds/bin/gnu/h-x86_64-mingw32/bin/../lib/gcc/nios2-elf/4.9.1/../../../../../H-x86_64-mingw32/nios2-elf/lib\libc.a(lib_a-memset.o)
 .debug_abbrev  0x0000000000001ae1      0x222 c:/altera/15.0/nios2eds/bin/gnu/h-x86_64-mingw32/bin/../lib/gcc/nios2-elf/4.9.1/../../../../../H-x86_64-mingw32/nios2-elf/lib\libc.a(lib_a-perror.o)
 .debug_abbrev  0x0000000000001d03      0x234 c:/altera/15.0/nios2eds/bin/gnu/h-x86_64-mingw32/bin/../lib/gcc/nios2-elf/4.9.1/../../../../../H-x86_64-mingw32/nios2-elf/lib\libc.a(lib_a-printf.o)
 .debug_abbrev  0x0000000000001f37      0x226 c:/altera/15.0/nios2eds/bin/gnu/h-x86_64-mingw32/bin/../lib/gcc/nios2-elf/4.9.1/../../../../../H-x86_64-mingw32/nios2-elf/lib\libc.a(lib_a-putc.o)
 .debug_abbrev  0x000000000000215d      0x1eb c:/altera/15.0/nios2eds/bin/gnu/h-x86_64-mingw32/bin/../lib/gcc/nios2-elf/4.9.1/../../../../../H-x86_64-mingw32/nios2-elf/lib\libc.a(lib_a-putchar.o)
 .debug_abbrev  0x0000000000002348      0x226 c:/altera/15.0/nios2eds/bin/gnu/h-x86_64-mingw32/bin/../lib/gcc/nios2-elf/4.9.1/../../../../../H-x86_64-mingw32/nios2-elf/lib\libc.a(lib_a-puts.o)
 .debug_abbrev  0x000000000000256e      0x214 c:/altera/15.0/nios2eds/bin/gnu/h-x86_64-mingw32/bin/../lib/gcc/nios2-elf/4.9.1/../../../../../H-x86_64-mingw32/nios2-elf/lib\libc.a(lib_a-rget.o)
 .debug_abbrev  0x0000000000002782      0x1fd c:/altera/15.0/nios2eds/bin/gnu/h-x86_64-mingw32/bin/../lib/gcc/nios2-elf/4.9.1/../../../../../H-x86_64-mingw32/nios2-elf/lib\libc.a(lib_a-sbrkr.o)
 .debug_abbrev  0x000000000000297f      0x207 c:/altera/15.0/nios2eds/bin/gnu/h-x86_64-mingw32/bin/../lib/gcc/nios2-elf/4.9.1/../../../../../H-x86_64-mingw32/nios2-elf/lib\libc.a(lib_a-sprintf.o)
 .debug_abbrev  0x0000000000002b86       0x83 c:/altera/15.0/nios2eds/bin/gnu/h-x86_64-mingw32/bin/../lib/gcc/nios2-elf/4.9.1/../../../../../H-x86_64-mingw32/nios2-elf/lib\libc.a(lib_a-strchr.o)
 .debug_abbrev  0x0000000000002c09       0x83 c:/altera/15.0/nios2eds/bin/gnu/h-x86_64-mingw32/bin/../lib/gcc/nios2-elf/4.9.1/../../../../../H-x86_64-mingw32/nios2-elf/lib\libc.a(lib_a-strcpy.o)
 .debug_abbrev  0x0000000000002c8c       0xa7 c:/altera/15.0/nios2eds/bin/gnu/h-x86_64-mingw32/bin/../lib/gcc/nios2-elf/4.9.1/../../../../../H-x86_64-mingw32/nios2-elf/lib\libc.a(lib_a-strerror.o)
 .debug_abbrev  0x0000000000002d33       0x90 c:/altera/15.0/nios2eds/bin/gnu/h-x86_64-mingw32/bin/../lib/gcc/nios2-elf/4.9.1/../../../../../H-x86_64-mingw32/nios2-elf/lib\libc.a(lib_a-strlen.o)
 .debug_abbrev  0x0000000000002dc3      0x36b c:/altera/15.0/nios2eds/bin/gnu/h-x86_64-mingw32/bin/../lib/gcc/nios2-elf/4.9.1/../../../../../H-x86_64-mingw32/nios2-elf/lib\libc.a(lib_a-svfprintf.o)
 .debug_abbrev  0x000000000000312e       0x5e c:/altera/15.0/nios2eds/bin/gnu/h-x86_64-mingw32/bin/../lib/gcc/nios2-elf/4.9.1/../../../../../H-x86_64-mingw32/nios2-elf/lib\libc.a(lib_a-u_strerr.o)
 .debug_abbrev  0x000000000000318c      0x3c2 c:/altera/15.0/nios2eds/bin/gnu/h-x86_64-mingw32/bin/../lib/gcc/nios2-elf/4.9.1/../../../../../H-x86_64-mingw32/nios2-elf/lib\libc.a(lib_a-vfprintf.o)
 .debug_abbrev  0x000000000000354e      0x238 c:/altera/15.0/nios2eds/bin/gnu/h-x86_64-mingw32/bin/../lib/gcc/nios2-elf/4.9.1/../../../../../H-x86_64-mingw32/nios2-elf/lib\libc.a(lib_a-wbuf.o)
 .debug_abbrev  0x0000000000003786      0x1f3 c:/altera/15.0/nios2eds/bin/gnu/h-x86_64-mingw32/bin/../lib/gcc/nios2-elf/4.9.1/../../../../../H-x86_64-mingw32/nios2-elf/lib\libc.a(lib_a-wsetup.o)
 .debug_abbrev  0x0000000000003979      0x2c9 c:/altera/15.0/nios2eds/bin/gnu/h-x86_64-mingw32/bin/../lib/gcc/nios2-elf/4.9.1/../../../../../H-x86_64-mingw32/nios2-elf/lib\libc.a(lib_a-dtoa.o)
 .debug_abbrev  0x0000000000003c42      0x275 c:/altera/15.0/nios2eds/bin/gnu/h-x86_64-mingw32/bin/../lib/gcc/nios2-elf/4.9.1/../../../../../H-x86_64-mingw32/nios2-elf/lib\libc.a(lib_a-fflush.o)
 .debug_abbrev  0x0000000000003eb7      0x36b c:/altera/15.0/nios2eds/bin/gnu/h-x86_64-mingw32/bin/../lib/gcc/nios2-elf/4.9.1/../../../../../H-x86_64-mingw32/nios2-elf/lib\libc.a(lib_a-findfp.o)
 .debug_abbrev  0x0000000000004222      0x230 c:/altera/15.0/nios2eds/bin/gnu/h-x86_64-mingw32/bin/../lib/gcc/nios2-elf/4.9.1/../../../../../H-x86_64-mingw32/nios2-elf/lib\libc.a(lib_a-fputc.o)
 .debug_abbrev  0x0000000000004452      0x237 c:/altera/15.0/nios2eds/bin/gnu/h-x86_64-mingw32/bin/../lib/gcc/nios2-elf/4.9.1/../../../../../H-x86_64-mingw32/nios2-elf/lib\libc.a(lib_a-fputs.o)
 .debug_abbrev  0x0000000000004689      0x27b c:/altera/15.0/nios2eds/bin/gnu/h-x86_64-mingw32/bin/../lib/gcc/nios2-elf/4.9.1/../../../../../H-x86_64-mingw32/nios2-elf/lib\libc.a(lib_a-freer.o)
 .debug_abbrev  0x0000000000004904      0x252 c:/altera/15.0/nios2eds/bin/gnu/h-x86_64-mingw32/bin/../lib/gcc/nios2-elf/4.9.1/../../../../../H-x86_64-mingw32/nios2-elf/lib\libc.a(lib_a-fvwrite.o)
 .debug_abbrev  0x0000000000004b56      0x242 c:/altera/15.0/nios2eds/bin/gnu/h-x86_64-mingw32/bin/../lib/gcc/nios2-elf/4.9.1/../../../../../H-x86_64-mingw32/nios2-elf/lib\libc.a(lib_a-fwalk.o)
 .debug_abbrev  0x0000000000004d98       0x37 c:/altera/15.0/nios2eds/bin/gnu/h-x86_64-mingw32/bin/../lib/gcc/nios2-elf/4.9.1/../../../../../H-x86_64-mingw32/nios2-elf/lib\libc.a(lib_a-int_errno.o)
 .debug_abbrev  0x0000000000004dcf      0x2b3 c:/altera/15.0/nios2eds/bin/gnu/h-x86_64-mingw32/bin/../lib/gcc/nios2-elf/4.9.1/../../../../../H-x86_64-mingw32/nios2-elf/lib\libc.a(lib_a-locale.o)
 .debug_abbrev  0x0000000000005082      0x206 c:/altera/15.0/nios2eds/bin/gnu/h-x86_64-mingw32/bin/../lib/gcc/nios2-elf/4.9.1/../../../../../H-x86_64-mingw32/nios2-elf/lib\libc.a(lib_a-makebuf.o)
 .debug_abbrev  0x0000000000005288       0xab c:/altera/15.0/nios2eds/bin/gnu/h-x86_64-mingw32/bin/../lib/gcc/nios2-elf/4.9.1/../../../../../H-x86_64-mingw32/nios2-elf/lib\libc.a(lib_a-memchr.o)
 .debug_abbrev  0x0000000000005333      0x3c2 c:/altera/15.0/nios2eds/bin/gnu/h-x86_64-mingw32/bin/../lib/gcc/nios2-elf/4.9.1/../../../../../H-x86_64-mingw32/nios2-elf/lib\libc.a(lib_a-mprec.o)
 .debug_abbrev  0x00000000000056f5      0x269 c:/altera/15.0/nios2eds/bin/gnu/h-x86_64-mingw32/bin/../lib/gcc/nios2-elf/4.9.1/../../../../../H-x86_64-mingw32/nios2-elf/lib\libc.a(lib_a-reallocr.o)
 .debug_abbrev  0x000000000000595e      0x250 c:/altera/15.0/nios2eds/bin/gnu/h-x86_64-mingw32/bin/../lib/gcc/nios2-elf/4.9.1/../../../../../H-x86_64-mingw32/nios2-elf/lib\libc.a(lib_a-refill.o)
 .debug_abbrev  0x0000000000005bae       0x7e c:/altera/15.0/nios2eds/bin/gnu/h-x86_64-mingw32/bin/../lib/gcc/nios2-elf/4.9.1/../../../../../H-x86_64-mingw32/nios2-elf/lib\libc.a(lib_a-s_fpclassify.o)
 .debug_abbrev  0x0000000000005c2c      0x246 c:/altera/15.0/nios2eds/bin/gnu/h-x86_64-mingw32/bin/../lib/gcc/nios2-elf/4.9.1/../../../../../H-x86_64-mingw32/nios2-elf/lib\libc.a(lib_a-stdio.o)
 .debug_abbrev  0x0000000000005e72       0x74 c:/altera/15.0/nios2eds/bin/gnu/h-x86_64-mingw32/bin/../lib/gcc/nios2-elf/4.9.1/../../../../../H-x86_64-mingw32/nios2-elf/lib\libc.a(lib_a-strcmp.o)
 .debug_abbrev  0x0000000000005ee6      0x2c1 c:/altera/15.0/nios2eds/bin/gnu/h-x86_64-mingw32/bin/../lib/gcc/nios2-elf/4.9.1/../../../../../H-x86_64-mingw32/nios2-elf/lib\libc.a(lib_a-svfiprintf.o)
 .debug_abbrev  0x00000000000061a7      0x3f8 c:/altera/15.0/nios2eds/bin/gnu/h-x86_64-mingw32/bin/../lib/gcc/nios2-elf/4.9.1/../../../../../H-x86_64-mingw32/nios2-elf/lib\libc.a(lib_a-vfiprintf.o)
 .debug_abbrev  0x000000000000659f      0x1de c:/altera/15.0/nios2eds/bin/gnu/h-x86_64-mingw32/bin/../lib/gcc/nios2-elf/4.9.1/../../../../../H-x86_64-mingw32/nios2-elf/lib\libc.a(lib_a-writer.o)
 .debug_abbrev  0x000000000000677d      0x1d9 c:/altera/15.0/nios2eds/bin/gnu/h-x86_64-mingw32/bin/../lib/gcc/nios2-elf/4.9.1/../../../../../H-x86_64-mingw32/nios2-elf/lib\libc.a(closer.o)
 .debug_abbrev  0x0000000000006956      0x213 c:/altera/15.0/nios2eds/bin/gnu/h-x86_64-mingw32/bin/../lib/gcc/nios2-elf/4.9.1/../../../../../H-x86_64-mingw32/nios2-elf/lib\libc.a(lib_a-callocr.o)
 .debug_abbrev  0x0000000000006b69      0x2a9 c:/altera/15.0/nios2eds/bin/gnu/h-x86_64-mingw32/bin/../lib/gcc/nios2-elf/4.9.1/../../../../../H-x86_64-mingw32/nios2-elf/lib\libc.a(lib_a-fclose.o)
 .debug_abbrev  0x0000000000006e12      0x289 c:/altera/15.0/nios2eds/bin/gnu/h-x86_64-mingw32/bin/../lib/gcc/nios2-elf/4.9.1/../../../../../H-x86_64-mingw32/nios2-elf/lib\libc.a(lib_a-fputwc.o)
 .debug_abbrev  0x000000000000709b      0x1e8 c:/altera/15.0/nios2eds/bin/gnu/h-x86_64-mingw32/bin/../lib/gcc/nios2-elf/4.9.1/../../../../../H-x86_64-mingw32/nios2-elf/lib\libc.a(lib_a-fstatr.o)
 .debug_abbrev  0x0000000000007283      0x1d9 c:/altera/15.0/nios2eds/bin/gnu/h-x86_64-mingw32/bin/../lib/gcc/nios2-elf/4.9.1/../../../../../H-x86_64-mingw32/nios2-elf/lib\libc.a(lib_a-isattyr.o)
 .debug_abbrev  0x000000000000745c      0x1e8 c:/altera/15.0/nios2eds/bin/gnu/h-x86_64-mingw32/bin/../lib/gcc/nios2-elf/4.9.1/../../../../../H-x86_64-mingw32/nios2-elf/lib\libc.a(lib_a-lseekr.o)
 .debug_abbrev  0x0000000000007644      0x1d9 c:/altera/15.0/nios2eds/bin/gnu/h-x86_64-mingw32/bin/../lib/gcc/nios2-elf/4.9.1/../../../../../H-x86_64-mingw32/nios2-elf/lib\libc.a(lib_a-readr.o)
 .debug_abbrev  0x000000000000781d      0x21c c:/altera/15.0/nios2eds/bin/gnu/h-x86_64-mingw32/bin/../lib/gcc/nios2-elf/4.9.1/../../../../../H-x86_64-mingw32/nios2-elf/lib\libc.a(lib_a-wcrtomb.o)
 .debug_abbrev  0x0000000000007a39      0x212 c:/altera/15.0/nios2eds/bin/gnu/h-x86_64-mingw32/bin/../lib/gcc/nios2-elf/4.9.1/../../../../../H-x86_64-mingw32/nios2-elf/lib\libc.a(lib_a-wctomb_r.o)
 .debug_abbrev  0x0000000000007c4b      0x170 c:/altera/15.0/nios2eds/bin/gnu/h-x86_64-mingw32/bin/../lib/gcc/nios2-elf/4.9.1\libgcc.a(_udivdi3.o)
 .debug_abbrev  0x0000000000007dbb      0x193 c:/altera/15.0/nios2eds/bin/gnu/h-x86_64-mingw32/bin/../lib/gcc/nios2-elf/4.9.1\libgcc.a(_umoddi3.o)
 .debug_abbrev  0x0000000000007f4e       0xd9 c:/altera/15.0/nios2eds/bin/gnu/h-x86_64-mingw32/bin/../lib/gcc/nios2-elf/4.9.1\libgcc.a(lib2-divmod.o)
 .debug_abbrev  0x0000000000008027      0x13a c:/altera/15.0/nios2eds/bin/gnu/h-x86_64-mingw32/bin/../lib/gcc/nios2-elf/4.9.1\libgcc.a(adddf3.o)
 .debug_abbrev  0x0000000000008161      0x120 c:/altera/15.0/nios2eds/bin/gnu/h-x86_64-mingw32/bin/../lib/gcc/nios2-elf/4.9.1\libgcc.a(divdf3.o)
 .debug_abbrev  0x0000000000008281      0x128 c:/altera/15.0/nios2eds/bin/gnu/h-x86_64-mingw32/bin/../lib/gcc/nios2-elf/4.9.1\libgcc.a(eqdf2.o)
 .debug_abbrev  0x00000000000083a9      0x137 c:/altera/15.0/nios2eds/bin/gnu/h-x86_64-mingw32/bin/../lib/gcc/nios2-elf/4.9.1\libgcc.a(gedf2.o)
 .debug_abbrev  0x00000000000084e0      0x137 c:/altera/15.0/nios2eds/bin/gnu/h-x86_64-mingw32/bin/../lib/gcc/nios2-elf/4.9.1\libgcc.a(ledf2.o)
 .debug_abbrev  0x0000000000008617      0x132 c:/altera/15.0/nios2eds/bin/gnu/h-x86_64-mingw32/bin/../lib/gcc/nios2-elf/4.9.1\libgcc.a(muldf3.o)
 .debug_abbrev  0x0000000000008749      0x133 c:/altera/15.0/nios2eds/bin/gnu/h-x86_64-mingw32/bin/../lib/gcc/nios2-elf/4.9.1\libgcc.a(subdf3.o)
 .debug_abbrev  0x000000000000887c      0x119 c:/altera/15.0/nios2eds/bin/gnu/h-x86_64-mingw32/bin/../lib/gcc/nios2-elf/4.9.1\libgcc.a(fixdfsi.o)
 .debug_abbrev  0x0000000000008995      0x11e c:/altera/15.0/nios2eds/bin/gnu/h-x86_64-mingw32/bin/../lib/gcc/nios2-elf/4.9.1\libgcc.a(floatsidf.o)
 .debug_abbrev  0x0000000000008ab3      0x117 c:/altera/15.0/nios2eds/bin/gnu/h-x86_64-mingw32/bin/../lib/gcc/nios2-elf/4.9.1\libgcc.a(floatunsidf.o)
 .debug_abbrev  0x0000000000008bca       0x5d c:/altera/15.0/nios2eds/bin/gnu/h-x86_64-mingw32/bin/../lib/gcc/nios2-elf/4.9.1\libgcc.a(_clz.o)
 .debug_abbrev  0x0000000000008c27       0xbe c:/altera/15.0/nios2eds/bin/gnu/h-x86_64-mingw32/bin/../lib/gcc/nios2-elf/4.9.1\libgcc.a(_clzsi2.o)
 .debug_abbrev  0x0000000000008ce5      0x126 ../DECA_socket_server_bsp/\libucosii_bsp.a(alt_fstat.o)
 .debug_abbrev  0x0000000000008e0b      0x126 ../DECA_socket_server_bsp/\libucosii_bsp.a(alt_isatty.o)
 .debug_abbrev  0x0000000000008f31       0x9f ../DECA_socket_server_bsp/\libucosii_bsp.a(alt_load.o)
 .debug_abbrev  0x0000000000008fd0      0x126 ../DECA_socket_server_bsp/\libucosii_bsp.a(alt_lseek.o)
 .debug_abbrev  0x00000000000090f6      0x139 ../DECA_socket_server_bsp/\libucosii_bsp.a(alt_main.o)
 .debug_abbrev  0x000000000000922f      0x112 ../DECA_socket_server_bsp/\libucosii_bsp.a(alt_sbrk.o)
 .debug_abbrev  0x0000000000009341       0xc7 ../DECA_socket_server_bsp/\libucosii_bsp.a(alt_usleep.o)
 .debug_abbrev  0x0000000000009408      0x1d4 ../DECA_socket_server_bsp/\libucosii_bsp.a(alt_env_lock.o)
 .debug_abbrev  0x00000000000095dc      0x25e ../DECA_socket_server_bsp/\libucosii_bsp.a(alt_malloc_lock.o)
 .debug_abbrev  0x000000000000983a      0x302 ../DECA_socket_server_bsp/\libucosii_bsp.a(os_core.o)
 .debug_abbrev  0x0000000000009b3c       0xf7 ../DECA_socket_server_bsp/\libucosii_bsp.a(os_dbg.o)
 .debug_abbrev  0x0000000000009c33      0x25a ../DECA_socket_server_bsp/\libucosii_bsp.a(os_flag.o)
 .debug_abbrev  0x0000000000009e8d      0x228 ../DECA_socket_server_bsp/\libucosii_bsp.a(os_mem.o)
 .debug_abbrev  0x000000000000a0b5      0x248 ../DECA_socket_server_bsp/\libucosii_bsp.a(os_q.o)
 .debug_abbrev  0x000000000000a2fd      0x262 ../DECA_socket_server_bsp/\libucosii_bsp.a(os_sem.o)
 .debug_abbrev  0x000000000000a55f      0x247 ../DECA_socket_server_bsp/\libucosii_bsp.a(os_task.o)
 .debug_abbrev  0x000000000000a7a6      0x20c ../DECA_socket_server_bsp/\libucosii_bsp.a(os_time.o)
 .debug_abbrev  0x000000000000a9b2      0x229 ../DECA_socket_server_bsp/\libucosii_bsp.a(alt_sys_init.o)
 .debug_abbrev  0x000000000000abdb      0x16c ../DECA_socket_server_bsp/\libucosii_bsp.a(altera_avalon_jtag_uart_fd.o)
 .debug_abbrev  0x000000000000ad47      0x248 ../DECA_socket_server_bsp/\libucosii_bsp.a(altera_avalon_jtag_uart_init.o)
 .debug_abbrev  0x000000000000af8f      0x156 ../DECA_socket_server_bsp/\libucosii_bsp.a(altera_avalon_jtag_uart_ioctl.o)
 .debug_abbrev  0x000000000000b0e5      0x1fa ../DECA_socket_server_bsp/\libucosii_bsp.a(altera_avalon_jtag_uart_read.o)
 .debug_abbrev  0x000000000000b2df      0x1f6 ../DECA_socket_server_bsp/\libucosii_bsp.a(altera_avalon_jtag_uart_write.o)
 .debug_abbrev  0x000000000000b4d5      0x279 ../DECA_socket_server_bsp/\libucosii_bsp.a(altera_avalon_sgdma.o)
 .debug_abbrev  0x000000000000b74e      0x155 ../DECA_socket_server_bsp/\libucosii_bsp.a(altera_avalon_timer_sc.o)
 .debug_abbrev  0x000000000000b8a3      0x2df ../DECA_socket_server_bsp/\libucosii_bsp.a(ins_tse_mac.o)
 .debug_abbrev  0x000000000000bb82       0x7a ../DECA_socket_server_bsp/\libucosii_bsp.a(alt_iniche_close.o)
 .debug_abbrev  0x000000000000bbfc      0x15e ../DECA_socket_server_bsp/\libucosii_bsp.a(alt_iniche_dev.o)
 .debug_abbrev  0x000000000000bd5a       0x81 ../DECA_socket_server_bsp/\libucosii_bsp.a(alt_iniche_read.o)
 .debug_abbrev  0x000000000000bddb       0x88 ../DECA_socket_server_bsp/\libucosii_bsp.a(alt_iniche_write.o)
 .debug_abbrev  0x000000000000be63      0x213 ../DECA_socket_server_bsp/\libucosii_bsp.a(ipnet.o)
 .debug_abbrev  0x000000000000c076      0x1e0 ../DECA_socket_server_bsp/\libucosii_bsp.a(ipstart.o)
 .debug_abbrev  0x000000000000c256      0x220 ../DECA_socket_server_bsp/\libucosii_bsp.a(igmp_cmn.o)
 .debug_abbrev  0x000000000000c476      0x217 ../DECA_socket_server_bsp/\libucosii_bsp.a(bsdsock.o)
 .debug_abbrev  0x000000000000c68d       0xd3 ../DECA_socket_server_bsp/\libucosii_bsp.a(cksum.o)
 .debug_abbrev  0x000000000000c760      0x223 ../DECA_socket_server_bsp/\libucosii_bsp.a(in_utils.o)
 .debug_abbrev  0x000000000000c983      0x165 ../DECA_socket_server_bsp/\libucosii_bsp.a(netmain.o)
 .debug_abbrev  0x000000000000cae8      0x16b ../DECA_socket_server_bsp/\libucosii_bsp.a(tk_crnos.o)
 .debug_abbrev  0x000000000000cc53      0x260 ../DECA_socket_server_bsp/\libucosii_bsp.a(dhcpclnt.o)
 .debug_abbrev  0x000000000000ceb3       0x92 ../DECA_socket_server_bsp/\libucosii_bsp.a(dhcputil.o)
 .debug_abbrev  0x000000000000cf45      0x1fa ../DECA_socket_server_bsp/\libucosii_bsp.a(pktalloc.o)
 .debug_abbrev  0x000000000000d13f       0xde ../DECA_socket_server_bsp/\libucosii_bsp.a(q.o)
 .debug_abbrev  0x000000000000d21d      0x195 ../DECA_socket_server_bsp/\libucosii_bsp.a(udp_open.o)
 .debug_abbrev  0x000000000000d3b2       0x14 ../DECA_socket_server_bsp/\libucosii_bsp.a(asm_cksum.o)
 .debug_abbrev  0x000000000000d3c6      0x28a ../DECA_socket_server_bsp/\libucosii_bsp.a(brdutils.o)
 .debug_abbrev  0x000000000000d650      0x17f ../DECA_socket_server_bsp/\libucosii_bsp.a(osportco.o)
 .debug_abbrev  0x000000000000d7cf      0x1cf ../DECA_socket_server_bsp/\libucosii_bsp.a(targnios.o)
 .debug_abbrev  0x000000000000d99e      0x26b ../DECA_socket_server_bsp/\libucosii_bsp.a(nptcp.o)
 .debug_abbrev  0x000000000000dc09      0x19e ../DECA_socket_server_bsp/\libucosii_bsp.a(rawsock.o)
 .debug_abbrev  0x000000000000dda7      0x217 ../DECA_socket_server_bsp/\libucosii_bsp.a(sockcall.o)
 .debug_abbrev  0x000000000000dfbe      0x262 ../DECA_socket_server_bsp/\libucosii_bsp.a(socket.o)
 .debug_abbrev  0x000000000000e220      0x280 ../DECA_socket_server_bsp/\libucosii_bsp.a(socket2.o)
 .debug_abbrev  0x000000000000e4a0      0x1fe ../DECA_socket_server_bsp/\libucosii_bsp.a(soselect.o)
 .debug_abbrev  0x000000000000e69e      0x257 ../DECA_socket_server_bsp/\libucosii_bsp.a(tcp_in.o)
 .debug_abbrev  0x000000000000e8f5      0x212 ../DECA_socket_server_bsp/\libucosii_bsp.a(tcp_out.o)
 .debug_abbrev  0x000000000000eb07      0x24a ../DECA_socket_server_bsp/\libucosii_bsp.a(tcp_subr.o)
 .debug_abbrev  0x000000000000ed51      0x227 ../DECA_socket_server_bsp/\libucosii_bsp.a(tcp_timr.o)
 .debug_abbrev  0x000000000000ef78      0x1c8 ../DECA_socket_server_bsp/\libucosii_bsp.a(tcp_usr.o)
 .debug_abbrev  0x000000000000f140       0x7a ../DECA_socket_server_bsp/\libucosii_bsp.a(tcpport.o)
 .debug_abbrev  0x000000000000f1ba      0x1ec ../DECA_socket_server_bsp/\libucosii_bsp.a(udpsock.o)
 .debug_abbrev  0x000000000000f3a6      0x162 ../DECA_socket_server_bsp/\libucosii_bsp.a(alt_alarm_start.o)
 .debug_abbrev  0x000000000000f508       0x7e ../DECA_socket_server_bsp/\libucosii_bsp.a(alt_busy_sleep.o)
 .debug_abbrev  0x000000000000f586      0x126 ../DECA_socket_server_bsp/\libucosii_bsp.a(alt_close.o)
 .debug_abbrev  0x000000000000f6ac       0x8c ../DECA_socket_server_bsp/\libucosii_bsp.a(alt_dcache_flush.o)
 .debug_abbrev  0x000000000000f738       0x5a ../DECA_socket_server_bsp/\libucosii_bsp.a(alt_dcache_flush_all.o)
 .debug_abbrev  0x000000000000f792      0x11c ../DECA_socket_server_bsp/\libucosii_bsp.a(alt_dev.o)
 .debug_abbrev  0x000000000000f8ae      0x114 ../DECA_socket_server_bsp/\libucosii_bsp.a(alt_dev_llist_insert.o)
 .debug_abbrev  0x000000000000f9c2       0x79 ../DECA_socket_server_bsp/\libucosii_bsp.a(alt_do_ctors.o)
 .debug_abbrev  0x000000000000fa3b       0x79 ../DECA_socket_server_bsp/\libucosii_bsp.a(alt_do_dtors.o)
 .debug_abbrev  0x000000000000fab4       0x5a ../DECA_socket_server_bsp/\libucosii_bsp.a(alt_errno.o)
 .debug_abbrev  0x000000000000fb0e       0xf7 ../DECA_socket_server_bsp/\libucosii_bsp.a(alt_find_dev.o)
 .debug_abbrev  0x000000000000fc05       0x42 ../DECA_socket_server_bsp/\libucosii_bsp.a(alt_icache_flush_all.o)
 .debug_abbrev  0x000000000000fc47      0x163 ../DECA_socket_server_bsp/\libucosii_bsp.a(alt_iic.o)
 .debug_abbrev  0x000000000000fdaa      0x169 ../DECA_socket_server_bsp/\libucosii_bsp.a(alt_iic_isr_register.o)
 .debug_abbrev  0x000000000000ff13      0x11b ../DECA_socket_server_bsp/\libucosii_bsp.a(alt_io_redirect.o)
 .debug_abbrev  0x000000000001002e       0x12 ../DECA_socket_server_bsp/\libucosii_bsp.a(alt_irq_entry.o)
 .debug_abbrev  0x0000000000010040      0x13a ../DECA_socket_server_bsp/\libucosii_bsp.a(alt_irq_handler.o)
 .debug_abbrev  0x000000000001017a       0x40 ../DECA_socket_server_bsp/\libucosii_bsp.a(alt_irq_vars.o)
 .debug_abbrev  0x00000000000101ba      0x14f ../DECA_socket_server_bsp/\libucosii_bsp.a(alt_open.o)
 .debug_abbrev  0x0000000000010309      0x135 ../DECA_socket_server_bsp/\libucosii_bsp.a(alt_read.o)
 .debug_abbrev  0x000000000001043e       0xe5 ../DECA_socket_server_bsp/\libucosii_bsp.a(alt_release_fd.o)
 .debug_abbrev  0x0000000000010523       0x77 ../DECA_socket_server_bsp/\libucosii_bsp.a(alt_remap_cached.o)
 .debug_abbrev  0x000000000001059a      0x15a ../DECA_socket_server_bsp/\libucosii_bsp.a(alt_tick.o)
 .debug_abbrev  0x00000000000106f4       0x6e ../DECA_socket_server_bsp/\libucosii_bsp.a(alt_uncached_free.o)
 .debug_abbrev  0x0000000000010762       0x9c ../DECA_socket_server_bsp/\libucosii_bsp.a(alt_uncached_malloc.o)
 .debug_abbrev  0x00000000000107fe      0x13a ../DECA_socket_server_bsp/\libucosii_bsp.a(alt_write.o)
 .debug_abbrev  0x0000000000010938       0x42 ../DECA_socket_server_bsp/\libucosii_bsp.a(altera_nios2_gen2_irq.o)
 .debug_abbrev  0x000000000001097a       0x14 ../DECA_socket_server_bsp/\libucosii_bsp.a(os_cpu_a.o)
 .debug_abbrev  0x000000000001098e      0x21e ../DECA_socket_server_bsp/\libucosii_bsp.a(os_cpu_c.o)
 .debug_abbrev  0x0000000000010bac      0x1f3 ../DECA_socket_server_bsp/\libucosii_bsp.a(allports.o)
 .debug_abbrev  0x0000000000010d9f      0x15a ../DECA_socket_server_bsp/\libucosii_bsp.a(timeouts.o)
 .debug_abbrev  0x0000000000010ef9       0xaa ../DECA_socket_server_bsp/\libucosii_bsp.a(tk_misc.o)
 .debug_abbrev  0x0000000000010fa3       0xa6 ../DECA_socket_server_bsp/\libucosii_bsp.a(alt_iniche_fcntl.o)
 .debug_abbrev  0x0000000000011049      0x243 ../DECA_socket_server_bsp/\libucosii_bsp.a(et_arp.o)
 .debug_abbrev  0x000000000001128c      0x1b9 ../DECA_socket_server_bsp/\libucosii_bsp.a(iface.o)
 .debug_abbrev  0x0000000000011445      0x243 ../DECA_socket_server_bsp/\libucosii_bsp.a(ip.o)
 .debug_abbrev  0x0000000000011688      0x206 ../DECA_socket_server_bsp/\libucosii_bsp.a(ip_reasm.o)
 .debug_abbrev  0x000000000001188e      0x1b7 ../DECA_socket_server_bsp/\libucosii_bsp.a(ipdemux.o)
 .debug_abbrev  0x0000000000011a45      0x181 ../DECA_socket_server_bsp/\libucosii_bsp.a(ipmc.o)
 .debug_abbrev  0x0000000000011bc6      0x101 ../DECA_socket_server_bsp/\libucosii_bsp.a(ipport.o)
 .debug_abbrev  0x0000000000011cc7      0x20f ../DECA_socket_server_bsp/\libucosii_bsp.a(ipraw.o)
 .debug_abbrev  0x0000000000011ed6      0x1c3 ../DECA_socket_server_bsp/\libucosii_bsp.a(iproute.o)
 .debug_abbrev  0x0000000000012099      0x24d ../DECA_socket_server_bsp/\libucosii_bsp.a(udp.o)
 .debug_abbrev  0x00000000000122e6      0x14d ../DECA_socket_server_bsp/\libucosii_bsp.a(igmp.o)
 .debug_abbrev  0x0000000000012433      0x1b0 ../DECA_socket_server_bsp/\libucosii_bsp.a(igmp2.o)
 .debug_abbrev  0x00000000000125e3      0x1ef ../DECA_socket_server_bsp/\libucosii_bsp.a(ipopt.o)
 .debug_abbrev  0x00000000000127d2      0x182 ../DECA_socket_server_bsp/\libucosii_bsp.a(u_mctest.o)
 .debug_abbrev  0x0000000000012954      0x161 ../DECA_socket_server_bsp/\libucosii_bsp.a(dhcsetup.o)
 .debug_abbrev  0x0000000000012ab5      0x1ac ../DECA_socket_server_bsp/\libucosii_bsp.a(memdev.o)
 .debug_abbrev  0x0000000000012c61      0x1d1 ../DECA_socket_server_bsp/\libucosii_bsp.a(parseip.o)
 .debug_abbrev  0x0000000000012e32       0xce ../DECA_socket_server_bsp/\libucosii_bsp.a(tcpcksum.o)
 .debug_abbrev  0x0000000000012f00      0x205 ../DECA_socket_server_bsp/\libucosii_bsp.a(in_pcb.o)
 .debug_abbrev  0x0000000000013105      0x20a ../DECA_socket_server_bsp/\libucosii_bsp.a(vfsfiles.o)
 .debug_abbrev  0x000000000001330f       0x7a ../DECA_socket_server_bsp/\libucosii_bsp.a(vfsport.o)
 .debug_abbrev  0x0000000000013389       0x12 ../DECA_socket_server_bsp/\libucosii_bsp.a(alt_exception_entry.o)
 .debug_abbrev  0x000000000001339b      0x143 ../DECA_socket_server_bsp/\libucosii_bsp.a(alt_fcntl.o)
 .debug_abbrev  0x00000000000134de       0xf7 ../DECA_socket_server_bsp/\libucosii_bsp.a(alt_find_file.o)
 .debug_abbrev  0x00000000000135d5      0x19b ../DECA_socket_server_bsp/\libucosii_bsp.a(alt_get_fd.o)
 .debug_abbrev  0x0000000000013770       0x8c ../DECA_socket_server_bsp/\libucosii_bsp.a(alt_icache_flush.o)
 .debug_abbrev  0x00000000000137fc       0xd1 ../DECA_socket_server_bsp/\libucosii_bsp.a(alt_instruction_exception_entry.o)
 .debug_abbrev  0x00000000000138cd      0x1bd ../DECA_socket_server_bsp/\libucosii_bsp.a(icmp.o)
 .debug_abbrev  0x0000000000013a8a       0xb8 c:/altera/15.0/nios2eds/bin/gnu/h-x86_64-mingw32/bin/../lib/gcc/nios2-elf/4.9.1/../../../../../H-x86_64-mingw32/nios2-elf/lib\libc.a(lib_a-atexit.o)
 .debug_abbrev  0x0000000000013b42      0x1d1 c:/altera/15.0/nios2eds/bin/gnu/h-x86_64-mingw32/bin/../lib/gcc/nios2-elf/4.9.1/../../../../../H-x86_64-mingw32/nios2-elf/lib\libc.a(lib_a-atoi.o)
 .debug_abbrev  0x0000000000013d13      0x1e6 c:/altera/15.0/nios2eds/bin/gnu/h-x86_64-mingw32/bin/../lib/gcc/nios2-elf/4.9.1/../../../../../H-x86_64-mingw32/nios2-elf/lib\libc.a(lib_a-exit.o)
 .debug_abbrev  0x0000000000013ef9      0x1cd c:/altera/15.0/nios2eds/bin/gnu/h-x86_64-mingw32/bin/../lib/gcc/nios2-elf/4.9.1/../../../../../H-x86_64-mingw32/nios2-elf/lib\libc.a(lib_a-malign.o)
 .debug_abbrev  0x00000000000140c6      0x229 c:/altera/15.0/nios2eds/bin/gnu/h-x86_64-mingw32/bin/../lib/gcc/nios2-elf/4.9.1/../../../../../H-x86_64-mingw32/nios2-elf/lib\libc.a(lib_a-malignr.o)
 .debug_abbrev  0x00000000000142ef       0x7f c:/altera/15.0/nios2eds/bin/gnu/h-x86_64-mingw32/bin/../lib/gcc/nios2-elf/4.9.1/../../../../../H-x86_64-mingw32/nios2-elf/lib\libc.a(lib_a-memcmp.o)
 .debug_abbrev  0x000000000001436e       0x81 c:/altera/15.0/nios2eds/bin/gnu/h-x86_64-mingw32/bin/../lib/gcc/nios2-elf/4.9.1/../../../../../H-x86_64-mingw32/nios2-elf/lib\libc.a(lib_a-strncmp.o)
 .debug_abbrev  0x00000000000143ef       0x90 c:/altera/15.0/nios2eds/bin/gnu/h-x86_64-mingw32/bin/../lib/gcc/nios2-elf/4.9.1/../../../../../H-x86_64-mingw32/nios2-elf/lib\libc.a(lib_a-strncpy.o)
 .debug_abbrev  0x000000000001447f      0x214 c:/altera/15.0/nios2eds/bin/gnu/h-x86_64-mingw32/bin/../lib/gcc/nios2-elf/4.9.1/../../../../../H-x86_64-mingw32/nios2-elf/lib\libc.a(lib_a-strtol.o)
 .debug_abbrev  0x0000000000014693      0x1f4 c:/altera/15.0/nios2eds/bin/gnu/h-x86_64-mingw32/bin/../lib/gcc/nios2-elf/4.9.1/../../../../../H-x86_64-mingw32/nios2-elf/lib\libc.a(lib_a-vprintf.o)
 .debug_abbrev  0x0000000000014887      0x222 c:/altera/15.0/nios2eds/bin/gnu/h-x86_64-mingw32/bin/../lib/gcc/nios2-elf/4.9.1/../../../../../H-x86_64-mingw32/nios2-elf/lib\libc.a(lib_a-vsprintf.o)
 .debug_abbrev  0x0000000000014aa9      0x21e c:/altera/15.0/nios2eds/bin/gnu/h-x86_64-mingw32/bin/../lib/gcc/nios2-elf/4.9.1/../../../../../H-x86_64-mingw32/nios2-elf/lib\libc.a(lib_a-__atexit.o)
 .debug_abbrev  0x0000000000014cc7      0x210 c:/altera/15.0/nios2eds/bin/gnu/h-x86_64-mingw32/bin/../lib/gcc/nios2-elf/4.9.1/../../../../../H-x86_64-mingw32/nios2-elf/lib\libc.a(lib_a-__call_atexit.o)
 .debug_abbrev  0x0000000000014ed7      0x1e0 c:/altera/15.0/nios2eds/bin/gnu/h-x86_64-mingw32/bin/../lib/gcc/nios2-elf/4.9.1/../../../../../H-x86_64-mingw32/nios2-elf/lib\libc.a(lib_a-vfprintfr_1.o)
 .debug_abbrev  0x00000000000150b7       0xde ../DECA_socket_server_bsp/\libucosii_bsp.a(alt_exit.o)

.debug_line     0x0000000000000000    0x1c63b
 *(.debug_line)
 .debug_line    0x0000000000000000       0x72 ../DECA_socket_server_bsp//obj/HAL/src/crt0.o
 .debug_line    0x0000000000000072      0x2cc obj/default/alt_error_handler.o
 .debug_line    0x000000000000033e      0x10d obj/default/iniche_init.o
 .debug_line    0x000000000000044b      0xf4c obj/default/ins_tse/altera_avalon_tse.o
 .debug_line    0x0000000000001397      0x168 obj/default/led.o
 .debug_line    0x00000000000014ff      0x359 obj/default/network_utilities.o
 .debug_line    0x0000000000001858      0x2db obj/default/simple_socket_server.o
 .debug_line    0x0000000000001b33      0x133 obj/default/tse_my_system.o
 .debug_line    0x0000000000001c66       0xc6 c:/altera/15.0/nios2eds/bin/gnu/h-x86_64-mingw32/bin/../lib/gcc/nios2-elf/4.9.1/../../../../../H-x86_64-mingw32/nios2-elf/lib\libc.a(lib_a-ctype_.o)
 .debug_line    0x0000000000001d2c      0x1fd c:/altera/15.0/nios2eds/bin/gnu/h-x86_64-mingw32/bin/../lib/gcc/nios2-elf/4.9.1/../../../../../H-x86_64-mingw32/nios2-elf/lib\libc.a(lib_a-fprintf.o)
 .debug_line    0x0000000000001f29      0x22a c:/altera/15.0/nios2eds/bin/gnu/h-x86_64-mingw32/bin/../lib/gcc/nios2-elf/4.9.1/../../../../../H-x86_64-mingw32/nios2-elf/lib\libc.a(lib_a-fwrite.o)
 .debug_line    0x0000000000002153      0x23d c:/altera/15.0/nios2eds/bin/gnu/h-x86_64-mingw32/bin/../lib/gcc/nios2-elf/4.9.1/../../../../../H-x86_64-mingw32/nios2-elf/lib\libc.a(lib_a-getc.o)
 .debug_line    0x0000000000002390      0x15f c:/altera/15.0/nios2eds/bin/gnu/h-x86_64-mingw32/bin/../lib/gcc/nios2-elf/4.9.1/../../../../../H-x86_64-mingw32/nios2-elf/lib\libc.a(lib_a-impure.o)
 .debug_line    0x00000000000024ef      0x1e4 c:/altera/15.0/nios2eds/bin/gnu/h-x86_64-mingw32/bin/../lib/gcc/nios2-elf/4.9.1/../../../../../H-x86_64-mingw32/nios2-elf/lib\libc.a(lib_a-malloc.o)
 .debug_line    0x00000000000026d3      0x3fd c:/altera/15.0/nios2eds/bin/gnu/h-x86_64-mingw32/bin/../lib/gcc/nios2-elf/4.9.1/../../../../../H-x86_64-mingw32/nios2-elf/lib\libc.a(lib_a-mallocr.o)
 .debug_line    0x0000000000002ad0      0x184 c:/altera/15.0/nios2eds/bin/gnu/h-x86_64-mingw32/bin/../lib/gcc/nios2-elf/4.9.1/../../../../../H-x86_64-mingw32/nios2-elf/lib\libc.a(lib_a-memcpy.o)
 .debug_line    0x0000000000002c54      0x18b c:/altera/15.0/nios2eds/bin/gnu/h-x86_64-mingw32/bin/../lib/gcc/nios2-elf/4.9.1/../../../../../H-x86_64-mingw32/nios2-elf/lib\libc.a(lib_a-memmove.o)
 .debug_line    0x0000000000002ddf      0x18e c:/altera/15.0/nios2eds/bin/gnu/h-x86_64-mingw32/bin/../lib/gcc/nios2-elf/4.9.1/../../../../../H-x86_64-mingw32/nios2-elf/lib\libc.a(lib_a-memset.o)
 .debug_line    0x0000000000002f6d      0x200 c:/altera/15.0/nios2eds/bin/gnu/h-x86_64-mingw32/bin/../lib/gcc/nios2-elf/4.9.1/../../../../../H-x86_64-mingw32/nios2-elf/lib\libc.a(lib_a-perror.o)
 .debug_line    0x000000000000316d      0x1fd c:/altera/15.0/nios2eds/bin/gnu/h-x86_64-mingw32/bin/../lib/gcc/nios2-elf/4.9.1/../../../../../H-x86_64-mingw32/nios2-elf/lib\libc.a(lib_a-printf.o)
 .debug_line    0x000000000000336a      0x267 c:/altera/15.0/nios2eds/bin/gnu/h-x86_64-mingw32/bin/../lib/gcc/nios2-elf/4.9.1/../../../../../H-x86_64-mingw32/nios2-elf/lib\libc.a(lib_a-putc.o)
 .debug_line    0x00000000000035d1      0x1e4 c:/altera/15.0/nios2eds/bin/gnu/h-x86_64-mingw32/bin/../lib/gcc/nios2-elf/4.9.1/../../../../../H-x86_64-mingw32/nios2-elf/lib\libc.a(lib_a-putchar.o)
 .debug_line    0x00000000000037b5      0x223 c:/altera/15.0/nios2eds/bin/gnu/h-x86_64-mingw32/bin/../lib/gcc/nios2-elf/4.9.1/../../../../../H-x86_64-mingw32/nios2-elf/lib\libc.a(lib_a-puts.o)
 .debug_line    0x00000000000039d8      0x202 c:/altera/15.0/nios2eds/bin/gnu/h-x86_64-mingw32/bin/../lib/gcc/nios2-elf/4.9.1/../../../../../H-x86_64-mingw32/nios2-elf/lib\libc.a(lib_a-rget.o)
 .debug_line    0x0000000000003bda      0x1e9 c:/altera/15.0/nios2eds/bin/gnu/h-x86_64-mingw32/bin/../lib/gcc/nios2-elf/4.9.1/../../../../../H-x86_64-mingw32/nios2-elf/lib\libc.a(lib_a-sbrkr.o)
 .debug_line    0x0000000000003dc3      0x21b c:/altera/15.0/nios2eds/bin/gnu/h-x86_64-mingw32/bin/../lib/gcc/nios2-elf/4.9.1/../../../../../H-x86_64-mingw32/nios2-elf/lib\libc.a(lib_a-sprintf.o)
 .debug_line    0x0000000000003fde      0x11d c:/altera/15.0/nios2eds/bin/gnu/h-x86_64-mingw32/bin/../lib/gcc/nios2-elf/4.9.1/../../../../../H-x86_64-mingw32/nios2-elf/lib\libc.a(lib_a-strchr.o)
 .debug_line    0x00000000000040fb       0xf3 c:/altera/15.0/nios2eds/bin/gnu/h-x86_64-mingw32/bin/../lib/gcc/nios2-elf/4.9.1/../../../../../H-x86_64-mingw32/nios2-elf/lib\libc.a(lib_a-strcpy.o)
 .debug_line    0x00000000000041ee      0x213 c:/altera/15.0/nios2eds/bin/gnu/h-x86_64-mingw32/bin/../lib/gcc/nios2-elf/4.9.1/../../../../../H-x86_64-mingw32/nios2-elf/lib\libc.a(lib_a-strerror.o)
 .debug_line    0x0000000000004401      0x16e c:/altera/15.0/nios2eds/bin/gnu/h-x86_64-mingw32/bin/../lib/gcc/nios2-elf/4.9.1/../../../../../H-x86_64-mingw32/nios2-elf/lib\libc.a(lib_a-strlen.o)
 .debug_line    0x000000000000456f      0xa80 c:/altera/15.0/nios2eds/bin/gnu/h-x86_64-mingw32/bin/../lib/gcc/nios2-elf/4.9.1/../../../../../H-x86_64-mingw32/nios2-elf/lib\libc.a(lib_a-svfprintf.o)
 .debug_line    0x0000000000004fef       0x6b c:/altera/15.0/nios2eds/bin/gnu/h-x86_64-mingw32/bin/../lib/gcc/nios2-elf/4.9.1/../../../../../H-x86_64-mingw32/nios2-elf/lib\libc.a(lib_a-u_strerr.o)
 .debug_line    0x000000000000505a      0xaca c:/altera/15.0/nios2eds/bin/gnu/h-x86_64-mingw32/bin/../lib/gcc/nios2-elf/4.9.1/../../../../../H-x86_64-mingw32/nios2-elf/lib\libc.a(lib_a-vfprintf.o)
 .debug_line    0x0000000000005b24      0x270 c:/altera/15.0/nios2eds/bin/gnu/h-x86_64-mingw32/bin/../lib/gcc/nios2-elf/4.9.1/../../../../../H-x86_64-mingw32/nios2-elf/lib\libc.a(lib_a-wbuf.o)
 .debug_line    0x0000000000005d94      0x258 c:/altera/15.0/nios2eds/bin/gnu/h-x86_64-mingw32/bin/../lib/gcc/nios2-elf/4.9.1/../../../../../H-x86_64-mingw32/nios2-elf/lib\libc.a(lib_a-wsetup.o)
 .debug_line    0x0000000000005fec      0x7eb c:/altera/15.0/nios2eds/bin/gnu/h-x86_64-mingw32/bin/../lib/gcc/nios2-elf/4.9.1/../../../../../H-x86_64-mingw32/nios2-elf/lib\libc.a(lib_a-dtoa.o)
 .debug_line    0x00000000000067d7      0x2bd c:/altera/15.0/nios2eds/bin/gnu/h-x86_64-mingw32/bin/../lib/gcc/nios2-elf/4.9.1/../../../../../H-x86_64-mingw32/nios2-elf/lib\libc.a(lib_a-fflush.o)
 .debug_line    0x0000000000006a94      0x304 c:/altera/15.0/nios2eds/bin/gnu/h-x86_64-mingw32/bin/../lib/gcc/nios2-elf/4.9.1/../../../../../H-x86_64-mingw32/nios2-elf/lib\libc.a(lib_a-findfp.o)
 .debug_line    0x0000000000006d98      0x211 c:/altera/15.0/nios2eds/bin/gnu/h-x86_64-mingw32/bin/../lib/gcc/nios2-elf/4.9.1/../../../../../H-x86_64-mingw32/nios2-elf/lib\libc.a(lib_a-fputc.o)
 .debug_line    0x0000000000006fa9      0x22c c:/altera/15.0/nios2eds/bin/gnu/h-x86_64-mingw32/bin/../lib/gcc/nios2-elf/4.9.1/../../../../../H-x86_64-mingw32/nios2-elf/lib\libc.a(lib_a-fputs.o)
 .debug_line    0x00000000000071d5      0x2e4 c:/altera/15.0/nios2eds/bin/gnu/h-x86_64-mingw32/bin/../lib/gcc/nios2-elf/4.9.1/../../../../../H-x86_64-mingw32/nios2-elf/lib\libc.a(lib_a-freer.o)
 .debug_line    0x00000000000074b9      0x357 c:/altera/15.0/nios2eds/bin/gnu/h-x86_64-mingw32/bin/../lib/gcc/nios2-elf/4.9.1/../../../../../H-x86_64-mingw32/nios2-elf/lib\libc.a(lib_a-fvwrite.o)
 .debug_line    0x0000000000007810      0x228 c:/altera/15.0/nios2eds/bin/gnu/h-x86_64-mingw32/bin/../lib/gcc/nios2-elf/4.9.1/../../../../../H-x86_64-mingw32/nios2-elf/lib\libc.a(lib_a-fwalk.o)
 .debug_line    0x0000000000007a38       0x5d c:/altera/15.0/nios2eds/bin/gnu/h-x86_64-mingw32/bin/../lib/gcc/nios2-elf/4.9.1/../../../../../H-x86_64-mingw32/nios2-elf/lib\libc.a(lib_a-int_errno.o)
 .debug_line    0x0000000000007a95      0x22d c:/altera/15.0/nios2eds/bin/gnu/h-x86_64-mingw32/bin/../lib/gcc/nios2-elf/4.9.1/../../../../../H-x86_64-mingw32/nios2-elf/lib\libc.a(lib_a-locale.o)
 .debug_line    0x0000000000007cc2      0x274 c:/altera/15.0/nios2eds/bin/gnu/h-x86_64-mingw32/bin/../lib/gcc/nios2-elf/4.9.1/../../../../../H-x86_64-mingw32/nios2-elf/lib\libc.a(lib_a-makebuf.o)
 .debug_line    0x0000000000007f36      0x18d c:/altera/15.0/nios2eds/bin/gnu/h-x86_64-mingw32/bin/../lib/gcc/nios2-elf/4.9.1/../../../../../H-x86_64-mingw32/nios2-elf/lib\libc.a(lib_a-memchr.o)
 .debug_line    0x00000000000080c3      0x698 c:/altera/15.0/nios2eds/bin/gnu/h-x86_64-mingw32/bin/../lib/gcc/nios2-elf/4.9.1/../../../../../H-x86_64-mingw32/nios2-elf/lib\libc.a(lib_a-mprec.o)
 .debug_line    0x000000000000875b      0x2fc c:/altera/15.0/nios2eds/bin/gnu/h-x86_64-mingw32/bin/../lib/gcc/nios2-elf/4.9.1/../../../../../H-x86_64-mingw32/nios2-elf/lib\libc.a(lib_a-reallocr.o)
 .debug_line    0x0000000000008a57      0x26a c:/altera/15.0/nios2eds/bin/gnu/h-x86_64-mingw32/bin/../lib/gcc/nios2-elf/4.9.1/../../../../../H-x86_64-mingw32/nios2-elf/lib\libc.a(lib_a-refill.o)
 .debug_line    0x0000000000008cc1      0x17b c:/altera/15.0/nios2eds/bin/gnu/h-x86_64-mingw32/bin/../lib/gcc/nios2-elf/4.9.1/../../../../../H-x86_64-mingw32/nios2-elf/lib\libc.a(lib_a-s_fpclassify.o)
 .debug_line    0x0000000000008e3c      0x227 c:/altera/15.0/nios2eds/bin/gnu/h-x86_64-mingw32/bin/../lib/gcc/nios2-elf/4.9.1/../../../../../H-x86_64-mingw32/nios2-elf/lib\libc.a(lib_a-stdio.o)
 .debug_line    0x0000000000009063       0xf6 c:/altera/15.0/nios2eds/bin/gnu/h-x86_64-mingw32/bin/../lib/gcc/nios2-elf/4.9.1/../../../../../H-x86_64-mingw32/nios2-elf/lib\libc.a(lib_a-strcmp.o)
 .debug_line    0x0000000000009159      0x716 c:/altera/15.0/nios2eds/bin/gnu/h-x86_64-mingw32/bin/../lib/gcc/nios2-elf/4.9.1/../../../../../H-x86_64-mingw32/nios2-elf/lib\libc.a(lib_a-svfiprintf.o)
 .debug_line    0x000000000000986f      0x7be c:/altera/15.0/nios2eds/bin/gnu/h-x86_64-mingw32/bin/../lib/gcc/nios2-elf/4.9.1/../../../../../H-x86_64-mingw32/nios2-elf/lib\libc.a(lib_a-vfiprintf.o)
 .debug_line    0x000000000000a02d      0x1f6 c:/altera/15.0/nios2eds/bin/gnu/h-x86_64-mingw32/bin/../lib/gcc/nios2-elf/4.9.1/../../../../../H-x86_64-mingw32/nios2-elf/lib\libc.a(lib_a-writer.o)
 .debug_line    0x000000000000a223      0x1f6 c:/altera/15.0/nios2eds/bin/gnu/h-x86_64-mingw32/bin/../lib/gcc/nios2-elf/4.9.1/../../../../../H-x86_64-mingw32/nios2-elf/lib\libc.a(closer.o)
 .debug_line    0x000000000000a419      0x1b6 c:/altera/15.0/nios2eds/bin/gnu/h-x86_64-mingw32/bin/../lib/gcc/nios2-elf/4.9.1/../../../../../H-x86_64-mingw32/nios2-elf/lib\libc.a(lib_a-callocr.o)
 .debug_line    0x000000000000a5cf      0x229 c:/altera/15.0/nios2eds/bin/gnu/h-x86_64-mingw32/bin/../lib/gcc/nios2-elf/4.9.1/../../../../../H-x86_64-mingw32/nios2-elf/lib\libc.a(lib_a-fclose.o)
 .debug_line    0x000000000000a7f8      0x251 c:/altera/15.0/nios2eds/bin/gnu/h-x86_64-mingw32/bin/../lib/gcc/nios2-elf/4.9.1/../../../../../H-x86_64-mingw32/nios2-elf/lib\libc.a(lib_a-fputwc.o)
 .debug_line    0x000000000000aa49      0x1ff c:/altera/15.0/nios2eds/bin/gnu/h-x86_64-mingw32/bin/../lib/gcc/nios2-elf/4.9.1/../../../../../H-x86_64-mingw32/nios2-elf/lib\libc.a(lib_a-fstatr.o)
 .debug_line    0x000000000000ac48      0x1f7 c:/altera/15.0/nios2eds/bin/gnu/h-x86_64-mingw32/bin/../lib/gcc/nios2-elf/4.9.1/../../../../../H-x86_64-mingw32/nios2-elf/lib\libc.a(lib_a-isattyr.o)
 .debug_line    0x000000000000ae3f      0x201 c:/altera/15.0/nios2eds/bin/gnu/h-x86_64-mingw32/bin/../lib/gcc/nios2-elf/4.9.1/../../../../../H-x86_64-mingw32/nios2-elf/lib\libc.a(lib_a-lseekr.o)
 .debug_line    0x000000000000b040      0x1f5 c:/altera/15.0/nios2eds/bin/gnu/h-x86_64-mingw32/bin/../lib/gcc/nios2-elf/4.9.1/../../../../../H-x86_64-mingw32/nios2-elf/lib\libc.a(lib_a-readr.o)
 .debug_line    0x000000000000b235      0x219 c:/altera/15.0/nios2eds/bin/gnu/h-x86_64-mingw32/bin/../lib/gcc/nios2-elf/4.9.1/../../../../../H-x86_64-mingw32/nios2-elf/lib\libc.a(lib_a-wcrtomb.o)
 .debug_line    0x000000000000b44e      0x20e c:/altera/15.0/nios2eds/bin/gnu/h-x86_64-mingw32/bin/../lib/gcc/nios2-elf/4.9.1/../../../../../H-x86_64-mingw32/nios2-elf/lib\libc.a(lib_a-wctomb_r.o)
 .debug_line    0x000000000000b65c      0x134 c:/altera/15.0/nios2eds/bin/gnu/h-x86_64-mingw32/bin/../lib/gcc/nios2-elf/4.9.1\libgcc.a(_udivdi3.o)
 .debug_line    0x000000000000b790      0x145 c:/altera/15.0/nios2eds/bin/gnu/h-x86_64-mingw32/bin/../lib/gcc/nios2-elf/4.9.1\libgcc.a(_umoddi3.o)
 .debug_line    0x000000000000b8d5       0xc4 c:/altera/15.0/nios2eds/bin/gnu/h-x86_64-mingw32/bin/../lib/gcc/nios2-elf/4.9.1\libgcc.a(lib2-divmod.o)
 .debug_line    0x000000000000b999      0x383 c:/altera/15.0/nios2eds/bin/gnu/h-x86_64-mingw32/bin/../lib/gcc/nios2-elf/4.9.1\libgcc.a(adddf3.o)
 .debug_line    0x000000000000bd1c      0x2a3 c:/altera/15.0/nios2eds/bin/gnu/h-x86_64-mingw32/bin/../lib/gcc/nios2-elf/4.9.1\libgcc.a(divdf3.o)
 .debug_line    0x000000000000bfbf       0xab c:/altera/15.0/nios2eds/bin/gnu/h-x86_64-mingw32/bin/../lib/gcc/nios2-elf/4.9.1\libgcc.a(eqdf2.o)
 .debug_line    0x000000000000c06a       0xcb c:/altera/15.0/nios2eds/bin/gnu/h-x86_64-mingw32/bin/../lib/gcc/nios2-elf/4.9.1\libgcc.a(gedf2.o)
 .debug_line    0x000000000000c135       0xca c:/altera/15.0/nios2eds/bin/gnu/h-x86_64-mingw32/bin/../lib/gcc/nios2-elf/4.9.1\libgcc.a(ledf2.o)
 .debug_line    0x000000000000c1ff      0x1db c:/altera/15.0/nios2eds/bin/gnu/h-x86_64-mingw32/bin/../lib/gcc/nios2-elf/4.9.1\libgcc.a(muldf3.o)
 .debug_line    0x000000000000c3da      0x39e c:/altera/15.0/nios2eds/bin/gnu/h-x86_64-mingw32/bin/../lib/gcc/nios2-elf/4.9.1\libgcc.a(subdf3.o)
 .debug_line    0x000000000000c778       0x99 c:/altera/15.0/nios2eds/bin/gnu/h-x86_64-mingw32/bin/../lib/gcc/nios2-elf/4.9.1\libgcc.a(fixdfsi.o)
 .debug_line    0x000000000000c811       0x9d c:/altera/15.0/nios2eds/bin/gnu/h-x86_64-mingw32/bin/../lib/gcc/nios2-elf/4.9.1\libgcc.a(floatsidf.o)
 .debug_line    0x000000000000c8ae       0x93 c:/altera/15.0/nios2eds/bin/gnu/h-x86_64-mingw32/bin/../lib/gcc/nios2-elf/4.9.1\libgcc.a(floatunsidf.o)
 .debug_line    0x000000000000c941       0x53 c:/altera/15.0/nios2eds/bin/gnu/h-x86_64-mingw32/bin/../lib/gcc/nios2-elf/4.9.1\libgcc.a(_clz.o)
 .debug_line    0x000000000000c994       0xb4 c:/altera/15.0/nios2eds/bin/gnu/h-x86_64-mingw32/bin/../lib/gcc/nios2-elf/4.9.1\libgcc.a(_clzsi2.o)
 .debug_line    0x000000000000ca48      0x166 ../DECA_socket_server_bsp/\libucosii_bsp.a(alt_fstat.o)
 .debug_line    0x000000000000cbae      0x16a ../DECA_socket_server_bsp/\libucosii_bsp.a(alt_isatty.o)
 .debug_line    0x000000000000cd18       0x8d ../DECA_socket_server_bsp/\libucosii_bsp.a(alt_load.o)
 .debug_line    0x000000000000cda5      0x16b ../DECA_socket_server_bsp/\libucosii_bsp.a(alt_lseek.o)
 .debug_line    0x000000000000cf10      0x12f ../DECA_socket_server_bsp/\libucosii_bsp.a(alt_main.o)
 .debug_line    0x000000000000d03f       0xeb ../DECA_socket_server_bsp/\libucosii_bsp.a(alt_sbrk.o)
 .debug_line    0x000000000000d12a      0x13a ../DECA_socket_server_bsp/\libucosii_bsp.a(alt_usleep.o)
 .debug_line    0x000000000000d264      0x192 ../DECA_socket_server_bsp/\libucosii_bsp.a(alt_env_lock.o)
 .debug_line    0x000000000000d3f6      0x200 ../DECA_socket_server_bsp/\libucosii_bsp.a(alt_malloc_lock.o)
 .debug_line    0x000000000000d5f6      0x67c ../DECA_socket_server_bsp/\libucosii_bsp.a(os_core.o)
 .debug_line    0x000000000000dc72       0xd2 ../DECA_socket_server_bsp/\libucosii_bsp.a(os_dbg.o)
 .debug_line    0x000000000000dd44      0x505 ../DECA_socket_server_bsp/\libucosii_bsp.a(os_flag.o)
 .debug_line    0x000000000000e249      0x23e ../DECA_socket_server_bsp/\libucosii_bsp.a(os_mem.o)
 .debug_line    0x000000000000e487      0x410 ../DECA_socket_server_bsp/\libucosii_bsp.a(os_q.o)
 .debug_line    0x000000000000e897      0x2ea ../DECA_socket_server_bsp/\libucosii_bsp.a(os_sem.o)
 .debug_line    0x000000000000eb81      0x547 ../DECA_socket_server_bsp/\libucosii_bsp.a(os_task.o)
 .debug_line    0x000000000000f0c8      0x1aa ../DECA_socket_server_bsp/\libucosii_bsp.a(os_time.o)
 .debug_line    0x000000000000f272      0x2d3 ../DECA_socket_server_bsp/\libucosii_bsp.a(alt_sys_init.o)
 .debug_line    0x000000000000f545      0x155 ../DECA_socket_server_bsp/\libucosii_bsp.a(altera_avalon_jtag_uart_fd.o)
 .debug_line    0x000000000000f69a      0x21e ../DECA_socket_server_bsp/\libucosii_bsp.a(altera_avalon_jtag_uart_init.o)
 .debug_line    0x000000000000f8b8      0x154 ../DECA_socket_server_bsp/\libucosii_bsp.a(altera_avalon_jtag_uart_ioctl.o)
 .debug_line    0x000000000000fa0c      0x1d8 ../DECA_socket_server_bsp/\libucosii_bsp.a(altera_avalon_jtag_uart_read.o)
 .debug_line    0x000000000000fbe4      0x1d8 ../DECA_socket_server_bsp/\libucosii_bsp.a(altera_avalon_jtag_uart_write.o)
 .debug_line    0x000000000000fdbc      0x2b8 ../DECA_socket_server_bsp/\libucosii_bsp.a(altera_avalon_sgdma.o)
 .debug_line    0x0000000000010074       0xfd ../DECA_socket_server_bsp/\libucosii_bsp.a(altera_avalon_timer_sc.o)
 .debug_line    0x0000000000010171      0x511 ../DECA_socket_server_bsp/\libucosii_bsp.a(ins_tse_mac.o)
 .debug_line    0x0000000000010682       0xea ../DECA_socket_server_bsp/\libucosii_bsp.a(alt_iniche_close.o)
 .debug_line    0x000000000001076c      0x169 ../DECA_socket_server_bsp/\libucosii_bsp.a(alt_iniche_dev.o)
 .debug_line    0x00000000000108d5      0x144 ../DECA_socket_server_bsp/\libucosii_bsp.a(alt_iniche_read.o)
 .debug_line    0x0000000000010a19      0x13b ../DECA_socket_server_bsp/\libucosii_bsp.a(alt_iniche_write.o)
 .debug_line    0x0000000000010b54      0x278 ../DECA_socket_server_bsp/\libucosii_bsp.a(ipnet.o)
 .debug_line    0x0000000000010dcc      0x17c ../DECA_socket_server_bsp/\libucosii_bsp.a(ipstart.o)
 .debug_line    0x0000000000010f48      0x2ce ../DECA_socket_server_bsp/\libucosii_bsp.a(igmp_cmn.o)
 .debug_line    0x0000000000011216      0x372 ../DECA_socket_server_bsp/\libucosii_bsp.a(bsdsock.o)
 .debug_line    0x0000000000011588       0x9a ../DECA_socket_server_bsp/\libucosii_bsp.a(cksum.o)
 .debug_line    0x0000000000011622      0x2ad ../DECA_socket_server_bsp/\libucosii_bsp.a(in_utils.o)
 .debug_line    0x00000000000118cf      0x15e ../DECA_socket_server_bsp/\libucosii_bsp.a(netmain.o)
 .debug_line    0x0000000000011a2d      0x1c6 ../DECA_socket_server_bsp/\libucosii_bsp.a(tk_crnos.o)
 .debug_line    0x0000000000011bf3      0x504 ../DECA_socket_server_bsp/\libucosii_bsp.a(dhcpclnt.o)
 .debug_line    0x00000000000120f7       0x94 ../DECA_socket_server_bsp/\libucosii_bsp.a(dhcputil.o)
 .debug_line    0x000000000001218b      0x1eb ../DECA_socket_server_bsp/\libucosii_bsp.a(pktalloc.o)
 .debug_line    0x0000000000012376       0xe5 ../DECA_socket_server_bsp/\libucosii_bsp.a(q.o)
 .debug_line    0x000000000001245b      0x144 ../DECA_socket_server_bsp/\libucosii_bsp.a(udp_open.o)
 .debug_line    0x000000000001259f       0xaf ../DECA_socket_server_bsp/\libucosii_bsp.a(asm_cksum.o)
 .debug_line    0x000000000001264e      0x1d7 ../DECA_socket_server_bsp/\libucosii_bsp.a(brdutils.o)
 .debug_line    0x0000000000012825      0x149 ../DECA_socket_server_bsp/\libucosii_bsp.a(osportco.o)
 .debug_line    0x000000000001296e      0x218 ../DECA_socket_server_bsp/\libucosii_bsp.a(targnios.o)
 .debug_line    0x0000000000012b86      0x4b3 ../DECA_socket_server_bsp/\libucosii_bsp.a(nptcp.o)
 .debug_line    0x0000000000013039      0x27b ../DECA_socket_server_bsp/\libucosii_bsp.a(rawsock.o)
 .debug_line    0x00000000000132b4      0x508 ../DECA_socket_server_bsp/\libucosii_bsp.a(sockcall.o)
 .debug_line    0x00000000000137bc      0x601 ../DECA_socket_server_bsp/\libucosii_bsp.a(socket.o)
 .debug_line    0x0000000000013dbd      0x39a ../DECA_socket_server_bsp/\libucosii_bsp.a(socket2.o)
 .debug_line    0x0000000000014157      0x2ca ../DECA_socket_server_bsp/\libucosii_bsp.a(soselect.o)
 .debug_line    0x0000000000014421      0x77e ../DECA_socket_server_bsp/\libucosii_bsp.a(tcp_in.o)
 .debug_line    0x0000000000014b9f      0x414 ../DECA_socket_server_bsp/\libucosii_bsp.a(tcp_out.o)
 .debug_line    0x0000000000014fb3      0x2ad ../DECA_socket_server_bsp/\libucosii_bsp.a(tcp_subr.o)
 .debug_line    0x0000000000015260      0x27b ../DECA_socket_server_bsp/\libucosii_bsp.a(tcp_timr.o)
 .debug_line    0x00000000000154db      0x2b9 ../DECA_socket_server_bsp/\libucosii_bsp.a(tcp_usr.o)
 .debug_line    0x0000000000015794       0x86 ../DECA_socket_server_bsp/\libucosii_bsp.a(tcpport.o)
 .debug_line    0x000000000001581a      0x2c5 ../DECA_socket_server_bsp/\libucosii_bsp.a(udpsock.o)
 .debug_line    0x0000000000015adf       0xfa ../DECA_socket_server_bsp/\libucosii_bsp.a(alt_alarm_start.o)
 .debug_line    0x0000000000015bd9       0xa0 ../DECA_socket_server_bsp/\libucosii_bsp.a(alt_busy_sleep.o)
 .debug_line    0x0000000000015c79      0x11a ../DECA_socket_server_bsp/\libucosii_bsp.a(alt_close.o)
 .debug_line    0x0000000000015d93       0x7c ../DECA_socket_server_bsp/\libucosii_bsp.a(alt_dcache_flush.o)
 .debug_line    0x0000000000015e0f       0x61 ../DECA_socket_server_bsp/\libucosii_bsp.a(alt_dcache_flush_all.o)
 .debug_line    0x0000000000015e70      0x134 ../DECA_socket_server_bsp/\libucosii_bsp.a(alt_dev.o)
 .debug_line    0x0000000000015fa4       0xd0 ../DECA_socket_server_bsp/\libucosii_bsp.a(alt_dev_llist_insert.o)
 .debug_line    0x0000000000016074       0x59 ../DECA_socket_server_bsp/\libucosii_bsp.a(alt_do_ctors.o)
 .debug_line    0x00000000000160cd       0x59 ../DECA_socket_server_bsp/\libucosii_bsp.a(alt_do_dtors.o)
 .debug_line    0x0000000000016126       0x51 ../DECA_socket_server_bsp/\libucosii_bsp.a(alt_errno.o)
 .debug_line    0x0000000000016177       0xc4 ../DECA_socket_server_bsp/\libucosii_bsp.a(alt_find_dev.o)
 .debug_line    0x000000000001623b       0x50 ../DECA_socket_server_bsp/\libucosii_bsp.a(alt_icache_flush_all.o)
 .debug_line    0x000000000001628b       0xef ../DECA_socket_server_bsp/\libucosii_bsp.a(alt_iic.o)
 .debug_line    0x000000000001637a       0xdb ../DECA_socket_server_bsp/\libucosii_bsp.a(alt_iic_isr_register.o)
 .debug_line    0x0000000000016455      0x13a ../DECA_socket_server_bsp/\libucosii_bsp.a(alt_io_redirect.o)
 .debug_line    0x000000000001658f       0x6b ../DECA_socket_server_bsp/\libucosii_bsp.a(alt_irq_entry.o)
 .debug_line    0x00000000000165fa       0xc8 ../DECA_socket_server_bsp/\libucosii_bsp.a(alt_irq_handler.o)
 .debug_line    0x00000000000166c2       0x50 ../DECA_socket_server_bsp/\libucosii_bsp.a(alt_irq_vars.o)
 .debug_line    0x0000000000016712      0x139 ../DECA_socket_server_bsp/\libucosii_bsp.a(alt_open.o)
 .debug_line    0x000000000001684b      0x1d0 ../DECA_socket_server_bsp/\libucosii_bsp.a(alt_read.o)
 .debug_line    0x0000000000016a1b       0xbd ../DECA_socket_server_bsp/\libucosii_bsp.a(alt_release_fd.o)
 .debug_line    0x0000000000016ad8       0x68 ../DECA_socket_server_bsp/\libucosii_bsp.a(alt_remap_cached.o)
 .debug_line    0x0000000000016b40       0xfe ../DECA_socket_server_bsp/\libucosii_bsp.a(alt_tick.o)
 .debug_line    0x0000000000016c3e       0x6a ../DECA_socket_server_bsp/\libucosii_bsp.a(alt_uncached_free.o)
 .debug_line    0x0000000000016ca8       0xce ../DECA_socket_server_bsp/\libucosii_bsp.a(alt_uncached_malloc.o)
 .debug_line    0x0000000000016d76      0x1cf ../DECA_socket_server_bsp/\libucosii_bsp.a(alt_write.o)
 .debug_line    0x0000000000016f45       0x51 ../DECA_socket_server_bsp/\libucosii_bsp.a(altera_nios2_gen2_irq.o)
 .debug_line    0x0000000000016f96       0x86 ../DECA_socket_server_bsp/\libucosii_bsp.a(os_cpu_a.o)
 .debug_line    0x000000000001701c      0x19b ../DECA_socket_server_bsp/\libucosii_bsp.a(os_cpu_c.o)
 .debug_line    0x00000000000171b7      0x180 ../DECA_socket_server_bsp/\libucosii_bsp.a(allports.o)
 .debug_line    0x0000000000017337      0x15d ../DECA_socket_server_bsp/\libucosii_bsp.a(timeouts.o)
 .debug_line    0x0000000000017494       0x98 ../DECA_socket_server_bsp/\libucosii_bsp.a(tk_misc.o)
 .debug_line    0x000000000001752c      0x14d ../DECA_socket_server_bsp/\libucosii_bsp.a(alt_iniche_fcntl.o)
 .debug_line    0x0000000000017679      0x367 ../DECA_socket_server_bsp/\libucosii_bsp.a(et_arp.o)
 .debug_line    0x00000000000179e0      0x1bc ../DECA_socket_server_bsp/\libucosii_bsp.a(iface.o)
 .debug_line    0x0000000000017b9c      0x4fa ../DECA_socket_server_bsp/\libucosii_bsp.a(ip.o)
 .debug_line    0x0000000000018096      0x451 ../DECA_socket_server_bsp/\libucosii_bsp.a(ip_reasm.o)
 .debug_line    0x00000000000184e7      0x293 ../DECA_socket_server_bsp/\libucosii_bsp.a(ipdemux.o)
 .debug_line    0x000000000001877a      0x124 ../DECA_socket_server_bsp/\libucosii_bsp.a(ipmc.o)
 .debug_line    0x000000000001889e       0xc5 ../DECA_socket_server_bsp/\libucosii_bsp.a(ipport.o)
 .debug_line    0x0000000000018963      0x174 ../DECA_socket_server_bsp/\libucosii_bsp.a(ipraw.o)
 .debug_line    0x0000000000018ad7      0x1be ../DECA_socket_server_bsp/\libucosii_bsp.a(iproute.o)
 .debug_line    0x0000000000018c95      0x312 ../DECA_socket_server_bsp/\libucosii_bsp.a(udp.o)
 .debug_line    0x0000000000018fa7      0x10d ../DECA_socket_server_bsp/\libucosii_bsp.a(igmp.o)
 .debug_line    0x00000000000190b4      0x1bb ../DECA_socket_server_bsp/\libucosii_bsp.a(igmp2.o)
 .debug_line    0x000000000001926f      0x2ac ../DECA_socket_server_bsp/\libucosii_bsp.a(ipopt.o)
 .debug_line    0x000000000001951b      0x199 ../DECA_socket_server_bsp/\libucosii_bsp.a(u_mctest.o)
 .debug_line    0x00000000000196b4      0x152 ../DECA_socket_server_bsp/\libucosii_bsp.a(dhcsetup.o)
 .debug_line    0x0000000000019806      0x114 ../DECA_socket_server_bsp/\libucosii_bsp.a(memdev.o)
 .debug_line    0x000000000001991a      0x260 ../DECA_socket_server_bsp/\libucosii_bsp.a(parseip.o)
 .debug_line    0x0000000000019b7a       0xe0 ../DECA_socket_server_bsp/\libucosii_bsp.a(tcpcksum.o)
 .debug_line    0x0000000000019c5a      0x24d ../DECA_socket_server_bsp/\libucosii_bsp.a(in_pcb.o)
 .debug_line    0x0000000000019ea7      0x3f2 ../DECA_socket_server_bsp/\libucosii_bsp.a(vfsfiles.o)
 .debug_line    0x000000000001a299       0x85 ../DECA_socket_server_bsp/\libucosii_bsp.a(vfsport.o)
 .debug_line    0x000000000001a31e       0xb3 ../DECA_socket_server_bsp/\libucosii_bsp.a(alt_exception_entry.o)
 .debug_line    0x000000000001a3d1      0x1d1 ../DECA_socket_server_bsp/\libucosii_bsp.a(alt_fcntl.o)
 .debug_line    0x000000000001a5a2       0xe0 ../DECA_socket_server_bsp/\libucosii_bsp.a(alt_find_file.o)
 .debug_line    0x000000000001a682      0x129 ../DECA_socket_server_bsp/\libucosii_bsp.a(alt_get_fd.o)
 .debug_line    0x000000000001a7ab       0x81 ../DECA_socket_server_bsp/\libucosii_bsp.a(alt_icache_flush.o)
 .debug_line    0x000000000001a82c       0xba ../DECA_socket_server_bsp/\libucosii_bsp.a(alt_instruction_exception_entry.o)
 .debug_line    0x000000000001a8e6      0x290 ../DECA_socket_server_bsp/\libucosii_bsp.a(icmp.o)
 .debug_line    0x000000000001ab76       0xe6 c:/altera/15.0/nios2eds/bin/gnu/h-x86_64-mingw32/bin/../lib/gcc/nios2-elf/4.9.1/../../../../../H-x86_64-mingw32/nios2-elf/lib\libc.a(lib_a-atexit.o)
 .debug_line    0x000000000001ac5c      0x1e2 c:/altera/15.0/nios2eds/bin/gnu/h-x86_64-mingw32/bin/../lib/gcc/nios2-elf/4.9.1/../../../../../H-x86_64-mingw32/nios2-elf/lib\libc.a(lib_a-atoi.o)
 .debug_line    0x000000000001ae3e      0x1fa c:/altera/15.0/nios2eds/bin/gnu/h-x86_64-mingw32/bin/../lib/gcc/nios2-elf/4.9.1/../../../../../H-x86_64-mingw32/nios2-elf/lib\libc.a(lib_a-exit.o)
 .debug_line    0x000000000001b038      0x1e3 c:/altera/15.0/nios2eds/bin/gnu/h-x86_64-mingw32/bin/../lib/gcc/nios2-elf/4.9.1/../../../../../H-x86_64-mingw32/nios2-elf/lib\libc.a(lib_a-malign.o)
 .debug_line    0x000000000001b21b      0x1d9 c:/altera/15.0/nios2eds/bin/gnu/h-x86_64-mingw32/bin/../lib/gcc/nios2-elf/4.9.1/../../../../../H-x86_64-mingw32/nios2-elf/lib\libc.a(lib_a-malignr.o)
 .debug_line    0x000000000001b3f4      0x175 c:/altera/15.0/nios2eds/bin/gnu/h-x86_64-mingw32/bin/../lib/gcc/nios2-elf/4.9.1/../../../../../H-x86_64-mingw32/nios2-elf/lib\libc.a(lib_a-memcmp.o)
 .debug_line    0x000000000001b569      0x19b c:/altera/15.0/nios2eds/bin/gnu/h-x86_64-mingw32/bin/../lib/gcc/nios2-elf/4.9.1/../../../../../H-x86_64-mingw32/nios2-elf/lib\libc.a(lib_a-strncmp.o)
 .debug_line    0x000000000001b704      0x18b c:/altera/15.0/nios2eds/bin/gnu/h-x86_64-mingw32/bin/../lib/gcc/nios2-elf/4.9.1/../../../../../H-x86_64-mingw32/nios2-elf/lib\libc.a(lib_a-strncpy.o)
 .debug_line    0x000000000001b88f      0x27d c:/altera/15.0/nios2eds/bin/gnu/h-x86_64-mingw32/bin/../lib/gcc/nios2-elf/4.9.1/../../../../../H-x86_64-mingw32/nios2-elf/lib\libc.a(lib_a-strtol.o)
 .debug_line    0x000000000001bb0c      0x1f2 c:/altera/15.0/nios2eds/bin/gnu/h-x86_64-mingw32/bin/../lib/gcc/nios2-elf/4.9.1/../../../../../H-x86_64-mingw32/nios2-elf/lib\libc.a(lib_a-vprintf.o)
 .debug_line    0x000000000001bcfe      0x210 c:/altera/15.0/nios2eds/bin/gnu/h-x86_64-mingw32/bin/../lib/gcc/nios2-elf/4.9.1/../../../../../H-x86_64-mingw32/nios2-elf/lib\libc.a(lib_a-vsprintf.o)
 .debug_line    0x000000000001bf0e      0x224 c:/altera/15.0/nios2eds/bin/gnu/h-x86_64-mingw32/bin/../lib/gcc/nios2-elf/4.9.1/../../../../../H-x86_64-mingw32/nios2-elf/lib\libc.a(lib_a-__atexit.o)
 .debug_line    0x000000000001c132      0x241 c:/altera/15.0/nios2eds/bin/gnu/h-x86_64-mingw32/bin/../lib/gcc/nios2-elf/4.9.1/../../../../../H-x86_64-mingw32/nios2-elf/lib\libc.a(lib_a-__call_atexit.o)
 .debug_line    0x000000000001c373      0x1f9 c:/altera/15.0/nios2eds/bin/gnu/h-x86_64-mingw32/bin/../lib/gcc/nios2-elf/4.9.1/../../../../../H-x86_64-mingw32/nios2-elf/lib\libc.a(lib_a-vfprintfr_1.o)
 .debug_line    0x000000000001c56c       0xcf ../DECA_socket_server_bsp/\libucosii_bsp.a(alt_exit.o)

.debug_frame    0x0000000000000000     0x8760
 *(.debug_frame)
 .debug_frame   0x0000000000000000       0x88 obj/default/alt_error_handler.o
 .debug_frame   0x0000000000000088       0x48 obj/default/iniche_init.o
 .debug_frame   0x00000000000000d0      0x6cc obj/default/ins_tse/altera_avalon_tse.o
 .debug_frame   0x000000000000079c       0x70 obj/default/led.o
 .debug_frame   0x000000000000080c      0x11c obj/default/network_utilities.o
 .debug_frame   0x0000000000000928      0x150 obj/default/simple_socket_server.o
 .debug_frame   0x0000000000000a78       0x48 c:/altera/15.0/nios2eds/bin/gnu/h-x86_64-mingw32/bin/../lib/gcc/nios2-elf/4.9.1/../../../../../H-x86_64-mingw32/nios2-elf/lib\libc.a(lib_a-fprintf.o)
 .debug_frame   0x0000000000000ac0       0x5c c:/altera/15.0/nios2eds/bin/gnu/h-x86_64-mingw32/bin/../lib/gcc/nios2-elf/4.9.1/../../../../../H-x86_64-mingw32/nios2-elf/lib\libc.a(lib_a-fwrite.o)
 .debug_frame   0x0000000000000b1c       0x60 c:/altera/15.0/nios2eds/bin/gnu/h-x86_64-mingw32/bin/../lib/gcc/nios2-elf/4.9.1/../../../../../H-x86_64-mingw32/nios2-elf/lib\libc.a(lib_a-getc.o)
 .debug_frame   0x0000000000000b7c       0x30 c:/altera/15.0/nios2eds/bin/gnu/h-x86_64-mingw32/bin/../lib/gcc/nios2-elf/4.9.1/../../../../../H-x86_64-mingw32/nios2-elf/lib\libc.a(lib_a-malloc.o)
 .debug_frame   0x0000000000000bac       0x54 c:/altera/15.0/nios2eds/bin/gnu/h-x86_64-mingw32/bin/../lib/gcc/nios2-elf/4.9.1/../../../../../H-x86_64-mingw32/nios2-elf/lib\libc.a(lib_a-mallocr.o)
 .debug_frame   0x0000000000000c00       0x30 c:/altera/15.0/nios2eds/bin/gnu/h-x86_64-mingw32/bin/../lib/gcc/nios2-elf/4.9.1/../../../../../H-x86_64-mingw32/nios2-elf/lib\libc.a(lib_a-memcpy.o)
 .debug_frame   0x0000000000000c30       0x20 c:/altera/15.0/nios2eds/bin/gnu/h-x86_64-mingw32/bin/../lib/gcc/nios2-elf/4.9.1/../../../../../H-x86_64-mingw32/nios2-elf/lib\libc.a(lib_a-memmove.o)
 .debug_frame   0x0000000000000c50       0x20 c:/altera/15.0/nios2eds/bin/gnu/h-x86_64-mingw32/bin/../lib/gcc/nios2-elf/4.9.1/../../../../../H-x86_64-mingw32/nios2-elf/lib\libc.a(lib_a-memset.o)
 .debug_frame   0x0000000000000c70       0x44 c:/altera/15.0/nios2eds/bin/gnu/h-x86_64-mingw32/bin/../lib/gcc/nios2-elf/4.9.1/../../../../../H-x86_64-mingw32/nios2-elf/lib\libc.a(lib_a-perror.o)
 .debug_frame   0x0000000000000cb4       0x48 c:/altera/15.0/nios2eds/bin/gnu/h-x86_64-mingw32/bin/../lib/gcc/nios2-elf/4.9.1/../../../../../H-x86_64-mingw32/nios2-elf/lib\libc.a(lib_a-printf.o)
 .debug_frame   0x0000000000000cfc       0x74 c:/altera/15.0/nios2eds/bin/gnu/h-x86_64-mingw32/bin/../lib/gcc/nios2-elf/4.9.1/../../../../../H-x86_64-mingw32/nios2-elf/lib\libc.a(lib_a-putc.o)
 .debug_frame   0x0000000000000d70       0x30 c:/altera/15.0/nios2eds/bin/gnu/h-x86_64-mingw32/bin/../lib/gcc/nios2-elf/4.9.1/../../../../../H-x86_64-mingw32/nios2-elf/lib\libc.a(lib_a-putchar.o)
 .debug_frame   0x0000000000000da0       0x48 c:/altera/15.0/nios2eds/bin/gnu/h-x86_64-mingw32/bin/../lib/gcc/nios2-elf/4.9.1/../../../../../H-x86_64-mingw32/nios2-elf/lib\libc.a(lib_a-puts.o)
 .debug_frame   0x0000000000000de8       0x48 c:/altera/15.0/nios2eds/bin/gnu/h-x86_64-mingw32/bin/../lib/gcc/nios2-elf/4.9.1/../../../../../H-x86_64-mingw32/nios2-elf/lib\libc.a(lib_a-rget.o)
 .debug_frame   0x0000000000000e30       0x38 c:/altera/15.0/nios2eds/bin/gnu/h-x86_64-mingw32/bin/../lib/gcc/nios2-elf/4.9.1/../../../../../H-x86_64-mingw32/nios2-elf/lib\libc.a(lib_a-sbrkr.o)
 .debug_frame   0x0000000000000e68       0x48 c:/altera/15.0/nios2eds/bin/gnu/h-x86_64-mingw32/bin/../lib/gcc/nios2-elf/4.9.1/../../../../../H-x86_64-mingw32/nios2-elf/lib\libc.a(lib_a-sprintf.o)
 .debug_frame   0x0000000000000eb0       0x20 c:/altera/15.0/nios2eds/bin/gnu/h-x86_64-mingw32/bin/../lib/gcc/nios2-elf/4.9.1/../../../../../H-x86_64-mingw32/nios2-elf/lib\libc.a(lib_a-strchr.o)
 .debug_frame   0x0000000000000ed0       0x20 c:/altera/15.0/nios2eds/bin/gnu/h-x86_64-mingw32/bin/../lib/gcc/nios2-elf/4.9.1/../../../../../H-x86_64-mingw32/nios2-elf/lib\libc.a(lib_a-strcpy.o)
 .debug_frame   0x0000000000000ef0       0x30 c:/altera/15.0/nios2eds/bin/gnu/h-x86_64-mingw32/bin/../lib/gcc/nios2-elf/4.9.1/../../../../../H-x86_64-mingw32/nios2-elf/lib\libc.a(lib_a-strerror.o)
 .debug_frame   0x0000000000000f20       0x20 c:/altera/15.0/nios2eds/bin/gnu/h-x86_64-mingw32/bin/../lib/gcc/nios2-elf/4.9.1/../../../../../H-x86_64-mingw32/nios2-elf/lib\libc.a(lib_a-strlen.o)
 .debug_frame   0x0000000000000f40       0x58 c:/altera/15.0/nios2eds/bin/gnu/h-x86_64-mingw32/bin/../lib/gcc/nios2-elf/4.9.1/../../../../../H-x86_64-mingw32/nios2-elf/lib\libc.a(lib_a-svfprintf.o)
 .debug_frame   0x0000000000000f98       0x20 c:/altera/15.0/nios2eds/bin/gnu/h-x86_64-mingw32/bin/../lib/gcc/nios2-elf/4.9.1/../../../../../H-x86_64-mingw32/nios2-elf/lib\libc.a(lib_a-u_strerr.o)
 .debug_frame   0x0000000000000fb8       0x68 c:/altera/15.0/nios2eds/bin/gnu/h-x86_64-mingw32/bin/../lib/gcc/nios2-elf/4.9.1/../../../../../H-x86_64-mingw32/nios2-elf/lib\libc.a(lib_a-vfprintf.o)
 .debug_frame   0x0000000000001020       0x4c c:/altera/15.0/nios2eds/bin/gnu/h-x86_64-mingw32/bin/../lib/gcc/nios2-elf/4.9.1/../../../../../H-x86_64-mingw32/nios2-elf/lib\libc.a(lib_a-wbuf.o)
 .debug_frame   0x000000000000106c       0x38 c:/altera/15.0/nios2eds/bin/gnu/h-x86_64-mingw32/bin/../lib/gcc/nios2-elf/4.9.1/../../../../../H-x86_64-mingw32/nios2-elf/lib\libc.a(lib_a-wsetup.o)
 .debug_frame   0x00000000000010a4       0x98 c:/altera/15.0/nios2eds/bin/gnu/h-x86_64-mingw32/bin/../lib/gcc/nios2-elf/4.9.1/../../../../../H-x86_64-mingw32/nios2-elf/lib\libc.a(lib_a-dtoa.o)
 .debug_frame   0x000000000000113c       0x50 c:/altera/15.0/nios2eds/bin/gnu/h-x86_64-mingw32/bin/../lib/gcc/nios2-elf/4.9.1/../../../../../H-x86_64-mingw32/nios2-elf/lib\libc.a(lib_a-fflush.o)
 .debug_frame   0x000000000000118c      0x160 c:/altera/15.0/nios2eds/bin/gnu/h-x86_64-mingw32/bin/../lib/gcc/nios2-elf/4.9.1/../../../../../H-x86_64-mingw32/nios2-elf/lib\libc.a(lib_a-findfp.o)
 .debug_frame   0x00000000000012ec       0x58 c:/altera/15.0/nios2eds/bin/gnu/h-x86_64-mingw32/bin/../lib/gcc/nios2-elf/4.9.1/../../../../../H-x86_64-mingw32/nios2-elf/lib\libc.a(lib_a-fputc.o)
 .debug_frame   0x0000000000001344       0x48 c:/altera/15.0/nios2eds/bin/gnu/h-x86_64-mingw32/bin/../lib/gcc/nios2-elf/4.9.1/../../../../../H-x86_64-mingw32/nios2-elf/lib\libc.a(lib_a-fputs.o)
 .debug_frame   0x000000000000138c       0x70 c:/altera/15.0/nios2eds/bin/gnu/h-x86_64-mingw32/bin/../lib/gcc/nios2-elf/4.9.1/../../../../../H-x86_64-mingw32/nios2-elf/lib\libc.a(lib_a-freer.o)
 .debug_frame   0x00000000000013fc       0x78 c:/altera/15.0/nios2eds/bin/gnu/h-x86_64-mingw32/bin/../lib/gcc/nios2-elf/4.9.1/../../../../../H-x86_64-mingw32/nios2-elf/lib\libc.a(lib_a-fvwrite.o)
 .debug_frame   0x0000000000001474       0x88 c:/altera/15.0/nios2eds/bin/gnu/h-x86_64-mingw32/bin/../lib/gcc/nios2-elf/4.9.1/../../../../../H-x86_64-mingw32/nios2-elf/lib\libc.a(lib_a-fwalk.o)
 .debug_frame   0x00000000000014fc       0xa8 c:/altera/15.0/nios2eds/bin/gnu/h-x86_64-mingw32/bin/../lib/gcc/nios2-elf/4.9.1/../../../../../H-x86_64-mingw32/nios2-elf/lib\libc.a(lib_a-locale.o)
 .debug_frame   0x00000000000015a4       0x4c c:/altera/15.0/nios2eds/bin/gnu/h-x86_64-mingw32/bin/../lib/gcc/nios2-elf/4.9.1/../../../../../H-x86_64-mingw32/nios2-elf/lib\libc.a(lib_a-makebuf.o)
 .debug_frame   0x00000000000015f0       0x20 c:/altera/15.0/nios2eds/bin/gnu/h-x86_64-mingw32/bin/../lib/gcc/nios2-elf/4.9.1/../../../../../H-x86_64-mingw32/nios2-elf/lib\libc.a(lib_a-memchr.o)
 .debug_frame   0x0000000000001610      0x2e8 c:/altera/15.0/nios2eds/bin/gnu/h-x86_64-mingw32/bin/../lib/gcc/nios2-elf/4.9.1/../../../../../H-x86_64-mingw32/nios2-elf/lib\libc.a(lib_a-mprec.o)
 .debug_frame   0x00000000000018f8       0x70 c:/altera/15.0/nios2eds/bin/gnu/h-x86_64-mingw32/bin/../lib/gcc/nios2-elf/4.9.1/../../../../../H-x86_64-mingw32/nios2-elf/lib\libc.a(lib_a-reallocr.o)
 .debug_frame   0x0000000000001968       0x48 c:/altera/15.0/nios2eds/bin/gnu/h-x86_64-mingw32/bin/../lib/gcc/nios2-elf/4.9.1/../../../../../H-x86_64-mingw32/nios2-elf/lib\libc.a(lib_a-refill.o)
 .debug_frame   0x00000000000019b0       0x20 c:/altera/15.0/nios2eds/bin/gnu/h-x86_64-mingw32/bin/../lib/gcc/nios2-elf/4.9.1/../../../../../H-x86_64-mingw32/nios2-elf/lib\libc.a(lib_a-s_fpclassify.o)
 .debug_frame   0x00000000000019d0       0xb4 c:/altera/15.0/nios2eds/bin/gnu/h-x86_64-mingw32/bin/../lib/gcc/nios2-elf/4.9.1/../../../../../H-x86_64-mingw32/nios2-elf/lib\libc.a(lib_a-stdio.o)
 .debug_frame   0x0000000000001a84       0x20 c:/altera/15.0/nios2eds/bin/gnu/h-x86_64-mingw32/bin/../lib/gcc/nios2-elf/4.9.1/../../../../../H-x86_64-mingw32/nios2-elf/lib\libc.a(lib_a-strcmp.o)
 .debug_frame   0x0000000000001aa4       0x9c c:/altera/15.0/nios2eds/bin/gnu/h-x86_64-mingw32/bin/../lib/gcc/nios2-elf/4.9.1/../../../../../H-x86_64-mingw32/nios2-elf/lib\libc.a(lib_a-svfiprintf.o)
 .debug_frame   0x0000000000001b40       0xbc c:/altera/15.0/nios2eds/bin/gnu/h-x86_64-mingw32/bin/../lib/gcc/nios2-elf/4.9.1/../../../../../H-x86_64-mingw32/nios2-elf/lib\libc.a(lib_a-vfiprintf.o)
 .debug_frame   0x0000000000001bfc       0x38 c:/altera/15.0/nios2eds/bin/gnu/h-x86_64-mingw32/bin/../lib/gcc/nios2-elf/4.9.1/../../../../../H-x86_64-mingw32/nios2-elf/lib\libc.a(lib_a-writer.o)
 .debug_frame   0x0000000000001c34       0x38 c:/altera/15.0/nios2eds/bin/gnu/h-x86_64-mingw32/bin/../lib/gcc/nios2-elf/4.9.1/../../../../../H-x86_64-mingw32/nios2-elf/lib\libc.a(closer.o)
 .debug_frame   0x0000000000001c6c       0x40 c:/altera/15.0/nios2eds/bin/gnu/h-x86_64-mingw32/bin/../lib/gcc/nios2-elf/4.9.1/../../../../../H-x86_64-mingw32/nios2-elf/lib\libc.a(lib_a-callocr.o)
 .debug_frame   0x0000000000001cac       0x60 c:/altera/15.0/nios2eds/bin/gnu/h-x86_64-mingw32/bin/../lib/gcc/nios2-elf/4.9.1/../../../../../H-x86_64-mingw32/nios2-elf/lib\libc.a(lib_a-fclose.o)
 .debug_frame   0x0000000000001d0c       0x70 c:/altera/15.0/nios2eds/bin/gnu/h-x86_64-mingw32/bin/../lib/gcc/nios2-elf/4.9.1/../../../../../H-x86_64-mingw32/nios2-elf/lib\libc.a(lib_a-fputwc.o)
 .debug_frame   0x0000000000001d7c       0x38 c:/altera/15.0/nios2eds/bin/gnu/h-x86_64-mingw32/bin/../lib/gcc/nios2-elf/4.9.1/../../../../../H-x86_64-mingw32/nios2-elf/lib\libc.a(lib_a-fstatr.o)
 .debug_frame   0x0000000000001db4       0x38 c:/altera/15.0/nios2eds/bin/gnu/h-x86_64-mingw32/bin/../lib/gcc/nios2-elf/4.9.1/../../../../../H-x86_64-mingw32/nios2-elf/lib\libc.a(lib_a-isattyr.o)
 .debug_frame   0x0000000000001dec       0x38 c:/altera/15.0/nios2eds/bin/gnu/h-x86_64-mingw32/bin/../lib/gcc/nios2-elf/4.9.1/../../../../../H-x86_64-mingw32/nios2-elf/lib\libc.a(lib_a-lseekr.o)
 .debug_frame   0x0000000000001e24       0x38 c:/altera/15.0/nios2eds/bin/gnu/h-x86_64-mingw32/bin/../lib/gcc/nios2-elf/4.9.1/../../../../../H-x86_64-mingw32/nios2-elf/lib\libc.a(lib_a-readr.o)
 .debug_frame   0x0000000000001e5c       0x74 c:/altera/15.0/nios2eds/bin/gnu/h-x86_64-mingw32/bin/../lib/gcc/nios2-elf/4.9.1/../../../../../H-x86_64-mingw32/nios2-elf/lib\libc.a(lib_a-wcrtomb.o)
 .debug_frame   0x0000000000001ed0       0x44 c:/altera/15.0/nios2eds/bin/gnu/h-x86_64-mingw32/bin/../lib/gcc/nios2-elf/4.9.1/../../../../../H-x86_64-mingw32/nios2-elf/lib\libc.a(lib_a-wctomb_r.o)
 .debug_frame   0x0000000000001f14       0x54 c:/altera/15.0/nios2eds/bin/gnu/h-x86_64-mingw32/bin/../lib/gcc/nios2-elf/4.9.1\libgcc.a(_udivdi3.o)
 .debug_frame   0x0000000000001f68       0x54 c:/altera/15.0/nios2eds/bin/gnu/h-x86_64-mingw32/bin/../lib/gcc/nios2-elf/4.9.1\libgcc.a(_umoddi3.o)
 .debug_frame   0x0000000000001fbc       0x8c c:/altera/15.0/nios2eds/bin/gnu/h-x86_64-mingw32/bin/../lib/gcc/nios2-elf/4.9.1\libgcc.a(lib2-divmod.o)
 .debug_frame   0x0000000000002048       0x40 c:/altera/15.0/nios2eds/bin/gnu/h-x86_64-mingw32/bin/../lib/gcc/nios2-elf/4.9.1\libgcc.a(adddf3.o)
 .debug_frame   0x0000000000002088       0x58 c:/altera/15.0/nios2eds/bin/gnu/h-x86_64-mingw32/bin/../lib/gcc/nios2-elf/4.9.1\libgcc.a(divdf3.o)
 .debug_frame   0x00000000000020e0       0x20 c:/altera/15.0/nios2eds/bin/gnu/h-x86_64-mingw32/bin/../lib/gcc/nios2-elf/4.9.1\libgcc.a(eqdf2.o)
 .debug_frame   0x0000000000002100       0x20 c:/altera/15.0/nios2eds/bin/gnu/h-x86_64-mingw32/bin/../lib/gcc/nios2-elf/4.9.1\libgcc.a(gedf2.o)
 .debug_frame   0x0000000000002120       0x20 c:/altera/15.0/nios2eds/bin/gnu/h-x86_64-mingw32/bin/../lib/gcc/nios2-elf/4.9.1\libgcc.a(ledf2.o)
 .debug_frame   0x0000000000002140       0x58 c:/altera/15.0/nios2eds/bin/gnu/h-x86_64-mingw32/bin/../lib/gcc/nios2-elf/4.9.1\libgcc.a(muldf3.o)
 .debug_frame   0x0000000000002198       0x44 c:/altera/15.0/nios2eds/bin/gnu/h-x86_64-mingw32/bin/../lib/gcc/nios2-elf/4.9.1\libgcc.a(subdf3.o)
 .debug_frame   0x00000000000021dc       0x20 c:/altera/15.0/nios2eds/bin/gnu/h-x86_64-mingw32/bin/../lib/gcc/nios2-elf/4.9.1\libgcc.a(fixdfsi.o)
 .debug_frame   0x00000000000021fc       0x38 c:/altera/15.0/nios2eds/bin/gnu/h-x86_64-mingw32/bin/../lib/gcc/nios2-elf/4.9.1\libgcc.a(floatsidf.o)
 .debug_frame   0x0000000000002234       0x34 c:/altera/15.0/nios2eds/bin/gnu/h-x86_64-mingw32/bin/../lib/gcc/nios2-elf/4.9.1\libgcc.a(floatunsidf.o)
 .debug_frame   0x0000000000002268       0x20 c:/altera/15.0/nios2eds/bin/gnu/h-x86_64-mingw32/bin/../lib/gcc/nios2-elf/4.9.1\libgcc.a(_clzsi2.o)
 .debug_frame   0x0000000000002288       0x60 ../DECA_socket_server_bsp/\libucosii_bsp.a(alt_fstat.o)
 .debug_frame   0x00000000000022e8       0x60 ../DECA_socket_server_bsp/\libucosii_bsp.a(alt_isatty.o)
 .debug_frame   0x0000000000002348       0x5c ../DECA_socket_server_bsp/\libucosii_bsp.a(alt_load.o)
 .debug_frame   0x00000000000023a4       0x60 ../DECA_socket_server_bsp/\libucosii_bsp.a(alt_lseek.o)
 .debug_frame   0x0000000000002404       0x2c ../DECA_socket_server_bsp/\libucosii_bsp.a(alt_main.o)
 .debug_frame   0x0000000000002430       0x34 ../DECA_socket_server_bsp/\libucosii_bsp.a(alt_sbrk.o)
 .debug_frame   0x0000000000002464       0x3c ../DECA_socket_server_bsp/\libucosii_bsp.a(alt_usleep.o)
 .debug_frame   0x00000000000024a0       0x60 ../DECA_socket_server_bsp/\libucosii_bsp.a(alt_env_lock.o)
 .debug_frame   0x0000000000002500       0x64 ../DECA_socket_server_bsp/\libucosii_bsp.a(alt_malloc_lock.o)
 .debug_frame   0x0000000000002564      0x530 ../DECA_socket_server_bsp/\libucosii_bsp.a(os_core.o)
 .debug_frame   0x0000000000002a94       0x34 ../DECA_socket_server_bsp/\libucosii_bsp.a(os_dbg.o)
 .debug_frame   0x0000000000002ac8      0x200 ../DECA_socket_server_bsp/\libucosii_bsp.a(os_flag.o)
 .debug_frame   0x0000000000002cc8      0x118 ../DECA_socket_server_bsp/\libucosii_bsp.a(os_mem.o)
 .debug_frame   0x0000000000002de0      0x1bc ../DECA_socket_server_bsp/\libucosii_bsp.a(os_q.o)
 .debug_frame   0x0000000000002f9c      0x144 ../DECA_socket_server_bsp/\libucosii_bsp.a(os_sem.o)
 .debug_frame   0x00000000000030e0      0x1e4 ../DECA_socket_server_bsp/\libucosii_bsp.a(os_task.o)
 .debug_frame   0x00000000000032c4       0xd8 ../DECA_socket_server_bsp/\libucosii_bsp.a(os_time.o)
 .debug_frame   0x000000000000339c       0x88 ../DECA_socket_server_bsp/\libucosii_bsp.a(alt_sys_init.o)
 .debug_frame   0x0000000000003424       0xb0 ../DECA_socket_server_bsp/\libucosii_bsp.a(altera_avalon_jtag_uart_fd.o)
 .debug_frame   0x00000000000034d4       0xac ../DECA_socket_server_bsp/\libucosii_bsp.a(altera_avalon_jtag_uart_init.o)
 .debug_frame   0x0000000000003580       0x34 ../DECA_socket_server_bsp/\libucosii_bsp.a(altera_avalon_jtag_uart_ioctl.o)
 .debug_frame   0x00000000000035b4       0x38 ../DECA_socket_server_bsp/\libucosii_bsp.a(altera_avalon_jtag_uart_read.o)
 .debug_frame   0x00000000000035ec       0x38 ../DECA_socket_server_bsp/\libucosii_bsp.a(altera_avalon_jtag_uart_write.o)
 .debug_frame   0x0000000000003624      0x310 ../DECA_socket_server_bsp/\libucosii_bsp.a(altera_avalon_sgdma.o)
 .debug_frame   0x0000000000003934       0x60 ../DECA_socket_server_bsp/\libucosii_bsp.a(altera_avalon_timer_sc.o)
 .debug_frame   0x0000000000003994      0x184 ../DECA_socket_server_bsp/\libucosii_bsp.a(ins_tse_mac.o)
 .debug_frame   0x0000000000003b18       0x38 ../DECA_socket_server_bsp/\libucosii_bsp.a(alt_iniche_close.o)
 .debug_frame   0x0000000000003b50       0x38 ../DECA_socket_server_bsp/\libucosii_bsp.a(alt_iniche_dev.o)
 .debug_frame   0x0000000000003b88       0x38 ../DECA_socket_server_bsp/\libucosii_bsp.a(alt_iniche_read.o)
 .debug_frame   0x0000000000003bc0       0x38 ../DECA_socket_server_bsp/\libucosii_bsp.a(alt_iniche_write.o)
 .debug_frame   0x0000000000003bf8       0xfc ../DECA_socket_server_bsp/\libucosii_bsp.a(ipnet.o)
 .debug_frame   0x0000000000003cf4       0xb0 ../DECA_socket_server_bsp/\libucosii_bsp.a(ipstart.o)
 .debug_frame   0x0000000000003da4      0x150 ../DECA_socket_server_bsp/\libucosii_bsp.a(igmp_cmn.o)
 .debug_frame   0x0000000000003ef4      0x19c ../DECA_socket_server_bsp/\libucosii_bsp.a(bsdsock.o)
 .debug_frame   0x0000000000004090       0x5c ../DECA_socket_server_bsp/\libucosii_bsp.a(cksum.o)
 .debug_frame   0x00000000000040ec      0x1f0 ../DECA_socket_server_bsp/\libucosii_bsp.a(in_utils.o)
 .debug_frame   0x00000000000042dc       0x70 ../DECA_socket_server_bsp/\libucosii_bsp.a(netmain.o)
 .debug_frame   0x000000000000434c      0x128 ../DECA_socket_server_bsp/\libucosii_bsp.a(tk_crnos.o)
 .debug_frame   0x0000000000004474      0x32c ../DECA_socket_server_bsp/\libucosii_bsp.a(dhcpclnt.o)
 .debug_frame   0x00000000000047a0       0x34 ../DECA_socket_server_bsp/\libucosii_bsp.a(dhcputil.o)
 .debug_frame   0x00000000000047d4       0xfc ../DECA_socket_server_bsp/\libucosii_bsp.a(pktalloc.o)
 .debug_frame   0x00000000000048d0       0x88 ../DECA_socket_server_bsp/\libucosii_bsp.a(q.o)
 .debug_frame   0x0000000000004958       0x60 ../DECA_socket_server_bsp/\libucosii_bsp.a(udp_open.o)
 .debug_frame   0x00000000000049b8      0x13c ../DECA_socket_server_bsp/\libucosii_bsp.a(brdutils.o)
 .debug_frame   0x0000000000004af4       0xd8 ../DECA_socket_server_bsp/\libucosii_bsp.a(osportco.o)
 .debug_frame   0x0000000000004bcc      0x198 ../DECA_socket_server_bsp/\libucosii_bsp.a(targnios.o)
 .debug_frame   0x0000000000004d64      0x2cc ../DECA_socket_server_bsp/\libucosii_bsp.a(nptcp.o)
 .debug_frame   0x0000000000005030       0x8c ../DECA_socket_server_bsp/\libucosii_bsp.a(rawsock.o)
 .debug_frame   0x00000000000050bc      0x308 ../DECA_socket_server_bsp/\libucosii_bsp.a(sockcall.o)
 .debug_frame   0x00000000000053c4      0x290 ../DECA_socket_server_bsp/\libucosii_bsp.a(socket.o)
 .debug_frame   0x0000000000005654      0x398 ../DECA_socket_server_bsp/\libucosii_bsp.a(socket2.o)
 .debug_frame   0x00000000000059ec      0x178 ../DECA_socket_server_bsp/\libucosii_bsp.a(soselect.o)
 .debug_frame   0x0000000000005b64      0x128 ../DECA_socket_server_bsp/\libucosii_bsp.a(tcp_in.o)
 .debug_frame   0x0000000000005c8c       0x88 ../DECA_socket_server_bsp/\libucosii_bsp.a(tcp_out.o)
 .debug_frame   0x0000000000005d14      0x168 ../DECA_socket_server_bsp/\libucosii_bsp.a(tcp_subr.o)
 .debug_frame   0x0000000000005e7c       0x84 ../DECA_socket_server_bsp/\libucosii_bsp.a(tcp_timr.o)
 .debug_frame   0x0000000000005f00       0xb0 ../DECA_socket_server_bsp/\libucosii_bsp.a(tcp_usr.o)
 .debug_frame   0x0000000000005fb0       0x38 ../DECA_socket_server_bsp/\libucosii_bsp.a(tcpport.o)
 .debug_frame   0x0000000000005fe8      0x104 ../DECA_socket_server_bsp/\libucosii_bsp.a(udpsock.o)
 .debug_frame   0x00000000000060ec       0x34 ../DECA_socket_server_bsp/\libucosii_bsp.a(alt_alarm_start.o)
 .debug_frame   0x0000000000006120       0x38 ../DECA_socket_server_bsp/\libucosii_bsp.a(alt_busy_sleep.o)
 .debug_frame   0x0000000000006158       0x60 ../DECA_socket_server_bsp/\libucosii_bsp.a(alt_close.o)
 .debug_frame   0x00000000000061b8       0x34 ../DECA_socket_server_bsp/\libucosii_bsp.a(alt_dcache_flush.o)
 .debug_frame   0x00000000000061ec       0x34 ../DECA_socket_server_bsp/\libucosii_bsp.a(alt_dcache_flush_all.o)
 .debug_frame   0x0000000000006220       0x34 ../DECA_socket_server_bsp/\libucosii_bsp.a(alt_dev.o)
 .debug_frame   0x0000000000006254       0x60 ../DECA_socket_server_bsp/\libucosii_bsp.a(alt_dev_llist_insert.o)
 .debug_frame   0x00000000000062b4       0x38 ../DECA_socket_server_bsp/\libucosii_bsp.a(alt_do_ctors.o)
 .debug_frame   0x00000000000062ec       0x38 ../DECA_socket_server_bsp/\libucosii_bsp.a(alt_do_dtors.o)
 .debug_frame   0x0000000000006324       0x38 ../DECA_socket_server_bsp/\libucosii_bsp.a(alt_find_dev.o)
 .debug_frame   0x000000000000635c       0x38 ../DECA_socket_server_bsp/\libucosii_bsp.a(alt_icache_flush_all.o)
 .debug_frame   0x0000000000006394       0xa4 ../DECA_socket_server_bsp/\libucosii_bsp.a(alt_iic.o)
 .debug_frame   0x0000000000006438       0x38 ../DECA_socket_server_bsp/\libucosii_bsp.a(alt_iic_isr_register.o)
 .debug_frame   0x0000000000006470       0x60 ../DECA_socket_server_bsp/\libucosii_bsp.a(alt_io_redirect.o)
 .debug_frame   0x00000000000064d0       0x38 ../DECA_socket_server_bsp/\libucosii_bsp.a(alt_irq_handler.o)
 .debug_frame   0x0000000000006508       0x84 ../DECA_socket_server_bsp/\libucosii_bsp.a(alt_open.o)
 .debug_frame   0x000000000000658c       0x60 ../DECA_socket_server_bsp/\libucosii_bsp.a(alt_read.o)
 .debug_frame   0x00000000000065ec       0x34 ../DECA_socket_server_bsp/\libucosii_bsp.a(alt_release_fd.o)
 .debug_frame   0x0000000000006620       0x34 ../DECA_socket_server_bsp/\libucosii_bsp.a(alt_remap_cached.o)
 .debug_frame   0x0000000000006654       0x5c ../DECA_socket_server_bsp/\libucosii_bsp.a(alt_tick.o)
 .debug_frame   0x00000000000066b0       0x38 ../DECA_socket_server_bsp/\libucosii_bsp.a(alt_uncached_free.o)
 .debug_frame   0x00000000000066e8       0x38 ../DECA_socket_server_bsp/\libucosii_bsp.a(alt_uncached_malloc.o)
 .debug_frame   0x0000000000006720       0x60 ../DECA_socket_server_bsp/\libucosii_bsp.a(alt_write.o)
 .debug_frame   0x0000000000006780       0x34 ../DECA_socket_server_bsp/\libucosii_bsp.a(altera_nios2_gen2_irq.o)
 .debug_frame   0x00000000000067b4      0x180 ../DECA_socket_server_bsp/\libucosii_bsp.a(os_cpu_c.o)
 .debug_frame   0x0000000000006934      0x134 ../DECA_socket_server_bsp/\libucosii_bsp.a(allports.o)
 .debug_frame   0x0000000000006a68       0xb0 ../DECA_socket_server_bsp/\libucosii_bsp.a(timeouts.o)
 .debug_frame   0x0000000000006b18       0x5c ../DECA_socket_server_bsp/\libucosii_bsp.a(tk_misc.o)
 .debug_frame   0x0000000000006b74       0x38 ../DECA_socket_server_bsp/\libucosii_bsp.a(alt_iniche_fcntl.o)
 .debug_frame   0x0000000000006bac      0x1f0 ../DECA_socket_server_bsp/\libucosii_bsp.a(et_arp.o)
 .debug_frame   0x0000000000006d9c       0xac ../DECA_socket_server_bsp/\libucosii_bsp.a(iface.o)
 .debug_frame   0x0000000000006e48      0x1f0 ../DECA_socket_server_bsp/\libucosii_bsp.a(ip.o)
 .debug_frame   0x0000000000007038      0x280 ../DECA_socket_server_bsp/\libucosii_bsp.a(ip_reasm.o)
 .debug_frame   0x00000000000072b8       0x90 ../DECA_socket_server_bsp/\libucosii_bsp.a(ipdemux.o)
 .debug_frame   0x0000000000007348       0x84 ../DECA_socket_server_bsp/\libucosii_bsp.a(ipmc.o)
 .debug_frame   0x00000000000073cc       0x78 ../DECA_socket_server_bsp/\libucosii_bsp.a(ipport.o)
 .debug_frame   0x0000000000007444       0xfc ../DECA_socket_server_bsp/\libucosii_bsp.a(ipraw.o)
 .debug_frame   0x0000000000007540       0x84 ../DECA_socket_server_bsp/\libucosii_bsp.a(iproute.o)
 .debug_frame   0x00000000000075c4      0x11c ../DECA_socket_server_bsp/\libucosii_bsp.a(udp.o)
 .debug_frame   0x00000000000076e0       0x38 ../DECA_socket_server_bsp/\libucosii_bsp.a(igmp.o)
 .debug_frame   0x0000000000007718       0xd4 ../DECA_socket_server_bsp/\libucosii_bsp.a(igmp2.o)
 .debug_frame   0x00000000000077ec       0xb0 ../DECA_socket_server_bsp/\libucosii_bsp.a(ipopt.o)
 .debug_frame   0x000000000000789c       0x64 ../DECA_socket_server_bsp/\libucosii_bsp.a(u_mctest.o)
 .debug_frame   0x0000000000007900       0x60 ../DECA_socket_server_bsp/\libucosii_bsp.a(dhcsetup.o)
 .debug_frame   0x0000000000007960      0x158 ../DECA_socket_server_bsp/\libucosii_bsp.a(memdev.o)
 .debug_frame   0x0000000000007ab8      0x16c ../DECA_socket_server_bsp/\libucosii_bsp.a(parseip.o)
 .debug_frame   0x0000000000007c24       0x38 ../DECA_socket_server_bsp/\libucosii_bsp.a(tcpcksum.o)
 .debug_frame   0x0000000000007c5c      0x14c ../DECA_socket_server_bsp/\libucosii_bsp.a(in_pcb.o)
 .debug_frame   0x0000000000007da8      0x460 ../DECA_socket_server_bsp/\libucosii_bsp.a(vfsfiles.o)
 .debug_frame   0x0000000000008208       0x34 ../DECA_socket_server_bsp/\libucosii_bsp.a(vfsport.o)
 .debug_frame   0x000000000000823c       0x60 ../DECA_socket_server_bsp/\libucosii_bsp.a(alt_fcntl.o)
 .debug_frame   0x000000000000829c       0x38 ../DECA_socket_server_bsp/\libucosii_bsp.a(alt_find_file.o)
 .debug_frame   0x00000000000082d4       0x38 ../DECA_socket_server_bsp/\libucosii_bsp.a(alt_get_fd.o)
 .debug_frame   0x000000000000830c       0x34 ../DECA_socket_server_bsp/\libucosii_bsp.a(alt_icache_flush.o)
 .debug_frame   0x0000000000008340       0x5c ../DECA_socket_server_bsp/\libucosii_bsp.a(alt_instruction_exception_entry.o)
 .debug_frame   0x000000000000839c       0xbc ../DECA_socket_server_bsp/\libucosii_bsp.a(icmp.o)
 .debug_frame   0x0000000000008458       0x20 c:/altera/15.0/nios2eds/bin/gnu/h-x86_64-mingw32/bin/../lib/gcc/nios2-elf/4.9.1/../../../../../H-x86_64-mingw32/nios2-elf/lib\libc.a(lib_a-atexit.o)
 .debug_frame   0x0000000000008478       0x30 c:/altera/15.0/nios2eds/bin/gnu/h-x86_64-mingw32/bin/../lib/gcc/nios2-elf/4.9.1/../../../../../H-x86_64-mingw32/nios2-elf/lib\libc.a(lib_a-atoi.o)
 .debug_frame   0x00000000000084a8       0x28 c:/altera/15.0/nios2eds/bin/gnu/h-x86_64-mingw32/bin/../lib/gcc/nios2-elf/4.9.1/../../../../../H-x86_64-mingw32/nios2-elf/lib\libc.a(lib_a-exit.o)
 .debug_frame   0x00000000000084d0       0x20 c:/altera/15.0/nios2eds/bin/gnu/h-x86_64-mingw32/bin/../lib/gcc/nios2-elf/4.9.1/../../../../../H-x86_64-mingw32/nios2-elf/lib\libc.a(lib_a-malign.o)
 .debug_frame   0x00000000000084f0       0x58 c:/altera/15.0/nios2eds/bin/gnu/h-x86_64-mingw32/bin/../lib/gcc/nios2-elf/4.9.1/../../../../../H-x86_64-mingw32/nios2-elf/lib\libc.a(lib_a-malignr.o)
 .debug_frame   0x0000000000008548       0x20 c:/altera/15.0/nios2eds/bin/gnu/h-x86_64-mingw32/bin/../lib/gcc/nios2-elf/4.9.1/../../../../../H-x86_64-mingw32/nios2-elf/lib\libc.a(lib_a-memcmp.o)
 .debug_frame   0x0000000000008568       0x20 c:/altera/15.0/nios2eds/bin/gnu/h-x86_64-mingw32/bin/../lib/gcc/nios2-elf/4.9.1/../../../../../H-x86_64-mingw32/nios2-elf/lib\libc.a(lib_a-strncmp.o)
 .debug_frame   0x0000000000008588       0x20 c:/altera/15.0/nios2eds/bin/gnu/h-x86_64-mingw32/bin/../lib/gcc/nios2-elf/4.9.1/../../../../../H-x86_64-mingw32/nios2-elf/lib\libc.a(lib_a-strncpy.o)
 .debug_frame   0x00000000000085a8       0x68 c:/altera/15.0/nios2eds/bin/gnu/h-x86_64-mingw32/bin/../lib/gcc/nios2-elf/4.9.1/../../../../../H-x86_64-mingw32/nios2-elf/lib\libc.a(lib_a-strtol.o)
 .debug_frame   0x0000000000008610       0x30 c:/altera/15.0/nios2eds/bin/gnu/h-x86_64-mingw32/bin/../lib/gcc/nios2-elf/4.9.1/../../../../../H-x86_64-mingw32/nios2-elf/lib\libc.a(lib_a-vprintf.o)
 .debug_frame   0x0000000000008640       0x3c c:/altera/15.0/nios2eds/bin/gnu/h-x86_64-mingw32/bin/../lib/gcc/nios2-elf/4.9.1/../../../../../H-x86_64-mingw32/nios2-elf/lib\libc.a(lib_a-vsprintf.o)
 .debug_frame   0x000000000000867c       0x38 c:/altera/15.0/nios2eds/bin/gnu/h-x86_64-mingw32/bin/../lib/gcc/nios2-elf/4.9.1/../../../../../H-x86_64-mingw32/nios2-elf/lib\libc.a(lib_a-__atexit.o)
 .debug_frame   0x00000000000086b4       0x54 c:/altera/15.0/nios2eds/bin/gnu/h-x86_64-mingw32/bin/../lib/gcc/nios2-elf/4.9.1/../../../../../H-x86_64-mingw32/nios2-elf/lib\libc.a(lib_a-__call_atexit.o)
 .debug_frame   0x0000000000008708       0x2c c:/altera/15.0/nios2eds/bin/gnu/h-x86_64-mingw32/bin/../lib/gcc/nios2-elf/4.9.1/../../../../../H-x86_64-mingw32/nios2-elf/lib\libc.a(lib_a-vfprintfr_1.o)
 .debug_frame   0x0000000000008734       0x2c ../DECA_socket_server_bsp/\libucosii_bsp.a(alt_exit.o)

.debug_str      0x0000000000000000     0xb82b
 *(.debug_str)
 .debug_str     0x0000000000000000      0x4e5 obj/default/alt_error_handler.o
                                        0x5b5 (size before relaxing)
 .debug_str     0x00000000000004e5       0x7b obj/default/iniche_init.o
                                        0x207 (size before relaxing)
 .debug_str     0x0000000000000560     0x1acf obj/default/ins_tse/altera_avalon_tse.o
                                       0x1d26 (size before relaxing)
 .debug_str     0x000000000000202f      0x166 obj/default/led.o
                                        0x2bf (size before relaxing)
 .debug_str     0x0000000000002195      0x448 obj/default/network_utilities.o
                                        0xa0c (size before relaxing)
 .debug_str     0x00000000000025dd      0x209 obj/default/simple_socket_server.o
                                        0x49d (size before relaxing)
 .debug_str     0x00000000000027e6       0x10 obj/default/tse_my_system.o
                                        0x908 (size before relaxing)
 .debug_str     0x00000000000027f6       0xfd c:/altera/15.0/nios2eds/bin/gnu/h-x86_64-mingw32/bin/../lib/gcc/nios2-elf/4.9.1/../../../../../H-x86_64-mingw32/nios2-elf/lib\libc.a(lib_a-ctype_.o)
                                        0x119 (size before relaxing)
 .debug_str     0x00000000000028f3      0x106 c:/altera/15.0/nios2eds/bin/gnu/h-x86_64-mingw32/bin/../lib/gcc/nios2-elf/4.9.1/../../../../../H-x86_64-mingw32/nios2-elf/lib\libc.a(lib_a-fprintf.o)
                                        0x583 (size before relaxing)
 .debug_str     0x00000000000029f9       0x95 c:/altera/15.0/nios2eds/bin/gnu/h-x86_64-mingw32/bin/../lib/gcc/nios2-elf/4.9.1/../../../../../H-x86_64-mingw32/nios2-elf/lib\libc.a(lib_a-fwrite.o)
                                        0x5b2 (size before relaxing)
 .debug_str     0x0000000000002a8e       0x70 c:/altera/15.0/nios2eds/bin/gnu/h-x86_64-mingw32/bin/../lib/gcc/nios2-elf/4.9.1/../../../../../H-x86_64-mingw32/nios2-elf/lib\libc.a(lib_a-getc.o)
                                        0x588 (size before relaxing)
 .debug_str     0x0000000000002afe       0xdc c:/altera/15.0/nios2eds/bin/gnu/h-x86_64-mingw32/bin/../lib/gcc/nios2-elf/4.9.1/../../../../../H-x86_64-mingw32/nios2-elf/lib\libc.a(lib_a-impure.o)
                                        0x558 (size before relaxing)
 .debug_str     0x0000000000002bda       0xdd c:/altera/15.0/nios2eds/bin/gnu/h-x86_64-mingw32/bin/../lib/gcc/nios2-elf/4.9.1/../../../../../H-x86_64-mingw32/nios2-elf/lib\libc.a(lib_a-malloc.o)
                                        0x56c (size before relaxing)
 .debug_str     0x0000000000002cb7      0x22e c:/altera/15.0/nios2eds/bin/gnu/h-x86_64-mingw32/bin/../lib/gcc/nios2-elf/4.9.1/../../../../../H-x86_64-mingw32/nios2-elf/lib\libc.a(lib_a-mallocr.o)
                                        0x767 (size before relaxing)
 .debug_str     0x0000000000002ee5       0xed c:/altera/15.0/nios2eds/bin/gnu/h-x86_64-mingw32/bin/../lib/gcc/nios2-elf/4.9.1/../../../../../H-x86_64-mingw32/nios2-elf/lib\libc.a(lib_a-memcpy.o)
                                        0x1b5 (size before relaxing)
 .debug_str     0x0000000000002fd2       0x56 c:/altera/15.0/nios2eds/bin/gnu/h-x86_64-mingw32/bin/../lib/gcc/nios2-elf/4.9.1/../../../../../H-x86_64-mingw32/nios2-elf/lib\libc.a(lib_a-memmove.o)
                                        0x1c1 (size before relaxing)
 .debug_str     0x0000000000003028       0x4f c:/altera/15.0/nios2eds/bin/gnu/h-x86_64-mingw32/bin/../lib/gcc/nios2-elf/4.9.1/../../../../../H-x86_64-mingw32/nios2-elf/lib\libc.a(lib_a-memset.o)
                                        0x1a2 (size before relaxing)
 .debug_str     0x0000000000003077       0x57 c:/altera/15.0/nios2eds/bin/gnu/h-x86_64-mingw32/bin/../lib/gcc/nios2-elf/4.9.1/../../../../../H-x86_64-mingw32/nios2-elf/lib\libc.a(lib_a-perror.o)
                                        0x56a (size before relaxing)
 .debug_str     0x00000000000030ce       0x5b c:/altera/15.0/nios2eds/bin/gnu/h-x86_64-mingw32/bin/../lib/gcc/nios2-elf/4.9.1/../../../../../H-x86_64-mingw32/nios2-elf/lib\libc.a(lib_a-printf.o)
                                        0x5a3 (size before relaxing)
 .debug_str     0x0000000000003129       0x4a c:/altera/15.0/nios2eds/bin/gnu/h-x86_64-mingw32/bin/../lib/gcc/nios2-elf/4.9.1/../../../../../H-x86_64-mingw32/nios2-elf/lib\libc.a(lib_a-putc.o)
                                        0x562 (size before relaxing)
 .debug_str     0x0000000000003173       0x4e c:/altera/15.0/nios2eds/bin/gnu/h-x86_64-mingw32/bin/../lib/gcc/nios2-elf/4.9.1/../../../../../H-x86_64-mingw32/nios2-elf/lib\libc.a(lib_a-putchar.o)
                                        0x55a (size before relaxing)
 .debug_str     0x00000000000031c1       0x47 c:/altera/15.0/nios2eds/bin/gnu/h-x86_64-mingw32/bin/../lib/gcc/nios2-elf/4.9.1/../../../../../H-x86_64-mingw32/nios2-elf/lib\libc.a(lib_a-puts.o)
                                        0x5a0 (size before relaxing)
 .debug_str     0x0000000000003208       0x4c c:/altera/15.0/nios2eds/bin/gnu/h-x86_64-mingw32/bin/../lib/gcc/nios2-elf/4.9.1/../../../../../H-x86_64-mingw32/nios2-elf/lib\libc.a(lib_a-rget.o)
                                        0x562 (size before relaxing)
 .debug_str     0x0000000000003254       0x43 c:/altera/15.0/nios2eds/bin/gnu/h-x86_64-mingw32/bin/../lib/gcc/nios2-elf/4.9.1/../../../../../H-x86_64-mingw32/nios2-elf/lib\libc.a(lib_a-sbrkr.o)
                                        0x54e (size before relaxing)
 .debug_str     0x0000000000003297       0x5e c:/altera/15.0/nios2eds/bin/gnu/h-x86_64-mingw32/bin/../lib/gcc/nios2-elf/4.9.1/../../../../../H-x86_64-mingw32/nios2-elf/lib\libc.a(lib_a-sprintf.o)
                                        0x593 (size before relaxing)
 .debug_str     0x00000000000032f5       0x42 c:/altera/15.0/nios2eds/bin/gnu/h-x86_64-mingw32/bin/../lib/gcc/nios2-elf/4.9.1/../../../../../H-x86_64-mingw32/nios2-elf/lib\libc.a(lib_a-strchr.o)
                                        0x199 (size before relaxing)
 .debug_str     0x0000000000003337       0x42 c:/altera/15.0/nios2eds/bin/gnu/h-x86_64-mingw32/bin/../lib/gcc/nios2-elf/4.9.1/../../../../../H-x86_64-mingw32/nios2-elf/lib\libc.a(lib_a-strcpy.o)
                                        0x1a9 (size before relaxing)
 .debug_str     0x0000000000003379       0x53 c:/altera/15.0/nios2eds/bin/gnu/h-x86_64-mingw32/bin/../lib/gcc/nios2-elf/4.9.1/../../../../../H-x86_64-mingw32/nios2-elf/lib\libc.a(lib_a-strerror.o)
                                        0x1a7 (size before relaxing)
 .debug_str     0x00000000000033cc       0x3b c:/altera/15.0/nios2eds/bin/gnu/h-x86_64-mingw32/bin/../lib/gcc/nios2-elf/4.9.1/../../../../../H-x86_64-mingw32/nios2-elf/lib\libc.a(lib_a-strlen.o)
                                        0x1a1 (size before relaxing)
 .debug_str     0x0000000000003407      0x2b1 c:/altera/15.0/nios2eds/bin/gnu/h-x86_64-mingw32/bin/../lib/gcc/nios2-elf/4.9.1/../../../../../H-x86_64-mingw32/nios2-elf/lib\libc.a(lib_a-svfprintf.o)
                                        0x8e9 (size before relaxing)
 .debug_str     0x00000000000036b8       0x3d c:/altera/15.0/nios2eds/bin/gnu/h-x86_64-mingw32/bin/../lib/gcc/nios2-elf/4.9.1/../../../../../H-x86_64-mingw32/nios2-elf/lib\libc.a(lib_a-u_strerr.o)
                                        0x10b (size before relaxing)
 .debug_str     0x00000000000036f5       0x36 c:/altera/15.0/nios2eds/bin/gnu/h-x86_64-mingw32/bin/../lib/gcc/nios2-elf/4.9.1/../../../../../H-x86_64-mingw32/nios2-elf/lib\libc.a(lib_a-vfprintf.o)
                                        0x937 (size before relaxing)
 .debug_str     0x000000000000372b       0x40 c:/altera/15.0/nios2eds/bin/gnu/h-x86_64-mingw32/bin/../lib/gcc/nios2-elf/4.9.1/../../../../../H-x86_64-mingw32/nios2-elf/lib\libc.a(lib_a-wbuf.o)
                                        0x56c (size before relaxing)
 .debug_str     0x000000000000376b       0x47 c:/altera/15.0/nios2eds/bin/gnu/h-x86_64-mingw32/bin/../lib/gcc/nios2-elf/4.9.1/../../../../../H-x86_64-mingw32/nios2-elf/lib\libc.a(lib_a-wsetup.o)
                                        0x567 (size before relaxing)
 .debug_str     0x00000000000037b2      0x157 c:/altera/15.0/nios2eds/bin/gnu/h-x86_64-mingw32/bin/../lib/gcc/nios2-elf/4.9.1/../../../../../H-x86_64-mingw32/nios2-elf/lib\libc.a(lib_a-dtoa.o)
                                        0x6aa (size before relaxing)
 .debug_str     0x0000000000003909       0x4b c:/altera/15.0/nios2eds/bin/gnu/h-x86_64-mingw32/bin/../lib/gcc/nios2-elf/4.9.1/../../../../../H-x86_64-mingw32/nios2-elf/lib\libc.a(lib_a-fflush.o)
                                        0x597 (size before relaxing)
 .debug_str     0x0000000000003954       0xce c:/altera/15.0/nios2eds/bin/gnu/h-x86_64-mingw32/bin/../lib/gcc/nios2-elf/4.9.1/../../../../../H-x86_64-mingw32/nios2-elf/lib\libc.a(lib_a-findfp.o)
                                        0x651 (size before relaxing)
 .debug_str     0x0000000000003a22       0x42 c:/altera/15.0/nios2eds/bin/gnu/h-x86_64-mingw32/bin/../lib/gcc/nios2-elf/4.9.1/../../../../../H-x86_64-mingw32/nios2-elf/lib\libc.a(lib_a-fputc.o)
                                        0x568 (size before relaxing)
 .debug_str     0x0000000000003a64       0x42 c:/altera/15.0/nios2eds/bin/gnu/h-x86_64-mingw32/bin/../lib/gcc/nios2-elf/4.9.1/../../../../../H-x86_64-mingw32/nios2-elf/lib\libc.a(lib_a-fputs.o)
                                        0x5b2 (size before relaxing)
 .debug_str     0x0000000000003aa6       0x34 c:/altera/15.0/nios2eds/bin/gnu/h-x86_64-mingw32/bin/../lib/gcc/nios2-elf/4.9.1/../../../../../H-x86_64-mingw32/nios2-elf/lib\libc.a(lib_a-freer.o)
                                        0x6b1 (size before relaxing)
 .debug_str     0x0000000000003ada       0x64 c:/altera/15.0/nios2eds/bin/gnu/h-x86_64-mingw32/bin/../lib/gcc/nios2-elf/4.9.1/../../../../../H-x86_64-mingw32/nios2-elf/lib\libc.a(lib_a-fvwrite.o)
                                        0x5ea (size before relaxing)
 .debug_str     0x0000000000003b3e       0x5e c:/altera/15.0/nios2eds/bin/gnu/h-x86_64-mingw32/bin/../lib/gcc/nios2-elf/4.9.1/../../../../../H-x86_64-mingw32/nios2-elf/lib\libc.a(lib_a-fwalk.o)
                                        0x599 (size before relaxing)
 .debug_str     0x0000000000003b9c       0x3d c:/altera/15.0/nios2eds/bin/gnu/h-x86_64-mingw32/bin/../lib/gcc/nios2-elf/4.9.1/../../../../../H-x86_64-mingw32/nios2-elf/lib\libc.a(lib_a-int_errno.o)
                                        0x187 (size before relaxing)
 .debug_str     0x0000000000003bd9      0x1a6 c:/altera/15.0/nios2eds/bin/gnu/h-x86_64-mingw32/bin/../lib/gcc/nios2-elf/4.9.1/../../../../../H-x86_64-mingw32/nios2-elf/lib\libc.a(lib_a-locale.o)
                                        0x7b5 (size before relaxing)
 .debug_str     0x0000000000003d7f      0x121 c:/altera/15.0/nios2eds/bin/gnu/h-x86_64-mingw32/bin/../lib/gcc/nios2-elf/4.9.1/../../../../../H-x86_64-mingw32/nios2-elf/lib\libc.a(lib_a-makebuf.o)
                                        0x661 (size before relaxing)
 .debug_str     0x0000000000003ea0       0x40 c:/altera/15.0/nios2eds/bin/gnu/h-x86_64-mingw32/bin/../lib/gcc/nios2-elf/4.9.1/../../../../../H-x86_64-mingw32/nios2-elf/lib\libc.a(lib_a-memchr.o)
                                        0x1a8 (size before relaxing)
 .debug_str     0x0000000000003ee0       0xa5 c:/altera/15.0/nios2eds/bin/gnu/h-x86_64-mingw32/bin/../lib/gcc/nios2-elf/4.9.1/../../../../../H-x86_64-mingw32/nios2-elf/lib\libc.a(lib_a-mprec.o)
                                        0x664 (size before relaxing)
 .debug_str     0x0000000000003f85       0x49 c:/altera/15.0/nios2eds/bin/gnu/h-x86_64-mingw32/bin/../lib/gcc/nios2-elf/4.9.1/../../../../../H-x86_64-mingw32/nios2-elf/lib\libc.a(lib_a-reallocr.o)
                                        0x639 (size before relaxing)
 .debug_str     0x0000000000003fce       0x41 c:/altera/15.0/nios2eds/bin/gnu/h-x86_64-mingw32/bin/../lib/gcc/nios2-elf/4.9.1/../../../../../H-x86_64-mingw32/nios2-elf/lib\libc.a(lib_a-refill.o)
                                        0x58d (size before relaxing)
 .debug_str     0x000000000000400f       0xc5 c:/altera/15.0/nios2eds/bin/gnu/h-x86_64-mingw32/bin/../lib/gcc/nios2-elf/4.9.1/../../../../../H-x86_64-mingw32/nios2-elf/lib\libc.a(lib_a-s_fpclassify.o)
                                        0x1b8 (size before relaxing)
 .debug_str     0x00000000000040d4       0x99 c:/altera/15.0/nios2eds/bin/gnu/h-x86_64-mingw32/bin/../lib/gcc/nios2-elf/4.9.1/../../../../../H-x86_64-mingw32/nios2-elf/lib\libc.a(lib_a-stdio.o)
                                        0x5b2 (size before relaxing)
 .debug_str     0x000000000000416d       0x3b c:/altera/15.0/nios2eds/bin/gnu/h-x86_64-mingw32/bin/../lib/gcc/nios2-elf/4.9.1/../../../../../H-x86_64-mingw32/nios2-elf/lib\libc.a(lib_a-strcmp.o)
                                        0x187 (size before relaxing)
 .debug_str     0x00000000000041a8       0x19 c:/altera/15.0/nios2eds/bin/gnu/h-x86_64-mingw32/bin/../lib/gcc/nios2-elf/4.9.1/../../../../../H-x86_64-mingw32/nios2-elf/lib\libc.a(lib_a-svfiprintf.o)
                                        0x6ec (size before relaxing)
 .debug_str     0x00000000000041c1       0x3f c:/altera/15.0/nios2eds/bin/gnu/h-x86_64-mingw32/bin/../lib/gcc/nios2-elf/4.9.1/../../../../../H-x86_64-mingw32/nios2-elf/lib\libc.a(lib_a-vfiprintf.o)
                                        0x729 (size before relaxing)
 .debug_str     0x0000000000004200       0x3a c:/altera/15.0/nios2eds/bin/gnu/h-x86_64-mingw32/bin/../lib/gcc/nios2-elf/4.9.1/../../../../../H-x86_64-mingw32/nios2-elf/lib\libc.a(lib_a-writer.o)
                                        0x552 (size before relaxing)
 .debug_str     0x000000000000423a       0x3a c:/altera/15.0/nios2eds/bin/gnu/h-x86_64-mingw32/bin/../lib/gcc/nios2-elf/4.9.1/../../../../../H-x86_64-mingw32/nios2-elf/lib\libc.a(closer.o)
                                        0x542 (size before relaxing)
 .debug_str     0x0000000000004274        0xf c:/altera/15.0/nios2eds/bin/gnu/h-x86_64-mingw32/bin/../lib/gcc/nios2-elf/4.9.1/../../../../../H-x86_64-mingw32/nios2-elf/lib\libc.a(lib_a-callocr.o)
                                        0x591 (size before relaxing)
 .debug_str     0x0000000000004283       0x44 c:/altera/15.0/nios2eds/bin/gnu/h-x86_64-mingw32/bin/../lib/gcc/nios2-elf/4.9.1/../../../../../H-x86_64-mingw32/nios2-elf/lib\libc.a(lib_a-fclose.o)
                                        0x594 (size before relaxing)
 .debug_str     0x00000000000042c7       0x4e c:/altera/15.0/nios2eds/bin/gnu/h-x86_64-mingw32/bin/../lib/gcc/nios2-elf/4.9.1/../../../../../H-x86_64-mingw32/nios2-elf/lib\libc.a(lib_a-fputwc.o)
                                        0x5a2 (size before relaxing)
 .debug_str     0x0000000000004315       0x40 c:/altera/15.0/nios2eds/bin/gnu/h-x86_64-mingw32/bin/../lib/gcc/nios2-elf/4.9.1/../../../../../H-x86_64-mingw32/nios2-elf/lib\libc.a(lib_a-fstatr.o)
                                        0x635 (size before relaxing)
 .debug_str     0x0000000000004355       0x42 c:/altera/15.0/nios2eds/bin/gnu/h-x86_64-mingw32/bin/../lib/gcc/nios2-elf/4.9.1/../../../../../H-x86_64-mingw32/nios2-elf/lib\libc.a(lib_a-isattyr.o)
                                        0x545 (size before relaxing)
 .debug_str     0x0000000000004397       0x40 c:/altera/15.0/nios2eds/bin/gnu/h-x86_64-mingw32/bin/../lib/gcc/nios2-elf/4.9.1/../../../../../H-x86_64-mingw32/nios2-elf/lib\libc.a(lib_a-lseekr.o)
                                        0x556 (size before relaxing)
 .debug_str     0x00000000000043d7       0x39 c:/altera/15.0/nios2eds/bin/gnu/h-x86_64-mingw32/bin/../lib/gcc/nios2-elf/4.9.1/../../../../../H-x86_64-mingw32/nios2-elf/lib\libc.a(lib_a-readr.o)
                                        0x54f (size before relaxing)
 .debug_str     0x0000000000004410       0x54 c:/altera/15.0/nios2eds/bin/gnu/h-x86_64-mingw32/bin/../lib/gcc/nios2-elf/4.9.1/../../../../../H-x86_64-mingw32/nios2-elf/lib\libc.a(lib_a-wcrtomb.o)
                                        0x589 (size before relaxing)
 .debug_str     0x0000000000004464       0x5d c:/altera/15.0/nios2eds/bin/gnu/h-x86_64-mingw32/bin/../lib/gcc/nios2-elf/4.9.1/../../../../../H-x86_64-mingw32/nios2-elf/lib\libc.a(lib_a-wctomb_r.o)
                                        0x598 (size before relaxing)
 .debug_str     0x00000000000044c1      0x1e7 c:/altera/15.0/nios2eds/bin/gnu/h-x86_64-mingw32/bin/../lib/gcc/nios2-elf/4.9.1\libgcc.a(_udivdi3.o)
                                        0x274 (size before relaxing)
 .debug_str     0x00000000000046a8        0xa c:/altera/15.0/nios2eds/bin/gnu/h-x86_64-mingw32/bin/../lib/gcc/nios2-elf/4.9.1\libgcc.a(_umoddi3.o)
                                        0x274 (size before relaxing)
 .debug_str     0x00000000000046b2       0xee c:/altera/15.0/nios2eds/bin/gnu/h-x86_64-mingw32/bin/../lib/gcc/nios2-elf/4.9.1\libgcc.a(lib2-divmod.o)
                                        0x1b6 (size before relaxing)
 .debug_str     0x00000000000047a0       0xcc c:/altera/15.0/nios2eds/bin/gnu/h-x86_64-mingw32/bin/../lib/gcc/nios2-elf/4.9.1\libgcc.a(adddf3.o)
                                        0x248 (size before relaxing)
 .debug_str     0x000000000000486c       0x8a c:/altera/15.0/nios2eds/bin/gnu/h-x86_64-mingw32/bin/../lib/gcc/nios2-elf/4.9.1\libgcc.a(divdf3.o)
                                        0x289 (size before relaxing)
 .debug_str     0x00000000000048f6       0x34 c:/altera/15.0/nios2eds/bin/gnu/h-x86_64-mingw32/bin/../lib/gcc/nios2-elf/4.9.1\libgcc.a(eqdf2.o)
                                        0x1e3 (size before relaxing)
 .debug_str     0x000000000000492a       0x4c c:/altera/15.0/nios2eds/bin/gnu/h-x86_64-mingw32/bin/../lib/gcc/nios2-elf/4.9.1\libgcc.a(gedf2.o)
                                        0x1fb (size before relaxing)
 .debug_str     0x0000000000004976       0x34 c:/altera/15.0/nios2eds/bin/gnu/h-x86_64-mingw32/bin/../lib/gcc/nios2-elf/4.9.1\libgcc.a(ledf2.o)
                                        0x1fb (size before relaxing)
 .debug_str     0x00000000000049aa       0x8d c:/altera/15.0/nios2eds/bin/gnu/h-x86_64-mingw32/bin/../lib/gcc/nios2-elf/4.9.1\libgcc.a(muldf3.o)
                                        0x2a1 (size before relaxing)
 .debug_str     0x0000000000004a37       0x36 c:/altera/15.0/nios2eds/bin/gnu/h-x86_64-mingw32/bin/../lib/gcc/nios2-elf/4.9.1\libgcc.a(subdf3.o)
                                        0x248 (size before relaxing)
 .debug_str     0x0000000000004a6d       0x40 c:/altera/15.0/nios2eds/bin/gnu/h-x86_64-mingw32/bin/../lib/gcc/nios2-elf/4.9.1\libgcc.a(fixdfsi.o)
                                        0x1f4 (size before relaxing)
 .debug_str     0x0000000000004aad       0x49 c:/altera/15.0/nios2eds/bin/gnu/h-x86_64-mingw32/bin/../lib/gcc/nios2-elf/4.9.1\libgcc.a(floatsidf.o)
                                        0x1f8 (size before relaxing)
 .debug_str     0x0000000000004af6       0x40 c:/altera/15.0/nios2eds/bin/gnu/h-x86_64-mingw32/bin/../lib/gcc/nios2-elf/4.9.1\libgcc.a(floatunsidf.o)
                                        0x1f5 (size before relaxing)
 .debug_str     0x0000000000000000      0x1bb c:/altera/15.0/nios2eds/bin/gnu/h-x86_64-mingw32/bin/../lib/gcc/nios2-elf/4.9.1\libgcc.a(_clz.o)
 .debug_str     0x0000000000004b36        0x9 c:/altera/15.0/nios2eds/bin/gnu/h-x86_64-mingw32/bin/../lib/gcc/nios2-elf/4.9.1\libgcc.a(_clzsi2.o)
                                        0x1d8 (size before relaxing)
 .debug_str     0x0000000000004b3f       0xb6 ../DECA_socket_server_bsp/\libucosii_bsp.a(alt_fstat.o)
                                        0x310 (size before relaxing)
 .debug_str     0x0000000000004bf5       0x15 ../DECA_socket_server_bsp/\libucosii_bsp.a(alt_isatty.o)
                                        0x318 (size before relaxing)
 .debug_str     0x0000000000004c0a       0xe4 ../DECA_socket_server_bsp/\libucosii_bsp.a(alt_load.o)
                                        0x206 (size before relaxing)
 .debug_str     0x0000000000004cee       0x14 ../DECA_socket_server_bsp/\libucosii_bsp.a(alt_lseek.o)
                                        0x235 (size before relaxing)
 .debug_str     0x0000000000004d02       0x6e ../DECA_socket_server_bsp/\libucosii_bsp.a(alt_main.o)
                                        0x254 (size before relaxing)
 .debug_str     0x0000000000004d70       0x98 ../DECA_socket_server_bsp/\libucosii_bsp.a(alt_sbrk.o)
                                        0x1c8 (size before relaxing)
 .debug_str     0x0000000000004e08       0x3b ../DECA_socket_server_bsp/\libucosii_bsp.a(alt_usleep.o)
                                        0x1aa (size before relaxing)
 .debug_str     0x0000000000004e43      0x236 ../DECA_socket_server_bsp/\libucosii_bsp.a(alt_env_lock.o)
                                        0x7b5 (size before relaxing)
 .debug_str     0x0000000000005079       0x24 ../DECA_socket_server_bsp/\libucosii_bsp.a(alt_malloc_lock.o)
                                        0x817 (size before relaxing)
 .debug_str     0x000000000000509d      0x4ed ../DECA_socket_server_bsp/\libucosii_bsp.a(os_core.o)
                                        0x94a (size before relaxing)
 .debug_str     0x000000000000558a      0x2e5 ../DECA_socket_server_bsp/\libucosii_bsp.a(os_dbg.o)
                                        0x8b9 (size before relaxing)
 .debug_str     0x000000000000586f      0x136 ../DECA_socket_server_bsp/\libucosii_bsp.a(os_flag.o)
                                        0x5e6 (size before relaxing)
 .debug_str     0x00000000000059a5       0xca ../DECA_socket_server_bsp/\libucosii_bsp.a(os_mem.o)
                                        0x2ef (size before relaxing)
 .debug_str     0x0000000000005a6f       0xc0 ../DECA_socket_server_bsp/\libucosii_bsp.a(os_q.o)
                                        0x569 (size before relaxing)
 .debug_str     0x0000000000005b2f       0x77 ../DECA_socket_server_bsp/\libucosii_bsp.a(os_sem.o)
                                        0x4f2 (size before relaxing)
 .debug_str     0x0000000000005ba6       0xfa ../DECA_socket_server_bsp/\libucosii_bsp.a(os_task.o)
                                        0x5f5 (size before relaxing)
 .debug_str     0x0000000000005ca0       0x5d ../DECA_socket_server_bsp/\libucosii_bsp.a(os_time.o)
                                        0x495 (size before relaxing)
 .debug_str     0x0000000000005cfd      0x250 ../DECA_socket_server_bsp/\libucosii_bsp.a(alt_sys_init.o)
                                        0xa61 (size before relaxing)
 .debug_str     0x0000000000005f4d       0xac ../DECA_socket_server_bsp/\libucosii_bsp.a(altera_avalon_jtag_uart_fd.o)
                                        0x488 (size before relaxing)
 .debug_str     0x0000000000005ff9       0xd9 ../DECA_socket_server_bsp/\libucosii_bsp.a(altera_avalon_jtag_uart_init.o)
                                        0x44f (size before relaxing)
 .debug_str     0x00000000000060d2       0x4a ../DECA_socket_server_bsp/\libucosii_bsp.a(altera_avalon_jtag_uart_ioctl.o)
                                        0x377 (size before relaxing)
 .debug_str     0x000000000000611c       0x63 ../DECA_socket_server_bsp/\libucosii_bsp.a(altera_avalon_jtag_uart_read.o)
                                        0x3ea (size before relaxing)
 .debug_str     0x000000000000617f       0x4a ../DECA_socket_server_bsp/\libucosii_bsp.a(altera_avalon_jtag_uart_write.o)
                                        0x3eb (size before relaxing)
 .debug_str     0x00000000000061c9      0x35a ../DECA_socket_server_bsp/\libucosii_bsp.a(altera_avalon_sgdma.o)
                                        0x684 (size before relaxing)
 .debug_str     0x0000000000006523       0x66 ../DECA_socket_server_bsp/\libucosii_bsp.a(altera_avalon_timer_sc.o)
                                        0x23f (size before relaxing)
 .debug_str     0x0000000000006589      0x6b7 ../DECA_socket_server_bsp/\libucosii_bsp.a(ins_tse_mac.o)
                                       0x1957 (size before relaxing)
 .debug_str     0x0000000000006c40       0x1e ../DECA_socket_server_bsp/\libucosii_bsp.a(alt_iniche_close.o)
                                        0x169 (size before relaxing)
 .debug_str     0x0000000000006c5e       0x48 ../DECA_socket_server_bsp/\libucosii_bsp.a(alt_iniche_dev.o)
                                        0x594 (size before relaxing)
 .debug_str     0x0000000000006ca6       0x1d ../DECA_socket_server_bsp/\libucosii_bsp.a(alt_iniche_read.o)
                                        0x16e (size before relaxing)
 .debug_str     0x0000000000006cc3       0x1e ../DECA_socket_server_bsp/\libucosii_bsp.a(alt_iniche_write.o)
                                        0x170 (size before relaxing)
 .debug_str     0x0000000000006ce1       0x92 ../DECA_socket_server_bsp/\libucosii_bsp.a(ipnet.o)
                                        0x578 (size before relaxing)
 .debug_str     0x0000000000006d73       0x77 ../DECA_socket_server_bsp/\libucosii_bsp.a(ipstart.o)
                                        0x558 (size before relaxing)
 .debug_str     0x0000000000006dea      0x580 ../DECA_socket_server_bsp/\libucosii_bsp.a(igmp_cmn.o)
                                        0xa8e (size before relaxing)
 .debug_str     0x000000000000736a      0x25c ../DECA_socket_server_bsp/\libucosii_bsp.a(bsdsock.o)
                                        0x803 (size before relaxing)
 .debug_str     0x00000000000075c6       0x35 ../DECA_socket_server_bsp/\libucosii_bsp.a(cksum.o)
                                        0x18b (size before relaxing)
 .debug_str     0x00000000000075fb      0x11b ../DECA_socket_server_bsp/\libucosii_bsp.a(in_utils.o)
                                        0x2d6 (size before relaxing)
 .debug_str     0x0000000000007716       0x81 ../DECA_socket_server_bsp/\libucosii_bsp.a(netmain.o)
                                        0x2c7 (size before relaxing)
 .debug_str     0x0000000000007797      0x102 ../DECA_socket_server_bsp/\libucosii_bsp.a(tk_crnos.o)
                                        0x4d6 (size before relaxing)
 .debug_str     0x0000000000007899      0x2e6 ../DECA_socket_server_bsp/\libucosii_bsp.a(dhcpclnt.o)
                                        0x7e7 (size before relaxing)
 .debug_str     0x0000000000007b7f       0x2a ../DECA_socket_server_bsp/\libucosii_bsp.a(dhcputil.o)
                                        0x174 (size before relaxing)
 .debug_str     0x0000000000007ba9       0xcd ../DECA_socket_server_bsp/\libucosii_bsp.a(pktalloc.o)
                                        0x5a4 (size before relaxing)
 .debug_str     0x0000000000007c76       0x2d ../DECA_socket_server_bsp/\libucosii_bsp.a(q.o)
                                        0x1ab (size before relaxing)
 .debug_str     0x0000000000007ca3       0x51 ../DECA_socket_server_bsp/\libucosii_bsp.a(udp_open.o)
                                        0x546 (size before relaxing)
 .debug_str     0x0000000000007cf4       0xb2 ../DECA_socket_server_bsp/\libucosii_bsp.a(brdutils.o)
                                        0x60c (size before relaxing)
 .debug_str     0x0000000000007da6       0xd0 ../DECA_socket_server_bsp/\libucosii_bsp.a(osportco.o)
                                        0x35e (size before relaxing)
 .debug_str     0x0000000000007e76       0xe0 ../DECA_socket_server_bsp/\libucosii_bsp.a(targnios.o)
                                        0x33f (size before relaxing)
 .debug_str     0x0000000000007f56      0x804 ../DECA_socket_server_bsp/\libucosii_bsp.a(nptcp.o)
                                        0xf9f (size before relaxing)
 .debug_str     0x000000000000875a       0x92 ../DECA_socket_server_bsp/\libucosii_bsp.a(rawsock.o)
                                        0x7c2 (size before relaxing)
 .debug_str     0x00000000000087ec      0x10e ../DECA_socket_server_bsp/\libucosii_bsp.a(sockcall.o)
                                        0x9a7 (size before relaxing)
 .debug_str     0x00000000000088fa      0x161 ../DECA_socket_server_bsp/\libucosii_bsp.a(socket.o)
                                        0x9e6 (size before relaxing)
 .debug_str     0x0000000000008a5b      0x150 ../DECA_socket_server_bsp/\libucosii_bsp.a(socket2.o)
                                        0x810 (size before relaxing)
 .debug_str     0x0000000000008bab       0x95 ../DECA_socket_server_bsp/\libucosii_bsp.a(soselect.o)
                                        0x79e (size before relaxing)
 .debug_str     0x0000000000008c40      0x143 ../DECA_socket_server_bsp/\libucosii_bsp.a(tcp_in.o)
                                        0xe7f (size before relaxing)
 .debug_str     0x0000000000008d83       0x99 ../DECA_socket_server_bsp/\libucosii_bsp.a(tcp_out.o)
                                        0xdc7 (size before relaxing)
 .debug_str     0x0000000000008e1c       0x8c ../DECA_socket_server_bsp/\libucosii_bsp.a(tcp_subr.o)
                                        0xdba (size before relaxing)
 .debug_str     0x0000000000008ea8       0x72 ../DECA_socket_server_bsp/\libucosii_bsp.a(tcp_timr.o)
                                        0xd93 (size before relaxing)
 .debug_str     0x0000000000008f1a       0x51 ../DECA_socket_server_bsp/\libucosii_bsp.a(tcp_usr.o)
                                        0xd5b (size before relaxing)
 .debug_str     0x0000000000008f6b       0x21 ../DECA_socket_server_bsp/\libucosii_bsp.a(tcpport.o)
                                        0x166 (size before relaxing)
 .debug_str     0x0000000000008f8c       0x99 ../DECA_socket_server_bsp/\libucosii_bsp.a(udpsock.o)
                                        0x7e7 (size before relaxing)
 .debug_str     0x0000000000009025       0x48 ../DECA_socket_server_bsp/\libucosii_bsp.a(alt_alarm_start.o)
                                        0x272 (size before relaxing)
 .debug_str     0x000000000000906d       0x42 ../DECA_socket_server_bsp/\libucosii_bsp.a(alt_busy_sleep.o)
                                        0x15f (size before relaxing)
 .debug_str     0x00000000000090af       0x25 ../DECA_socket_server_bsp/\libucosii_bsp.a(alt_close.o)
                                        0x239 (size before relaxing)
 .debug_str     0x00000000000090d4       0x2c ../DECA_socket_server_bsp/\libucosii_bsp.a(alt_dcache_flush.o)
                                        0x14f (size before relaxing)
 .debug_str     0x0000000000009100       0x34 ../DECA_socket_server_bsp/\libucosii_bsp.a(alt_dcache_flush_all.o)
                                        0x149 (size before relaxing)
 .debug_str     0x0000000000009134       0x49 ../DECA_socket_server_bsp/\libucosii_bsp.a(alt_dev.o)
                                        0x39d (size before relaxing)
 .debug_str     0x000000000000917d       0x34 ../DECA_socket_server_bsp/\libucosii_bsp.a(alt_dev_llist_insert.o)
                                        0x1c0 (size before relaxing)
 .debug_str     0x00000000000091b1       0x48 ../DECA_socket_server_bsp/\libucosii_bsp.a(alt_do_ctors.o)
                                         0xd0 (size before relaxing)
 .debug_str     0x00000000000091f9       0x4c ../DECA_socket_server_bsp/\libucosii_bsp.a(alt_do_dtors.o)
                                         0xcf (size before relaxing)
 .debug_str     0x0000000000009245       0x14 ../DECA_socket_server_bsp/\libucosii_bsp.a(alt_errno.o)
                                        0x139 (size before relaxing)
 .debug_str     0x0000000000009259       0x24 ../DECA_socket_server_bsp/\libucosii_bsp.a(alt_find_dev.o)
                                        0x210 (size before relaxing)
 .debug_str     0x000000000000927d       0x34 ../DECA_socket_server_bsp/\libucosii_bsp.a(alt_icache_flush_all.o)
                                        0x149 (size before relaxing)
 .debug_str     0x00000000000092b1       0xb7 ../DECA_socket_server_bsp/\libucosii_bsp.a(alt_iic.o)
                                        0x232 (size before relaxing)
 .debug_str     0x0000000000009368       0x4c ../DECA_socket_server_bsp/\libucosii_bsp.a(alt_iic_isr_register.o)
                                        0x1dc (size before relaxing)
 .debug_str     0x00000000000093b4       0x56 ../DECA_socket_server_bsp/\libucosii_bsp.a(alt_io_redirect.o)
                                        0x33a (size before relaxing)
 .debug_str     0x000000000000940a       0x3a ../DECA_socket_server_bsp/\libucosii_bsp.a(alt_irq_handler.o)
                                        0x1b3 (size before relaxing)
 .debug_str     0x0000000000009444       0x17 ../DECA_socket_server_bsp/\libucosii_bsp.a(alt_irq_vars.o)
                                        0x13a (size before relaxing)
 .debug_str     0x000000000000945b       0x29 ../DECA_socket_server_bsp/\libucosii_bsp.a(alt_open.o)
                                        0x267 (size before relaxing)
 .debug_str     0x0000000000009484       0x1c ../DECA_socket_server_bsp/\libucosii_bsp.a(alt_read.o)
                                        0x324 (size before relaxing)
 .debug_str     0x00000000000094a0       0x28 ../DECA_socket_server_bsp/\libucosii_bsp.a(alt_release_fd.o)
                                        0x219 (size before relaxing)
 .debug_str     0x00000000000094c8       0x2c ../DECA_socket_server_bsp/\libucosii_bsp.a(alt_remap_cached.o)
                                        0x149 (size before relaxing)
 .debug_str     0x00000000000094f4       0x4a ../DECA_socket_server_bsp/\libucosii_bsp.a(alt_tick.o)
                                        0x253 (size before relaxing)
 .debug_str     0x000000000000953e       0x2e ../DECA_socket_server_bsp/\libucosii_bsp.a(alt_uncached_free.o)
                                        0x14b (size before relaxing)
 .debug_str     0x000000000000956c       0x49 ../DECA_socket_server_bsp/\libucosii_bsp.a(alt_uncached_malloc.o)
                                        0x172 (size before relaxing)
 .debug_str     0x00000000000095b5       0x1e ../DECA_socket_server_bsp/\libucosii_bsp.a(alt_write.o)
                                        0x326 (size before relaxing)
 .debug_str     0x00000000000095d3       0x3b ../DECA_socket_server_bsp/\libucosii_bsp.a(altera_nios2_gen2_irq.o)
                                        0x150 (size before relaxing)
 .debug_str     0x000000000000960e       0xd5 ../DECA_socket_server_bsp/\libucosii_bsp.a(os_cpu_c.o)
                                        0x82a (size before relaxing)
 .debug_str     0x00000000000096e3       0xb8 ../DECA_socket_server_bsp/\libucosii_bsp.a(allports.o)
                                        0x611 (size before relaxing)
 .debug_str     0x000000000000979b       0xa6 ../DECA_socket_server_bsp/\libucosii_bsp.a(timeouts.o)
                                        0x21e (size before relaxing)
 .debug_str     0x0000000000009841       0x39 ../DECA_socket_server_bsp/\libucosii_bsp.a(tk_misc.o)
                                        0x19a (size before relaxing)
 .debug_str     0x000000000000987a       0x1e ../DECA_socket_server_bsp/\libucosii_bsp.a(alt_iniche_fcntl.o)
                                        0x1a2 (size before relaxing)
 .debug_str     0x0000000000009898      0x1e8 ../DECA_socket_server_bsp/\libucosii_bsp.a(et_arp.o)
                                        0x704 (size before relaxing)
 .debug_str     0x0000000000009a80       0x44 ../DECA_socket_server_bsp/\libucosii_bsp.a(iface.o)
                                        0x6fd (size before relaxing)
 .debug_str     0x0000000000009ac4      0x292 ../DECA_socket_server_bsp/\libucosii_bsp.a(ip.o)
                                        0x998 (size before relaxing)
 .debug_str     0x0000000000009d56      0x420 ../DECA_socket_server_bsp/\libucosii_bsp.a(ip_reasm.o)
                                        0xa7b (size before relaxing)
 .debug_str     0x000000000000a176       0x65 ../DECA_socket_server_bsp/\libucosii_bsp.a(ipdemux.o)
                                        0x673 (size before relaxing)
 .debug_str     0x000000000000a1db       0x43 ../DECA_socket_server_bsp/\libucosii_bsp.a(ipmc.o)
                                        0x4d8 (size before relaxing)
 .debug_str     0x000000000000a21e       0x48 ../DECA_socket_server_bsp/\libucosii_bsp.a(ipport.o)
                                        0x1e0 (size before relaxing)
 .debug_str     0x000000000000a266       0xa1 ../DECA_socket_server_bsp/\libucosii_bsp.a(ipraw.o)
                                        0x71a (size before relaxing)
 .debug_str     0x000000000000a307       0xa4 ../DECA_socket_server_bsp/\libucosii_bsp.a(iproute.o)
                                        0x756 (size before relaxing)
 .debug_str     0x000000000000a3ab       0xe0 ../DECA_socket_server_bsp/\libucosii_bsp.a(udp.o)
                                        0x7ea (size before relaxing)
 .debug_str     0x000000000000a48b       0x24 ../DECA_socket_server_bsp/\libucosii_bsp.a(igmp.o)
                                        0x979 (size before relaxing)
 .debug_str     0x000000000000a4af       0xbc ../DECA_socket_server_bsp/\libucosii_bsp.a(igmp2.o)
                                        0xa24 (size before relaxing)
 .debug_str     0x000000000000a56b       0x79 ../DECA_socket_server_bsp/\libucosii_bsp.a(ipopt.o)
                                        0x761 (size before relaxing)
 .debug_str     0x000000000000a5e4       0x87 ../DECA_socket_server_bsp/\libucosii_bsp.a(u_mctest.o)
                                        0x5a5 (size before relaxing)
 .debug_str     0x000000000000a66b       0x5a ../DECA_socket_server_bsp/\libucosii_bsp.a(dhcsetup.o)
                                        0x4c7 (size before relaxing)
 .debug_str     0x000000000000a6c5      0x141 ../DECA_socket_server_bsp/\libucosii_bsp.a(memdev.o)
                                        0x2d5 (size before relaxing)
 .debug_str     0x000000000000a806       0xba ../DECA_socket_server_bsp/\libucosii_bsp.a(parseip.o)
                                        0x29b (size before relaxing)
 .debug_str     0x000000000000a8c0       0x4d ../DECA_socket_server_bsp/\libucosii_bsp.a(tcpcksum.o)
                                        0x253 (size before relaxing)
 .debug_str     0x000000000000a90d       0xdb ../DECA_socket_server_bsp/\libucosii_bsp.a(in_pcb.o)
                                        0x7ed (size before relaxing)
 .debug_str     0x000000000000a9e8      0x23b ../DECA_socket_server_bsp/\libucosii_bsp.a(vfsfiles.o)
                                        0x489 (size before relaxing)
 .debug_str     0x000000000000ac23       0x22 ../DECA_socket_server_bsp/\libucosii_bsp.a(vfsport.o)
                                        0x167 (size before relaxing)
 .debug_str     0x000000000000ac45       0x1e ../DECA_socket_server_bsp/\libucosii_bsp.a(alt_fcntl.o)
                                        0x34e (size before relaxing)
 .debug_str     0x000000000000ac63       0x26 ../DECA_socket_server_bsp/\libucosii_bsp.a(alt_find_file.o)
                                        0x21e (size before relaxing)
 .debug_str     0x000000000000ac89       0x30 ../DECA_socket_server_bsp/\libucosii_bsp.a(alt_get_fd.o)
                                        0x2bc (size before relaxing)
 .debug_str     0x000000000000acb9       0x2c ../DECA_socket_server_bsp/\libucosii_bsp.a(alt_icache_flush.o)
                                        0x14f (size before relaxing)
 .debug_str     0x000000000000ace5      0x48b ../DECA_socket_server_bsp/\libucosii_bsp.a(alt_instruction_exception_entry.o)
                                        0x593 (size before relaxing)
 .debug_str     0x000000000000b170      0x277 ../DECA_socket_server_bsp/\libucosii_bsp.a(icmp.o)
                                        0x7cf (size before relaxing)
 .debug_str     0x000000000000b3e7       0x7f c:/altera/15.0/nios2eds/bin/gnu/h-x86_64-mingw32/bin/../lib/gcc/nios2-elf/4.9.1/../../../../../H-x86_64-mingw32/nios2-elf/lib\libc.a(lib_a-atexit.o)
                                        0x1cb (size before relaxing)
 .debug_str     0x000000000000b466       0x57 c:/altera/15.0/nios2eds/bin/gnu/h-x86_64-mingw32/bin/../lib/gcc/nios2-elf/4.9.1/../../../../../H-x86_64-mingw32/nios2-elf/lib\libc.a(lib_a-atoi.o)
                                        0x54b (size before relaxing)
 .debug_str     0x000000000000b4bd       0x4a c:/altera/15.0/nios2eds/bin/gnu/h-x86_64-mingw32/bin/../lib/gcc/nios2-elf/4.9.1/../../../../../H-x86_64-mingw32/nios2-elf/lib\libc.a(lib_a-exit.o)
                                        0x561 (size before relaxing)
 .debug_str     0x000000000000b507       0x50 c:/altera/15.0/nios2eds/bin/gnu/h-x86_64-mingw32/bin/../lib/gcc/nios2-elf/4.9.1/../../../../../H-x86_64-mingw32/nios2-elf/lib\libc.a(lib_a-malign.o)
                                        0x564 (size before relaxing)
 .debug_str     0x000000000000b557       0x13 c:/altera/15.0/nios2eds/bin/gnu/h-x86_64-mingw32/bin/../lib/gcc/nios2-elf/4.9.1/../../../../../H-x86_64-mingw32/nios2-elf/lib\libc.a(lib_a-malignr.o)
                                        0x5e2 (size before relaxing)
 .debug_str     0x000000000000b56a       0x42 c:/altera/15.0/nios2eds/bin/gnu/h-x86_64-mingw32/bin/../lib/gcc/nios2-elf/4.9.1/../../../../../H-x86_64-mingw32/nios2-elf/lib\libc.a(lib_a-memcmp.o)
                                        0x18e (size before relaxing)
 .debug_str     0x000000000000b5ac       0x44 c:/altera/15.0/nios2eds/bin/gnu/h-x86_64-mingw32/bin/../lib/gcc/nios2-elf/4.9.1/../../../../../H-x86_64-mingw32/nios2-elf/lib\libc.a(lib_a-strncmp.o)
                                        0x190 (size before relaxing)
 .debug_str     0x000000000000b5f0       0x44 c:/altera/15.0/nios2eds/bin/gnu/h-x86_64-mingw32/bin/../lib/gcc/nios2-elf/4.9.1/../../../../../H-x86_64-mingw32/nios2-elf/lib\libc.a(lib_a-strncpy.o)
                                        0x1b8 (size before relaxing)
 .debug_str     0x000000000000b634       0x50 c:/altera/15.0/nios2eds/bin/gnu/h-x86_64-mingw32/bin/../lib/gcc/nios2-elf/4.9.1/../../../../../H-x86_64-mingw32/nios2-elf/lib\libc.a(lib_a-strtol.o)
                                        0x57e (size before relaxing)
 .debug_str     0x000000000000b684       0x5a c:/altera/15.0/nios2eds/bin/gnu/h-x86_64-mingw32/bin/../lib/gcc/nios2-elf/4.9.1/../../../../../H-x86_64-mingw32/nios2-elf/lib\libc.a(lib_a-vprintf.o)
                                        0x587 (size before relaxing)
 .debug_str     0x000000000000b6de       0x51 c:/altera/15.0/nios2eds/bin/gnu/h-x86_64-mingw32/bin/../lib/gcc/nios2-elf/4.9.1/../../../../../H-x86_64-mingw32/nios2-elf/lib\libc.a(lib_a-vsprintf.o)
                                        0x596 (size before relaxing)
 .debug_str     0x000000000000b72f       0x4b c:/altera/15.0/nios2eds/bin/gnu/h-x86_64-mingw32/bin/../lib/gcc/nios2-elf/4.9.1/../../../../../H-x86_64-mingw32/nios2-elf/lib\libc.a(lib_a-__atexit.o)
                                        0x5ae (size before relaxing)
 .debug_str     0x000000000000b77a       0x48 c:/altera/15.0/nios2eds/bin/gnu/h-x86_64-mingw32/bin/../lib/gcc/nios2-elf/4.9.1/../../../../../H-x86_64-mingw32/nios2-elf/lib\libc.a(lib_a-__call_atexit.o)
                                        0x577 (size before relaxing)
 .debug_str     0x000000000000b7c2       0x3f c:/altera/15.0/nios2eds/bin/gnu/h-x86_64-mingw32/bin/../lib/gcc/nios2-elf/4.9.1/../../../../../H-x86_64-mingw32/nios2-elf/lib\libc.a(lib_a-vfprintfr_1.o)
                                        0x588 (size before relaxing)
 .debug_str     0x000000000000b801       0x2a ../DECA_socket_server_bsp/\libucosii_bsp.a(alt_exit.o)
                                        0x187 (size before relaxing)

.debug_loc      0x0000000000000000    0x1ce33
 *(.debug_loc)
 .debug_loc     0x0000000000000000      0x115 c:/altera/15.0/nios2eds/bin/gnu/h-x86_64-mingw32/bin/../lib/gcc/nios2-elf/4.9.1/../../../../../H-x86_64-mingw32/nios2-elf/lib\libc.a(lib_a-fprintf.o)
 .debug_loc     0x0000000000000115      0x265 c:/altera/15.0/nios2eds/bin/gnu/h-x86_64-mingw32/bin/../lib/gcc/nios2-elf/4.9.1/../../../../../H-x86_64-mingw32/nios2-elf/lib\libc.a(lib_a-fwrite.o)
 .debug_loc     0x000000000000037a      0x113 c:/altera/15.0/nios2eds/bin/gnu/h-x86_64-mingw32/bin/../lib/gcc/nios2-elf/4.9.1/../../../../../H-x86_64-mingw32/nios2-elf/lib\libc.a(lib_a-getc.o)
 .debug_loc     0x000000000000048d       0x58 c:/altera/15.0/nios2eds/bin/gnu/h-x86_64-mingw32/bin/../lib/gcc/nios2-elf/4.9.1/../../../../../H-x86_64-mingw32/nios2-elf/lib\libc.a(lib_a-malloc.o)
 .debug_loc     0x00000000000004e5      0xbad c:/altera/15.0/nios2eds/bin/gnu/h-x86_64-mingw32/bin/../lib/gcc/nios2-elf/4.9.1/../../../../../H-x86_64-mingw32/nios2-elf/lib\libc.a(lib_a-mallocr.o)
 .debug_loc     0x0000000000001092      0x2a2 c:/altera/15.0/nios2eds/bin/gnu/h-x86_64-mingw32/bin/../lib/gcc/nios2-elf/4.9.1/../../../../../H-x86_64-mingw32/nios2-elf/lib\libc.a(lib_a-memcpy.o)
 .debug_loc     0x0000000000001334      0x34f c:/altera/15.0/nios2eds/bin/gnu/h-x86_64-mingw32/bin/../lib/gcc/nios2-elf/4.9.1/../../../../../H-x86_64-mingw32/nios2-elf/lib\libc.a(lib_a-memmove.o)
 .debug_loc     0x0000000000001683      0x190 c:/altera/15.0/nios2eds/bin/gnu/h-x86_64-mingw32/bin/../lib/gcc/nios2-elf/4.9.1/../../../../../H-x86_64-mingw32/nios2-elf/lib\libc.a(lib_a-memset.o)
 .debug_loc     0x0000000000001813       0xbb c:/altera/15.0/nios2eds/bin/gnu/h-x86_64-mingw32/bin/../lib/gcc/nios2-elf/4.9.1/../../../../../H-x86_64-mingw32/nios2-elf/lib\libc.a(lib_a-perror.o)
 .debug_loc     0x00000000000018ce       0xd3 c:/altera/15.0/nios2eds/bin/gnu/h-x86_64-mingw32/bin/../lib/gcc/nios2-elf/4.9.1/../../../../../H-x86_64-mingw32/nios2-elf/lib\libc.a(lib_a-printf.o)
 .debug_loc     0x00000000000019a1      0x1ab c:/altera/15.0/nios2eds/bin/gnu/h-x86_64-mingw32/bin/../lib/gcc/nios2-elf/4.9.1/../../../../../H-x86_64-mingw32/nios2-elf/lib\libc.a(lib_a-putc.o)
 .debug_loc     0x0000000000001b4c       0x6e c:/altera/15.0/nios2eds/bin/gnu/h-x86_64-mingw32/bin/../lib/gcc/nios2-elf/4.9.1/../../../../../H-x86_64-mingw32/nios2-elf/lib\libc.a(lib_a-putchar.o)
 .debug_loc     0x0000000000001bba       0xb9 c:/altera/15.0/nios2eds/bin/gnu/h-x86_64-mingw32/bin/../lib/gcc/nios2-elf/4.9.1/../../../../../H-x86_64-mingw32/nios2-elf/lib\libc.a(lib_a-puts.o)
 .debug_loc     0x0000000000001c73       0xb0 c:/altera/15.0/nios2eds/bin/gnu/h-x86_64-mingw32/bin/../lib/gcc/nios2-elf/4.9.1/../../../../../H-x86_64-mingw32/nios2-elf/lib\libc.a(lib_a-rget.o)
 .debug_loc     0x0000000000001d23       0x58 c:/altera/15.0/nios2eds/bin/gnu/h-x86_64-mingw32/bin/../lib/gcc/nios2-elf/4.9.1/../../../../../H-x86_64-mingw32/nios2-elf/lib\libc.a(lib_a-sbrkr.o)
 .debug_loc     0x0000000000001d7b      0x106 c:/altera/15.0/nios2eds/bin/gnu/h-x86_64-mingw32/bin/../lib/gcc/nios2-elf/4.9.1/../../../../../H-x86_64-mingw32/nios2-elf/lib\libc.a(lib_a-sprintf.o)
 .debug_loc     0x0000000000001e81      0x140 c:/altera/15.0/nios2eds/bin/gnu/h-x86_64-mingw32/bin/../lib/gcc/nios2-elf/4.9.1/../../../../../H-x86_64-mingw32/nios2-elf/lib\libc.a(lib_a-strchr.o)
 .debug_loc     0x0000000000001fc1       0xe8 c:/altera/15.0/nios2eds/bin/gnu/h-x86_64-mingw32/bin/../lib/gcc/nios2-elf/4.9.1/../../../../../H-x86_64-mingw32/nios2-elf/lib\libc.a(lib_a-strcpy.o)
 .debug_loc     0x00000000000020a9      0x4c8 c:/altera/15.0/nios2eds/bin/gnu/h-x86_64-mingw32/bin/../lib/gcc/nios2-elf/4.9.1/../../../../../H-x86_64-mingw32/nios2-elf/lib\libc.a(lib_a-strerror.o)
 .debug_loc     0x0000000000002571       0x47 c:/altera/15.0/nios2eds/bin/gnu/h-x86_64-mingw32/bin/../lib/gcc/nios2-elf/4.9.1/../../../../../H-x86_64-mingw32/nios2-elf/lib\libc.a(lib_a-strlen.o)
 .debug_loc     0x00000000000025b8     0x2c28 c:/altera/15.0/nios2eds/bin/gnu/h-x86_64-mingw32/bin/../lib/gcc/nios2-elf/4.9.1/../../../../../H-x86_64-mingw32/nios2-elf/lib\libc.a(lib_a-svfprintf.o)
 .debug_loc     0x00000000000051e0     0x2d0e c:/altera/15.0/nios2eds/bin/gnu/h-x86_64-mingw32/bin/../lib/gcc/nios2-elf/4.9.1/../../../../../H-x86_64-mingw32/nios2-elf/lib\libc.a(lib_a-vfprintf.o)
 .debug_loc     0x0000000000007eee      0x165 c:/altera/15.0/nios2eds/bin/gnu/h-x86_64-mingw32/bin/../lib/gcc/nios2-elf/4.9.1/../../../../../H-x86_64-mingw32/nios2-elf/lib\libc.a(lib_a-wbuf.o)
 .debug_loc     0x0000000000008053       0x84 c:/altera/15.0/nios2eds/bin/gnu/h-x86_64-mingw32/bin/../lib/gcc/nios2-elf/4.9.1/../../../../../H-x86_64-mingw32/nios2-elf/lib\libc.a(lib_a-wsetup.o)
 .debug_loc     0x00000000000080d7     0x299a c:/altera/15.0/nios2eds/bin/gnu/h-x86_64-mingw32/bin/../lib/gcc/nios2-elf/4.9.1/../../../../../H-x86_64-mingw32/nios2-elf/lib\libc.a(lib_a-dtoa.o)
 .debug_loc     0x000000000000aa71      0x23e c:/altera/15.0/nios2eds/bin/gnu/h-x86_64-mingw32/bin/../lib/gcc/nios2-elf/4.9.1/../../../../../H-x86_64-mingw32/nios2-elf/lib\libc.a(lib_a-fflush.o)
 .debug_loc     0x000000000000acaf      0x208 c:/altera/15.0/nios2eds/bin/gnu/h-x86_64-mingw32/bin/../lib/gcc/nios2-elf/4.9.1/../../../../../H-x86_64-mingw32/nios2-elf/lib\libc.a(lib_a-findfp.o)
 .debug_loc     0x000000000000aeb7       0xd1 c:/altera/15.0/nios2eds/bin/gnu/h-x86_64-mingw32/bin/../lib/gcc/nios2-elf/4.9.1/../../../../../H-x86_64-mingw32/nios2-elf/lib\libc.a(lib_a-fputc.o)
 .debug_loc     0x000000000000af88       0xfa c:/altera/15.0/nios2eds/bin/gnu/h-x86_64-mingw32/bin/../lib/gcc/nios2-elf/4.9.1/../../../../../H-x86_64-mingw32/nios2-elf/lib\libc.a(lib_a-fputs.o)
 .debug_loc     0x000000000000b082      0x4d3 c:/altera/15.0/nios2eds/bin/gnu/h-x86_64-mingw32/bin/../lib/gcc/nios2-elf/4.9.1/../../../../../H-x86_64-mingw32/nios2-elf/lib\libc.a(lib_a-freer.o)
 .debug_loc     0x000000000000b555      0x5ca c:/altera/15.0/nios2eds/bin/gnu/h-x86_64-mingw32/bin/../lib/gcc/nios2-elf/4.9.1/../../../../../H-x86_64-mingw32/nios2-elf/lib\libc.a(lib_a-fvwrite.o)
 .debug_loc     0x000000000000bb1f      0x2d4 c:/altera/15.0/nios2eds/bin/gnu/h-x86_64-mingw32/bin/../lib/gcc/nios2-elf/4.9.1/../../../../../H-x86_64-mingw32/nios2-elf/lib\libc.a(lib_a-fwalk.o)
 .debug_loc     0x000000000000bdf3      0x11b c:/altera/15.0/nios2eds/bin/gnu/h-x86_64-mingw32/bin/../lib/gcc/nios2-elf/4.9.1/../../../../../H-x86_64-mingw32/nios2-elf/lib\libc.a(lib_a-locale.o)
 .debug_loc     0x000000000000bf0e      0x132 c:/altera/15.0/nios2eds/bin/gnu/h-x86_64-mingw32/bin/../lib/gcc/nios2-elf/4.9.1/../../../../../H-x86_64-mingw32/nios2-elf/lib\libc.a(lib_a-makebuf.o)
 .debug_loc     0x000000000000c040      0x19f c:/altera/15.0/nios2eds/bin/gnu/h-x86_64-mingw32/bin/../lib/gcc/nios2-elf/4.9.1/../../../../../H-x86_64-mingw32/nios2-elf/lib\libc.a(lib_a-memchr.o)
 .debug_loc     0x000000000000c1df     0x1a3e c:/altera/15.0/nios2eds/bin/gnu/h-x86_64-mingw32/bin/../lib/gcc/nios2-elf/4.9.1/../../../../../H-x86_64-mingw32/nios2-elf/lib\libc.a(lib_a-mprec.o)
 .debug_loc     0x000000000000dc1d      0xe5b c:/altera/15.0/nios2eds/bin/gnu/h-x86_64-mingw32/bin/../lib/gcc/nios2-elf/4.9.1/../../../../../H-x86_64-mingw32/nios2-elf/lib\libc.a(lib_a-reallocr.o)
 .debug_loc     0x000000000000ea78       0xbb c:/altera/15.0/nios2eds/bin/gnu/h-x86_64-mingw32/bin/../lib/gcc/nios2-elf/4.9.1/../../../../../H-x86_64-mingw32/nios2-elf/lib\libc.a(lib_a-refill.o)
 .debug_loc     0x000000000000eb33       0x2f c:/altera/15.0/nios2eds/bin/gnu/h-x86_64-mingw32/bin/../lib/gcc/nios2-elf/4.9.1/../../../../../H-x86_64-mingw32/nios2-elf/lib\libc.a(lib_a-s_fpclassify.o)
 .debug_loc     0x000000000000eb62      0x319 c:/altera/15.0/nios2eds/bin/gnu/h-x86_64-mingw32/bin/../lib/gcc/nios2-elf/4.9.1/../../../../../H-x86_64-mingw32/nios2-elf/lib\libc.a(lib_a-stdio.o)
 .debug_loc     0x000000000000ee7b       0xb0 c:/altera/15.0/nios2eds/bin/gnu/h-x86_64-mingw32/bin/../lib/gcc/nios2-elf/4.9.1/../../../../../H-x86_64-mingw32/nios2-elf/lib\libc.a(lib_a-strcmp.o)
 .debug_loc     0x000000000000ef2b     0x15d7 c:/altera/15.0/nios2eds/bin/gnu/h-x86_64-mingw32/bin/../lib/gcc/nios2-elf/4.9.1/../../../../../H-x86_64-mingw32/nios2-elf/lib\libc.a(lib_a-svfiprintf.o)
 .debug_loc     0x0000000000010502     0x2340 c:/altera/15.0/nios2eds/bin/gnu/h-x86_64-mingw32/bin/../lib/gcc/nios2-elf/4.9.1/../../../../../H-x86_64-mingw32/nios2-elf/lib\libc.a(lib_a-vfiprintf.o)
 .debug_loc     0x0000000000012842       0xb0 c:/altera/15.0/nios2eds/bin/gnu/h-x86_64-mingw32/bin/../lib/gcc/nios2-elf/4.9.1/../../../../../H-x86_64-mingw32/nios2-elf/lib\libc.a(lib_a-writer.o)
 .debug_loc     0x00000000000128f2       0x58 c:/altera/15.0/nios2eds/bin/gnu/h-x86_64-mingw32/bin/../lib/gcc/nios2-elf/4.9.1/../../../../../H-x86_64-mingw32/nios2-elf/lib\libc.a(closer.o)
 .debug_loc     0x000000000001294a      0x24b c:/altera/15.0/nios2eds/bin/gnu/h-x86_64-mingw32/bin/../lib/gcc/nios2-elf/4.9.1/../../../../../H-x86_64-mingw32/nios2-elf/lib\libc.a(lib_a-callocr.o)
 .debug_loc     0x0000000000012b95      0x12b c:/altera/15.0/nios2eds/bin/gnu/h-x86_64-mingw32/bin/../lib/gcc/nios2-elf/4.9.1/../../../../../H-x86_64-mingw32/nios2-elf/lib\libc.a(lib_a-fclose.o)
 .debug_loc     0x0000000000012cc0      0x223 c:/altera/15.0/nios2eds/bin/gnu/h-x86_64-mingw32/bin/../lib/gcc/nios2-elf/4.9.1/../../../../../H-x86_64-mingw32/nios2-elf/lib\libc.a(lib_a-fputwc.o)
 .debug_loc     0x0000000000012ee3       0x84 c:/altera/15.0/nios2eds/bin/gnu/h-x86_64-mingw32/bin/../lib/gcc/nios2-elf/4.9.1/../../../../../H-x86_64-mingw32/nios2-elf/lib\libc.a(lib_a-fstatr.o)
 .debug_loc     0x0000000000012f67       0x58 c:/altera/15.0/nios2eds/bin/gnu/h-x86_64-mingw32/bin/../lib/gcc/nios2-elf/4.9.1/../../../../../H-x86_64-mingw32/nios2-elf/lib\libc.a(lib_a-isattyr.o)
 .debug_loc     0x0000000000012fbf       0xb0 c:/altera/15.0/nios2eds/bin/gnu/h-x86_64-mingw32/bin/../lib/gcc/nios2-elf/4.9.1/../../../../../H-x86_64-mingw32/nios2-elf/lib\libc.a(lib_a-lseekr.o)
 .debug_loc     0x000000000001306f       0xb0 c:/altera/15.0/nios2eds/bin/gnu/h-x86_64-mingw32/bin/../lib/gcc/nios2-elf/4.9.1/../../../../../H-x86_64-mingw32/nios2-elf/lib\libc.a(lib_a-readr.o)
 .debug_loc     0x000000000001311f      0x230 c:/altera/15.0/nios2eds/bin/gnu/h-x86_64-mingw32/bin/../lib/gcc/nios2-elf/4.9.1/../../../../../H-x86_64-mingw32/nios2-elf/lib\libc.a(lib_a-wcrtomb.o)
 .debug_loc     0x000000000001334f       0x8f c:/altera/15.0/nios2eds/bin/gnu/h-x86_64-mingw32/bin/../lib/gcc/nios2-elf/4.9.1/../../../../../H-x86_64-mingw32/nios2-elf/lib\libc.a(lib_a-wctomb_r.o)
 .debug_loc     0x00000000000133de     0x11a3 c:/altera/15.0/nios2eds/bin/gnu/h-x86_64-mingw32/bin/../lib/gcc/nios2-elf/4.9.1\libgcc.a(_udivdi3.o)
 .debug_loc     0x0000000000014581     0x118c c:/altera/15.0/nios2eds/bin/gnu/h-x86_64-mingw32/bin/../lib/gcc/nios2-elf/4.9.1\libgcc.a(_umoddi3.o)
 .debug_loc     0x000000000001570d      0x273 c:/altera/15.0/nios2eds/bin/gnu/h-x86_64-mingw32/bin/../lib/gcc/nios2-elf/4.9.1\libgcc.a(lib2-divmod.o)
 .debug_loc     0x0000000000015980     0x16ec c:/altera/15.0/nios2eds/bin/gnu/h-x86_64-mingw32/bin/../lib/gcc/nios2-elf/4.9.1\libgcc.a(adddf3.o)
 .debug_loc     0x000000000001706c     0x1f03 c:/altera/15.0/nios2eds/bin/gnu/h-x86_64-mingw32/bin/../lib/gcc/nios2-elf/4.9.1\libgcc.a(divdf3.o)
 .debug_loc     0x0000000000018f6f       0x52 c:/altera/15.0/nios2eds/bin/gnu/h-x86_64-mingw32/bin/../lib/gcc/nios2-elf/4.9.1\libgcc.a(eqdf2.o)
 .debug_loc     0x0000000000018fc1      0x109 c:/altera/15.0/nios2eds/bin/gnu/h-x86_64-mingw32/bin/../lib/gcc/nios2-elf/4.9.1\libgcc.a(gedf2.o)
 .debug_loc     0x00000000000190ca       0xfc c:/altera/15.0/nios2eds/bin/gnu/h-x86_64-mingw32/bin/../lib/gcc/nios2-elf/4.9.1\libgcc.a(ledf2.o)
 .debug_loc     0x00000000000191c6     0x107e c:/altera/15.0/nios2eds/bin/gnu/h-x86_64-mingw32/bin/../lib/gcc/nios2-elf/4.9.1\libgcc.a(muldf3.o)
 .debug_loc     0x000000000001a244     0x1660 c:/altera/15.0/nios2eds/bin/gnu/h-x86_64-mingw32/bin/../lib/gcc/nios2-elf/4.9.1\libgcc.a(subdf3.o)
 .debug_loc     0x000000000001b8a4      0x136 c:/altera/15.0/nios2eds/bin/gnu/h-x86_64-mingw32/bin/../lib/gcc/nios2-elf/4.9.1\libgcc.a(fixdfsi.o)
 .debug_loc     0x000000000001b9da      0x17f c:/altera/15.0/nios2eds/bin/gnu/h-x86_64-mingw32/bin/../lib/gcc/nios2-elf/4.9.1\libgcc.a(floatsidf.o)
 .debug_loc     0x000000000001bb59      0x1b4 c:/altera/15.0/nios2eds/bin/gnu/h-x86_64-mingw32/bin/../lib/gcc/nios2-elf/4.9.1\libgcc.a(floatunsidf.o)
 .debug_loc     0x000000000001bd0d       0x7a c:/altera/15.0/nios2eds/bin/gnu/h-x86_64-mingw32/bin/../lib/gcc/nios2-elf/4.9.1\libgcc.a(_clzsi2.o)
 .debug_loc     0x000000000001bd87       0x2c c:/altera/15.0/nios2eds/bin/gnu/h-x86_64-mingw32/bin/../lib/gcc/nios2-elf/4.9.1/../../../../../H-x86_64-mingw32/nios2-elf/lib\libc.a(lib_a-atexit.o)
 .debug_loc     0x000000000001bdb3       0x63 c:/altera/15.0/nios2eds/bin/gnu/h-x86_64-mingw32/bin/../lib/gcc/nios2-elf/4.9.1/../../../../../H-x86_64-mingw32/nios2-elf/lib\libc.a(lib_a-atoi.o)
 .debug_loc     0x000000000001be16       0x1e c:/altera/15.0/nios2eds/bin/gnu/h-x86_64-mingw32/bin/../lib/gcc/nios2-elf/4.9.1/../../../../../H-x86_64-mingw32/nios2-elf/lib\libc.a(lib_a-exit.o)
 .debug_loc     0x000000000001be34       0x58 c:/altera/15.0/nios2eds/bin/gnu/h-x86_64-mingw32/bin/../lib/gcc/nios2-elf/4.9.1/../../../../../H-x86_64-mingw32/nios2-elf/lib\libc.a(lib_a-malign.o)
 .debug_loc     0x000000000001be8c      0x272 c:/altera/15.0/nios2eds/bin/gnu/h-x86_64-mingw32/bin/../lib/gcc/nios2-elf/4.9.1/../../../../../H-x86_64-mingw32/nios2-elf/lib\libc.a(lib_a-malignr.o)
 .debug_loc     0x000000000001c0fe      0x126 c:/altera/15.0/nios2eds/bin/gnu/h-x86_64-mingw32/bin/../lib/gcc/nios2-elf/4.9.1/../../../../../H-x86_64-mingw32/nios2-elf/lib\libc.a(lib_a-memcmp.o)
 .debug_loc     0x000000000001c224       0x9c c:/altera/15.0/nios2eds/bin/gnu/h-x86_64-mingw32/bin/../lib/gcc/nios2-elf/4.9.1/../../../../../H-x86_64-mingw32/nios2-elf/lib\libc.a(lib_a-strncmp.o)
 .debug_loc     0x000000000001c2c0      0x1fb c:/altera/15.0/nios2eds/bin/gnu/h-x86_64-mingw32/bin/../lib/gcc/nios2-elf/4.9.1/../../../../../H-x86_64-mingw32/nios2-elf/lib\libc.a(lib_a-strncpy.o)
 .debug_loc     0x000000000001c4bb      0x3db c:/altera/15.0/nios2eds/bin/gnu/h-x86_64-mingw32/bin/../lib/gcc/nios2-elf/4.9.1/../../../../../H-x86_64-mingw32/nios2-elf/lib\libc.a(lib_a-strtol.o)
 .debug_loc     0x000000000001c896       0xd1 c:/altera/15.0/nios2eds/bin/gnu/h-x86_64-mingw32/bin/../lib/gcc/nios2-elf/4.9.1/../../../../../H-x86_64-mingw32/nios2-elf/lib\libc.a(lib_a-vprintf.o)
 .debug_loc     0x000000000001c967      0x113 c:/altera/15.0/nios2eds/bin/gnu/h-x86_64-mingw32/bin/../lib/gcc/nios2-elf/4.9.1/../../../../../H-x86_64-mingw32/nios2-elf/lib\libc.a(lib_a-vsprintf.o)
 .debug_loc     0x000000000001ca7a      0x185 c:/altera/15.0/nios2eds/bin/gnu/h-x86_64-mingw32/bin/../lib/gcc/nios2-elf/4.9.1/../../../../../H-x86_64-mingw32/nios2-elf/lib\libc.a(lib_a-__atexit.o)
 .debug_loc     0x000000000001cbff      0x1a6 c:/altera/15.0/nios2eds/bin/gnu/h-x86_64-mingw32/bin/../lib/gcc/nios2-elf/4.9.1/../../../../../H-x86_64-mingw32/nios2-elf/lib\libc.a(lib_a-__call_atexit.o)
 .debug_loc     0x000000000001cda5       0x8e c:/altera/15.0/nios2eds/bin/gnu/h-x86_64-mingw32/bin/../lib/gcc/nios2-elf/4.9.1/../../../../../H-x86_64-mingw32/nios2-elf/lib\libc.a(lib_a-vfprintfr_1.o)

.debug_macinfo
 *(.debug_macinfo)

.debug_weaknames
 *(.debug_weaknames)

.debug_funcnames
 *(.debug_funcnames)

.debug_typenames
 *(.debug_typenames)

.debug_varnames
 *(.debug_varnames)

.debug_alt_sim_info
                0x0000000000000000       0x60
 *(.debug_alt_sim_info)
 .debug_alt_sim_info
                0x0000000000000000       0x30 ../DECA_socket_server_bsp//obj/HAL/src/crt0.o
 .debug_alt_sim_info
                0x0000000000000030       0x30 ../DECA_socket_server_bsp/\libucosii_bsp.a(alt_busy_sleep.o)
                0x0000000020000000                __alt_data_end = 0x20000000
                0x0000000020000000                PROVIDE (__alt_stack_pointer, __alt_data_end)
                0x000000000005e864                PROVIDE (__alt_stack_limit, __alt_stack_base)
                0x000000000005e864                PROVIDE (__alt_heap_start, end)
                0x0000000020000000                PROVIDE (__alt_heap_limit, 0x20000000)
OUTPUT(DECA_socket_server.elf elf32-littlenios2)

.debug_ranges   0x0000000000000000     0x14f8
 .debug_ranges  0x0000000000000000       0x20 ../DECA_socket_server_bsp//obj/HAL/src/crt0.o
 .debug_ranges  0x0000000000000020       0x38 c:/altera/15.0/nios2eds/bin/gnu/h-x86_64-mingw32/bin/../lib/gcc/nios2-elf/4.9.1/../../../../../H-x86_64-mingw32/nios2-elf/lib\libc.a(lib_a-mallocr.o)
 .debug_ranges  0x0000000000000058      0x118 c:/altera/15.0/nios2eds/bin/gnu/h-x86_64-mingw32/bin/../lib/gcc/nios2-elf/4.9.1/../../../../../H-x86_64-mingw32/nios2-elf/lib\libc.a(lib_a-svfprintf.o)
 .debug_ranges  0x0000000000000170      0x130 c:/altera/15.0/nios2eds/bin/gnu/h-x86_64-mingw32/bin/../lib/gcc/nios2-elf/4.9.1/../../../../../H-x86_64-mingw32/nios2-elf/lib\libc.a(lib_a-vfprintf.o)
 .debug_ranges  0x00000000000002a0       0x20 c:/altera/15.0/nios2eds/bin/gnu/h-x86_64-mingw32/bin/../lib/gcc/nios2-elf/4.9.1/../../../../../H-x86_64-mingw32/nios2-elf/lib\libc.a(lib_a-fflush.o)
 .debug_ranges  0x00000000000002c0       0x68 c:/altera/15.0/nios2eds/bin/gnu/h-x86_64-mingw32/bin/../lib/gcc/nios2-elf/4.9.1/../../../../../H-x86_64-mingw32/nios2-elf/lib\libc.a(lib_a-findfp.o)
 .debug_ranges  0x0000000000000328       0x18 c:/altera/15.0/nios2eds/bin/gnu/h-x86_64-mingw32/bin/../lib/gcc/nios2-elf/4.9.1/../../../../../H-x86_64-mingw32/nios2-elf/lib\libc.a(lib_a-fvwrite.o)
 .debug_ranges  0x0000000000000340       0x40 c:/altera/15.0/nios2eds/bin/gnu/h-x86_64-mingw32/bin/../lib/gcc/nios2-elf/4.9.1/../../../../../H-x86_64-mingw32/nios2-elf/lib\libc.a(lib_a-fwalk.o)
 .debug_ranges  0x0000000000000380       0x18 c:/altera/15.0/nios2eds/bin/gnu/h-x86_64-mingw32/bin/../lib/gcc/nios2-elf/4.9.1/../../../../../H-x86_64-mingw32/nios2-elf/lib\libc.a(lib_a-locale.o)
 .debug_ranges  0x0000000000000398       0x50 c:/altera/15.0/nios2eds/bin/gnu/h-x86_64-mingw32/bin/../lib/gcc/nios2-elf/4.9.1/../../../../../H-x86_64-mingw32/nios2-elf/lib\libc.a(lib_a-mprec.o)
 .debug_ranges  0x00000000000003e8      0x140 c:/altera/15.0/nios2eds/bin/gnu/h-x86_64-mingw32/bin/../lib/gcc/nios2-elf/4.9.1/../../../../../H-x86_64-mingw32/nios2-elf/lib\libc.a(lib_a-reallocr.o)
 .debug_ranges  0x0000000000000528       0x48 c:/altera/15.0/nios2eds/bin/gnu/h-x86_64-mingw32/bin/../lib/gcc/nios2-elf/4.9.1/../../../../../H-x86_64-mingw32/nios2-elf/lib\libc.a(lib_a-svfiprintf.o)
 .debug_ranges  0x0000000000000570      0x1c0 c:/altera/15.0/nios2eds/bin/gnu/h-x86_64-mingw32/bin/../lib/gcc/nios2-elf/4.9.1/../../../../../H-x86_64-mingw32/nios2-elf/lib\libc.a(lib_a-vfiprintf.o)
 .debug_ranges  0x0000000000000730       0x48 c:/altera/15.0/nios2eds/bin/gnu/h-x86_64-mingw32/bin/../lib/gcc/nios2-elf/4.9.1/../../../../../H-x86_64-mingw32/nios2-elf/lib\libc.a(lib_a-callocr.o)
 .debug_ranges  0x0000000000000778       0x18 c:/altera/15.0/nios2eds/bin/gnu/h-x86_64-mingw32/bin/../lib/gcc/nios2-elf/4.9.1/../../../../../H-x86_64-mingw32/nios2-elf/lib\libc.a(lib_a-fclose.o)
 .debug_ranges  0x0000000000000790       0x18 c:/altera/15.0/nios2eds/bin/gnu/h-x86_64-mingw32/bin/../lib/gcc/nios2-elf/4.9.1/../../../../../H-x86_64-mingw32/nios2-elf/lib\libc.a(lib_a-fputwc.o)
 .debug_ranges  0x00000000000007a8      0x170 c:/altera/15.0/nios2eds/bin/gnu/h-x86_64-mingw32/bin/../lib/gcc/nios2-elf/4.9.1\libgcc.a(_udivdi3.o)
 .debug_ranges  0x0000000000000918      0x150 c:/altera/15.0/nios2eds/bin/gnu/h-x86_64-mingw32/bin/../lib/gcc/nios2-elf/4.9.1\libgcc.a(_umoddi3.o)
 .debug_ranges  0x0000000000000a68      0x238 c:/altera/15.0/nios2eds/bin/gnu/h-x86_64-mingw32/bin/../lib/gcc/nios2-elf/4.9.1\libgcc.a(adddf3.o)
 .debug_ranges  0x0000000000000ca0      0x140 c:/altera/15.0/nios2eds/bin/gnu/h-x86_64-mingw32/bin/../lib/gcc/nios2-elf/4.9.1\libgcc.a(divdf3.o)
 .debug_ranges  0x0000000000000de0       0x48 c:/altera/15.0/nios2eds/bin/gnu/h-x86_64-mingw32/bin/../lib/gcc/nios2-elf/4.9.1\libgcc.a(eqdf2.o)
 .debug_ranges  0x0000000000000e28       0x90 c:/altera/15.0/nios2eds/bin/gnu/h-x86_64-mingw32/bin/../lib/gcc/nios2-elf/4.9.1\libgcc.a(gedf2.o)
 .debug_ranges  0x0000000000000eb8       0x88 c:/altera/15.0/nios2eds/bin/gnu/h-x86_64-mingw32/bin/../lib/gcc/nios2-elf/4.9.1\libgcc.a(ledf2.o)
 .debug_ranges  0x0000000000000f40      0x218 c:/altera/15.0/nios2eds/bin/gnu/h-x86_64-mingw32/bin/../lib/gcc/nios2-elf/4.9.1\libgcc.a(muldf3.o)
 .debug_ranges  0x0000000000001158      0x258 c:/altera/15.0/nios2eds/bin/gnu/h-x86_64-mingw32/bin/../lib/gcc/nios2-elf/4.9.1\libgcc.a(subdf3.o)
 .debug_ranges  0x00000000000013b0       0x38 c:/altera/15.0/nios2eds/bin/gnu/h-x86_64-mingw32/bin/../lib/gcc/nios2-elf/4.9.1\libgcc.a(fixdfsi.o)
 .debug_ranges  0x00000000000013e8       0x30 c:/altera/15.0/nios2eds/bin/gnu/h-x86_64-mingw32/bin/../lib/gcc/nios2-elf/4.9.1\libgcc.a(floatsidf.o)
 .debug_ranges  0x0000000000001418       0x18 c:/altera/15.0/nios2eds/bin/gnu/h-x86_64-mingw32/bin/../lib/gcc/nios2-elf/4.9.1\libgcc.a(floatunsidf.o)
 .debug_ranges  0x0000000000001430       0x18 c:/altera/15.0/nios2eds/bin/gnu/h-x86_64-mingw32/bin/../lib/gcc/nios2-elf/4.9.1\libgcc.a(_clzsi2.o)
 .debug_ranges  0x0000000000001448       0x18 ../DECA_socket_server_bsp/\libucosii_bsp.a(tcp_in.o)
 .debug_ranges  0x0000000000001460       0x28 ../DECA_socket_server_bsp/\libucosii_bsp.a(alt_irq_entry.o)
 .debug_ranges  0x0000000000001488       0x10 ../DECA_socket_server_bsp/\libucosii_bsp.a(alt_irq_handler.o)
 .debug_ranges  0x0000000000001498       0x30 ../DECA_socket_server_bsp/\libucosii_bsp.a(alt_exception_entry.o)
 .debug_ranges  0x00000000000014c8       0x18 ../DECA_socket_server_bsp/\libucosii_bsp.a(alt_instruction_exception_entry.o)
 .debug_ranges  0x00000000000014e0       0x18 c:/altera/15.0/nios2eds/bin/gnu/h-x86_64-mingw32/bin/../lib/gcc/nios2-elf/4.9.1/../../../../../H-x86_64-mingw32/nios2-elf/lib\libc.a(lib_a-__call_atexit.o)
