
Capsense.elf:     file format elf32-littlenios2
Capsense.elf
architecture: nios2:r1, flags 0x00000112:
EXEC_P, HAS_SYMS, D_PAGED
start address 0x0002022c

Program Header:
    LOAD off    0x00001000 vaddr 0x00020000 paddr 0x00020000 align 2**12
         filesz 0x00000020 memsz 0x00000020 flags r-x
    LOAD off    0x00001020 vaddr 0x00020020 paddr 0x00020020 align 2**12
         filesz 0x00013934 memsz 0x00013934 flags r-x
    LOAD off    0x00014954 vaddr 0x00033954 paddr 0x00035440 align 2**12
         filesz 0x00001aec memsz 0x00001aec flags rw-
    LOAD off    0x00016f2c vaddr 0x00036f2c paddr 0x00036f2c align 2**12
         filesz 0x00000000 memsz 0x00000160 flags rw-

Sections:
Idx Name          Size      VMA       LMA       File off  Algn
  0 .entry        00000020  00020000  00020000  00001000  2**5
                  CONTENTS, ALLOC, LOAD, READONLY, CODE
  1 .exceptions   0000020c  00020020  00020020  00001020  2**2
                  CONTENTS, ALLOC, LOAD, READONLY, CODE
  2 .text         000132a8  0002022c  0002022c  0000122c  2**2
                  CONTENTS, ALLOC, LOAD, READONLY, CODE
  3 .rodata       00000480  000334d4  000334d4  000144d4  2**2
                  CONTENTS, ALLOC, LOAD, READONLY, DATA
  4 .rwdata       00001aec  00033954  00035440  00014954  2**2
                  CONTENTS, ALLOC, LOAD, DATA, SMALL_DATA
  5 .bss          00000160  00036f2c  00036f2c  00016f2c  2**2
                  ALLOC, SMALL_DATA
  6 .onchip_memory2 00000000  0003708c  0003708c  00016440  2**0
                  CONTENTS
  7 .comment      00000023  00000000  00000000  00016440  2**0
                  CONTENTS, READONLY
  8 .debug_aranges 00000df0  00000000  00000000  00016468  2**3
                  CONTENTS, READONLY, DEBUGGING
  9 .debug_info   00027834  00000000  00000000  00017258  2**0
                  CONTENTS, READONLY, DEBUGGING
 10 .debug_abbrev 00009c8a  00000000  00000000  0003ea8c  2**0
                  CONTENTS, READONLY, DEBUGGING
 11 .debug_line   0000c9ee  00000000  00000000  00048716  2**0
                  CONTENTS, READONLY, DEBUGGING
 12 .debug_frame  00002444  00000000  00000000  00055104  2**2
                  CONTENTS, READONLY, DEBUGGING
 13 .debug_str    00003996  00000000  00000000  00057548  2**0
                  CONTENTS, READONLY, DEBUGGING
 14 .debug_loc    0001b5ee  00000000  00000000  0005aede  2**0
                  CONTENTS, READONLY, DEBUGGING
 15 .debug_alt_sim_info 00000040  00000000  00000000  000764cc  2**2
                  CONTENTS, READONLY, DEBUGGING
 16 .debug_ranges 000014f8  00000000  00000000  00076510  2**3
                  CONTENTS, READONLY, DEBUGGING
 17 .thread_model 00000003  00000000  00000000  0007aee4  2**0
                  CONTENTS, READONLY
 18 .cpu          0000000a  00000000  00000000  0007aee7  2**0
                  CONTENTS, READONLY
 19 .qsys         00000001  00000000  00000000  0007aef1  2**0
                  CONTENTS, READONLY
 20 .simulation_enabled 00000001  00000000  00000000  0007aef2  2**0
                  CONTENTS, READONLY
 21 .sysid_hash   00000004  00000000  00000000  0007aef3  2**0
                  CONTENTS, READONLY
 22 .sysid_base   00000004  00000000  00000000  0007aef7  2**0
                  CONTENTS, READONLY
 23 .sysid_time   00000004  00000000  00000000  0007aefb  2**0
                  CONTENTS, READONLY
 24 .stderr_dev   00000009  00000000  00000000  0007aeff  2**0
                  CONTENTS, READONLY
 25 .stdin_dev    00000009  00000000  00000000  0007af08  2**0
                  CONTENTS, READONLY
 26 .stdout_dev   00000009  00000000  00000000  0007af11  2**0
                  CONTENTS, READONLY
 27 .sopc_system_name 0000000b  00000000  00000000  0007af1a  2**0
                  CONTENTS, READONLY
 28 .quartus_project_dir 00000032  00000000  00000000  0007af25  2**0
                  CONTENTS, READONLY
 29 .jdi          00004066  00000000  00000000  0007af57  2**0
                  CONTENTS, READONLY
 30 .sopcinfo     00041f85  00000000  00000000  0007efbd  2**0
                  CONTENTS, READONLY
SYMBOL TABLE:
00020000 l    d  .entry	00000000 .entry
00020020 l    d  .exceptions	00000000 .exceptions
0002022c l    d  .text	00000000 .text
000334d4 l    d  .rodata	00000000 .rodata
00033954 l    d  .rwdata	00000000 .rwdata
00036f2c l    d  .bss	00000000 .bss
0003708c l    d  .onchip_memory2	00000000 .onchip_memory2
00000000 l    d  .comment	00000000 .comment
00000000 l    d  .debug_aranges	00000000 .debug_aranges
00000000 l    d  .debug_info	00000000 .debug_info
00000000 l    d  .debug_abbrev	00000000 .debug_abbrev
00000000 l    d  .debug_line	00000000 .debug_line
00000000 l    d  .debug_frame	00000000 .debug_frame
00000000 l    d  .debug_str	00000000 .debug_str
00000000 l    d  .debug_loc	00000000 .debug_loc
00000000 l    d  .debug_alt_sim_info	00000000 .debug_alt_sim_info
00000000 l    d  .debug_ranges	00000000 .debug_ranges
00000000 l    df *ABS*	00000000 ../Capsense_bsp//obj/HAL/src/crt0.o
00020264 l       .text	00000000 alt_after_alt_main
00000000 l    df *ABS*	00000000 alt_irq_handler.c
00000000 l    df *ABS*	00000000 alt_instruction_exception_entry.c
00000000 l    df *ABS*	00000000 main.c
00000000 l    df *ABS*	00000000 I2C_core.c
00000000 l    df *ABS*	00000000 debug.c
00000000 l    df *ABS*	00000000 printf.c
00000000 l    df *ABS*	00000000 puts.c
00000000 l    df *ABS*	00000000 sprintf.c
00000000 l    df *ABS*	00000000 strlen.c
00000000 l    df *ABS*	00000000 vfprintf.c
00033662 l     O .rodata	00000010 zeroes.4166
00033672 l     O .rodata	00000010 blanks.4165
00000000 l    df *ABS*	00000000 vfprintf.c
00033682 l     O .rodata	00000010 zeroes.4181
00033692 l     O .rodata	00000010 blanks.4180
00000000 l    df *ABS*	00000000 vsnprintf.c
00000000 l    df *ABS*	00000000 wsetup.c
00000000 l    df *ABS*	00000000 dtoa.c
00025200 l     F .text	00000228 quorem
00000000 l    df *ABS*	00000000 fflush.c
00000000 l    df *ABS*	00000000 findfp.c
00026da8 l     F .text	00000008 __fp_lock
00026db0 l     F .text	00000008 __fp_unlock
00026dc4 l     F .text	000001a0 __sinit.part.1
00000000 l    df *ABS*	00000000 mallocr.c
00000000 l    df *ABS*	00000000 fvwrite.c
00000000 l    df *ABS*	00000000 fwalk.c
00000000 l    df *ABS*	00000000 impure.c
00033954 l     O .rwdata	00000424 impure_data
00000000 l    df *ABS*	00000000 locale.c
00033d98 l     O .rwdata	00000020 lc_ctype_charset
00033d78 l     O .rwdata	00000020 lc_message_charset
00033db8 l     O .rwdata	00000038 lconv
00000000 l    df *ABS*	00000000 makebuf.c
00000000 l    df *ABS*	00000000 mallocr.c
00000000 l    df *ABS*	00000000 memchr.c
00000000 l    df *ABS*	00000000 memcpy.c
00000000 l    df *ABS*	00000000 memmove.c
00000000 l    df *ABS*	00000000 memset.c
00000000 l    df *ABS*	00000000 mprec.c
000336c4 l     O .rodata	0000000c p05.2678
00000000 l    df *ABS*	00000000 mallocr.c
00000000 l    df *ABS*	00000000 s_fpclassify.c
00000000 l    df *ABS*	00000000 sbrkr.c
00000000 l    df *ABS*	00000000 stdio.c
00000000 l    df *ABS*	00000000 strcmp.c
00000000 l    df *ABS*	00000000 vfprintf.c
000337e8 l     O .rodata	00000010 zeroes.4110
000337f8 l     O .rodata	00000010 blanks.4109
00000000 l    df *ABS*	00000000 vfprintf.c
0002b68c l     F .text	000000fc __sprint_r.part.0
00033818 l     O .rodata	00000010 blanks.4125
00033808 l     O .rodata	00000010 zeroes.4126
00000000 l    df *ABS*	00000000 writer.c
00000000 l    df *ABS*	00000000 closer.c
00000000 l    df *ABS*	00000000 mallocr.c
00000000 l    df *ABS*	00000000 fclose.c
00000000 l    df *ABS*	00000000 fputwc.c
00000000 l    df *ABS*	00000000 fstatr.c
00000000 l    df *ABS*	00000000 int_errno.c
00000000 l    df *ABS*	00000000 isattyr.c
00000000 l    df *ABS*	00000000 lseekr.c
00000000 l    df *ABS*	00000000 readr.c
00000000 l    df *ABS*	00000000 wbuf.c
00000000 l    df *ABS*	00000000 wcrtomb.c
00000000 l    df *ABS*	00000000 wctomb_r.c
00000000 l    df *ABS*	00000000 libgcc2.c
00000000 l    df *ABS*	00000000 libgcc2.c
00000000 l    df *ABS*	00000000 lib2-divmod.c
0002e190 l     F .text	0000006c udivmodsi4
00000000 l    df *ABS*	00000000 lib2-mul.c
00000000 l    df *ABS*	00000000 adddf3.c
00000000 l    df *ABS*	00000000 divdf3.c
00000000 l    df *ABS*	00000000 eqdf2.c
00000000 l    df *ABS*	00000000 gedf2.c
00000000 l    df *ABS*	00000000 ledf2.c
00000000 l    df *ABS*	00000000 muldf3.c
00000000 l    df *ABS*	00000000 subdf3.c
00000000 l    df *ABS*	00000000 fixdfsi.c
00000000 l    df *ABS*	00000000 floatsidf.c
00000000 l    df *ABS*	00000000 floatunsidf.c
00000000 l    df *ABS*	00000000 libgcc2.c
00000000 l    df *ABS*	00000000 libgcc2.c
00000000 l    df *ABS*	00000000 alt_close.c
00030ae0 l     F .text	00000050 alt_get_errno
00000000 l    df *ABS*	00000000 alt_dev.c
00030c08 l     F .text	0000002c alt_dev_null_write
00000000 l    df *ABS*	00000000 alt_errno.c
00000000 l    df *ABS*	00000000 alt_fstat.c
00030c34 l     F .text	00000050 alt_get_errno
00000000 l    df *ABS*	00000000 alt_isatty.c
00030d3c l     F .text	00000050 alt_get_errno
00000000 l    df *ABS*	00000000 alt_load.c
00030e38 l     F .text	00000064 alt_load_section
00000000 l    df *ABS*	00000000 alt_lseek.c
00030f1c l     F .text	00000050 alt_get_errno
00000000 l    df *ABS*	00000000 alt_main.c
00000000 l    df *ABS*	00000000 alt_malloc_lock.c
00000000 l    df *ABS*	00000000 alt_read.c
00031100 l     F .text	00000050 alt_get_errno
00000000 l    df *ABS*	00000000 alt_release_fd.c
00000000 l    df *ABS*	00000000 alt_sbrk.c
00035430 l     O .rwdata	00000004 heap_end
00000000 l    df *ABS*	00000000 alt_tick.c
00000000 l    df *ABS*	00000000 alt_usleep.c
00000000 l    df *ABS*	00000000 alt_write.c
00031550 l     F .text	00000050 alt_get_errno
00000000 l    df *ABS*	00000000 alt_sys_init.c
000316a0 l     F .text	00000038 alt_dev_reg
000343a0 l     O .rwdata	00001060 jtag_uart
00000000 l    df *ABS*	00000000 altera_avalon_jtag_uart_fd.c
00000000 l    df *ABS*	00000000 altera_avalon_jtag_uart_init.c
00031994 l     F .text	00000204 altera_avalon_jtag_uart_irq
00031b98 l     F .text	000000a8 altera_avalon_jtag_uart_timeout
00000000 l    df *ABS*	00000000 altera_avalon_jtag_uart_ioctl.c
00000000 l    df *ABS*	00000000 altera_avalon_jtag_uart_read.c
00000000 l    df *ABS*	00000000 altera_avalon_jtag_uart_write.c
00000000 l    df *ABS*	00000000 altera_avalon_timer_sc.c
000321b8 l     F .text	00000074 alt_avalon_timer_sc_irq
00000000 l    df *ABS*	00000000 alt_alarm_start.c
00000000 l    df *ABS*	00000000 alt_busy_sleep.c
00000000 l    df *ABS*	00000000 alt_dcache_flush_all.c
00000000 l    df *ABS*	00000000 alt_dev_llist_insert.c
00032568 l     F .text	00000050 alt_get_errno
00000000 l    df *ABS*	00000000 alt_do_ctors.c
00000000 l    df *ABS*	00000000 alt_do_dtors.c
00000000 l    df *ABS*	00000000 alt_icache_flush_all.c
00000000 l    df *ABS*	00000000 alt_iic.c
00000000 l    df *ABS*	00000000 alt_iic_isr_register.c
00000000 l    df *ABS*	00000000 alt_io_redirect.c
00032a00 l     F .text	000000e0 alt_open_fd
00000000 l    df *ABS*	00000000 alt_irq_vars.c
00000000 l    df *ABS*	00000000 alt_open.c
00032b58 l     F .text	00000050 alt_get_errno
00032ba8 l     F .text	000000f4 alt_file_locked
00000000 l    df *ABS*	00000000 altera_nios2_gen2_irq.c
00000000 l    df *ABS*	00000000 alt_find_dev.c
00000000 l    df *ABS*	00000000 alt_find_file.c
00000000 l    df *ABS*	00000000 alt_get_fd.c
00000000 l    df *ABS*	00000000 atexit.c
00000000 l    df *ABS*	00000000 exit.c
00000000 l    df *ABS*	00000000 memcmp.c
00000000 l    df *ABS*	00000000 __atexit.c
00000000 l    df *ABS*	00000000 __call_atexit.c
00000000 l    df *ABS*	00000000 alt_exit.c
00036f60 g     O .bss	00000004 alt_instruction_exception_handler
00029934 g     F .text	00000074 _mprec_log10
00029a20 g     F .text	0000008c __any_on
0002d0b8 g     F .text	00000054 _isatty_r
000336d0 g     O .rodata	00000028 __mprec_tinytens
00031048 g     F .text	00000078 alt_main
00020be8 g     F .text	000000b8 _puts_r
00036f8c g     O .bss	00000100 alt_irq
0002d10c g     F .text	0000005c _lseek_r
00020524 g     F .text	00000060 ACK_check
00035440 g       *ABS*	00000000 __flash_rwdata_start
00020498 g     F .text	0000008c ACK_single_check
0002f500 g     F .text	00000084 .hidden __eqdf2
0003708c g       *ABS*	00000000 __alt_heap_start
00020bac g     F .text	0000003c printf
0002d334 g     F .text	0000009c _wcrtomb_r
0002a1ec g     F .text	0000005c __sseek
0002710c g     F .text	00000010 __sinit
0002d1c4 g     F .text	00000154 __swbuf_r
00027b84 g     F .text	0000007c _setlocale_r
00026f64 g     F .text	00000078 __sfmoreglue
000310e0 g     F .text	00000020 __malloc_unlock
000287e4 g     F .text	0000015c memmove
00020584 g     F .text	000001fc OC_I2C_Write
000270f4 g     F .text	00000018 _cleanup
00028a64 g     F .text	000000a8 _Balloc
0002f584 g     F .text	000000e0 .hidden __gtdf2
00032dfc g     F .text	00000020 altera_nios2_gen2_irq_init
00000000  w      *UND*	00000000 __errno
00020000 g     F .entry	0000000c __reset
00020020 g       *ABS*	00000000 __flash_exceptions_start
0002d060 g     F .text	00000058 _fstat_r
00036f44 g     O .bss	00000004 errno
0002a168 g     F .text	00000008 __seofread
0002a4bc g     F .text	000011d0 ___svfiprintf_internal_r
00036f4c g     O .bss	00000004 alt_argv
0003d400 g       *ABS*	00000000 _gp
00031520 g     F .text	00000030 usleep
00034220 g     O .rwdata	00000180 alt_fd_list
00032e1c g     F .text	00000090 alt_find_dev
000286ac g     F .text	00000138 memcpy
00026db8 g     F .text	0000000c _cleanup_r
00030908 g     F .text	000000d0 .hidden __floatsidf
00032ae0 g     F .text	00000078 alt_io_redirect
0002f664 g     F .text	000000e0 .hidden __ltdf2
000334d4 g       *ABS*	00000000 __DTOR_END__
00020ca0 g     F .text	00000014 puts
00033094 g     F .text	0000009c alt_exception_cause_generated_bad_addr
0002a04c g     F .text	00000074 __fpclassifyd
00029890 g     F .text	000000a4 __ratio
0002cbc4 g     F .text	00000024 __vfiprintf_internal
00031d94 g     F .text	0000020c altera_avalon_jtag_uart_read
00000000  w      *UND*	00000000 malloc
00020b80 g     F .text	0000002c _printf_r
0002e2ac g     F .text	00000008 .hidden __udivsi3
00030d8c g     F .text	000000ac isatty
00033720 g     O .rodata	000000c8 __mprec_tens
00027c00 g     F .text	0000000c __locale_charset
00025090 g     F .text	00000040 vsnprintf
00036f40 g     O .bss	00000004 __malloc_top_pad
00035408 g     O .rwdata	00000004 __mb_cur_max
00027c30 g     F .text	0000000c _localeconv_r
00028e8c g     F .text	0000003c __i2b
00027570 g     F .text	000004a4 __sfvwrite_r
0002a0c0 g     F .text	00000054 _sbrk_r
0002d168 g     F .text	0000005c _read_r
00035428 g     O .rwdata	00000004 alt_max_fd
0002cd70 g     F .text	00000100 _fclose_r
00026d78 g     F .text	00000030 fflush
00036f3c g     O .bss	00000004 __malloc_max_sbrked_mem
0002e2e4 g     F .text	0000089c .hidden __adddf3
00029638 g     F .text	0000011c __b2d
0002db74 g     F .text	0000061c .hidden __umoddi3
00030f6c g     F .text	000000dc lseek
00035400 g     O .rwdata	00000004 _global_impure_ptr
00029aac g     F .text	000005a0 _realloc_r
0003708c g       *ABS*	00000000 __bss_end
00032910 g     F .text	000000f0 alt_iic_isr_register
0003141c g     F .text	00000104 alt_tick
0002d534 g     F .text	00000640 .hidden __udivdi3
0002ce84 g     F .text	00000184 _fputwc_r
000336f8 g     O .rodata	00000028 __mprec_bigtens
00028c70 g     F .text	00000104 __s2b
000309d8 g     F .text	000000a4 .hidden __floatunsidf
000293e0 g     F .text	00000060 __mcmp
0002712c g     F .text	00000018 __fp_lock_all
000328c4 g     F .text	0000004c alt_ic_irq_enabled
00031384 g     F .text	00000098 alt_alarm_stop
00036f5c g     O .bss	00000004 alt_irq_active
00020780 g     F .text	00000064 ACK_judge_for_read
000200fc g     F .exceptions	000000d0 alt_irq_handler
000341f8 g     O .rwdata	00000028 alt_dev_null
000202cc g     F .text	00000058 Write32_Data
0003254c g     F .text	0000001c alt_dcache_flush_all
00028d74 g     F .text	00000068 __hi0bits
00030880 g     F .text	00000088 .hidden __fixdfsi
00035440 g       *ABS*	00000000 __ram_rwdata_end
00035420 g     O .rwdata	00000008 alt_dev_list
000315a0 g     F .text	00000100 write
00033954 g       *ABS*	00000000 __ram_rodata_end
00030c84 g     F .text	000000b8 fstat
0002f664 g     F .text	000000e0 .hidden __ledf2
000209fc g     F .text	0000006c myprintf
00029158 g     F .text	00000140 __pow5mult
0002b7a0 g     F .text	00001424 ___vfiprintf_internal_r
00036f34 g     O .bss	00000004 __nlocale_changed
0002e2b4 g     F .text	00000008 .hidden __umodsi3
0003708c g       *ABS*	00000000 end
000318d0 g     F .text	000000c4 altera_avalon_jtag_uart_init
000201cc g     F .exceptions	00000060 alt_instruction_exception_entry
000334d4 g       *ABS*	00000000 __CTOR_LIST__
000386a0 g       *ABS*	00000000 __alt_stack_pointer
0003222c g     F .text	00000088 alt_avalon_timer_sc_init
00030a7c g     F .text	00000064 .hidden __clzsi2
00031fa0 g     F .text	00000218 altera_avalon_jtag_uart_write
0002711c g     F .text	00000004 __sfp_lock_acquire
000285c4 g     F .text	000000e8 memchr
00022e80 g     F .text	000020fc ___vfprintf_internal_r
00020cb4 g     F .text	00000058 _sprintf_r
00027280 g     F .text	000002f0 _free_r
00027c0c g     F .text	00000010 __locale_mb_cur_max
0003330c g     F .text	00000194 __call_exitprocs
00036f30 g     O .bss	00000004 __mlocale_changed
0003540c g     O .rwdata	00000004 __malloc_sbrk_base
0002022c g     F .text	0000003c _start
00036f54 g     O .bss	00000004 _alt_tick_rate
00029298 g     F .text	00000148 __lshift
00036f58 g     O .bss	00000004 _alt_nticks
00031150 g     F .text	00000104 read
0003170c g     F .text	00000060 alt_sys_init
0002a2f4 g     F .text	000001c8 __ssprint_r
000331f8 g     F .text	00000114 __register_exitproc
00028ec8 g     F .text	00000290 __multiply
00031c40 g     F .text	00000068 altera_avalon_jtag_uart_close
0002e2bc g     F .text	00000028 .hidden __mulsi3
00033954 g       *ABS*	00000000 __ram_rwdata_start
000334d4 g       *ABS*	00000000 __ram_rodata_start
00036f64 g     O .bss	00000028 __malloc_current_mallinfo
00029754 g     F .text	0000013c __d2b
0003176c g     F .text	00000060 altera_avalon_jtag_uart_read_fd
00032fc0 g     F .text	000000d4 alt_get_fd
000323f4 g     F .text	00000158 alt_busy_sleep
0002cc44 g     F .text	00000054 _close_r
0003317c g     F .text	0000007c memcmp
0003182c g     F .text	00000050 altera_avalon_jtag_uart_close_fd
0003708c g       *ABS*	00000000 __alt_stack_base
0003187c g     F .text	00000054 altera_avalon_jtag_uart_ioctl_fd
000250d0 g     F .text	00000130 __swsetup_r
0002037c g     F .text	0000011c oc_i2c_init
0002eb80 g     F .text	00000980 .hidden __divdf3
00026fdc g     F .text	00000118 __sfp
000299a8 g     F .text	00000078 __copybits
00033df0 g     O .rwdata	00000408 __malloc_av_
00027128 g     F .text	00000004 __sinit_lock_release
00024fa0 g     F .text	000000f0 _vsnprintf_r
0002f744 g     F .text	0000086c .hidden __muldf3
0002a114 g     F .text	00000054 __sread
00032eac g     F .text	00000114 alt_find_file
000325b8 g     F .text	000000a4 alt_dev_llist_insert
000310c0 g     F .text	00000020 __malloc_lock
000312d4 g     F .text	000000b0 sbrk
00020e10 g     F .text	00002070 ___svfprintf_internal_r
00026b50 g     F .text	00000228 _fflush_r
0002cc98 g     F .text	000000d8 _calloc_r
00036f2c g       *ABS*	00000000 __bss_start
00028940 g     F .text	00000124 memset
00020268 g     F .text	00000064 main
00036f50 g     O .bss	00000004 alt_envp
00036f38 g     O .bss	00000004 __malloc_max_total_mem
00020a68 g     F .text	00000088 myprintf_hexarray
000317cc g     F .text	00000060 altera_avalon_jtag_uart_write_fd
0002d318 g     F .text	0000001c __swbuf
0002a248 g     F .text	00000008 __sclose
000386a0 g       *ABS*	00000000 __alt_heap_limit
0002ce70 g     F .text	00000014 fclose
00025428 g     F .text	00001728 _dtoa_r
00027e1c g     F .text	000007a8 _malloc_r
0002d4a8 g     F .text	00000030 __ascii_wctomb
0003542c g     O .rwdata	00000004 alt_errno
00027a14 g     F .text	000000b8 _fwalk
0002e1fc g     F .text	00000054 .hidden __divsi3
0002715c g     F .text	00000124 _malloc_trim_r
000334d4 g       *ABS*	00000000 __CTOR_END__
0002a250 g     F .text	000000a4 strcmp
000334d4 g       *ABS*	00000000 __flash_rodata_start
000334d4 g       *ABS*	00000000 __DTOR_LIST__
0002f500 g     F .text	00000084 .hidden __nedf2
000316d8 g     F .text	00000034 alt_irq_init
00031254 g     F .text	00000080 alt_release_fd
00020d0c g     F .text	0000006c sprintf
00033828 g     O .rodata	00000100 .hidden __clz_tab
000209cc g     F .text	00000030 debug_output
00036f2c g     O .bss	00000004 _PathLocale
00033130 g     F .text	00000014 atexit
0002cbe8 g     F .text	0000005c _write_r
00027c3c g     F .text	0000001c setlocale
00035404 g     O .rwdata	00000004 _impure_ptr
00036f48 g     O .bss	00000004 alt_argc
000326b8 g     F .text	0000005c _do_dtors
00027c28 g     F .text	00000008 __locale_cjk_lang
00020af0 g     F .text	00000090 myprintf_dwordarray
00020020 g       .exceptions	00000000 alt_irq_entry
000295d8 g     F .text	00000060 __ulp
00027144 g     F .text	00000018 __fp_unlock_all
00035418 g     O .rwdata	00000008 alt_fs_list
00020324 g     F .text	00000058 Read32_Data
000207e4 g     F .text	000001e8 OC_I2C_Read
00020020 g       *ABS*	00000000 __ram_exceptions_start
00027c58 g     F .text	0000000c localeconv
00020000 g       *ABS*	00000000 __alt_mem_onchip_memory2
00032730 g     F .text	00000050 alt_ic_isr_register
00035440 g       *ABS*	00000000 _edata
0003708c g       *ABS*	00000000 _end
0002022c g       *ABS*	00000000 __ram_exceptions_end
00031ca8 g     F .text	000000ec altera_avalon_jtag_uart_ioctl
00032820 g     F .text	000000a4 alt_ic_irq_disable
0002a170 g     F .text	0000007c __swrite
00035410 g     O .rwdata	00000004 __malloc_trim_threshold
00027c1c g     F .text	0000000c __locale_msgcharset
00033144 g     F .text	00000038 exit
00027acc g     F .text	000000b8 _fwalk_reent
00029440 g     F .text	00000198 __mdiff
0002e250 g     F .text	0000005c .hidden __modsi3
000386a0 g       *ABS*	00000000 __alt_data_end
00020020 g     F .exceptions	00000000 alt_exception
00027120 g     F .text	00000004 __sfp_lock_release
000334a0 g     F .text	00000034 _exit
000322b4 g     F .text	00000140 alt_alarm_start
00027c64 g     F .text	000001b8 __smakebuf_r
00020d78 g     F .text	00000098 strlen
00032c9c g     F .text	00000160 open
0002f584 g     F .text	000000e0 .hidden __gedf2
00035414 g     O .rwdata	00000004 __wctomb
0002b788 g     F .text	00000018 __sprint_r
00032714 g     F .text	0000001c alt_icache_flush_all
0003543c g     O .rwdata	00000004 alt_priority_mask
00032780 g     F .text	000000a0 alt_ic_irq_enable
00024f7c g     F .text	00000024 __vfprintf_internal
0002d4d8 g     F .text	0000005c _wctomb_r
0002ffb0 g     F .text	000008d0 .hidden __subdf3
00028ddc g     F .text	000000b0 __lo0bits
00035434 g     O .rwdata	00000008 alt_alarm_list
0003265c g     F .text	0000005c _do_ctors
0002d3d0 g     F .text	000000d8 wcrtomb
00030b30 g     F .text	000000d8 close
00030e9c g     F .text	00000080 alt_load
0002d008 g     F .text	00000058 fputwc
00000000  w      *UND*	00000000 free
00027124 g     F .text	00000004 __sinit_lock_acquire
00028b34 g     F .text	0000013c __multadd
00028b0c g     F .text	00000028 _Bfree



Disassembly of section .entry:

00020000 <__reset>:
 * Jump to the _start entry point in the .text section if reset code
 * is allowed or if optimizing for RTL simulation.
 */
#if defined(ALT_ALLOW_CODE_AT_RESET) || defined(ALT_SIM_OPTIMIZE)
    /* Jump to the _start entry point in the .text section. */
    movhi r1, %hi(_start)
   20000:	004000b4 	movhi	at,2
    ori r1, r1, %lo(_start)
   20004:	08408b14 	ori	at,at,556
    jmp r1
   20008:	0800683a 	jmp	at
	...

Disassembly of section .exceptions:

00020020 <alt_exception>:

#else /* ALT_EXCEPTION_STACK disabled */
        /* 
         * Reserve space on normal stack for registers about to be pushed.
         */
        addi  sp, sp, -76
   20020:	deffed04 	addi	sp,sp,-76
         * documentation for details).
         *
         * Leave a gap in the stack frame at 4(sp) for the muldiv handler to
         * store zero into.
         */
        stw   ra,  0(sp)
   20024:	dfc00015 	stw	ra,0(sp)
        stw   r1,   8(sp)
   20028:	d8400215 	stw	at,8(sp)
        stw   r2,  12(sp)
   2002c:	d8800315 	stw	r2,12(sp)
        stw   r3,  16(sp)
   20030:	d8c00415 	stw	r3,16(sp)
        stw   r4,  20(sp)
   20034:	d9000515 	stw	r4,20(sp)
        stw   r5,  24(sp)
   20038:	d9400615 	stw	r5,24(sp)
        stw   r6,  28(sp)
   2003c:	d9800715 	stw	r6,28(sp)
        stw   r7,  32(sp)
   20040:	d9c00815 	stw	r7,32(sp)
        rdctl r5, estatus   /* Read early to avoid usage stall */
   20044:	000b307a 	rdctl	r5,estatus
        stw   r8,  36(sp)
   20048:	da000915 	stw	r8,36(sp)
        stw   r9,  40(sp)
   2004c:	da400a15 	stw	r9,40(sp)
        stw   r10, 44(sp)
   20050:	da800b15 	stw	r10,44(sp)
        stw   r11, 48(sp)
   20054:	dac00c15 	stw	r11,48(sp)
        stw   r12, 52(sp)
   20058:	db000d15 	stw	r12,52(sp)
        stw   r13, 56(sp)
   2005c:	db400e15 	stw	r13,56(sp)
        stw   r14, 60(sp)
   20060:	db800f15 	stw	r14,60(sp)
        stw   r15, 64(sp)
   20064:	dbc01015 	stw	r15,64(sp)
        /*
         * ea-4 contains the address of the instruction being executed
         * when the exception occured. For interrupt exceptions, we will
         * will be re-issue the isntruction. Store it in 72(sp)
         */
        stw   r5,  68(sp)  /* estatus */
   20068:	d9401115 	stw	r5,68(sp)
        addi  r15, ea, -4  /* instruction that caused exception */
   2006c:	ebffff04 	addi	r15,ea,-4
        stw   r15,  72(sp)
   20070:	dbc01215 	stw	r15,72(sp)
#else
        /*
         * Test to see if the exception was a software exception or caused 
         * by an external interrupt, and vector accordingly.
         */
        rdctl r4, ipending
   20074:	0009313a 	rdctl	r4,ipending
        andi  r2, r5, 1
   20078:	2880004c 	andi	r2,r5,1
        beq   r2, zero, .Lnot_irq
   2007c:	10000326 	beq	r2,zero,2008c <alt_exception+0x6c>
        beq   r4, zero, .Lnot_irq
   20080:	20000226 	beq	r4,zero,2008c <alt_exception+0x6c>
        /*
         * Now that all necessary registers have been preserved, call 
         * alt_irq_handler() to process the interrupts.
         */

        call alt_irq_handler
   20084:	00200fc0 	call	200fc <alt_irq_handler>

        .section .exceptions.irqreturn, "xa"

        br    .Lexception_exit
   20088:	00000706 	br	200a8 <alt_exception+0x88>
         * upon completion, so we write ea (address of instruction *after*
         * the one where the exception occured) into 72(sp). The actual
         * instruction that caused the exception is written in r2, which these
         * handlers will utilize.
         */
        stw   ea,  72(sp)  /* Don't re-issue */
   2008c:	df401215 	stw	ea,72(sp)
        ldhu.n  r2, 0(r4)
        ldhu.n  r3, 2(r4)
        slli.n  r3, r3, 16
        or.n    r2, r2, r3 /* Instruction that caused exception */
#else
        ldw   r2, -4(ea)   /* Instruction that caused exception */
   20090:	e8bfff17 	ldw	r2,-4(ea)
         * debugger is present) or go into an infinite loop since the
         * handling behavior is undefined; in that case we will not return here.
         */

        /* Load exception-causing address as first argument (r4) */
        addi   r4, ea, -4
   20094:	e93fff04 	addi	r4,ea,-4

        /* Call the instruction-exception entry */
        call   alt_instruction_exception_entry
   20098:	00201cc0 	call	201cc <alt_instruction_exception_entry>
         * instruction
         *
         * Return code was 0: Skip. The instruction after the exception is
         * already stored in 72(sp).
         */
        bne   r2, r0, .Lexception_exit
   2009c:	1000021e 	bne	r2,zero,200a8 <alt_exception+0x88>

        /*
         * Otherwise, modify 72(sp) to re-issue the instruction that caused the
         * exception.
         */
        addi  r15, ea, -4  /* instruction that caused exception */
   200a0:	ebffff04 	addi	r15,ea,-4
        stw   r15,  72(sp)
   200a4:	dbc01215 	stw	r15,72(sp)
        /* 
         * Restore the saved registers, so that all general purpose registers 
         * have been restored to their state at the time the interrupt occured.
         */

        ldw   r5,  68(sp)
   200a8:	d9401117 	ldw	r5,68(sp)
        ldw   ea,  72(sp)  /* This becomes the PC once eret is executed */
   200ac:	df401217 	ldw	ea,72(sp)
        ldw   ra,   0(sp)
   200b0:	dfc00017 	ldw	ra,0(sp)

        wrctl estatus, r5
   200b4:	2801707a 	wrctl	estatus,r5

        ldw   r1,   8(sp)
   200b8:	d8400217 	ldw	at,8(sp)
        ldw   r2,  12(sp)
   200bc:	d8800317 	ldw	r2,12(sp)
        ldw   r3,  16(sp)
   200c0:	d8c00417 	ldw	r3,16(sp)
        ldw   r4,  20(sp)
   200c4:	d9000517 	ldw	r4,20(sp)
        ldw   r5,  24(sp)
   200c8:	d9400617 	ldw	r5,24(sp)
        ldw   r6,  28(sp)
   200cc:	d9800717 	ldw	r6,28(sp)
        ldw   r7,  32(sp)
   200d0:	d9c00817 	ldw	r7,32(sp)

#if defined(ALT_EXCEPTION_STACK) && defined(ALT_STACK_CHECK)
        ldw   et, %gprel(alt_exception_old_stack_limit)(gp)
#endif

        ldw   r8,  36(sp)
   200d4:	da000917 	ldw	r8,36(sp)
        ldw   r9,  40(sp)
   200d8:	da400a17 	ldw	r9,40(sp)
        ldw   r10, 44(sp)
   200dc:	da800b17 	ldw	r10,44(sp)
        ldw   r11, 48(sp)
   200e0:	dac00c17 	ldw	r11,48(sp)
        ldw   r12, 52(sp)
   200e4:	db000d17 	ldw	r12,52(sp)
        ldw   r13, 56(sp)
   200e8:	db400e17 	ldw	r13,56(sp)
        ldw   r14, 60(sp)
   200ec:	db800f17 	ldw	r14,60(sp)
        ldw   r15, 64(sp)
   200f0:	dbc01017 	ldw	r15,64(sp)
        stw   et, %gprel(alt_stack_limit_value)(gp)
        stw   zero, %gprel(alt_exception_old_stack_limit)(gp)
#endif /* ALT_STACK_CHECK */
        ldw   sp,  76(sp)
#else /* ALT_EXCEPTION_STACK disabled */
        addi  sp, sp, 76
   200f4:	dec01304 	addi	sp,sp,76

        /*
         * Return to the interrupted instruction.
         */

        eret
   200f8:	ef80083a 	eret

000200fc <alt_irq_handler>:
 * instruction is present if the macro ALT_CI_INTERRUPT_VECTOR defined.
 */

void alt_irq_handler (void) __attribute__ ((section (".exceptions")));
void alt_irq_handler (void)
{
   200fc:	defff904 	addi	sp,sp,-28
   20100:	dfc00615 	stw	ra,24(sp)
   20104:	df000515 	stw	fp,20(sp)
   20108:	df000504 	addi	fp,sp,20
  
  /*
   * Notify the operating system that we are at interrupt level.
   */ 
  
  ALT_OS_INT_ENTER();
   2010c:	0001883a 	nop
#ifndef NIOS2_EIC_PRESENT
static ALT_INLINE alt_u32 ALT_ALWAYS_INLINE alt_irq_pending (void)
{
  alt_u32 active;

  NIOS2_READ_IPENDING (active);
   20110:	0005313a 	rdctl	r2,ipending
   20114:	e0bffe15 	stw	r2,-8(fp)

  return active;
   20118:	e0bffe17 	ldw	r2,-8(fp)
   * Consider the case where the high priority interupt is asserted during
   * the interrupt entry sequence for a lower priority interrupt to see why
   * this is the case.
   */

  active = alt_irq_pending ();
   2011c:	e0bffb15 	stw	r2,-20(fp)

  do
  {
    i = 0;
   20120:	e03ffd15 	stw	zero,-12(fp)
    mask = 1;
   20124:	00800044 	movi	r2,1
   20128:	e0bffc15 	stw	r2,-16(fp)
     * called to clear the interrupt condition.
     */

    do
    {
      if (active & mask)
   2012c:	e0fffb17 	ldw	r3,-20(fp)
   20130:	e0bffc17 	ldw	r2,-16(fp)
   20134:	1884703a 	and	r2,r3,r2
   20138:	10001426 	beq	r2,zero,2018c <alt_irq_handler+0x90>
      { 
#ifdef ALT_ENHANCED_INTERRUPT_API_PRESENT
        alt_irq[i].handler(alt_irq[i].context); 
   2013c:	008000f4 	movhi	r2,3
   20140:	109be304 	addi	r2,r2,28556
   20144:	e0fffd17 	ldw	r3,-12(fp)
   20148:	180690fa 	slli	r3,r3,3
   2014c:	10c5883a 	add	r2,r2,r3
   20150:	10c00017 	ldw	r3,0(r2)
   20154:	008000f4 	movhi	r2,3
   20158:	109be304 	addi	r2,r2,28556
   2015c:	e13ffd17 	ldw	r4,-12(fp)
   20160:	200890fa 	slli	r4,r4,3
   20164:	1105883a 	add	r2,r2,r4
   20168:	10800104 	addi	r2,r2,4
   2016c:	10800017 	ldw	r2,0(r2)
   20170:	1009883a 	mov	r4,r2
   20174:	183ee83a 	callr	r3
#else
        alt_irq[i].handler(alt_irq[i].context, i); 
#endif
        break;
   20178:	0001883a 	nop
#ifndef NIOS2_EIC_PRESENT
static ALT_INLINE alt_u32 ALT_ALWAYS_INLINE alt_irq_pending (void)
{
  alt_u32 active;

  NIOS2_READ_IPENDING (active);
   2017c:	0005313a 	rdctl	r2,ipending
   20180:	e0bfff15 	stw	r2,-4(fp)

  return active;
   20184:	e0bfff17 	ldw	r2,-4(fp)
   20188:	00000706 	br	201a8 <alt_irq_handler+0xac>
      }
      mask <<= 1;
   2018c:	e0bffc17 	ldw	r2,-16(fp)
   20190:	1085883a 	add	r2,r2,r2
   20194:	e0bffc15 	stw	r2,-16(fp)
      i++;
   20198:	e0bffd17 	ldw	r2,-12(fp)
   2019c:	10800044 	addi	r2,r2,1
   201a0:	e0bffd15 	stw	r2,-12(fp)

    } while (1);
   201a4:	003fe106 	br	2012c <_gp+0xfffe2d2c>

    active = alt_irq_pending ();
   201a8:	e0bffb15 	stw	r2,-20(fp)
    
  } while (active);
   201ac:	e0bffb17 	ldw	r2,-20(fp)
   201b0:	103fdb1e 	bne	r2,zero,20120 <_gp+0xfffe2d20>

  /*
   * Notify the operating system that interrupt processing is complete.
   */ 

  ALT_OS_INT_EXIT();
   201b4:	0001883a 	nop
}
   201b8:	e037883a 	mov	sp,fp
   201bc:	dfc00117 	ldw	ra,4(sp)
   201c0:	df000017 	ldw	fp,0(sp)
   201c4:	dec00204 	addi	sp,sp,8
   201c8:	f800283a 	ret

000201cc <alt_instruction_exception_entry>:
 * that handler if it has been registered. Absent a handler, it will
 * break break or hang as discussed below.
 */
int 
alt_instruction_exception_entry (alt_u32 exception_pc)
{
   201cc:	defffb04 	addi	sp,sp,-20
   201d0:	dfc00415 	stw	ra,16(sp)
   201d4:	df000315 	stw	fp,12(sp)
   201d8:	df000304 	addi	fp,sp,12
   201dc:	e13fff15 	stw	r4,-4(fp)
  cause = ( (cause & NIOS2_EXCEPTION_REG_CAUSE_MASK) >>
              NIOS2_EXCEPTION_REG_CAUSE_OFST );

  NIOS2_READ_BADADDR(badaddr);
#else
  cause = NIOS2_EXCEPTION_CAUSE_NOT_PRESENT;
   201e0:	00bfffc4 	movi	r2,-1
   201e4:	e0bffd15 	stw	r2,-12(fp)
  badaddr = 0;
   201e8:	e03ffe15 	stw	zero,-8(fp)
#endif /* NIOS2_HAS_EXTRA_EXCEPTION_INFO */

  if(alt_instruction_exception_handler) {
   201ec:	d0a6d817 	ldw	r2,-25760(gp)
   201f0:	10000726 	beq	r2,zero,20210 <alt_instruction_exception_entry+0x44>
     * Call handler. Its return value indicates whether the exception-causing
     * instruction should be re-issued. The code that called us,
     * alt_eceptions_entry.S, will look at this value and adjust the ea
     * register as necessary
     */
    return alt_instruction_exception_handler(cause, exception_pc, badaddr);
   201f4:	d0a6d817 	ldw	r2,-25760(gp)
   201f8:	e0fffd17 	ldw	r3,-12(fp)
   201fc:	1809883a 	mov	r4,r3
   20200:	e17fff17 	ldw	r5,-4(fp)
   20204:	e1bffe17 	ldw	r6,-8(fp)
   20208:	103ee83a 	callr	r2
   2020c:	00000206 	br	20218 <alt_instruction_exception_entry+0x4c>
   *    (a peripheral which negates its interrupt output before its
   *    interrupt handler has been executed will cause spurious interrupts)
   */
  else {
#ifdef NIOS2_HAS_DEBUG_STUB
    NIOS2_BREAK();
   20210:	003da03a 	break	0
      ;
#endif /* NIOS2_HAS_DEBUG_STUB */
  }

  /* We should not get here. Remove compiler warning. */
  return NIOS2_EXCEPTION_RETURN_REISSUE_INST;
   20214:	0005883a 	mov	r2,zero
}
   20218:	e037883a 	mov	sp,fp
   2021c:	dfc00117 	ldw	ra,4(sp)
   20220:	df000017 	ldw	fp,0(sp)
   20224:	dec00204 	addi	sp,sp,8
   20228:	f800283a 	ret

Disassembly of section .text:

0002022c <_start>:

    /*
     * Now that the caches are initialized, set up the stack pointer and global pointer.
     * The values provided by the linker are assumed to be correctly aligned.
     */
    movhi sp, %hi(__alt_stack_pointer)
   2022c:	06c000f4 	movhi	sp,3
    ori sp, sp, %lo(__alt_stack_pointer)
   20230:	dee1a814 	ori	sp,sp,34464
    movhi gp, %hi(_gp)
   20234:	068000f4 	movhi	gp,3
    ori gp, gp, %lo(_gp)
   20238:	d6b50014 	ori	gp,gp,54272
 */
#ifndef ALT_SIM_OPTIMIZE
    /* Log that the BSS is about to be cleared. */
    ALT_LOG_PUTS(alt_log_msg_bss)

    movhi r2, %hi(__bss_start)
   2023c:	008000f4 	movhi	r2,3
    ori r2, r2, %lo(__bss_start)
   20240:	109bcb14 	ori	r2,r2,28460

    movhi r3, %hi(__bss_end)
   20244:	00c000f4 	movhi	r3,3
    ori r3, r3, %lo(__bss_end)
   20248:	18dc2314 	ori	r3,r3,28812

    beq r2, r3, 1f
   2024c:	10c00326 	beq	r2,r3,2025c <_start+0x30>

0:
    stw zero, (r2)
   20250:	10000015 	stw	zero,0(r2)
    addi r2, r2, 4
   20254:	10800104 	addi	r2,r2,4
    bltu r2, r3, 0b
   20258:	10fffd36 	bltu	r2,r3,20250 <_gp+0xfffe2e50>
     * section aren't defined until alt_load() has been called).
     */
    mov   et, zero
#endif

    call alt_load
   2025c:	0030e9c0 	call	30e9c <alt_load>

    /* Log that alt_main is about to be called. */
    ALT_LOG_PUTS(alt_log_msg_alt_main)

    /* Call the C entry point. It should never return. */
    call alt_main
   20260:	00310480 	call	31048 <alt_main>

00020264 <alt_after_alt_main>:

    /* Wait in infinite loop in case alt_main does return. */
alt_after_alt_main:
    br alt_after_alt_main
   20264:	003fff06 	br	20264 <_gp+0xfffe2e64>

00020268 <main>:
#include "I2C_core.h"
#define Device_Addr 0x6e //0x37
#define Button_State 0xaa

int main()
{
   20268:	deffbc04 	addi	sp,sp,-272
   2026c:	dfc04315 	stw	ra,268(sp)
   20270:	df004215 	stw	fp,264(sp)
   20274:	df004204 	addi	fp,sp,264
  alt_u16 Data16;
  alt_u8 szData1[2];
  alt_u8 szData0[1];

  int value,i;
  oc_i2c_init(I2C_OPENCORES_BASE);
   20278:	01000134 	movhi	r4,4
   2027c:	21040804 	addi	r4,r4,4128
   20280:	002037c0 	call	2037c <oc_i2c_init>
  printf("Please touch the CapSense Buttons on DECA.");
   20284:	010000f4 	movhi	r4,3
   20288:	210d3504 	addi	r4,r4,13524
   2028c:	0020bac0 	call	20bac <printf>
  while(1)
  {
    OC_I2C_Read(I2C_OPENCORES_BASE,Device_Addr,Button_State,&szValue,2);
   20290:	00800084 	movi	r2,2
   20294:	d8800015 	stw	r2,0(sp)
   20298:	01000134 	movhi	r4,4
   2029c:	21040804 	addi	r4,r4,4128
   202a0:	01401b84 	movi	r5,110
   202a4:	01802a84 	movi	r6,170
   202a8:	e1ffbf04 	addi	r7,fp,-260
   202ac:	00207e40 	call	207e4 <OC_I2C_Read>
    IOWR(LED_BASE,0,~szValue[0]);
   202b0:	e0bfbf03 	ldbu	r2,-260(fp)
   202b4:	10803fcc 	andi	r2,r2,255
   202b8:	0086303a 	nor	r3,zero,r2
   202bc:	00800134 	movhi	r2,4
   202c0:	10841004 	addi	r2,r2,4160
   202c4:	10c00035 	stwio	r3,0(r2)
  }
   202c8:	003ff106 	br	20290 <_gp+0xfffe2e90>

000202cc <Write32_Data>:

#define SLEEP_TIME 15  //us
#define TRUE 1
#define FALSE 0

bool Write32_Data(alt_32 base_address, alt_32 offset_address, alt_32 Data){
   202cc:	defffb04 	addi	sp,sp,-20
   202d0:	df000415 	stw	fp,16(sp)
   202d4:	df000404 	addi	fp,sp,16
   202d8:	e13ffd15 	stw	r4,-12(fp)
   202dc:	e17ffe15 	stw	r5,-8(fp)
   202e0:	e1bfff15 	stw	r6,-4(fp)
	bool bPass;
    IOWR(base_address, offset_address,Data);
   202e4:	e0bffe17 	ldw	r2,-8(fp)
   202e8:	1085883a 	add	r2,r2,r2
   202ec:	1085883a 	add	r2,r2,r2
   202f0:	1007883a 	mov	r3,r2
   202f4:	e0bffd17 	ldw	r2,-12(fp)
   202f8:	1885883a 	add	r2,r3,r2
   202fc:	1007883a 	mov	r3,r2
   20300:	e0bfff17 	ldw	r2,-4(fp)
   20304:	18800035 	stwio	r2,0(r3)
    bPass=TRUE;
   20308:	00800044 	movi	r2,1
   2030c:	e0bffc15 	stw	r2,-16(fp)
    return bPass;
   20310:	e0bffc17 	ldw	r2,-16(fp)
}
   20314:	e037883a 	mov	sp,fp
   20318:	df000017 	ldw	fp,0(sp)
   2031c:	dec00104 	addi	sp,sp,4
   20320:	f800283a 	ret

00020324 <Read32_Data>:



bool  Read32_Data(alt_32 base_address, alt_32 offset_address, alt_32 *pData32){
   20324:	defffb04 	addi	sp,sp,-20
   20328:	df000415 	stw	fp,16(sp)
   2032c:	df000404 	addi	fp,sp,16
   20330:	e13ffd15 	stw	r4,-12(fp)
   20334:	e17ffe15 	stw	r5,-8(fp)
   20338:	e1bfff15 	stw	r6,-4(fp)
	bool bPass;
	*pData32 =IORD(base_address ,offset_address  );
   2033c:	e0bffe17 	ldw	r2,-8(fp)
   20340:	1085883a 	add	r2,r2,r2
   20344:	1085883a 	add	r2,r2,r2
   20348:	1007883a 	mov	r3,r2
   2034c:	e0bffd17 	ldw	r2,-12(fp)
   20350:	1885883a 	add	r2,r3,r2
   20354:	10c00037 	ldwio	r3,0(r2)
   20358:	e0bfff17 	ldw	r2,-4(fp)
   2035c:	10c00015 	stw	r3,0(r2)
	bPass=TRUE;
   20360:	00800044 	movi	r2,1
   20364:	e0bffc15 	stw	r2,-16(fp)
    return bPass;
   20368:	e0bffc17 	ldw	r2,-16(fp)
}
   2036c:	e037883a 	mov	sp,fp
   20370:	df000017 	ldw	fp,0(sp)
   20374:	dec00104 	addi	sp,sp,4
   20378:	f800283a 	ret

0002037c <oc_i2c_init>:

bool oc_i2c_init(alt_32 i2c_base)
{
   2037c:	defffb04 	addi	sp,sp,-20
   20380:	dfc00415 	stw	ra,16(sp)
   20384:	df000315 	stw	fp,12(sp)
   20388:	df000304 	addi	fp,sp,12
   2038c:	e13fff15 	stw	r4,-4(fp)
	bool bSuccess=TRUE;
   20390:	00800044 	movi	r2,1
   20394:	e0bffd15 	stw	r2,-12(fp)
	alt_u32 read_data;
    // I2c sysclock =50M hz
	// i2c scl max 400k
	//scl =sysclock/(prescale*5)
	//add
	IOWR(i2c_base,2,0);
   20398:	e0bfff17 	ldw	r2,-4(fp)
   2039c:	10800204 	addi	r2,r2,8
   203a0:	0007883a 	mov	r3,zero
   203a4:	10c00035 	stwio	r3,0(r2)
	IOWR(i2c_base,4,0x1);
   203a8:	e0bfff17 	ldw	r2,-4(fp)
   203ac:	10800404 	addi	r2,r2,16
   203b0:	1007883a 	mov	r3,r2
   203b4:	00800044 	movi	r2,1
   203b8:	18800035 	stwio	r2,0(r3)
	//add
   IOWR(i2c_base, 0,0x18);//write low prescale
   203bc:	e0bfff17 	ldw	r2,-4(fp)
   203c0:	00c00604 	movi	r3,24
   203c4:	10c00035 	stwio	r3,0(r2)
   IOWR(i2c_base, 1,0x00);//write hi prescale
   203c8:	e0bfff17 	ldw	r2,-4(fp)
   203cc:	10800104 	addi	r2,r2,4
   203d0:	0007883a 	mov	r3,zero
   203d4:	10c00035 	stwio	r3,0(r2)
   //add



   //enable the I2C core, but disable the IRQ
   IOWR( i2c_base, 2,0x80);
   203d8:	e0bfff17 	ldw	r2,-4(fp)
   203dc:	10800204 	addi	r2,r2,8
   203e0:	1007883a 	mov	r3,r2
   203e4:	00802004 	movi	r2,128
   203e8:	18800035 	stwio	r2,0(r3)

    read_data =IORD(i2c_base, 0);
   203ec:	e0bfff17 	ldw	r2,-4(fp)
   203f0:	10800037 	ldwio	r2,0(r2)
   203f4:	e0bffe15 	stw	r2,-8(fp)
    if( (read_data & 0x00ff) != 0x18)
   203f8:	e0bffe17 	ldw	r2,-8(fp)
   203fc:	10803fcc 	andi	r2,r2,255
   20400:	10800620 	cmpeqi	r2,r2,24
   20404:	10000a1e 	bne	r2,zero,20430 <oc_i2c_init+0xb4>
    {
    	bSuccess = FALSE;
   20408:	e03ffd15 	stw	zero,-12(fp)
       	read_data =IORD(i2c_base, 1);
   2040c:	e0bfff17 	ldw	r2,-4(fp)
   20410:	10800104 	addi	r2,r2,4
   20414:	10800037 	ldwio	r2,0(r2)
   20418:	e0bffe15 	stw	r2,-8(fp)
		if((read_data & 0x00ff) != 0x00){
   2041c:	e0bffe17 	ldw	r2,-8(fp)
   20420:	10803fcc 	andi	r2,r2,255
   20424:	10000d26 	beq	r2,zero,2045c <oc_i2c_init+0xe0>
			bSuccess = FALSE;
   20428:	e03ffd15 	stw	zero,-12(fp)
   2042c:	00000b06 	br	2045c <oc_i2c_init+0xe0>
		}
    }
    else if (bSuccess){
   20430:	e0bffd17 	ldw	r2,-12(fp)
   20434:	10000926 	beq	r2,zero,2045c <oc_i2c_init+0xe0>
    	read_data =IORD(i2c_base, 2);
   20438:	e0bfff17 	ldw	r2,-4(fp)
   2043c:	10800204 	addi	r2,r2,8
   20440:	10800037 	ldwio	r2,0(r2)
   20444:	e0bffe15 	stw	r2,-8(fp)
        if( (read_data & 0x00ff) != 0x80 ){
   20448:	e0bffe17 	ldw	r2,-8(fp)
   2044c:	10803fcc 	andi	r2,r2,255
   20450:	10802020 	cmpeqi	r2,r2,128
   20454:	1000011e 	bne	r2,zero,2045c <oc_i2c_init+0xe0>
            bSuccess = FALSE;
   20458:	e03ffd15 	stw	zero,-12(fp)
        }
    }

   if (bSuccess)
   2045c:	e0bffd17 	ldw	r2,-12(fp)
   20460:	10000426 	beq	r2,zero,20474 <oc_i2c_init+0xf8>
       printf("\nI2C core is enabled! \r\n");
   20464:	010000f4 	movhi	r4,3
   20468:	210d4004 	addi	r4,r4,13568
   2046c:	0020ca00 	call	20ca0 <puts>
   20470:	00000306 	br	20480 <oc_i2c_init+0x104>
   else
       printf("\nI2C core is not enabled! \r\n");
   20474:	010000f4 	movhi	r4,3
   20478:	210d4604 	addi	r4,r4,13592
   2047c:	0020ca00 	call	20ca0 <puts>

   return bSuccess;
   20480:	e0bffd17 	ldw	r2,-12(fp)

}
   20484:	e037883a 	mov	sp,fp
   20488:	dfc00117 	ldw	ra,4(sp)
   2048c:	df000017 	ldw	fp,0(sp)
   20490:	dec00204 	addi	sp,sp,8
   20494:	f800283a 	ret

00020498 <ACK_single_check>:

bool  ACK_single_check(alt_32 i2c_base)
{
   20498:	defffb04 	addi	sp,sp,-20
   2049c:	dfc00415 	stw	ra,16(sp)
   204a0:	df000315 	stw	fp,12(sp)
   204a4:	df000304 	addi	fp,sp,12
   204a8:	e13fff15 	stw	r4,-4(fp)
	bool bSuccess=TRUE;
   204ac:	00800044 	movi	r2,1
   204b0:	e0bffd15 	stw	r2,-12(fp)
	alt_32 read_data;

    usleep(SLEEP_TIME);
   204b4:	010003c4 	movi	r4,15
   204b8:	00315200 	call	31520 <usleep>
    read_data =IORD(i2c_base, 4);
   204bc:	e0bfff17 	ldw	r2,-4(fp)
   204c0:	10800404 	addi	r2,r2,16
   204c4:	10800037 	ldwio	r2,0(r2)
   204c8:	e0bffe15 	stw	r2,-8(fp)
    if(read_data & 0x02)
   204cc:	e0bffe17 	ldw	r2,-8(fp)
   204d0:	1080008c 	andi	r2,r2,2
   204d4:	10000126 	beq	r2,zero,204dc <ACK_single_check+0x44>
            bSuccess = FALSE;
   204d8:	e03ffd15 	stw	zero,-12(fp)
     if (bSuccess){
   204dc:	e0bffd17 	ldw	r2,-12(fp)
   204e0:	10000a26 	beq	r2,zero,2050c <ACK_single_check+0x74>
            usleep(SLEEP_TIME);
   204e4:	010003c4 	movi	r4,15
   204e8:	00315200 	call	31520 <usleep>
            read_data =IORD(i2c_base, 4);
   204ec:	e0bfff17 	ldw	r2,-4(fp)
   204f0:	10800404 	addi	r2,r2,16
   204f4:	10800037 	ldwio	r2,0(r2)
   204f8:	e0bffe15 	stw	r2,-8(fp)
                if(read_data & 0x80)
   204fc:	e0bffe17 	ldw	r2,-8(fp)
   20500:	1080200c 	andi	r2,r2,128
   20504:	10000126 	beq	r2,zero,2050c <ACK_single_check+0x74>
                    bSuccess = FALSE;
   20508:	e03ffd15 	stw	zero,-12(fp)
     }
    return bSuccess;
   2050c:	e0bffd17 	ldw	r2,-12(fp)
}
   20510:	e037883a 	mov	sp,fp
   20514:	dfc00117 	ldw	ra,4(sp)
   20518:	df000017 	ldw	fp,0(sp)
   2051c:	dec00204 	addi	sp,sp,8
   20520:	f800283a 	ret

00020524 <ACK_check>:


bool  ACK_check(alt_32 i2c_base){
   20524:	defffb04 	addi	sp,sp,-20
   20528:	dfc00415 	stw	ra,16(sp)
   2052c:	df000315 	stw	fp,12(sp)
   20530:	df000304 	addi	fp,sp,12
   20534:	e13fff15 	stw	r4,-4(fp)
    bool bSuccess = FALSE;
   20538:	e03ffd15 	stw	zero,-12(fp)
    int i=0;
   2053c:	e03ffe15 	stw	zero,-8(fp)

    while(!bSuccess && i++ < 10){
   20540:	00000306 	br	20550 <ACK_check+0x2c>
        bSuccess = ACK_single_check(i2c_base);
   20544:	e13fff17 	ldw	r4,-4(fp)
   20548:	00204980 	call	20498 <ACK_single_check>
   2054c:	e0bffd15 	stw	r2,-12(fp)

bool  ACK_check(alt_32 i2c_base){
    bool bSuccess = FALSE;
    int i=0;

    while(!bSuccess && i++ < 10){
   20550:	e0bffd17 	ldw	r2,-12(fp)
   20554:	1000051e 	bne	r2,zero,2056c <ACK_check+0x48>
   20558:	e0bffe17 	ldw	r2,-8(fp)
   2055c:	10c00044 	addi	r3,r2,1
   20560:	e0fffe15 	stw	r3,-8(fp)
   20564:	10800290 	cmplti	r2,r2,10
   20568:	103ff61e 	bne	r2,zero,20544 <_gp+0xfffe3144>
        bSuccess = ACK_single_check(i2c_base);
    }

    return bSuccess;
   2056c:	e0bffd17 	ldw	r2,-12(fp)
}
   20570:	e037883a 	mov	sp,fp
   20574:	dfc00117 	ldw	ra,4(sp)
   20578:	df000017 	ldw	fp,0(sp)
   2057c:	dec00204 	addi	sp,sp,8
   20580:	f800283a 	ret

00020584 <OC_I2C_Write>:

bool  OC_I2C_Write(alt_32 i2c_base,alt_u8 device_address,alt_u8 sub_address, alt_u8 pData)
{
   20584:	defff804 	addi	sp,sp,-32
   20588:	dfc00715 	stw	ra,28(sp)
   2058c:	df000615 	stw	fp,24(sp)
   20590:	df000604 	addi	fp,sp,24
   20594:	e13ffc15 	stw	r4,-16(fp)
   20598:	2809883a 	mov	r4,r5
   2059c:	3007883a 	mov	r3,r6
   205a0:	3805883a 	mov	r2,r7
   205a4:	e13ffd05 	stb	r4,-12(fp)
   205a8:	e0fffe05 	stb	r3,-8(fp)
   205ac:	e0bfff05 	stb	r2,-4(fp)
    alt_32 Data32;
    alt_u32 Timeout;
    bool bDone = FALSE;
   205b0:	e03ffa15 	stw	zero,-24(fp)
 * alt_nticks() returns the elapsed number of system clock ticks since reset.
 */

static ALT_INLINE alt_u32 ALT_ALWAYS_INLINE alt_nticks (void)
{
  return _alt_nticks;
   205b4:	008000f4 	movhi	r2,3
   205b8:	109bd604 	addi	r2,r2,28504
   205bc:	10c00017 	ldw	r3,0(r2)
 * Obtain the system clock rate in ticks/s. 
 */

static ALT_INLINE alt_u32 ALT_ALWAYS_INLINE alt_ticks_per_second (void)
{
  return _alt_tick_rate;
   205c0:	008000f4 	movhi	r2,3
   205c4:	109bd504 	addi	r2,r2,28500
   205c8:	10800017 	ldw	r2,0(r2)
    Timeout = alt_nticks() + alt_ticks_per_second()/2;
   205cc:	1004d07a 	srli	r2,r2,1
   205d0:	1885883a 	add	r2,r3,r2
   205d4:	e0bffb15 	stw	r2,-20(fp)
  while(!bDone)
   205d8:	00003806 	br	206bc <OC_I2C_Write+0x138>
  {
	//DWORD reg_data = 0x0;
   //set the tx reg audio chip dev address with write bit
   if (!Write32_Data( i2c_base, 3,device_address)){
   205dc:	e0bffd03 	ldbu	r2,-12(fp)
   205e0:	e13ffc17 	ldw	r4,-16(fp)
   205e4:	014000c4 	movi	r5,3
   205e8:	100d883a 	mov	r6,r2
   205ec:	00202cc0 	call	202cc <Write32_Data>
   205f0:	1000051e 	bne	r2,zero,20608 <OC_I2C_Write+0x84>
       printf("OC_I2C_Write error[0]\r\n");
   205f4:	010000f4 	movhi	r4,3
   205f8:	210d4d04 	addi	r4,r4,13620
   205fc:	0020ca00 	call	20ca0 <puts>
       return TRUE;
   20600:	00800044 	movi	r2,1
   20604:	00005906 	br	2076c <OC_I2C_Write+0x1e8>
   }
   //set STA and WR bits(bit7 and bit4)
   if (!Write32_Data( i2c_base, 4,0x90)){
   20608:	e13ffc17 	ldw	r4,-16(fp)
   2060c:	01400104 	movi	r5,4
   20610:	01802404 	movi	r6,144
   20614:	00202cc0 	call	202cc <Write32_Data>
   20618:	1000051e 	bne	r2,zero,20630 <OC_I2C_Write+0xac>
       printf("OC_I2C_Write error[1]\r\n");
   2061c:	010000f4 	movhi	r4,3
   20620:	210d5304 	addi	r4,r4,13644
   20624:	0020ca00 	call	20ca0 <puts>
       return TRUE;
   20628:	00800044 	movi	r2,1
   2062c:	00004f06 	br	2076c <OC_I2C_Write+0x1e8>
   }
   usleep(SLEEP_TIME);
   20630:	010003c4 	movi	r4,15
   20634:	00315200 	call	31520 <usleep>
   //set the txr reg data with reg address + 1 data MSB
   if (!Write32_Data( i2c_base, 3,sub_address)){
   20638:	e0bffe03 	ldbu	r2,-8(fp)
   2063c:	e13ffc17 	ldw	r4,-16(fp)
   20640:	014000c4 	movi	r5,3
   20644:	100d883a 	mov	r6,r2
   20648:	00202cc0 	call	202cc <Write32_Data>
   2064c:	1000051e 	bne	r2,zero,20664 <OC_I2C_Write+0xe0>
       printf("OC_I2C_Write error[3]\r\n");
   20650:	010000f4 	movhi	r4,3
   20654:	210d5904 	addi	r4,r4,13668
   20658:	0020ca00 	call	20ca0 <puts>
       return TRUE;
   2065c:	00800044 	movi	r2,1
   20660:	00004206 	br	2076c <OC_I2C_Write+0x1e8>
   }

   //set WR bits(bit4)
    if (!Write32_Data( i2c_base, 4,0x10)){
   20664:	e13ffc17 	ldw	r4,-16(fp)
   20668:	01400104 	movi	r5,4
   2066c:	01800404 	movi	r6,16
   20670:	00202cc0 	call	202cc <Write32_Data>
   20674:	1000051e 	bne	r2,zero,2068c <OC_I2C_Write+0x108>
        printf("OC_I2C_Write error[4]\r\n");
   20678:	010000f4 	movhi	r4,3
   2067c:	210d5f04 	addi	r4,r4,13692
   20680:	0020ca00 	call	20ca0 <puts>
        return TRUE;
   20684:	00800044 	movi	r2,1
   20688:	00003806 	br	2076c <OC_I2C_Write+0x1e8>
    }

   //wait TIP bit go to 0 to end Tx
    if (ACK_check( i2c_base))
   2068c:	e13ffc17 	ldw	r4,-16(fp)
   20690:	00205240 	call	20524 <ACK_check>
   20694:	10000226 	beq	r2,zero,206a0 <OC_I2C_Write+0x11c>
  	  bDone = TRUE;
   20698:	00800044 	movi	r2,1
   2069c:	e0bffa15 	stw	r2,-24(fp)
 * alt_nticks() returns the elapsed number of system clock ticks since reset.
 */

static ALT_INLINE alt_u32 ALT_ALWAYS_INLINE alt_nticks (void)
{
  return _alt_nticks;
   206a0:	008000f4 	movhi	r2,3
   206a4:	109bd604 	addi	r2,r2,28504
   206a8:	10800017 	ldw	r2,0(r2)
    if(alt_nticks() > Timeout)
   206ac:	e0fffb17 	ldw	r3,-20(fp)
   206b0:	1880022e 	bgeu	r3,r2,206bc <OC_I2C_Write+0x138>
  	  bDone = TRUE;
   206b4:	00800044 	movi	r2,1
   206b8:	e0bffa15 	stw	r2,-24(fp)
{
    alt_32 Data32;
    alt_u32 Timeout;
    bool bDone = FALSE;
    Timeout = alt_nticks() + alt_ticks_per_second()/2;
  while(!bDone)
   206bc:	e0bffa17 	ldw	r2,-24(fp)
   206c0:	103fc626 	beq	r2,zero,205dc <_gp+0xfffe31dc>
  	  bDone = TRUE;
  }
#if 1

    //set the txr reg data with the data
      if (!Write32_Data( i2c_base, 3,pData)){
   206c4:	e0bfff03 	ldbu	r2,-4(fp)
   206c8:	e13ffc17 	ldw	r4,-16(fp)
   206cc:	014000c4 	movi	r5,3
   206d0:	100d883a 	mov	r6,r2
   206d4:	00202cc0 	call	202cc <Write32_Data>
   206d8:	1000051e 	bne	r2,zero,206f0 <OC_I2C_Write+0x16c>
          printf("OC_I2C_Write error[6]\r\n");
   206dc:	010000f4 	movhi	r4,3
   206e0:	210d6504 	addi	r4,r4,13716
   206e4:	0020ca00 	call	20ca0 <puts>
          return TRUE;
   206e8:	00800044 	movi	r2,1
   206ec:	00001f06 	br	2076c <OC_I2C_Write+0x1e8>
      }

     //set STO and WR bits(bit7 and bit4)
     if (!Write32_Data( i2c_base, 4,0x10)){
   206f0:	e13ffc17 	ldw	r4,-16(fp)
   206f4:	01400104 	movi	r5,4
   206f8:	01800404 	movi	r6,16
   206fc:	00202cc0 	call	202cc <Write32_Data>
   20700:	1000051e 	bne	r2,zero,20718 <OC_I2C_Write+0x194>
         printf("OC_I2C_Write error[7]\r\n");
   20704:	010000f4 	movhi	r4,3
   20708:	210d6b04 	addi	r4,r4,13740
   2070c:	0020ca00 	call	20ca0 <puts>
          return TRUE;
   20710:	00800044 	movi	r2,1
   20714:	00001506 	br	2076c <OC_I2C_Write+0x1e8>
     }

     //wait TIP bit go to 0 to end Tx
      if(!ACK_check( i2c_base)){
   20718:	e13ffc17 	ldw	r4,-16(fp)
   2071c:	00205240 	call	20524 <ACK_check>
   20720:	1000051e 	bne	r2,zero,20738 <OC_I2C_Write+0x1b4>
          printf("OC_I2C_Write error[8]\r\n");
   20724:	010000f4 	movhi	r4,3
   20728:	210d7104 	addi	r4,r4,13764
   2072c:	0020ca00 	call	20ca0 <puts>
          return TRUE;
   20730:	00800044 	movi	r2,1
   20734:	00000d06 	br	2076c <OC_I2C_Write+0x1e8>
   //wait TIP bit go to 0 to end Tx
    if(!ACK_check( i2c_base))
        return false;
#endif

     if (!Write32_Data( i2c_base, 4,0x40)){
   20738:	e13ffc17 	ldw	r4,-16(fp)
   2073c:	01400104 	movi	r5,4
   20740:	01801004 	movi	r6,64
   20744:	00202cc0 	call	202cc <Write32_Data>
   20748:	1000051e 	bne	r2,zero,20760 <OC_I2C_Write+0x1dc>
         printf("OC_I2C_Write error[9]\r\n");
   2074c:	010000f4 	movhi	r4,3
   20750:	210d7704 	addi	r4,r4,13788
   20754:	0020ca00 	call	20ca0 <puts>
         return TRUE;
   20758:	00800044 	movi	r2,1
   2075c:	00000306 	br	2076c <OC_I2C_Write+0x1e8>
     }
     usleep(SLEEP_TIME);
   20760:	010003c4 	movi	r4,15
   20764:	00315200 	call	31520 <usleep>

     return FALSE;
   20768:	0005883a 	mov	r2,zero

}
   2076c:	e037883a 	mov	sp,fp
   20770:	dfc00117 	ldw	ra,4(sp)
   20774:	df000017 	ldw	fp,0(sp)
   20778:	dec00204 	addi	sp,sp,8
   2077c:	f800283a 	ret

00020780 <ACK_judge_for_read>:

bool ACK_judge_for_read(alt_32 i2c_base)
{
   20780:	defffb04 	addi	sp,sp,-20
   20784:	dfc00415 	stw	ra,16(sp)
   20788:	df000315 	stw	fp,12(sp)
   2078c:	df000304 	addi	fp,sp,12
   20790:	e13fff15 	stw	r4,-4(fp)
	bool bSuccess;
    alt_32 this_data;
    usleep(SLEEP_TIME);
   20794:	010003c4 	movi	r4,15
   20798:	00315200 	call	31520 <usleep>
    bSuccess =  Read32_Data ( i2c_base, 4, &this_data);
   2079c:	e0bffe04 	addi	r2,fp,-8
   207a0:	e13fff17 	ldw	r4,-4(fp)
   207a4:	01400104 	movi	r5,4
   207a8:	100d883a 	mov	r6,r2
   207ac:	00203240 	call	20324 <Read32_Data>
   207b0:	e0bffd15 	stw	r2,-12(fp)
    if (bSuccess){
   207b4:	e0bffd17 	ldw	r2,-12(fp)
   207b8:	10000426 	beq	r2,zero,207cc <ACK_judge_for_read+0x4c>
        if(this_data & 0x02)
   207bc:	e0bffe17 	ldw	r2,-8(fp)
   207c0:	1080008c 	andi	r2,r2,2
   207c4:	10000126 	beq	r2,zero,207cc <ACK_judge_for_read+0x4c>
            bSuccess = FALSE;
   207c8:	e03ffd15 	stw	zero,-12(fp)
    }
   //wait the rx ACK signal 0-valid

    return bSuccess;
   207cc:	e0bffd17 	ldw	r2,-12(fp)

}
   207d0:	e037883a 	mov	sp,fp
   207d4:	dfc00117 	ldw	ra,4(sp)
   207d8:	df000017 	ldw	fp,0(sp)
   207dc:	dec00204 	addi	sp,sp,8
   207e0:	f800283a 	ret

000207e4 <OC_I2C_Read>:


bool  OC_I2C_Read(alt_32 i2c_base,alt_u8 device_address,alt_u8 sub_address, alt_u8 *pData8, int nReadLength){
   207e4:	defff604 	addi	sp,sp,-40
   207e8:	dfc00915 	stw	ra,36(sp)
   207ec:	df000815 	stw	fp,32(sp)
   207f0:	df000804 	addi	fp,sp,32
   207f4:	e13ffc15 	stw	r4,-16(fp)
   207f8:	2807883a 	mov	r3,r5
   207fc:	3005883a 	mov	r2,r6
   20800:	e1ffff15 	stw	r7,-4(fp)
   20804:	e0fffd05 	stb	r3,-12(fp)
   20808:	e0bffe05 	stb	r2,-8(fp)

    alt_32 Data32;
    alt_u32 Timeout;
    int i;
    bool bDone = FALSE;
   2080c:	e03ff915 	stw	zero,-28(fp)
   20810:	008000f4 	movhi	r2,3
   20814:	109bd604 	addi	r2,r2,28504
   20818:	10c00017 	ldw	r3,0(r2)
 * Obtain the system clock rate in ticks/s. 
 */

static ALT_INLINE alt_u32 ALT_ALWAYS_INLINE alt_ticks_per_second (void)
{
  return _alt_tick_rate;
   2081c:	008000f4 	movhi	r2,3
   20820:	109bd504 	addi	r2,r2,28500
   20824:	10800017 	ldw	r2,0(r2)
    Timeout = alt_nticks() + alt_ticks_per_second()/2;
   20828:	1004d07a 	srli	r2,r2,1
   2082c:	1885883a 	add	r2,r3,r2
   20830:	e0bffa15 	stw	r2,-24(fp)
    while(!bDone)
   20834:	00003206 	br	20900 <OC_I2C_Read+0x11c>
    {
      //set the tx reg audio chip dev address with write bit
      IOWR( i2c_base, 3,device_address);
   20838:	e0bffc17 	ldw	r2,-16(fp)
   2083c:	10800304 	addi	r2,r2,12
   20840:	1007883a 	mov	r3,r2
   20844:	e0bffd03 	ldbu	r2,-12(fp)
   20848:	18800035 	stwio	r2,0(r3)
      //set STA and WR bits(bit7 and bit4)
      IOWR( i2c_base, 4,0x90);
   2084c:	e0bffc17 	ldw	r2,-16(fp)
   20850:	10800404 	addi	r2,r2,16
   20854:	1007883a 	mov	r3,r2
   20858:	00802404 	movi	r2,144
   2085c:	18800035 	stwio	r2,0(r3)
      //wait TIP bit go to 0 to end Tx
      usleep(SLEEP_TIME);
   20860:	010003c4 	movi	r4,15
   20864:	00315200 	call	31520 <usleep>
      IOWR(i2c_base, 3,sub_address);
   20868:	e0bffc17 	ldw	r2,-16(fp)
   2086c:	10800304 	addi	r2,r2,12
   20870:	1007883a 	mov	r3,r2
   20874:	e0bffe03 	ldbu	r2,-8(fp)
   20878:	18800035 	stwio	r2,0(r3)
      //set WR bits(bit4)
      IOWR( i2c_base, 4,0x10);
   2087c:	e0bffc17 	ldw	r2,-16(fp)
   20880:	10800404 	addi	r2,r2,16
   20884:	1007883a 	mov	r3,r2
   20888:	00800404 	movi	r2,16
   2088c:	18800035 	stwio	r2,0(r3)
      //wait TIP bit go to 0 to end Tx
      usleep(SLEEP_TIME);
   20890:	010003c4 	movi	r4,15
   20894:	00315200 	call	31520 <usleep>
      //read
      //set the tx reg audio chip dev address with read bit 1
      IOWR(i2c_base, 3,device_address|0x01);
   20898:	e0bffc17 	ldw	r2,-16(fp)
   2089c:	10800304 	addi	r2,r2,12
   208a0:	1007883a 	mov	r3,r2
   208a4:	e0bffd03 	ldbu	r2,-12(fp)
   208a8:	10800054 	ori	r2,r2,1
   208ac:	10803fcc 	andi	r2,r2,255
   208b0:	18800035 	stwio	r2,0(r3)
      //set STA and WR bits(bit7 and bit4)
      IOWR( i2c_base, 4,0x90);
   208b4:	e0bffc17 	ldw	r2,-16(fp)
   208b8:	10800404 	addi	r2,r2,16
   208bc:	1007883a 	mov	r3,r2
   208c0:	00802404 	movi	r2,144
   208c4:	18800035 	stwio	r2,0(r3)
      usleep(SLEEP_TIME);
   208c8:	010003c4 	movi	r4,15
   208cc:	00315200 	call	31520 <usleep>
      //wait TIP bit go to 0 to end Tx
      if (ACK_check( i2c_base))
   208d0:	e13ffc17 	ldw	r4,-16(fp)
   208d4:	00205240 	call	20524 <ACK_check>
   208d8:	10000226 	beq	r2,zero,208e4 <OC_I2C_Read+0x100>
    	  bDone = TRUE;
   208dc:	00800044 	movi	r2,1
   208e0:	e0bff915 	stw	r2,-28(fp)
 * alt_nticks() returns the elapsed number of system clock ticks since reset.
 */

static ALT_INLINE alt_u32 ALT_ALWAYS_INLINE alt_nticks (void)
{
  return _alt_nticks;
   208e4:	008000f4 	movhi	r2,3
   208e8:	109bd604 	addi	r2,r2,28504
   208ec:	10800017 	ldw	r2,0(r2)
      if(alt_nticks() > Timeout)
   208f0:	e0fffa17 	ldw	r3,-24(fp)
   208f4:	1880022e 	bgeu	r3,r2,20900 <OC_I2C_Read+0x11c>
    	  bDone = TRUE;
   208f8:	00800044 	movi	r2,1
   208fc:	e0bff915 	stw	r2,-28(fp)
    alt_32 Data32;
    alt_u32 Timeout;
    int i;
    bool bDone = FALSE;
    Timeout = alt_nticks() + alt_ticks_per_second()/2;
    while(!bDone)
   20900:	e0bff917 	ldw	r2,-28(fp)
   20904:	103fcc26 	beq	r2,zero,20838 <_gp+0xfffe3438>
      if (ACK_check( i2c_base))
    	  bDone = TRUE;
      if(alt_nticks() > Timeout)
    	  bDone = TRUE;
     }
    for(i=0;i<nReadLength;i++){
   20908:	e03ff815 	stw	zero,-32(fp)
   2090c:	00001f06 	br	2098c <OC_I2C_Read+0x1a8>
   //set the RD and ACK bit(bit5 and bit3)
    	IOWR( i2c_base, 4,((i+1) == nReadLength)?0x28:0x20);
   20910:	e0bffc17 	ldw	r2,-16(fp)
   20914:	10800404 	addi	r2,r2,16
   20918:	1009883a 	mov	r4,r2
   2091c:	e0bff817 	ldw	r2,-32(fp)
   20920:	10c00044 	addi	r3,r2,1
   20924:	e0800217 	ldw	r2,8(fp)
   20928:	1880021e 	bne	r3,r2,20934 <OC_I2C_Read+0x150>
   2092c:	00800a04 	movi	r2,40
   20930:	00000106 	br	20938 <OC_I2C_Read+0x154>
   20934:	00800804 	movi	r2,32
   20938:	20800035 	stwio	r2,0(r4)
        if (!ACK_judge_for_read( i2c_base)){
   2093c:	e13ffc17 	ldw	r4,-16(fp)
   20940:	00207800 	call	20780 <ACK_judge_for_read>
   20944:	1000051e 	bne	r2,zero,2095c <OC_I2C_Read+0x178>
            printf("OC_I2C_Read error[10]\r\n");
   20948:	010000f4 	movhi	r4,3
   2094c:	210d7d04 	addi	r4,r4,13812
   20950:	0020ca00 	call	20ca0 <puts>
            return FALSE;
   20954:	0005883a 	mov	r2,zero
   20958:	00001706 	br	209b8 <OC_I2C_Read+0x1d4>
        }
        Data32=IORD( i2c_base, 3);
   2095c:	e0bffc17 	ldw	r2,-16(fp)
   20960:	10800304 	addi	r2,r2,12
   20964:	10800037 	ldwio	r2,0(r2)
   20968:	e0bffb15 	stw	r2,-20(fp)
        *(pData8+i) =  Data32 & 0xff;
   2096c:	e0bff817 	ldw	r2,-32(fp)
   20970:	e0ffff17 	ldw	r3,-4(fp)
   20974:	1885883a 	add	r2,r3,r2
   20978:	e0fffb17 	ldw	r3,-20(fp)
   2097c:	10c00005 	stb	r3,0(r2)
      if (ACK_check( i2c_base))
    	  bDone = TRUE;
      if(alt_nticks() > Timeout)
    	  bDone = TRUE;
     }
    for(i=0;i<nReadLength;i++){
   20980:	e0bff817 	ldw	r2,-32(fp)
   20984:	10800044 	addi	r2,r2,1
   20988:	e0bff815 	stw	r2,-32(fp)
   2098c:	e0fff817 	ldw	r3,-32(fp)
   20990:	e0800217 	ldw	r2,8(fp)
   20994:	18bfde16 	blt	r3,r2,20910 <_gp+0xfffe3510>
            return FALSE;
        }
        Data32=IORD( i2c_base, 3);
        *(pData8+i) =  Data32 & 0xff;
    }
    IOWR( i2c_base, 4,0x40);
   20998:	e0bffc17 	ldw	r2,-16(fp)
   2099c:	10800404 	addi	r2,r2,16
   209a0:	1007883a 	mov	r3,r2
   209a4:	00801004 	movi	r2,64
   209a8:	18800035 	stwio	r2,0(r3)
    usleep(SLEEP_TIME);
   209ac:	010003c4 	movi	r4,15
   209b0:	00315200 	call	31520 <usleep>


   return TRUE;
   209b4:	00800044 	movi	r2,1

}
   209b8:	e037883a 	mov	sp,fp
   209bc:	dfc00117 	ldw	ra,4(sp)
   209c0:	df000017 	ldw	fp,0(sp)
   209c4:	dec00204 	addi	sp,sp,8
   209c8:	f800283a 	ret

000209cc <debug_output>:
    UART_WriteString(pMessage);  // UART debug
}

#else

void debug_output(char *pMessage){
   209cc:	defffd04 	addi	sp,sp,-12
   209d0:	dfc00215 	stw	ra,8(sp)
   209d4:	df000115 	stw	fp,4(sp)
   209d8:	df000104 	addi	fp,sp,4
   209dc:	e13fff15 	stw	r4,-4(fp)
    
    printf(pMessage);
   209e0:	e13fff17 	ldw	r4,-4(fp)
   209e4:	0020bac0 	call	20bac <printf>
}
   209e8:	e037883a 	mov	sp,fp
   209ec:	dfc00117 	ldw	ra,4(sp)
   209f0:	df000017 	ldw	fp,0(sp)
   209f4:	dec00204 	addi	sp,sp,8
   209f8:	f800283a 	ret

000209fc <myprintf>:





int myprintf(char *format, ...){
   209fc:	deff7804 	addi	sp,sp,-544
   20a00:	dfc08415 	stw	ra,528(sp)
   20a04:	df008315 	stw	fp,524(sp)
   20a08:	df008304 	addi	fp,sp,524
   20a0c:	e1400215 	stw	r5,8(fp)
   20a10:	e1800315 	stw	r6,12(fp)
   20a14:	e1c00415 	stw	r7,16(fp)
   20a18:	e13fff15 	stw	r4,-4(fp)
    int rc;
    char szText[512];
    
    va_list paramList;
    va_start(paramList, format);
   20a1c:	e0800204 	addi	r2,fp,8
   20a20:	e0bffe15 	stw	r2,-8(fp)
    rc = vsnprintf(szText, 512, format, paramList);
   20a24:	e0bffe17 	ldw	r2,-8(fp)
   20a28:	e0ff7e04 	addi	r3,fp,-520
   20a2c:	1809883a 	mov	r4,r3
   20a30:	01408004 	movi	r5,512
   20a34:	e1bfff17 	ldw	r6,-4(fp)
   20a38:	100f883a 	mov	r7,r2
   20a3c:	00250900 	call	25090 <vsnprintf>
   20a40:	e0bf7d15 	stw	r2,-524(fp)
    va_end(paramList);
    
    debug_output(szText);
   20a44:	e0bf7e04 	addi	r2,fp,-520
   20a48:	1009883a 	mov	r4,r2
   20a4c:	00209cc0 	call	209cc <debug_output>

    return rc;    
   20a50:	e0bf7d17 	ldw	r2,-524(fp)
}
   20a54:	e037883a 	mov	sp,fp
   20a58:	dfc00117 	ldw	ra,4(sp)
   20a5c:	df000017 	ldw	fp,0(sp)
   20a60:	dec00504 	addi	sp,sp,20
   20a64:	f800283a 	ret

00020a68 <myprintf_hexarray>:


int myprintf_hexarray(unsigned char *pHex, int len){
   20a68:	defff704 	addi	sp,sp,-36
   20a6c:	dfc00815 	stw	ra,32(sp)
   20a70:	df000715 	stw	fp,28(sp)
   20a74:	df000704 	addi	fp,sp,28
   20a78:	e13ffe15 	stw	r4,-8(fp)
   20a7c:	e17fff15 	stw	r5,-4(fp)
    int i;
    unsigned char szText[16];
    for(i=0;i<len;i++){
   20a80:	e03ff915 	stw	zero,-28(fp)
   20a84:	00001106 	br	20acc <myprintf_hexarray+0x64>
        sprintf(szText, "[%02X]", *(pHex+i));
   20a88:	e0bff917 	ldw	r2,-28(fp)
   20a8c:	e0fffe17 	ldw	r3,-8(fp)
   20a90:	1885883a 	add	r2,r3,r2
   20a94:	10800003 	ldbu	r2,0(r2)
   20a98:	10803fcc 	andi	r2,r2,255
   20a9c:	e0fffa04 	addi	r3,fp,-24
   20aa0:	1809883a 	mov	r4,r3
   20aa4:	014000f4 	movhi	r5,3
   20aa8:	294d8304 	addi	r5,r5,13836
   20aac:	100d883a 	mov	r6,r2
   20ab0:	0020d0c0 	call	20d0c <sprintf>
        DEBUG((szText));
   20ab4:	e0bffa04 	addi	r2,fp,-24
   20ab8:	1009883a 	mov	r4,r2
   20abc:	00209fc0 	call	209fc <myprintf>


int myprintf_hexarray(unsigned char *pHex, int len){
    int i;
    unsigned char szText[16];
    for(i=0;i<len;i++){
   20ac0:	e0bff917 	ldw	r2,-28(fp)
   20ac4:	10800044 	addi	r2,r2,1
   20ac8:	e0bff915 	stw	r2,-28(fp)
   20acc:	e0fff917 	ldw	r3,-28(fp)
   20ad0:	e0bfff17 	ldw	r2,-4(fp)
   20ad4:	18bfec16 	blt	r3,r2,20a88 <_gp+0xfffe3688>
        sprintf(szText, "[%02X]", *(pHex+i));
        DEBUG((szText));
    }
    return len;
   20ad8:	e0bfff17 	ldw	r2,-4(fp)
}
   20adc:	e037883a 	mov	sp,fp
   20ae0:	dfc00117 	ldw	ra,4(sp)
   20ae4:	df000017 	ldw	fp,0(sp)
   20ae8:	dec00204 	addi	sp,sp,8
   20aec:	f800283a 	ret

00020af0 <myprintf_dwordarray>:

int  myprintf_dwordarray(unsigned int *pArray, int nElementCount){
   20af0:	defff704 	addi	sp,sp,-36
   20af4:	dfc00815 	stw	ra,32(sp)
   20af8:	df000715 	stw	fp,28(sp)
   20afc:	df000704 	addi	fp,sp,28
   20b00:	e13ffe15 	stw	r4,-8(fp)
   20b04:	e17fff15 	stw	r5,-4(fp)
    int i;
    char szText[16];
    for(i=0;i<nElementCount;i++){
   20b08:	e03ff915 	stw	zero,-28(fp)
   20b0c:	00001306 	br	20b5c <myprintf_dwordarray+0x6c>
        sprintf(szText, "[%08X]", *(pArray+i));
   20b10:	e0bff917 	ldw	r2,-28(fp)
   20b14:	1085883a 	add	r2,r2,r2
   20b18:	1085883a 	add	r2,r2,r2
   20b1c:	1007883a 	mov	r3,r2
   20b20:	e0bffe17 	ldw	r2,-8(fp)
   20b24:	10c5883a 	add	r2,r2,r3
   20b28:	10800017 	ldw	r2,0(r2)
   20b2c:	e0fffa04 	addi	r3,fp,-24
   20b30:	1809883a 	mov	r4,r3
   20b34:	014000f4 	movhi	r5,3
   20b38:	294d8504 	addi	r5,r5,13844
   20b3c:	100d883a 	mov	r6,r2
   20b40:	0020d0c0 	call	20d0c <sprintf>
        DEBUG((szText));
   20b44:	e0bffa04 	addi	r2,fp,-24
   20b48:	1009883a 	mov	r4,r2
   20b4c:	00209fc0 	call	209fc <myprintf>
}

int  myprintf_dwordarray(unsigned int *pArray, int nElementCount){
    int i;
    char szText[16];
    for(i=0;i<nElementCount;i++){
   20b50:	e0bff917 	ldw	r2,-28(fp)
   20b54:	10800044 	addi	r2,r2,1
   20b58:	e0bff915 	stw	r2,-28(fp)
   20b5c:	e0fff917 	ldw	r3,-28(fp)
   20b60:	e0bfff17 	ldw	r2,-4(fp)
   20b64:	18bfea16 	blt	r3,r2,20b10 <_gp+0xfffe3710>
        sprintf(szText, "[%08X]", *(pArray+i));
        DEBUG((szText));
    }
    return nElementCount;
   20b68:	e0bfff17 	ldw	r2,-4(fp)
}
   20b6c:	e037883a 	mov	sp,fp
   20b70:	dfc00117 	ldw	ra,4(sp)
   20b74:	df000017 	ldw	fp,0(sp)
   20b78:	dec00204 	addi	sp,sp,8
   20b7c:	f800283a 	ret

00020b80 <_printf_r>:
   20b80:	defffd04 	addi	sp,sp,-12
   20b84:	dfc00015 	stw	ra,0(sp)
   20b88:	d9800115 	stw	r6,4(sp)
   20b8c:	d9c00215 	stw	r7,8(sp)
   20b90:	280d883a 	mov	r6,r5
   20b94:	21400217 	ldw	r5,8(r4)
   20b98:	d9c00104 	addi	r7,sp,4
   20b9c:	0022e800 	call	22e80 <___vfprintf_internal_r>
   20ba0:	dfc00017 	ldw	ra,0(sp)
   20ba4:	dec00304 	addi	sp,sp,12
   20ba8:	f800283a 	ret

00020bac <printf>:
   20bac:	defffc04 	addi	sp,sp,-16
   20bb0:	dfc00015 	stw	ra,0(sp)
   20bb4:	d9400115 	stw	r5,4(sp)
   20bb8:	d9800215 	stw	r6,8(sp)
   20bbc:	d9c00315 	stw	r7,12(sp)
   20bc0:	008000f4 	movhi	r2,3
   20bc4:	10950104 	addi	r2,r2,21508
   20bc8:	10800017 	ldw	r2,0(r2)
   20bcc:	200b883a 	mov	r5,r4
   20bd0:	d9800104 	addi	r6,sp,4
   20bd4:	11000217 	ldw	r4,8(r2)
   20bd8:	0024f7c0 	call	24f7c <__vfprintf_internal>
   20bdc:	dfc00017 	ldw	ra,0(sp)
   20be0:	dec00404 	addi	sp,sp,16
   20be4:	f800283a 	ret

00020be8 <_puts_r>:
   20be8:	defff604 	addi	sp,sp,-40
   20bec:	dc000715 	stw	r16,28(sp)
   20bf0:	2021883a 	mov	r16,r4
   20bf4:	2809883a 	mov	r4,r5
   20bf8:	dc400815 	stw	r17,32(sp)
   20bfc:	dfc00915 	stw	ra,36(sp)
   20c00:	2823883a 	mov	r17,r5
   20c04:	0020d780 	call	20d78 <strlen>
   20c08:	00c000f4 	movhi	r3,3
   20c0c:	18d50104 	addi	r3,r3,21508
   20c10:	18c00017 	ldw	r3,0(r3)
   20c14:	11000044 	addi	r4,r2,1
   20c18:	d8800115 	stw	r2,4(sp)
   20c1c:	18c00217 	ldw	r3,8(r3)
   20c20:	014000f4 	movhi	r5,3
   20c24:	294d8704 	addi	r5,r5,13852
   20c28:	1880030b 	ldhu	r2,12(r3)
   20c2c:	d9400215 	stw	r5,8(sp)
   20c30:	d9000615 	stw	r4,24(sp)
   20c34:	01400044 	movi	r5,1
   20c38:	01000084 	movi	r4,2
   20c3c:	d9000515 	stw	r4,20(sp)
   20c40:	dc400015 	stw	r17,0(sp)
   20c44:	d9400315 	stw	r5,12(sp)
   20c48:	dec00415 	stw	sp,16(sp)
   20c4c:	1108000c 	andi	r4,r2,8192
   20c50:	2000061e 	bne	r4,zero,20c6c <_puts_r+0x84>
   20c54:	19401917 	ldw	r5,100(r3)
   20c58:	0137ffc4 	movi	r4,-8193
   20c5c:	10880014 	ori	r2,r2,8192
   20c60:	2908703a 	and	r4,r5,r4
   20c64:	1880030d 	sth	r2,12(r3)
   20c68:	19001915 	stw	r4,100(r3)
   20c6c:	81400217 	ldw	r5,8(r16)
   20c70:	8009883a 	mov	r4,r16
   20c74:	d9800404 	addi	r6,sp,16
   20c78:	00275700 	call	27570 <__sfvwrite_r>
   20c7c:	1000061e 	bne	r2,zero,20c98 <_puts_r+0xb0>
   20c80:	00800284 	movi	r2,10
   20c84:	dfc00917 	ldw	ra,36(sp)
   20c88:	dc400817 	ldw	r17,32(sp)
   20c8c:	dc000717 	ldw	r16,28(sp)
   20c90:	dec00a04 	addi	sp,sp,40
   20c94:	f800283a 	ret
   20c98:	00bfffc4 	movi	r2,-1
   20c9c:	003ff906 	br	20c84 <_gp+0xfffe3884>

00020ca0 <puts>:
   20ca0:	008000f4 	movhi	r2,3
   20ca4:	10950104 	addi	r2,r2,21508
   20ca8:	200b883a 	mov	r5,r4
   20cac:	11000017 	ldw	r4,0(r2)
   20cb0:	0020be81 	jmpi	20be8 <_puts_r>

00020cb4 <_sprintf_r>:
   20cb4:	deffe404 	addi	sp,sp,-112
   20cb8:	2807883a 	mov	r3,r5
   20cbc:	dfc01a15 	stw	ra,104(sp)
   20cc0:	d9c01b15 	stw	r7,108(sp)
   20cc4:	00a00034 	movhi	r2,32768
   20cc8:	10bfffc4 	addi	r2,r2,-1
   20ccc:	02008204 	movi	r8,520
   20cd0:	d8800215 	stw	r2,8(sp)
   20cd4:	d8800515 	stw	r2,20(sp)
   20cd8:	d80b883a 	mov	r5,sp
   20cdc:	d9c01b04 	addi	r7,sp,108
   20ce0:	00bfffc4 	movi	r2,-1
   20ce4:	d8c00015 	stw	r3,0(sp)
   20ce8:	d8c00415 	stw	r3,16(sp)
   20cec:	da00030d 	sth	r8,12(sp)
   20cf0:	d880038d 	sth	r2,14(sp)
   20cf4:	0020e100 	call	20e10 <___svfprintf_internal_r>
   20cf8:	d8c00017 	ldw	r3,0(sp)
   20cfc:	18000005 	stb	zero,0(r3)
   20d00:	dfc01a17 	ldw	ra,104(sp)
   20d04:	dec01c04 	addi	sp,sp,112
   20d08:	f800283a 	ret

00020d0c <sprintf>:
   20d0c:	deffe304 	addi	sp,sp,-116
   20d10:	2007883a 	mov	r3,r4
   20d14:	dfc01a15 	stw	ra,104(sp)
   20d18:	d9801b15 	stw	r6,108(sp)
   20d1c:	d9c01c15 	stw	r7,112(sp)
   20d20:	010000f4 	movhi	r4,3
   20d24:	21150104 	addi	r4,r4,21508
   20d28:	21000017 	ldw	r4,0(r4)
   20d2c:	00a00034 	movhi	r2,32768
   20d30:	10bfffc4 	addi	r2,r2,-1
   20d34:	280d883a 	mov	r6,r5
   20d38:	02008204 	movi	r8,520
   20d3c:	d8800215 	stw	r2,8(sp)
   20d40:	d8800515 	stw	r2,20(sp)
   20d44:	d80b883a 	mov	r5,sp
   20d48:	d9c01b04 	addi	r7,sp,108
   20d4c:	00bfffc4 	movi	r2,-1
   20d50:	d8c00015 	stw	r3,0(sp)
   20d54:	d8c00415 	stw	r3,16(sp)
   20d58:	da00030d 	sth	r8,12(sp)
   20d5c:	d880038d 	sth	r2,14(sp)
   20d60:	0020e100 	call	20e10 <___svfprintf_internal_r>
   20d64:	d8c00017 	ldw	r3,0(sp)
   20d68:	18000005 	stb	zero,0(r3)
   20d6c:	dfc01a17 	ldw	ra,104(sp)
   20d70:	dec01d04 	addi	sp,sp,116
   20d74:	f800283a 	ret

00020d78 <strlen>:
   20d78:	208000cc 	andi	r2,r4,3
   20d7c:	10002026 	beq	r2,zero,20e00 <strlen+0x88>
   20d80:	20800007 	ldb	r2,0(r4)
   20d84:	10002026 	beq	r2,zero,20e08 <strlen+0x90>
   20d88:	2005883a 	mov	r2,r4
   20d8c:	00000206 	br	20d98 <strlen+0x20>
   20d90:	10c00007 	ldb	r3,0(r2)
   20d94:	18001826 	beq	r3,zero,20df8 <strlen+0x80>
   20d98:	10800044 	addi	r2,r2,1
   20d9c:	10c000cc 	andi	r3,r2,3
   20da0:	183ffb1e 	bne	r3,zero,20d90 <_gp+0xfffe3990>
   20da4:	10c00017 	ldw	r3,0(r2)
   20da8:	01ffbff4 	movhi	r7,65279
   20dac:	39ffbfc4 	addi	r7,r7,-257
   20db0:	00ca303a 	nor	r5,zero,r3
   20db4:	01a02074 	movhi	r6,32897
   20db8:	19c7883a 	add	r3,r3,r7
   20dbc:	31a02004 	addi	r6,r6,-32640
   20dc0:	1946703a 	and	r3,r3,r5
   20dc4:	1986703a 	and	r3,r3,r6
   20dc8:	1800091e 	bne	r3,zero,20df0 <strlen+0x78>
   20dcc:	10800104 	addi	r2,r2,4
   20dd0:	10c00017 	ldw	r3,0(r2)
   20dd4:	19cb883a 	add	r5,r3,r7
   20dd8:	00c6303a 	nor	r3,zero,r3
   20ddc:	28c6703a 	and	r3,r5,r3
   20de0:	1986703a 	and	r3,r3,r6
   20de4:	183ff926 	beq	r3,zero,20dcc <_gp+0xfffe39cc>
   20de8:	00000106 	br	20df0 <strlen+0x78>
   20dec:	10800044 	addi	r2,r2,1
   20df0:	10c00007 	ldb	r3,0(r2)
   20df4:	183ffd1e 	bne	r3,zero,20dec <_gp+0xfffe39ec>
   20df8:	1105c83a 	sub	r2,r2,r4
   20dfc:	f800283a 	ret
   20e00:	2005883a 	mov	r2,r4
   20e04:	003fe706 	br	20da4 <_gp+0xfffe39a4>
   20e08:	0005883a 	mov	r2,zero
   20e0c:	f800283a 	ret

00020e10 <___svfprintf_internal_r>:
   20e10:	deffb504 	addi	sp,sp,-300
   20e14:	dfc04a15 	stw	ra,296(sp)
   20e18:	dd804715 	stw	r22,284(sp)
   20e1c:	d9002f15 	stw	r4,188(sp)
   20e20:	282d883a 	mov	r22,r5
   20e24:	d9802915 	stw	r6,164(sp)
   20e28:	d9c02d15 	stw	r7,180(sp)
   20e2c:	df004915 	stw	fp,292(sp)
   20e30:	ddc04815 	stw	r23,288(sp)
   20e34:	dd404615 	stw	r21,280(sp)
   20e38:	dd004515 	stw	r20,276(sp)
   20e3c:	dcc04415 	stw	r19,272(sp)
   20e40:	dc804315 	stw	r18,268(sp)
   20e44:	dc404215 	stw	r17,264(sp)
   20e48:	dc004115 	stw	r16,260(sp)
   20e4c:	0027c300 	call	27c30 <_localeconv_r>
   20e50:	10800017 	ldw	r2,0(r2)
   20e54:	1009883a 	mov	r4,r2
   20e58:	d8803515 	stw	r2,212(sp)
   20e5c:	0020d780 	call	20d78 <strlen>
   20e60:	d8803915 	stw	r2,228(sp)
   20e64:	b080030b 	ldhu	r2,12(r22)
   20e68:	1080200c 	andi	r2,r2,128
   20e6c:	10000226 	beq	r2,zero,20e78 <___svfprintf_internal_r+0x68>
   20e70:	b0800417 	ldw	r2,16(r22)
   20e74:	10067426 	beq	r2,zero,22848 <___svfprintf_internal_r+0x1a38>
   20e78:	d9001dc4 	addi	r4,sp,119
   20e7c:	ddc01e04 	addi	r23,sp,120
   20e80:	d9400404 	addi	r5,sp,16
   20e84:	050000f4 	movhi	r20,3
   20e88:	b905c83a 	sub	r2,r23,r4
   20e8c:	a50d9884 	addi	r20,r20,13922
   20e90:	d9002815 	stw	r4,160(sp)
   20e94:	d9401e15 	stw	r5,120(sp)
   20e98:	d8002015 	stw	zero,128(sp)
   20e9c:	d8001f15 	stw	zero,124(sp)
   20ea0:	d8003315 	stw	zero,204(sp)
   20ea4:	d8003715 	stw	zero,220(sp)
   20ea8:	d8003815 	stw	zero,224(sp)
   20eac:	d8003b15 	stw	zero,236(sp)
   20eb0:	d8003a15 	stw	zero,232(sp)
   20eb4:	d8003015 	stw	zero,192(sp)
   20eb8:	2811883a 	mov	r8,r5
   20ebc:	d8803d15 	stw	r2,244(sp)
   20ec0:	d8c02917 	ldw	r3,164(sp)
   20ec4:	18800007 	ldb	r2,0(r3)
   20ec8:	1001fa26 	beq	r2,zero,216b4 <___svfprintf_internal_r+0x8a4>
   20ecc:	00c00944 	movi	r3,37
   20ed0:	dc002917 	ldw	r16,164(sp)
   20ed4:	10c0021e 	bne	r2,r3,20ee0 <___svfprintf_internal_r+0xd0>
   20ed8:	00001606 	br	20f34 <___svfprintf_internal_r+0x124>
   20edc:	10c08526 	beq	r2,r3,210f4 <___svfprintf_internal_r+0x2e4>
   20ee0:	84000044 	addi	r16,r16,1
   20ee4:	80800007 	ldb	r2,0(r16)
   20ee8:	103ffc1e 	bne	r2,zero,20edc <_gp+0xfffe3adc>
   20eec:	d9002917 	ldw	r4,164(sp)
   20ef0:	8123c83a 	sub	r17,r16,r4
   20ef4:	88000f26 	beq	r17,zero,20f34 <___svfprintf_internal_r+0x124>
   20ef8:	d8802917 	ldw	r2,164(sp)
   20efc:	d8c02017 	ldw	r3,128(sp)
   20f00:	44400115 	stw	r17,4(r8)
   20f04:	40800015 	stw	r2,0(r8)
   20f08:	d8801f17 	ldw	r2,124(sp)
   20f0c:	1c47883a 	add	r3,r3,r17
   20f10:	d8c02015 	stw	r3,128(sp)
   20f14:	10800044 	addi	r2,r2,1
   20f18:	d8801f15 	stw	r2,124(sp)
   20f1c:	00c001c4 	movi	r3,7
   20f20:	18807716 	blt	r3,r2,21100 <___svfprintf_internal_r+0x2f0>
   20f24:	42000204 	addi	r8,r8,8
   20f28:	d8c03017 	ldw	r3,192(sp)
   20f2c:	1c47883a 	add	r3,r3,r17
   20f30:	d8c03015 	stw	r3,192(sp)
   20f34:	80800007 	ldb	r2,0(r16)
   20f38:	10007826 	beq	r2,zero,2111c <___svfprintf_internal_r+0x30c>
   20f3c:	80800044 	addi	r2,r16,1
   20f40:	84000047 	ldb	r16,1(r16)
   20f44:	0027883a 	mov	r19,zero
   20f48:	0039883a 	mov	fp,zero
   20f4c:	dcc02a05 	stb	r19,168(sp)
   20f50:	d8002785 	stb	zero,158(sp)
   20f54:	027fffc4 	movi	r9,-1
   20f58:	d8002e15 	stw	zero,184(sp)
   20f5c:	04401604 	movi	r17,88
   20f60:	04800244 	movi	r18,9
   20f64:	da002915 	stw	r8,164(sp)
   20f68:	e027883a 	mov	r19,fp
   20f6c:	17000044 	addi	fp,r2,1
   20f70:	80bff804 	addi	r2,r16,-32
   20f74:	88830036 	bltu	r17,r2,21b78 <___svfprintf_internal_r+0xd68>
   20f78:	100490ba 	slli	r2,r2,2
   20f7c:	010000b4 	movhi	r4,2
   20f80:	2103e404 	addi	r4,r4,3984
   20f84:	1105883a 	add	r2,r2,r4
   20f88:	10800017 	ldw	r2,0(r2)
   20f8c:	1000683a 	jmp	r2
   20f90:	000219bc 	xorhi	zero,zero,2150
   20f94:	00021b78 	rdprs	zero,zero,2157
   20f98:	00021b78 	rdprs	zero,zero,2157
   20f9c:	000219d8 	cmpnei	zero,zero,2151
   20fa0:	00021b78 	rdprs	zero,zero,2157
   20fa4:	00021b78 	rdprs	zero,zero,2157
   20fa8:	00021b78 	rdprs	zero,zero,2157
   20fac:	00021b78 	rdprs	zero,zero,2157
   20fb0:	00021b78 	rdprs	zero,zero,2157
   20fb4:	00021b78 	rdprs	zero,zero,2157
   20fb8:	00021ac4 	movi	zero,2155
   20fbc:	00021aec 	andhi	zero,zero,2155
   20fc0:	00021b78 	rdprs	zero,zero,2157
   20fc4:	0002117c 	xorhi	zero,zero,2117
   20fc8:	0002118c 	andi	zero,zero,2118
   20fcc:	00021b78 	rdprs	zero,zero,2157
   20fd0:	000211dc 	xori	zero,zero,2119
   20fd4:	000211ec 	andhi	zero,zero,2119
   20fd8:	000211ec 	andhi	zero,zero,2119
   20fdc:	000211ec 	andhi	zero,zero,2119
   20fe0:	000211ec 	andhi	zero,zero,2119
   20fe4:	000211ec 	andhi	zero,zero,2119
   20fe8:	000211ec 	andhi	zero,zero,2119
   20fec:	000211ec 	andhi	zero,zero,2119
   20ff0:	000211ec 	andhi	zero,zero,2119
   20ff4:	000211ec 	andhi	zero,zero,2119
   20ff8:	00021b78 	rdprs	zero,zero,2157
   20ffc:	00021b78 	rdprs	zero,zero,2157
   21000:	00021b78 	rdprs	zero,zero,2157
   21004:	00021b78 	rdprs	zero,zero,2157
   21008:	00021b78 	rdprs	zero,zero,2157
   2100c:	00021b78 	rdprs	zero,zero,2157
   21010:	00021b78 	rdprs	zero,zero,2157
   21014:	00021b78 	rdprs	zero,zero,2157
   21018:	00021b78 	rdprs	zero,zero,2157
   2101c:	00021b78 	rdprs	zero,zero,2157
   21020:	00021230 	cmpltui	zero,zero,2120
   21024:	000216bc 	xorhi	zero,zero,2138
   21028:	00021b78 	rdprs	zero,zero,2157
   2102c:	000216bc 	xorhi	zero,zero,2138
   21030:	00021b78 	rdprs	zero,zero,2157
   21034:	00021b78 	rdprs	zero,zero,2157
   21038:	00021b78 	rdprs	zero,zero,2157
   2103c:	00021b78 	rdprs	zero,zero,2157
   21040:	00021764 	muli	zero,zero,2141
   21044:	00021b78 	rdprs	zero,zero,2157
   21048:	00021b78 	rdprs	zero,zero,2157
   2104c:	00021774 	movhi	zero,2141
   21050:	00021b78 	rdprs	zero,zero,2157
   21054:	00021b78 	rdprs	zero,zero,2157
   21058:	00021b78 	rdprs	zero,zero,2157
   2105c:	00021b78 	rdprs	zero,zero,2157
   21060:	00021b78 	rdprs	zero,zero,2157
   21064:	000217b4 	movhi	zero,2142
   21068:	00021b78 	rdprs	zero,zero,2157
   2106c:	00021b78 	rdprs	zero,zero,2157
   21070:	00021908 	cmpgei	zero,zero,2148
   21074:	00021b78 	rdprs	zero,zero,2157
   21078:	00021b78 	rdprs	zero,zero,2157
   2107c:	00021b78 	rdprs	zero,zero,2157
   21080:	00021b78 	rdprs	zero,zero,2157
   21084:	00021b78 	rdprs	zero,zero,2157
   21088:	00021b78 	rdprs	zero,zero,2157
   2108c:	00021b78 	rdprs	zero,zero,2157
   21090:	00021b78 	rdprs	zero,zero,2157
   21094:	00021b78 	rdprs	zero,zero,2157
   21098:	00021b78 	rdprs	zero,zero,2157
   2109c:	00021970 	cmpltui	zero,zero,2149
   210a0:	00021834 	movhi	zero,2144
   210a4:	000216bc 	xorhi	zero,zero,2138
   210a8:	000216bc 	xorhi	zero,zero,2138
   210ac:	000216bc 	xorhi	zero,zero,2138
   210b0:	000218a0 	cmpeqi	zero,zero,2146
   210b4:	00021834 	movhi	zero,2144
   210b8:	00021b78 	rdprs	zero,zero,2157
   210bc:	00021b78 	rdprs	zero,zero,2157
   210c0:	000218b0 	cmpltui	zero,zero,2146
   210c4:	00021b78 	rdprs	zero,zero,2157
   210c8:	000218c8 	cmpgei	zero,zero,2147
   210cc:	00021b3c 	xorhi	zero,zero,2156
   210d0:	000217e8 	cmpgeui	zero,zero,2143
   210d4:	00021ab4 	movhi	zero,2154
   210d8:	00021b78 	rdprs	zero,zero,2157
   210dc:	000219e8 	cmpgeui	zero,zero,2151
   210e0:	00021b78 	rdprs	zero,zero,2157
   210e4:	00021b00 	call	21b0 <__reset-0x1de50>
   210e8:	00021b78 	rdprs	zero,zero,2157
   210ec:	00021b78 	rdprs	zero,zero,2157
   210f0:	00021a68 	cmpgeui	zero,zero,2153
   210f4:	d9402917 	ldw	r5,164(sp)
   210f8:	8163c83a 	sub	r17,r16,r5
   210fc:	003f7d06 	br	20ef4 <_gp+0xfffe3af4>
   21100:	d9002f17 	ldw	r4,188(sp)
   21104:	b00b883a 	mov	r5,r22
   21108:	b80d883a 	mov	r6,r23
   2110c:	002a2f40 	call	2a2f4 <__ssprint_r>
   21110:	1000081e 	bne	r2,zero,21134 <___svfprintf_internal_r+0x324>
   21114:	da000404 	addi	r8,sp,16
   21118:	003f8306 	br	20f28 <_gp+0xfffe3b28>
   2111c:	d8802017 	ldw	r2,128(sp)
   21120:	10000426 	beq	r2,zero,21134 <___svfprintf_internal_r+0x324>
   21124:	d9002f17 	ldw	r4,188(sp)
   21128:	b00b883a 	mov	r5,r22
   2112c:	d9801e04 	addi	r6,sp,120
   21130:	002a2f40 	call	2a2f4 <__ssprint_r>
   21134:	b080030b 	ldhu	r2,12(r22)
   21138:	1080100c 	andi	r2,r2,64
   2113c:	10000d1e 	bne	r2,zero,21174 <___svfprintf_internal_r+0x364>
   21140:	d8803017 	ldw	r2,192(sp)
   21144:	dfc04a17 	ldw	ra,296(sp)
   21148:	df004917 	ldw	fp,292(sp)
   2114c:	ddc04817 	ldw	r23,288(sp)
   21150:	dd804717 	ldw	r22,284(sp)
   21154:	dd404617 	ldw	r21,280(sp)
   21158:	dd004517 	ldw	r20,276(sp)
   2115c:	dcc04417 	ldw	r19,272(sp)
   21160:	dc804317 	ldw	r18,268(sp)
   21164:	dc404217 	ldw	r17,264(sp)
   21168:	dc004117 	ldw	r16,260(sp)
   2116c:	dec04b04 	addi	sp,sp,300
   21170:	f800283a 	ret
   21174:	00bfffc4 	movi	r2,-1
   21178:	003ff206 	br	21144 <_gp+0xfffe3d44>
   2117c:	e005883a 	mov	r2,fp
   21180:	9cc00114 	ori	r19,r19,4
   21184:	e4000007 	ldb	r16,0(fp)
   21188:	003f7806 	br	20f6c <_gp+0xfffe3b6c>
   2118c:	e4000007 	ldb	r16,0(fp)
   21190:	01000a84 	movi	r4,42
   21194:	e0800044 	addi	r2,fp,1
   21198:	81071026 	beq	r16,r4,22ddc <___svfprintf_internal_r+0x1fcc>
   2119c:	857ff404 	addi	r21,r16,-48
   211a0:	1039883a 	mov	fp,r2
   211a4:	0013883a 	mov	r9,zero
   211a8:	957f7136 	bltu	r18,r21,20f70 <_gp+0xfffe3b70>
   211ac:	0009883a 	mov	r4,zero
   211b0:	01400284 	movi	r5,10
   211b4:	002e2bc0 	call	2e2bc <__mulsi3>
   211b8:	e4000007 	ldb	r16,0(fp)
   211bc:	a889883a 	add	r4,r21,r2
   211c0:	e7000044 	addi	fp,fp,1
   211c4:	857ff404 	addi	r21,r16,-48
   211c8:	957ff92e 	bgeu	r18,r21,211b0 <_gp+0xfffe3db0>
   211cc:	2013883a 	mov	r9,r4
   211d0:	203f670e 	bge	r4,zero,20f70 <_gp+0xfffe3b70>
   211d4:	027fffc4 	movi	r9,-1
   211d8:	003f6506 	br	20f70 <_gp+0xfffe3b70>
   211dc:	9cc02014 	ori	r19,r19,128
   211e0:	e005883a 	mov	r2,fp
   211e4:	e4000007 	ldb	r16,0(fp)
   211e8:	003f6006 	br	20f6c <_gp+0xfffe3b6c>
   211ec:	857ff404 	addi	r21,r16,-48
   211f0:	d8002e15 	stw	zero,184(sp)
   211f4:	e021883a 	mov	r16,fp
   211f8:	0009883a 	mov	r4,zero
   211fc:	da402b15 	stw	r9,172(sp)
   21200:	01400284 	movi	r5,10
   21204:	002e2bc0 	call	2e2bc <__mulsi3>
   21208:	81400007 	ldb	r5,0(r16)
   2120c:	1549883a 	add	r4,r2,r21
   21210:	e7000044 	addi	fp,fp,1
   21214:	2d7ff404 	addi	r21,r5,-48
   21218:	e021883a 	mov	r16,fp
   2121c:	957ff82e 	bgeu	r18,r21,21200 <_gp+0xfffe3e00>
   21220:	2821883a 	mov	r16,r5
   21224:	d9002e15 	stw	r4,184(sp)
   21228:	da402b17 	ldw	r9,172(sp)
   2122c:	003f5006 	br	20f70 <_gp+0xfffe3b70>
   21230:	da002917 	ldw	r8,164(sp)
   21234:	df002915 	stw	fp,164(sp)
   21238:	9839883a 	mov	fp,r19
   2123c:	dcc02a03 	ldbu	r19,168(sp)
   21240:	e7000414 	ori	fp,fp,16
   21244:	e080080c 	andi	r2,fp,32
   21248:	dcc02785 	stb	r19,158(sp)
   2124c:	d8c02d17 	ldw	r3,180(sp)
   21250:	10018026 	beq	r2,zero,21854 <___svfprintf_internal_r+0xa44>
   21254:	d9002d17 	ldw	r4,180(sp)
   21258:	18800117 	ldw	r2,4(r3)
   2125c:	1c800017 	ldw	r18,0(r3)
   21260:	21000204 	addi	r4,r4,8
   21264:	d9002d15 	stw	r4,180(sp)
   21268:	102b883a 	mov	r21,r2
   2126c:	10018216 	blt	r2,zero,21878 <___svfprintf_internal_r+0xa68>
   21270:	dcc02783 	ldbu	r19,158(sp)
   21274:	da403215 	stw	r9,200(sp)
   21278:	00800044 	movi	r2,1
   2127c:	9546b03a 	or	r3,r18,r21
   21280:	48000216 	blt	r9,zero,2128c <___svfprintf_internal_r+0x47c>
   21284:	013fdfc4 	movi	r4,-129
   21288:	e138703a 	and	fp,fp,r4
   2128c:	1802471e 	bne	r3,zero,21bac <___svfprintf_internal_r+0xd9c>
   21290:	48035226 	beq	r9,zero,21fdc <___svfprintf_internal_r+0x11cc>
   21294:	10803fcc 	andi	r2,r2,255
   21298:	00c00044 	movi	r3,1
   2129c:	10c26626 	beq	r2,r3,21c38 <___svfprintf_internal_r+0xe28>
   212a0:	00c00084 	movi	r3,2
   212a4:	10c2e826 	beq	r2,r3,21e48 <___svfprintf_internal_r+0x1038>
   212a8:	b807883a 	mov	r3,r23
   212ac:	9008d0fa 	srli	r4,r18,3
   212b0:	a80a977a 	slli	r5,r21,29
   212b4:	a82ad0fa 	srli	r21,r21,3
   212b8:	948001cc 	andi	r18,r18,7
   212bc:	90800c04 	addi	r2,r18,48
   212c0:	18ffffc4 	addi	r3,r3,-1
   212c4:	2924b03a 	or	r18,r5,r4
   212c8:	18800005 	stb	r2,0(r3)
   212cc:	9548b03a 	or	r4,r18,r21
   212d0:	203ff61e 	bne	r4,zero,212ac <_gp+0xfffe3eac>
   212d4:	e100004c 	andi	r4,fp,1
   212d8:	d8c03115 	stw	r3,196(sp)
   212dc:	2002e826 	beq	r4,zero,21e80 <___svfprintf_internal_r+0x1070>
   212e0:	10803fcc 	andi	r2,r2,255
   212e4:	1080201c 	xori	r2,r2,128
   212e8:	10bfe004 	addi	r2,r2,-128
   212ec:	01000c04 	movi	r4,48
   212f0:	11056d26 	beq	r2,r4,228a8 <___svfprintf_internal_r+0x1a98>
   212f4:	d9403117 	ldw	r5,196(sp)
   212f8:	193fffc5 	stb	r4,-1(r3)
   212fc:	297fffc4 	addi	r5,r5,-1
   21300:	d9403115 	stw	r5,196(sp)
   21304:	b963c83a 	sub	r17,r23,r5
   21308:	8805883a 	mov	r2,r17
   2130c:	8a40010e 	bge	r17,r9,21314 <___svfprintf_internal_r+0x504>
   21310:	4805883a 	mov	r2,r9
   21314:	d8802a15 	stw	r2,168(sp)
   21318:	d8003415 	stw	zero,208(sp)
   2131c:	98803fcc 	andi	r2,r19,255
   21320:	1080201c 	xori	r2,r2,128
   21324:	10bfe004 	addi	r2,r2,-128
   21328:	10000326 	beq	r2,zero,21338 <___svfprintf_internal_r+0x528>
   2132c:	d8c02a17 	ldw	r3,168(sp)
   21330:	18c00044 	addi	r3,r3,1
   21334:	d8c02a15 	stw	r3,168(sp)
   21338:	e0c0008c 	andi	r3,fp,2
   2133c:	d8c02b15 	stw	r3,172(sp)
   21340:	18000326 	beq	r3,zero,21350 <___svfprintf_internal_r+0x540>
   21344:	d8c02a17 	ldw	r3,168(sp)
   21348:	18c00084 	addi	r3,r3,2
   2134c:	d8c02a15 	stw	r3,168(sp)
   21350:	e0c0210c 	andi	r3,fp,132
   21354:	d8c02c15 	stw	r3,176(sp)
   21358:	1802121e 	bne	r3,zero,21ba4 <___svfprintf_internal_r+0xd94>
   2135c:	d9002e17 	ldw	r4,184(sp)
   21360:	d8c02a17 	ldw	r3,168(sp)
   21364:	20ebc83a 	sub	r21,r4,r3
   21368:	05420e0e 	bge	zero,r21,21ba4 <___svfprintf_internal_r+0xd94>
   2136c:	02400404 	movi	r9,16
   21370:	d8c02017 	ldw	r3,128(sp)
   21374:	d8801f17 	ldw	r2,124(sp)
   21378:	4d45aa0e 	bge	r9,r21,22a24 <___svfprintf_internal_r+0x1c14>
   2137c:	014000f4 	movhi	r5,3
   21380:	a809883a 	mov	r4,r21
   21384:	294d9c84 	addi	r5,r5,13938
   21388:	dc003c15 	stw	r16,240(sp)
   2138c:	882b883a 	mov	r21,r17
   21390:	d9403615 	stw	r5,216(sp)
   21394:	4827883a 	mov	r19,r9
   21398:	048001c4 	movi	r18,7
   2139c:	dc002f17 	ldw	r16,188(sp)
   213a0:	2023883a 	mov	r17,r4
   213a4:	00000306 	br	213b4 <___svfprintf_internal_r+0x5a4>
   213a8:	8c7ffc04 	addi	r17,r17,-16
   213ac:	42000204 	addi	r8,r8,8
   213b0:	9c40130e 	bge	r19,r17,21400 <___svfprintf_internal_r+0x5f0>
   213b4:	010000f4 	movhi	r4,3
   213b8:	18c00404 	addi	r3,r3,16
   213bc:	10800044 	addi	r2,r2,1
   213c0:	210d9c84 	addi	r4,r4,13938
   213c4:	41000015 	stw	r4,0(r8)
   213c8:	44c00115 	stw	r19,4(r8)
   213cc:	d8c02015 	stw	r3,128(sp)
   213d0:	d8801f15 	stw	r2,124(sp)
   213d4:	90bff40e 	bge	r18,r2,213a8 <_gp+0xfffe3fa8>
   213d8:	8009883a 	mov	r4,r16
   213dc:	b00b883a 	mov	r5,r22
   213e0:	b80d883a 	mov	r6,r23
   213e4:	002a2f40 	call	2a2f4 <__ssprint_r>
   213e8:	103f521e 	bne	r2,zero,21134 <_gp+0xfffe3d34>
   213ec:	8c7ffc04 	addi	r17,r17,-16
   213f0:	d8c02017 	ldw	r3,128(sp)
   213f4:	d8801f17 	ldw	r2,124(sp)
   213f8:	da000404 	addi	r8,sp,16
   213fc:	9c7fed16 	blt	r19,r17,213b4 <_gp+0xfffe3fb4>
   21400:	dc003c17 	ldw	r16,240(sp)
   21404:	8809883a 	mov	r4,r17
   21408:	a823883a 	mov	r17,r21
   2140c:	202b883a 	mov	r21,r4
   21410:	d9403617 	ldw	r5,216(sp)
   21414:	a8c7883a 	add	r3,r21,r3
   21418:	10800044 	addi	r2,r2,1
   2141c:	41400015 	stw	r5,0(r8)
   21420:	45400115 	stw	r21,4(r8)
   21424:	d8c02015 	stw	r3,128(sp)
   21428:	d8801f15 	stw	r2,124(sp)
   2142c:	010001c4 	movi	r4,7
   21430:	20834416 	blt	r4,r2,22144 <___svfprintf_internal_r+0x1334>
   21434:	d8802787 	ldb	r2,158(sp)
   21438:	42000204 	addi	r8,r8,8
   2143c:	10000c26 	beq	r2,zero,21470 <___svfprintf_internal_r+0x660>
   21440:	d8801f17 	ldw	r2,124(sp)
   21444:	d9002784 	addi	r4,sp,158
   21448:	18c00044 	addi	r3,r3,1
   2144c:	10800044 	addi	r2,r2,1
   21450:	41000015 	stw	r4,0(r8)
   21454:	01000044 	movi	r4,1
   21458:	41000115 	stw	r4,4(r8)
   2145c:	d8c02015 	stw	r3,128(sp)
   21460:	d8801f15 	stw	r2,124(sp)
   21464:	010001c4 	movi	r4,7
   21468:	2082ee16 	blt	r4,r2,22024 <___svfprintf_internal_r+0x1214>
   2146c:	42000204 	addi	r8,r8,8
   21470:	d8802b17 	ldw	r2,172(sp)
   21474:	10000c26 	beq	r2,zero,214a8 <___svfprintf_internal_r+0x698>
   21478:	d8801f17 	ldw	r2,124(sp)
   2147c:	d9002704 	addi	r4,sp,156
   21480:	18c00084 	addi	r3,r3,2
   21484:	10800044 	addi	r2,r2,1
   21488:	41000015 	stw	r4,0(r8)
   2148c:	01000084 	movi	r4,2
   21490:	41000115 	stw	r4,4(r8)
   21494:	d8c02015 	stw	r3,128(sp)
   21498:	d8801f15 	stw	r2,124(sp)
   2149c:	010001c4 	movi	r4,7
   214a0:	2082e816 	blt	r4,r2,22044 <___svfprintf_internal_r+0x1234>
   214a4:	42000204 	addi	r8,r8,8
   214a8:	d9002c17 	ldw	r4,176(sp)
   214ac:	00802004 	movi	r2,128
   214b0:	20823126 	beq	r4,r2,21d78 <___svfprintf_internal_r+0xf68>
   214b4:	d9403217 	ldw	r5,200(sp)
   214b8:	2c67c83a 	sub	r19,r5,r17
   214bc:	04c02f0e 	bge	zero,r19,2157c <___svfprintf_internal_r+0x76c>
   214c0:	05400404 	movi	r21,16
   214c4:	d8801f17 	ldw	r2,124(sp)
   214c8:	acc4260e 	bge	r21,r19,22564 <___svfprintf_internal_r+0x1754>
   214cc:	014000f4 	movhi	r5,3
   214d0:	9809883a 	mov	r4,r19
   214d4:	294d9884 	addi	r5,r5,13922
   214d8:	dc002c15 	stw	r16,176(sp)
   214dc:	8827883a 	mov	r19,r17
   214e0:	d9402b15 	stw	r5,172(sp)
   214e4:	048001c4 	movi	r18,7
   214e8:	dc002f17 	ldw	r16,188(sp)
   214ec:	2023883a 	mov	r17,r4
   214f0:	00000306 	br	21500 <___svfprintf_internal_r+0x6f0>
   214f4:	8c7ffc04 	addi	r17,r17,-16
   214f8:	42000204 	addi	r8,r8,8
   214fc:	ac40110e 	bge	r21,r17,21544 <___svfprintf_internal_r+0x734>
   21500:	18c00404 	addi	r3,r3,16
   21504:	10800044 	addi	r2,r2,1
   21508:	45000015 	stw	r20,0(r8)
   2150c:	45400115 	stw	r21,4(r8)
   21510:	d8c02015 	stw	r3,128(sp)
   21514:	d8801f15 	stw	r2,124(sp)
   21518:	90bff60e 	bge	r18,r2,214f4 <_gp+0xfffe40f4>
   2151c:	8009883a 	mov	r4,r16
   21520:	b00b883a 	mov	r5,r22
   21524:	b80d883a 	mov	r6,r23
   21528:	002a2f40 	call	2a2f4 <__ssprint_r>
   2152c:	103f011e 	bne	r2,zero,21134 <_gp+0xfffe3d34>
   21530:	8c7ffc04 	addi	r17,r17,-16
   21534:	d8c02017 	ldw	r3,128(sp)
   21538:	d8801f17 	ldw	r2,124(sp)
   2153c:	da000404 	addi	r8,sp,16
   21540:	ac7fef16 	blt	r21,r17,21500 <_gp+0xfffe4100>
   21544:	dc002c17 	ldw	r16,176(sp)
   21548:	8809883a 	mov	r4,r17
   2154c:	9823883a 	mov	r17,r19
   21550:	2027883a 	mov	r19,r4
   21554:	d9002b17 	ldw	r4,172(sp)
   21558:	1cc7883a 	add	r3,r3,r19
   2155c:	10800044 	addi	r2,r2,1
   21560:	41000015 	stw	r4,0(r8)
   21564:	44c00115 	stw	r19,4(r8)
   21568:	d8c02015 	stw	r3,128(sp)
   2156c:	d8801f15 	stw	r2,124(sp)
   21570:	010001c4 	movi	r4,7
   21574:	2082a316 	blt	r4,r2,22004 <___svfprintf_internal_r+0x11f4>
   21578:	42000204 	addi	r8,r8,8
   2157c:	e080400c 	andi	r2,fp,256
   21580:	1001b31e 	bne	r2,zero,21c50 <___svfprintf_internal_r+0xe40>
   21584:	d8801f17 	ldw	r2,124(sp)
   21588:	d9403117 	ldw	r5,196(sp)
   2158c:	1c47883a 	add	r3,r3,r17
   21590:	10800044 	addi	r2,r2,1
   21594:	41400015 	stw	r5,0(r8)
   21598:	44400115 	stw	r17,4(r8)
   2159c:	d8c02015 	stw	r3,128(sp)
   215a0:	d8801f15 	stw	r2,124(sp)
   215a4:	010001c4 	movi	r4,7
   215a8:	20827e16 	blt	r4,r2,21fa4 <___svfprintf_internal_r+0x1194>
   215ac:	42000204 	addi	r8,r8,8
   215b0:	e080010c 	andi	r2,fp,4
   215b4:	10003226 	beq	r2,zero,21680 <___svfprintf_internal_r+0x870>
   215b8:	d8802e17 	ldw	r2,184(sp)
   215bc:	d9002a17 	ldw	r4,168(sp)
   215c0:	1121c83a 	sub	r16,r2,r4
   215c4:	04002e0e 	bge	zero,r16,21680 <___svfprintf_internal_r+0x870>
   215c8:	04400404 	movi	r17,16
   215cc:	d8801f17 	ldw	r2,124(sp)
   215d0:	8c05550e 	bge	r17,r16,22b28 <___svfprintf_internal_r+0x1d18>
   215d4:	010000f4 	movhi	r4,3
   215d8:	210d9c84 	addi	r4,r4,13938
   215dc:	d9003615 	stw	r4,216(sp)
   215e0:	048001c4 	movi	r18,7
   215e4:	dcc02f17 	ldw	r19,188(sp)
   215e8:	00000306 	br	215f8 <___svfprintf_internal_r+0x7e8>
   215ec:	843ffc04 	addi	r16,r16,-16
   215f0:	42000204 	addi	r8,r8,8
   215f4:	8c00130e 	bge	r17,r16,21644 <___svfprintf_internal_r+0x834>
   215f8:	014000f4 	movhi	r5,3
   215fc:	18c00404 	addi	r3,r3,16
   21600:	10800044 	addi	r2,r2,1
   21604:	294d9c84 	addi	r5,r5,13938
   21608:	41400015 	stw	r5,0(r8)
   2160c:	44400115 	stw	r17,4(r8)
   21610:	d8c02015 	stw	r3,128(sp)
   21614:	d8801f15 	stw	r2,124(sp)
   21618:	90bff40e 	bge	r18,r2,215ec <_gp+0xfffe41ec>
   2161c:	9809883a 	mov	r4,r19
   21620:	b00b883a 	mov	r5,r22
   21624:	b80d883a 	mov	r6,r23
   21628:	002a2f40 	call	2a2f4 <__ssprint_r>
   2162c:	103ec11e 	bne	r2,zero,21134 <_gp+0xfffe3d34>
   21630:	843ffc04 	addi	r16,r16,-16
   21634:	d8c02017 	ldw	r3,128(sp)
   21638:	d8801f17 	ldw	r2,124(sp)
   2163c:	da000404 	addi	r8,sp,16
   21640:	8c3fed16 	blt	r17,r16,215f8 <_gp+0xfffe41f8>
   21644:	d9003617 	ldw	r4,216(sp)
   21648:	1c07883a 	add	r3,r3,r16
   2164c:	10800044 	addi	r2,r2,1
   21650:	41000015 	stw	r4,0(r8)
   21654:	44000115 	stw	r16,4(r8)
   21658:	d8c02015 	stw	r3,128(sp)
   2165c:	d8801f15 	stw	r2,124(sp)
   21660:	010001c4 	movi	r4,7
   21664:	2080060e 	bge	r4,r2,21680 <___svfprintf_internal_r+0x870>
   21668:	d9002f17 	ldw	r4,188(sp)
   2166c:	b00b883a 	mov	r5,r22
   21670:	b80d883a 	mov	r6,r23
   21674:	002a2f40 	call	2a2f4 <__ssprint_r>
   21678:	103eae1e 	bne	r2,zero,21134 <_gp+0xfffe3d34>
   2167c:	d8c02017 	ldw	r3,128(sp)
   21680:	df002a17 	ldw	fp,168(sp)
   21684:	d9402e17 	ldw	r5,184(sp)
   21688:	e140010e 	bge	fp,r5,21690 <___svfprintf_internal_r+0x880>
   2168c:	2839883a 	mov	fp,r5
   21690:	d8803017 	ldw	r2,192(sp)
   21694:	1705883a 	add	r2,r2,fp
   21698:	d8803015 	stw	r2,192(sp)
   2169c:	1802491e 	bne	r3,zero,21fc4 <___svfprintf_internal_r+0x11b4>
   216a0:	d8c02917 	ldw	r3,164(sp)
   216a4:	d8001f15 	stw	zero,124(sp)
   216a8:	da000404 	addi	r8,sp,16
   216ac:	18800007 	ldb	r2,0(r3)
   216b0:	103e061e 	bne	r2,zero,20ecc <_gp+0xfffe3acc>
   216b4:	dc002917 	ldw	r16,164(sp)
   216b8:	003e1e06 	br	20f34 <_gp+0xfffe3b34>
   216bc:	d9002d17 	ldw	r4,180(sp)
   216c0:	d9402d17 	ldw	r5,180(sp)
   216c4:	da002917 	ldw	r8,164(sp)
   216c8:	21000017 	ldw	r4,0(r4)
   216cc:	29400117 	ldw	r5,4(r5)
   216d0:	df002915 	stw	fp,164(sp)
   216d4:	9839883a 	mov	fp,r19
   216d8:	dcc02a03 	ldbu	r19,168(sp)
   216dc:	d9003715 	stw	r4,220(sp)
   216e0:	d9403815 	stw	r5,224(sp)
   216e4:	da004015 	stw	r8,256(sp)
   216e8:	da403f15 	stw	r9,252(sp)
   216ec:	dcc02785 	stb	r19,158(sp)
   216f0:	002a04c0 	call	2a04c <__fpclassifyd>
   216f4:	d8c02d17 	ldw	r3,180(sp)
   216f8:	04400044 	movi	r17,1
   216fc:	da004017 	ldw	r8,256(sp)
   21700:	1c800204 	addi	r18,r3,8
   21704:	da403f17 	ldw	r9,252(sp)
   21708:	d9003717 	ldw	r4,220(sp)
   2170c:	d9403817 	ldw	r5,224(sp)
   21710:	14433e1e 	bne	r2,r17,2240c <___svfprintf_internal_r+0x15fc>
   21714:	000d883a 	mov	r6,zero
   21718:	000f883a 	mov	r7,zero
   2171c:	002f6640 	call	2f664 <__ledf2>
   21720:	da004017 	ldw	r8,256(sp)
   21724:	10050c16 	blt	r2,zero,22b58 <___svfprintf_internal_r+0x1d48>
   21728:	dcc02783 	ldbu	r19,158(sp)
   2172c:	008011c4 	movi	r2,71
   21730:	1404410e 	bge	r2,r16,22838 <___svfprintf_internal_r+0x1a28>
   21734:	014000f4 	movhi	r5,3
   21738:	294d8904 	addi	r5,r5,13860
   2173c:	d9403115 	stw	r5,196(sp)
   21740:	00c000c4 	movi	r3,3
   21744:	00bfdfc4 	movi	r2,-129
   21748:	d8c02a15 	stw	r3,168(sp)
   2174c:	e0b8703a 	and	fp,fp,r2
   21750:	dc802d15 	stw	r18,180(sp)
   21754:	1823883a 	mov	r17,r3
   21758:	d8003215 	stw	zero,200(sp)
   2175c:	d8003415 	stw	zero,208(sp)
   21760:	003eee06 	br	2131c <_gp+0xfffe3f1c>
   21764:	9cc00214 	ori	r19,r19,8
   21768:	e005883a 	mov	r2,fp
   2176c:	e4000007 	ldb	r16,0(fp)
   21770:	003dfe06 	br	20f6c <_gp+0xfffe3b6c>
   21774:	da002917 	ldw	r8,164(sp)
   21778:	df002915 	stw	fp,164(sp)
   2177c:	9f000414 	ori	fp,r19,16
   21780:	e080080c 	andi	r2,fp,32
   21784:	1000f226 	beq	r2,zero,21b50 <___svfprintf_internal_r+0xd40>
   21788:	d9402d17 	ldw	r5,180(sp)
   2178c:	0005883a 	mov	r2,zero
   21790:	2c800017 	ldw	r18,0(r5)
   21794:	2d400117 	ldw	r21,4(r5)
   21798:	29400204 	addi	r5,r5,8
   2179c:	d9402d15 	stw	r5,180(sp)
   217a0:	9546b03a 	or	r3,r18,r21
   217a4:	d8002785 	stb	zero,158(sp)
   217a8:	da403215 	stw	r9,200(sp)
   217ac:	0027883a 	mov	r19,zero
   217b0:	003eb306 	br	21280 <_gp+0xfffe3e80>
   217b4:	da002917 	ldw	r8,164(sp)
   217b8:	df002915 	stw	fp,164(sp)
   217bc:	9f000414 	ori	fp,r19,16
   217c0:	e080080c 	andi	r2,fp,32
   217c4:	1000d326 	beq	r2,zero,21b14 <___svfprintf_internal_r+0xd04>
   217c8:	d9002d17 	ldw	r4,180(sp)
   217cc:	00800044 	movi	r2,1
   217d0:	24800017 	ldw	r18,0(r4)
   217d4:	25400117 	ldw	r21,4(r4)
   217d8:	21000204 	addi	r4,r4,8
   217dc:	d9002d15 	stw	r4,180(sp)
   217e0:	9546b03a 	or	r3,r18,r21
   217e4:	003fef06 	br	217a4 <_gp+0xfffe43a4>
   217e8:	d9402d17 	ldw	r5,180(sp)
   217ec:	00800c04 	movi	r2,48
   217f0:	d8802705 	stb	r2,156(sp)
   217f4:	2c800017 	ldw	r18,0(r5)
   217f8:	00801e04 	movi	r2,120
   217fc:	d8802745 	stb	r2,157(sp)
   21800:	008000f4 	movhi	r2,3
   21804:	108d9104 	addi	r2,r2,13892
   21808:	29400104 	addi	r5,r5,4
   2180c:	da002917 	ldw	r8,164(sp)
   21810:	d8803b15 	stw	r2,236(sp)
   21814:	df002915 	stw	fp,164(sp)
   21818:	002b883a 	mov	r21,zero
   2181c:	9f000094 	ori	fp,r19,2
   21820:	d9402d15 	stw	r5,180(sp)
   21824:	00800084 	movi	r2,2
   21828:	04001e04 	movi	r16,120
   2182c:	9007883a 	mov	r3,r18
   21830:	003fdc06 	br	217a4 <_gp+0xfffe43a4>
   21834:	da002917 	ldw	r8,164(sp)
   21838:	df002915 	stw	fp,164(sp)
   2183c:	9839883a 	mov	fp,r19
   21840:	dcc02a03 	ldbu	r19,168(sp)
   21844:	e080080c 	andi	r2,fp,32
   21848:	d8c02d17 	ldw	r3,180(sp)
   2184c:	dcc02785 	stb	r19,158(sp)
   21850:	103e801e 	bne	r2,zero,21254 <_gp+0xfffe3e54>
   21854:	e080040c 	andi	r2,fp,16
   21858:	10031f26 	beq	r2,zero,224d8 <___svfprintf_internal_r+0x16c8>
   2185c:	1c800017 	ldw	r18,0(r3)
   21860:	d9402d17 	ldw	r5,180(sp)
   21864:	902bd7fa 	srai	r21,r18,31
   21868:	29400104 	addi	r5,r5,4
   2186c:	d9402d15 	stw	r5,180(sp)
   21870:	a805883a 	mov	r2,r21
   21874:	103e7e0e 	bge	r2,zero,21270 <_gp+0xfffe3e70>
   21878:	04a5c83a 	sub	r18,zero,r18
   2187c:	9004c03a 	cmpne	r2,r18,zero
   21880:	056bc83a 	sub	r21,zero,r21
   21884:	a8abc83a 	sub	r21,r21,r2
   21888:	04c00b44 	movi	r19,45
   2188c:	dcc02785 	stb	r19,158(sp)
   21890:	da403215 	stw	r9,200(sp)
   21894:	00800044 	movi	r2,1
   21898:	9546b03a 	or	r3,r18,r21
   2189c:	003e7806 	br	21280 <_gp+0xfffe3e80>
   218a0:	9cc01014 	ori	r19,r19,64
   218a4:	e005883a 	mov	r2,fp
   218a8:	e4000007 	ldb	r16,0(fp)
   218ac:	003daf06 	br	20f6c <_gp+0xfffe3b6c>
   218b0:	e4000007 	ldb	r16,0(fp)
   218b4:	00801b04 	movi	r2,108
   218b8:	80837726 	beq	r16,r2,22698 <___svfprintf_internal_r+0x1888>
   218bc:	9cc00414 	ori	r19,r19,16
   218c0:	e005883a 	mov	r2,fp
   218c4:	003da906 	br	20f6c <_gp+0xfffe3b6c>
   218c8:	da002917 	ldw	r8,164(sp)
   218cc:	df002915 	stw	fp,164(sp)
   218d0:	9839883a 	mov	fp,r19
   218d4:	dcc02a03 	ldbu	r19,168(sp)
   218d8:	e080080c 	andi	r2,fp,32
   218dc:	dcc02785 	stb	r19,158(sp)
   218e0:	1002f126 	beq	r2,zero,224a8 <___svfprintf_internal_r+0x1698>
   218e4:	d9402d17 	ldw	r5,180(sp)
   218e8:	d9003017 	ldw	r4,192(sp)
   218ec:	28800017 	ldw	r2,0(r5)
   218f0:	2007d7fa 	srai	r3,r4,31
   218f4:	29400104 	addi	r5,r5,4
   218f8:	d9402d15 	stw	r5,180(sp)
   218fc:	11000015 	stw	r4,0(r2)
   21900:	10c00115 	stw	r3,4(r2)
   21904:	003d6e06 	br	20ec0 <_gp+0xfffe3ac0>
   21908:	da002917 	ldw	r8,164(sp)
   2190c:	df002915 	stw	fp,164(sp)
   21910:	9839883a 	mov	fp,r19
   21914:	dcc02a03 	ldbu	r19,168(sp)
   21918:	014000f4 	movhi	r5,3
   2191c:	294d8c04 	addi	r5,r5,13872
   21920:	dcc02785 	stb	r19,158(sp)
   21924:	d9403b15 	stw	r5,236(sp)
   21928:	e0c0080c 	andi	r3,fp,32
   2192c:	d8802d17 	ldw	r2,180(sp)
   21930:	18005826 	beq	r3,zero,21a94 <___svfprintf_internal_r+0xc84>
   21934:	d9402d17 	ldw	r5,180(sp)
   21938:	14800017 	ldw	r18,0(r2)
   2193c:	15400117 	ldw	r21,4(r2)
   21940:	29400204 	addi	r5,r5,8
   21944:	d9402d15 	stw	r5,180(sp)
   21948:	e080004c 	andi	r2,fp,1
   2194c:	10020626 	beq	r2,zero,22168 <___svfprintf_internal_r+0x1358>
   21950:	9546b03a 	or	r3,r18,r21
   21954:	1802f326 	beq	r3,zero,22524 <___svfprintf_internal_r+0x1714>
   21958:	00800c04 	movi	r2,48
   2195c:	d8802705 	stb	r2,156(sp)
   21960:	dc002745 	stb	r16,157(sp)
   21964:	e7000094 	ori	fp,fp,2
   21968:	00800084 	movi	r2,2
   2196c:	003f8d06 	br	217a4 <_gp+0xfffe43a4>
   21970:	d8c02d17 	ldw	r3,180(sp)
   21974:	d9002d17 	ldw	r4,180(sp)
   21978:	da002917 	ldw	r8,164(sp)
   2197c:	18800017 	ldw	r2,0(r3)
   21980:	21000104 	addi	r4,r4,4
   21984:	00c00044 	movi	r3,1
   21988:	df002915 	stw	fp,164(sp)
   2198c:	d8c02a15 	stw	r3,168(sp)
   21990:	9839883a 	mov	fp,r19
   21994:	d8002785 	stb	zero,158(sp)
   21998:	d8801405 	stb	r2,80(sp)
   2199c:	d9002d15 	stw	r4,180(sp)
   219a0:	1823883a 	mov	r17,r3
   219a4:	d8c01404 	addi	r3,sp,80
   219a8:	d8003215 	stw	zero,200(sp)
   219ac:	d8003415 	stw	zero,208(sp)
   219b0:	d8c03115 	stw	r3,196(sp)
   219b4:	0005883a 	mov	r2,zero
   219b8:	003e5f06 	br	21338 <_gp+0xfffe3f38>
   219bc:	d8802a07 	ldb	r2,168(sp)
   219c0:	1002c21e 	bne	r2,zero,224cc <___svfprintf_internal_r+0x16bc>
   219c4:	00c00804 	movi	r3,32
   219c8:	d8c02a05 	stb	r3,168(sp)
   219cc:	e005883a 	mov	r2,fp
   219d0:	e4000007 	ldb	r16,0(fp)
   219d4:	003d6506 	br	20f6c <_gp+0xfffe3b6c>
   219d8:	9cc00054 	ori	r19,r19,1
   219dc:	e005883a 	mov	r2,fp
   219e0:	e4000007 	ldb	r16,0(fp)
   219e4:	003d6106 	br	20f6c <_gp+0xfffe3b6c>
   219e8:	d8c02d17 	ldw	r3,180(sp)
   219ec:	d9002d17 	ldw	r4,180(sp)
   219f0:	da002917 	ldw	r8,164(sp)
   219f4:	18c00017 	ldw	r3,0(r3)
   219f8:	df002915 	stw	fp,164(sp)
   219fc:	d8002785 	stb	zero,158(sp)
   21a00:	d8c03115 	stw	r3,196(sp)
   21a04:	9839883a 	mov	fp,r19
   21a08:	24800104 	addi	r18,r4,4
   21a0c:	18043526 	beq	r3,zero,22ae4 <___svfprintf_internal_r+0x1cd4>
   21a10:	d9003117 	ldw	r4,196(sp)
   21a14:	4803e016 	blt	r9,zero,22998 <___svfprintf_internal_r+0x1b88>
   21a18:	480d883a 	mov	r6,r9
   21a1c:	000b883a 	mov	r5,zero
   21a20:	da004015 	stw	r8,256(sp)
   21a24:	da403f15 	stw	r9,252(sp)
   21a28:	00285c40 	call	285c4 <memchr>
   21a2c:	da004017 	ldw	r8,256(sp)
   21a30:	da403f17 	ldw	r9,252(sp)
   21a34:	10045f26 	beq	r2,zero,22bb4 <___svfprintf_internal_r+0x1da4>
   21a38:	d8c03117 	ldw	r3,196(sp)
   21a3c:	10e3c83a 	sub	r17,r2,r3
   21a40:	4c40010e 	bge	r9,r17,21a48 <___svfprintf_internal_r+0xc38>
   21a44:	4823883a 	mov	r17,r9
   21a48:	8805883a 	mov	r2,r17
   21a4c:	8803d716 	blt	r17,zero,229ac <___svfprintf_internal_r+0x1b9c>
   21a50:	dcc02783 	ldbu	r19,158(sp)
   21a54:	d8802a15 	stw	r2,168(sp)
   21a58:	dc802d15 	stw	r18,180(sp)
   21a5c:	d8003215 	stw	zero,200(sp)
   21a60:	d8003415 	stw	zero,208(sp)
   21a64:	003e2d06 	br	2131c <_gp+0xfffe3f1c>
   21a68:	da002917 	ldw	r8,164(sp)
   21a6c:	df002915 	stw	fp,164(sp)
   21a70:	9839883a 	mov	fp,r19
   21a74:	dcc02a03 	ldbu	r19,168(sp)
   21a78:	010000f4 	movhi	r4,3
   21a7c:	210d9104 	addi	r4,r4,13892
   21a80:	d9003b15 	stw	r4,236(sp)
   21a84:	dcc02785 	stb	r19,158(sp)
   21a88:	e0c0080c 	andi	r3,fp,32
   21a8c:	d8802d17 	ldw	r2,180(sp)
   21a90:	183fa81e 	bne	r3,zero,21934 <_gp+0xfffe4534>
   21a94:	e0c0040c 	andi	r3,fp,16
   21a98:	18027126 	beq	r3,zero,22460 <___svfprintf_internal_r+0x1650>
   21a9c:	d8c02d17 	ldw	r3,180(sp)
   21aa0:	14800017 	ldw	r18,0(r2)
   21aa4:	002b883a 	mov	r21,zero
   21aa8:	18c00104 	addi	r3,r3,4
   21aac:	d8c02d15 	stw	r3,180(sp)
   21ab0:	003fa506 	br	21948 <_gp+0xfffe4548>
   21ab4:	9cc00814 	ori	r19,r19,32
   21ab8:	e005883a 	mov	r2,fp
   21abc:	e4000007 	ldb	r16,0(fp)
   21ac0:	003d2a06 	br	20f6c <_gp+0xfffe3b6c>
   21ac4:	d9002d17 	ldw	r4,180(sp)
   21ac8:	d9402d17 	ldw	r5,180(sp)
   21acc:	21000017 	ldw	r4,0(r4)
   21ad0:	28c00104 	addi	r3,r5,4
   21ad4:	d9002e15 	stw	r4,184(sp)
   21ad8:	2002e916 	blt	r4,zero,22680 <___svfprintf_internal_r+0x1870>
   21adc:	d8c02d15 	stw	r3,180(sp)
   21ae0:	e005883a 	mov	r2,fp
   21ae4:	e4000007 	ldb	r16,0(fp)
   21ae8:	003d2006 	br	20f6c <_gp+0xfffe3b6c>
   21aec:	00c00ac4 	movi	r3,43
   21af0:	d8c02a05 	stb	r3,168(sp)
   21af4:	e005883a 	mov	r2,fp
   21af8:	e4000007 	ldb	r16,0(fp)
   21afc:	003d1b06 	br	20f6c <_gp+0xfffe3b6c>
   21b00:	da002917 	ldw	r8,164(sp)
   21b04:	df002915 	stw	fp,164(sp)
   21b08:	9839883a 	mov	fp,r19
   21b0c:	e080080c 	andi	r2,fp,32
   21b10:	103f2d1e 	bne	r2,zero,217c8 <_gp+0xfffe43c8>
   21b14:	e080040c 	andi	r2,fp,16
   21b18:	10027826 	beq	r2,zero,224fc <___svfprintf_internal_r+0x16ec>
   21b1c:	d9402d17 	ldw	r5,180(sp)
   21b20:	002b883a 	mov	r21,zero
   21b24:	00800044 	movi	r2,1
   21b28:	2c800017 	ldw	r18,0(r5)
   21b2c:	29400104 	addi	r5,r5,4
   21b30:	d9402d15 	stw	r5,180(sp)
   21b34:	9007883a 	mov	r3,r18
   21b38:	003f1a06 	br	217a4 <_gp+0xfffe43a4>
   21b3c:	da002917 	ldw	r8,164(sp)
   21b40:	df002915 	stw	fp,164(sp)
   21b44:	9839883a 	mov	fp,r19
   21b48:	e080080c 	andi	r2,fp,32
   21b4c:	103f0e1e 	bne	r2,zero,21788 <_gp+0xfffe4388>
   21b50:	e080040c 	andi	r2,fp,16
   21b54:	10024a26 	beq	r2,zero,22480 <___svfprintf_internal_r+0x1670>
   21b58:	d8802d17 	ldw	r2,180(sp)
   21b5c:	002b883a 	mov	r21,zero
   21b60:	14800017 	ldw	r18,0(r2)
   21b64:	10800104 	addi	r2,r2,4
   21b68:	d8802d15 	stw	r2,180(sp)
   21b6c:	9007883a 	mov	r3,r18
   21b70:	0005883a 	mov	r2,zero
   21b74:	003f0b06 	br	217a4 <_gp+0xfffe43a4>
   21b78:	da002917 	ldw	r8,164(sp)
   21b7c:	df002915 	stw	fp,164(sp)
   21b80:	9839883a 	mov	fp,r19
   21b84:	dcc02a03 	ldbu	r19,168(sp)
   21b88:	dcc02785 	stb	r19,158(sp)
   21b8c:	803d6326 	beq	r16,zero,2111c <_gp+0xfffe3d1c>
   21b90:	00c00044 	movi	r3,1
   21b94:	d8c02a15 	stw	r3,168(sp)
   21b98:	dc001405 	stb	r16,80(sp)
   21b9c:	d8002785 	stb	zero,158(sp)
   21ba0:	003f7f06 	br	219a0 <_gp+0xfffe45a0>
   21ba4:	d8c02017 	ldw	r3,128(sp)
   21ba8:	003e2406 	br	2143c <_gp+0xfffe403c>
   21bac:	10803fcc 	andi	r2,r2,255
   21bb0:	00c00044 	movi	r3,1
   21bb4:	10fdba1e 	bne	r2,r3,212a0 <_gp+0xfffe3ea0>
   21bb8:	a800021e 	bne	r21,zero,21bc4 <___svfprintf_internal_r+0xdb4>
   21bbc:	00800244 	movi	r2,9
   21bc0:	14801d2e 	bgeu	r2,r18,21c38 <___svfprintf_internal_r+0xe28>
   21bc4:	dc002a15 	stw	r16,168(sp)
   21bc8:	b823883a 	mov	r17,r23
   21bcc:	9021883a 	mov	r16,r18
   21bd0:	da002b15 	stw	r8,172(sp)
   21bd4:	a825883a 	mov	r18,r21
   21bd8:	482b883a 	mov	r21,r9
   21bdc:	8009883a 	mov	r4,r16
   21be0:	900b883a 	mov	r5,r18
   21be4:	01800284 	movi	r6,10
   21be8:	000f883a 	mov	r7,zero
   21bec:	002db740 	call	2db74 <__umoddi3>
   21bf0:	10800c04 	addi	r2,r2,48
   21bf4:	8c7fffc4 	addi	r17,r17,-1
   21bf8:	8009883a 	mov	r4,r16
   21bfc:	900b883a 	mov	r5,r18
   21c00:	01800284 	movi	r6,10
   21c04:	000f883a 	mov	r7,zero
   21c08:	88800005 	stb	r2,0(r17)
   21c0c:	002d5340 	call	2d534 <__udivdi3>
   21c10:	1021883a 	mov	r16,r2
   21c14:	10c4b03a 	or	r2,r2,r3
   21c18:	1825883a 	mov	r18,r3
   21c1c:	103fef1e 	bne	r2,zero,21bdc <_gp+0xfffe47dc>
   21c20:	dc403115 	stw	r17,196(sp)
   21c24:	dc002a17 	ldw	r16,168(sp)
   21c28:	da002b17 	ldw	r8,172(sp)
   21c2c:	a813883a 	mov	r9,r21
   21c30:	bc63c83a 	sub	r17,r23,r17
   21c34:	003db406 	br	21308 <_gp+0xfffe3f08>
   21c38:	94800c04 	addi	r18,r18,48
   21c3c:	d8c01dc4 	addi	r3,sp,119
   21c40:	dc801dc5 	stb	r18,119(sp)
   21c44:	dc403d17 	ldw	r17,244(sp)
   21c48:	d8c03115 	stw	r3,196(sp)
   21c4c:	003dae06 	br	21308 <_gp+0xfffe3f08>
   21c50:	00801944 	movi	r2,101
   21c54:	14008c0e 	bge	r2,r16,21e88 <___svfprintf_internal_r+0x1078>
   21c58:	d9003717 	ldw	r4,220(sp)
   21c5c:	d9403817 	ldw	r5,224(sp)
   21c60:	000d883a 	mov	r6,zero
   21c64:	000f883a 	mov	r7,zero
   21c68:	d8c03e15 	stw	r3,248(sp)
   21c6c:	da004015 	stw	r8,256(sp)
   21c70:	002f5000 	call	2f500 <__eqdf2>
   21c74:	d8c03e17 	ldw	r3,248(sp)
   21c78:	da004017 	ldw	r8,256(sp)
   21c7c:	1000fc1e 	bne	r2,zero,22070 <___svfprintf_internal_r+0x1260>
   21c80:	d8801f17 	ldw	r2,124(sp)
   21c84:	010000f4 	movhi	r4,3
   21c88:	210d9804 	addi	r4,r4,13920
   21c8c:	18c00044 	addi	r3,r3,1
   21c90:	10800044 	addi	r2,r2,1
   21c94:	41000015 	stw	r4,0(r8)
   21c98:	01000044 	movi	r4,1
   21c9c:	41000115 	stw	r4,4(r8)
   21ca0:	d8c02015 	stw	r3,128(sp)
   21ca4:	d8801f15 	stw	r2,124(sp)
   21ca8:	010001c4 	movi	r4,7
   21cac:	20823116 	blt	r4,r2,22574 <___svfprintf_internal_r+0x1764>
   21cb0:	42000204 	addi	r8,r8,8
   21cb4:	d8802617 	ldw	r2,152(sp)
   21cb8:	d9403317 	ldw	r5,204(sp)
   21cbc:	11400216 	blt	r2,r5,21cc8 <___svfprintf_internal_r+0xeb8>
   21cc0:	e080004c 	andi	r2,fp,1
   21cc4:	103e3a26 	beq	r2,zero,215b0 <_gp+0xfffe41b0>
   21cc8:	d8803917 	ldw	r2,228(sp)
   21ccc:	d9003517 	ldw	r4,212(sp)
   21cd0:	d9403917 	ldw	r5,228(sp)
   21cd4:	1887883a 	add	r3,r3,r2
   21cd8:	d8801f17 	ldw	r2,124(sp)
   21cdc:	41000015 	stw	r4,0(r8)
   21ce0:	41400115 	stw	r5,4(r8)
   21ce4:	10800044 	addi	r2,r2,1
   21ce8:	d8c02015 	stw	r3,128(sp)
   21cec:	d8801f15 	stw	r2,124(sp)
   21cf0:	010001c4 	movi	r4,7
   21cf4:	20826c16 	blt	r4,r2,226a8 <___svfprintf_internal_r+0x1898>
   21cf8:	42000204 	addi	r8,r8,8
   21cfc:	d8803317 	ldw	r2,204(sp)
   21d00:	143fffc4 	addi	r16,r2,-1
   21d04:	043e2a0e 	bge	zero,r16,215b0 <_gp+0xfffe41b0>
   21d08:	04400404 	movi	r17,16
   21d0c:	d8801f17 	ldw	r2,124(sp)
   21d10:	8c00980e 	bge	r17,r16,21f74 <___svfprintf_internal_r+0x1164>
   21d14:	014000f4 	movhi	r5,3
   21d18:	294d9884 	addi	r5,r5,13922
   21d1c:	d9402b15 	stw	r5,172(sp)
   21d20:	04c001c4 	movi	r19,7
   21d24:	dc802f17 	ldw	r18,188(sp)
   21d28:	00000306 	br	21d38 <___svfprintf_internal_r+0xf28>
   21d2c:	42000204 	addi	r8,r8,8
   21d30:	843ffc04 	addi	r16,r16,-16
   21d34:	8c00920e 	bge	r17,r16,21f80 <___svfprintf_internal_r+0x1170>
   21d38:	18c00404 	addi	r3,r3,16
   21d3c:	10800044 	addi	r2,r2,1
   21d40:	45000015 	stw	r20,0(r8)
   21d44:	44400115 	stw	r17,4(r8)
   21d48:	d8c02015 	stw	r3,128(sp)
   21d4c:	d8801f15 	stw	r2,124(sp)
   21d50:	98bff60e 	bge	r19,r2,21d2c <_gp+0xfffe492c>
   21d54:	9009883a 	mov	r4,r18
   21d58:	b00b883a 	mov	r5,r22
   21d5c:	b80d883a 	mov	r6,r23
   21d60:	002a2f40 	call	2a2f4 <__ssprint_r>
   21d64:	103cf31e 	bne	r2,zero,21134 <_gp+0xfffe3d34>
   21d68:	d8c02017 	ldw	r3,128(sp)
   21d6c:	d8801f17 	ldw	r2,124(sp)
   21d70:	da000404 	addi	r8,sp,16
   21d74:	003fee06 	br	21d30 <_gp+0xfffe4930>
   21d78:	d9402e17 	ldw	r5,184(sp)
   21d7c:	d8802a17 	ldw	r2,168(sp)
   21d80:	28a7c83a 	sub	r19,r5,r2
   21d84:	04fdcb0e 	bge	zero,r19,214b4 <_gp+0xfffe40b4>
   21d88:	05400404 	movi	r21,16
   21d8c:	d8801f17 	ldw	r2,124(sp)
   21d90:	acc3840e 	bge	r21,r19,22ba4 <___svfprintf_internal_r+0x1d94>
   21d94:	014000f4 	movhi	r5,3
   21d98:	9809883a 	mov	r4,r19
   21d9c:	294d9884 	addi	r5,r5,13922
   21da0:	dc002c15 	stw	r16,176(sp)
   21da4:	8827883a 	mov	r19,r17
   21da8:	d9402b15 	stw	r5,172(sp)
   21dac:	048001c4 	movi	r18,7
   21db0:	dc002f17 	ldw	r16,188(sp)
   21db4:	2023883a 	mov	r17,r4
   21db8:	00000306 	br	21dc8 <___svfprintf_internal_r+0xfb8>
   21dbc:	8c7ffc04 	addi	r17,r17,-16
   21dc0:	42000204 	addi	r8,r8,8
   21dc4:	ac40110e 	bge	r21,r17,21e0c <___svfprintf_internal_r+0xffc>
   21dc8:	18c00404 	addi	r3,r3,16
   21dcc:	10800044 	addi	r2,r2,1
   21dd0:	45000015 	stw	r20,0(r8)
   21dd4:	45400115 	stw	r21,4(r8)
   21dd8:	d8c02015 	stw	r3,128(sp)
   21ddc:	d8801f15 	stw	r2,124(sp)
   21de0:	90bff60e 	bge	r18,r2,21dbc <_gp+0xfffe49bc>
   21de4:	8009883a 	mov	r4,r16
   21de8:	b00b883a 	mov	r5,r22
   21dec:	b80d883a 	mov	r6,r23
   21df0:	002a2f40 	call	2a2f4 <__ssprint_r>
   21df4:	103ccf1e 	bne	r2,zero,21134 <_gp+0xfffe3d34>
   21df8:	8c7ffc04 	addi	r17,r17,-16
   21dfc:	d8c02017 	ldw	r3,128(sp)
   21e00:	d8801f17 	ldw	r2,124(sp)
   21e04:	da000404 	addi	r8,sp,16
   21e08:	ac7fef16 	blt	r21,r17,21dc8 <_gp+0xfffe49c8>
   21e0c:	dc002c17 	ldw	r16,176(sp)
   21e10:	8809883a 	mov	r4,r17
   21e14:	9823883a 	mov	r17,r19
   21e18:	2027883a 	mov	r19,r4
   21e1c:	d9002b17 	ldw	r4,172(sp)
   21e20:	1cc7883a 	add	r3,r3,r19
   21e24:	10800044 	addi	r2,r2,1
   21e28:	41000015 	stw	r4,0(r8)
   21e2c:	44c00115 	stw	r19,4(r8)
   21e30:	d8c02015 	stw	r3,128(sp)
   21e34:	d8801f15 	stw	r2,124(sp)
   21e38:	010001c4 	movi	r4,7
   21e3c:	20816b16 	blt	r4,r2,223ec <___svfprintf_internal_r+0x15dc>
   21e40:	42000204 	addi	r8,r8,8
   21e44:	003d9b06 	br	214b4 <_gp+0xfffe40b4>
   21e48:	d9403b17 	ldw	r5,236(sp)
   21e4c:	b807883a 	mov	r3,r23
   21e50:	908003cc 	andi	r2,r18,15
   21e54:	a808973a 	slli	r4,r21,28
   21e58:	2885883a 	add	r2,r5,r2
   21e5c:	9024d13a 	srli	r18,r18,4
   21e60:	10800003 	ldbu	r2,0(r2)
   21e64:	a82ad13a 	srli	r21,r21,4
   21e68:	18ffffc4 	addi	r3,r3,-1
   21e6c:	24a4b03a 	or	r18,r4,r18
   21e70:	18800005 	stb	r2,0(r3)
   21e74:	9544b03a 	or	r2,r18,r21
   21e78:	103ff51e 	bne	r2,zero,21e50 <_gp+0xfffe4a50>
   21e7c:	d8c03115 	stw	r3,196(sp)
   21e80:	b8e3c83a 	sub	r17,r23,r3
   21e84:	003d2006 	br	21308 <_gp+0xfffe3f08>
   21e88:	d9403317 	ldw	r5,204(sp)
   21e8c:	00800044 	movi	r2,1
   21e90:	18c00044 	addi	r3,r3,1
   21e94:	1141360e 	bge	r2,r5,22370 <___svfprintf_internal_r+0x1560>
   21e98:	dc001f17 	ldw	r16,124(sp)
   21e9c:	d8803117 	ldw	r2,196(sp)
   21ea0:	d8c02015 	stw	r3,128(sp)
   21ea4:	84000044 	addi	r16,r16,1
   21ea8:	40800015 	stw	r2,0(r8)
   21eac:	00800044 	movi	r2,1
   21eb0:	40800115 	stw	r2,4(r8)
   21eb4:	dc001f15 	stw	r16,124(sp)
   21eb8:	008001c4 	movi	r2,7
   21ebc:	14013916 	blt	r2,r16,223a4 <___svfprintf_internal_r+0x1594>
   21ec0:	42000204 	addi	r8,r8,8
   21ec4:	d9003917 	ldw	r4,228(sp)
   21ec8:	d9403517 	ldw	r5,212(sp)
   21ecc:	84000044 	addi	r16,r16,1
   21ed0:	1907883a 	add	r3,r3,r4
   21ed4:	41400015 	stw	r5,0(r8)
   21ed8:	41000115 	stw	r4,4(r8)
   21edc:	d8c02015 	stw	r3,128(sp)
   21ee0:	dc001f15 	stw	r16,124(sp)
   21ee4:	008001c4 	movi	r2,7
   21ee8:	14013716 	blt	r2,r16,223c8 <___svfprintf_internal_r+0x15b8>
   21eec:	44400204 	addi	r17,r8,8
   21ef0:	d9003717 	ldw	r4,220(sp)
   21ef4:	d9403817 	ldw	r5,224(sp)
   21ef8:	000d883a 	mov	r6,zero
   21efc:	000f883a 	mov	r7,zero
   21f00:	d8c03e15 	stw	r3,248(sp)
   21f04:	002f5000 	call	2f500 <__eqdf2>
   21f08:	d8c03e17 	ldw	r3,248(sp)
   21f0c:	10009926 	beq	r2,zero,22174 <___svfprintf_internal_r+0x1364>
   21f10:	d9003317 	ldw	r4,204(sp)
   21f14:	d9403117 	ldw	r5,196(sp)
   21f18:	84000044 	addi	r16,r16,1
   21f1c:	20bfffc4 	addi	r2,r4,-1
   21f20:	1887883a 	add	r3,r3,r2
   21f24:	29000044 	addi	r4,r5,1
   21f28:	88800115 	stw	r2,4(r17)
   21f2c:	89000015 	stw	r4,0(r17)
   21f30:	d8c02015 	stw	r3,128(sp)
   21f34:	dc001f15 	stw	r16,124(sp)
   21f38:	008001c4 	movi	r2,7
   21f3c:	1400b716 	blt	r2,r16,2221c <___svfprintf_internal_r+0x140c>
   21f40:	8c400204 	addi	r17,r17,8
   21f44:	d9403a17 	ldw	r5,232(sp)
   21f48:	dcc022c4 	addi	r19,sp,139
   21f4c:	84000044 	addi	r16,r16,1
   21f50:	28c7883a 	add	r3,r5,r3
   21f54:	8cc00015 	stw	r19,0(r17)
   21f58:	89400115 	stw	r5,4(r17)
   21f5c:	d8c02015 	stw	r3,128(sp)
   21f60:	dc001f15 	stw	r16,124(sp)
   21f64:	008001c4 	movi	r2,7
   21f68:	14000e16 	blt	r2,r16,21fa4 <___svfprintf_internal_r+0x1194>
   21f6c:	8a000204 	addi	r8,r17,8
   21f70:	003d8f06 	br	215b0 <_gp+0xfffe41b0>
   21f74:	010000f4 	movhi	r4,3
   21f78:	210d9884 	addi	r4,r4,13922
   21f7c:	d9002b15 	stw	r4,172(sp)
   21f80:	d9002b17 	ldw	r4,172(sp)
   21f84:	1c07883a 	add	r3,r3,r16
   21f88:	44000115 	stw	r16,4(r8)
   21f8c:	41000015 	stw	r4,0(r8)
   21f90:	10800044 	addi	r2,r2,1
   21f94:	d8c02015 	stw	r3,128(sp)
   21f98:	d8801f15 	stw	r2,124(sp)
   21f9c:	010001c4 	movi	r4,7
   21fa0:	20bd820e 	bge	r4,r2,215ac <_gp+0xfffe41ac>
   21fa4:	d9002f17 	ldw	r4,188(sp)
   21fa8:	b00b883a 	mov	r5,r22
   21fac:	b80d883a 	mov	r6,r23
   21fb0:	002a2f40 	call	2a2f4 <__ssprint_r>
   21fb4:	103c5f1e 	bne	r2,zero,21134 <_gp+0xfffe3d34>
   21fb8:	d8c02017 	ldw	r3,128(sp)
   21fbc:	da000404 	addi	r8,sp,16
   21fc0:	003d7b06 	br	215b0 <_gp+0xfffe41b0>
   21fc4:	d9002f17 	ldw	r4,188(sp)
   21fc8:	b00b883a 	mov	r5,r22
   21fcc:	b80d883a 	mov	r6,r23
   21fd0:	002a2f40 	call	2a2f4 <__ssprint_r>
   21fd4:	103db226 	beq	r2,zero,216a0 <_gp+0xfffe42a0>
   21fd8:	003c5606 	br	21134 <_gp+0xfffe3d34>
   21fdc:	10803fcc 	andi	r2,r2,255
   21fe0:	1000201e 	bne	r2,zero,22064 <___svfprintf_internal_r+0x1254>
   21fe4:	e080004c 	andi	r2,fp,1
   21fe8:	10001e26 	beq	r2,zero,22064 <___svfprintf_internal_r+0x1254>
   21fec:	00800c04 	movi	r2,48
   21ff0:	d8c01dc4 	addi	r3,sp,119
   21ff4:	d8801dc5 	stb	r2,119(sp)
   21ff8:	dc403d17 	ldw	r17,244(sp)
   21ffc:	d8c03115 	stw	r3,196(sp)
   22000:	003cc106 	br	21308 <_gp+0xfffe3f08>
   22004:	d9002f17 	ldw	r4,188(sp)
   22008:	b00b883a 	mov	r5,r22
   2200c:	b80d883a 	mov	r6,r23
   22010:	002a2f40 	call	2a2f4 <__ssprint_r>
   22014:	103c471e 	bne	r2,zero,21134 <_gp+0xfffe3d34>
   22018:	d8c02017 	ldw	r3,128(sp)
   2201c:	da000404 	addi	r8,sp,16
   22020:	003d5606 	br	2157c <_gp+0xfffe417c>
   22024:	d9002f17 	ldw	r4,188(sp)
   22028:	b00b883a 	mov	r5,r22
   2202c:	b80d883a 	mov	r6,r23
   22030:	002a2f40 	call	2a2f4 <__ssprint_r>
   22034:	103c3f1e 	bne	r2,zero,21134 <_gp+0xfffe3d34>
   22038:	d8c02017 	ldw	r3,128(sp)
   2203c:	da000404 	addi	r8,sp,16
   22040:	003d0b06 	br	21470 <_gp+0xfffe4070>
   22044:	d9002f17 	ldw	r4,188(sp)
   22048:	b00b883a 	mov	r5,r22
   2204c:	b80d883a 	mov	r6,r23
   22050:	002a2f40 	call	2a2f4 <__ssprint_r>
   22054:	103c371e 	bne	r2,zero,21134 <_gp+0xfffe3d34>
   22058:	d8c02017 	ldw	r3,128(sp)
   2205c:	da000404 	addi	r8,sp,16
   22060:	003d1106 	br	214a8 <_gp+0xfffe40a8>
   22064:	0023883a 	mov	r17,zero
   22068:	ddc03115 	stw	r23,196(sp)
   2206c:	003ca606 	br	21308 <_gp+0xfffe3f08>
   22070:	dc002617 	ldw	r16,152(sp)
   22074:	0401470e 	bge	zero,r16,22594 <___svfprintf_internal_r+0x1784>
   22078:	d8803317 	ldw	r2,204(sp)
   2207c:	d9403117 	ldw	r5,196(sp)
   22080:	d9003417 	ldw	r4,208(sp)
   22084:	1023883a 	mov	r17,r2
   22088:	28a1883a 	add	r16,r5,r2
   2208c:	2080010e 	bge	r4,r2,22094 <___svfprintf_internal_r+0x1284>
   22090:	2023883a 	mov	r17,r4
   22094:	04400b0e 	bge	zero,r17,220c4 <___svfprintf_internal_r+0x12b4>
   22098:	d8801f17 	ldw	r2,124(sp)
   2209c:	d9403117 	ldw	r5,196(sp)
   220a0:	1c47883a 	add	r3,r3,r17
   220a4:	10800044 	addi	r2,r2,1
   220a8:	41400015 	stw	r5,0(r8)
   220ac:	44400115 	stw	r17,4(r8)
   220b0:	d8c02015 	stw	r3,128(sp)
   220b4:	d8801f15 	stw	r2,124(sp)
   220b8:	010001c4 	movi	r4,7
   220bc:	20825f16 	blt	r4,r2,22a3c <___svfprintf_internal_r+0x1c2c>
   220c0:	42000204 	addi	r8,r8,8
   220c4:	88025b16 	blt	r17,zero,22a34 <___svfprintf_internal_r+0x1c24>
   220c8:	d8803417 	ldw	r2,208(sp)
   220cc:	1463c83a 	sub	r17,r2,r17
   220d0:	0440620e 	bge	zero,r17,2225c <___svfprintf_internal_r+0x144c>
   220d4:	04c00404 	movi	r19,16
   220d8:	d8801f17 	ldw	r2,124(sp)
   220dc:	9c41130e 	bge	r19,r17,2252c <___svfprintf_internal_r+0x171c>
   220e0:	014000f4 	movhi	r5,3
   220e4:	294d9884 	addi	r5,r5,13922
   220e8:	d9402b15 	stw	r5,172(sp)
   220ec:	054001c4 	movi	r21,7
   220f0:	dc802f17 	ldw	r18,188(sp)
   220f4:	00000306 	br	22104 <___svfprintf_internal_r+0x12f4>
   220f8:	42000204 	addi	r8,r8,8
   220fc:	8c7ffc04 	addi	r17,r17,-16
   22100:	9c410d0e 	bge	r19,r17,22538 <___svfprintf_internal_r+0x1728>
   22104:	18c00404 	addi	r3,r3,16
   22108:	10800044 	addi	r2,r2,1
   2210c:	45000015 	stw	r20,0(r8)
   22110:	44c00115 	stw	r19,4(r8)
   22114:	d8c02015 	stw	r3,128(sp)
   22118:	d8801f15 	stw	r2,124(sp)
   2211c:	a8bff60e 	bge	r21,r2,220f8 <_gp+0xfffe4cf8>
   22120:	9009883a 	mov	r4,r18
   22124:	b00b883a 	mov	r5,r22
   22128:	b80d883a 	mov	r6,r23
   2212c:	002a2f40 	call	2a2f4 <__ssprint_r>
   22130:	103c001e 	bne	r2,zero,21134 <_gp+0xfffe3d34>
   22134:	d8c02017 	ldw	r3,128(sp)
   22138:	d8801f17 	ldw	r2,124(sp)
   2213c:	da000404 	addi	r8,sp,16
   22140:	003fee06 	br	220fc <_gp+0xfffe4cfc>
   22144:	d9002f17 	ldw	r4,188(sp)
   22148:	b00b883a 	mov	r5,r22
   2214c:	b80d883a 	mov	r6,r23
   22150:	002a2f40 	call	2a2f4 <__ssprint_r>
   22154:	103bf71e 	bne	r2,zero,21134 <_gp+0xfffe3d34>
   22158:	d8c02017 	ldw	r3,128(sp)
   2215c:	d8802787 	ldb	r2,158(sp)
   22160:	da000404 	addi	r8,sp,16
   22164:	003cb506 	br	2143c <_gp+0xfffe403c>
   22168:	00800084 	movi	r2,2
   2216c:	9546b03a 	or	r3,r18,r21
   22170:	003d8c06 	br	217a4 <_gp+0xfffe43a4>
   22174:	d8803317 	ldw	r2,204(sp)
   22178:	14ffffc4 	addi	r19,r2,-1
   2217c:	04ff710e 	bge	zero,r19,21f44 <_gp+0xfffe4b44>
   22180:	05400404 	movi	r21,16
   22184:	acc2f80e 	bge	r21,r19,22d68 <___svfprintf_internal_r+0x1f58>
   22188:	014000f4 	movhi	r5,3
   2218c:	294d9884 	addi	r5,r5,13922
   22190:	d9402b15 	stw	r5,172(sp)
   22194:	01c001c4 	movi	r7,7
   22198:	dc802f17 	ldw	r18,188(sp)
   2219c:	00000306 	br	221ac <___svfprintf_internal_r+0x139c>
   221a0:	9cfffc04 	addi	r19,r19,-16
   221a4:	8c400204 	addi	r17,r17,8
   221a8:	acc0130e 	bge	r21,r19,221f8 <___svfprintf_internal_r+0x13e8>
   221ac:	18c00404 	addi	r3,r3,16
   221b0:	84000044 	addi	r16,r16,1
   221b4:	8d000015 	stw	r20,0(r17)
   221b8:	8d400115 	stw	r21,4(r17)
   221bc:	d8c02015 	stw	r3,128(sp)
   221c0:	dc001f15 	stw	r16,124(sp)
   221c4:	3c3ff60e 	bge	r7,r16,221a0 <_gp+0xfffe4da0>
   221c8:	9009883a 	mov	r4,r18
   221cc:	b00b883a 	mov	r5,r22
   221d0:	b80d883a 	mov	r6,r23
   221d4:	d9c03e15 	stw	r7,248(sp)
   221d8:	002a2f40 	call	2a2f4 <__ssprint_r>
   221dc:	d9c03e17 	ldw	r7,248(sp)
   221e0:	103bd41e 	bne	r2,zero,21134 <_gp+0xfffe3d34>
   221e4:	9cfffc04 	addi	r19,r19,-16
   221e8:	d8c02017 	ldw	r3,128(sp)
   221ec:	dc001f17 	ldw	r16,124(sp)
   221f0:	dc400404 	addi	r17,sp,16
   221f4:	acffed16 	blt	r21,r19,221ac <_gp+0xfffe4dac>
   221f8:	d8802b17 	ldw	r2,172(sp)
   221fc:	1cc7883a 	add	r3,r3,r19
   22200:	84000044 	addi	r16,r16,1
   22204:	88800015 	stw	r2,0(r17)
   22208:	8cc00115 	stw	r19,4(r17)
   2220c:	d8c02015 	stw	r3,128(sp)
   22210:	dc001f15 	stw	r16,124(sp)
   22214:	008001c4 	movi	r2,7
   22218:	143f490e 	bge	r2,r16,21f40 <_gp+0xfffe4b40>
   2221c:	d9002f17 	ldw	r4,188(sp)
   22220:	b00b883a 	mov	r5,r22
   22224:	b80d883a 	mov	r6,r23
   22228:	002a2f40 	call	2a2f4 <__ssprint_r>
   2222c:	103bc11e 	bne	r2,zero,21134 <_gp+0xfffe3d34>
   22230:	d8c02017 	ldw	r3,128(sp)
   22234:	dc001f17 	ldw	r16,124(sp)
   22238:	dc400404 	addi	r17,sp,16
   2223c:	003f4106 	br	21f44 <_gp+0xfffe4b44>
   22240:	d9002f17 	ldw	r4,188(sp)
   22244:	b00b883a 	mov	r5,r22
   22248:	b80d883a 	mov	r6,r23
   2224c:	002a2f40 	call	2a2f4 <__ssprint_r>
   22250:	103bb81e 	bne	r2,zero,21134 <_gp+0xfffe3d34>
   22254:	d8c02017 	ldw	r3,128(sp)
   22258:	da000404 	addi	r8,sp,16
   2225c:	d9403117 	ldw	r5,196(sp)
   22260:	d9003417 	ldw	r4,208(sp)
   22264:	d8802617 	ldw	r2,152(sp)
   22268:	2923883a 	add	r17,r5,r4
   2226c:	d9403317 	ldw	r5,204(sp)
   22270:	11400216 	blt	r2,r5,2227c <___svfprintf_internal_r+0x146c>
   22274:	e100004c 	andi	r4,fp,1
   22278:	20000d26 	beq	r4,zero,222b0 <___svfprintf_internal_r+0x14a0>
   2227c:	d9003917 	ldw	r4,228(sp)
   22280:	d9403517 	ldw	r5,212(sp)
   22284:	1907883a 	add	r3,r3,r4
   22288:	d9001f17 	ldw	r4,124(sp)
   2228c:	41400015 	stw	r5,0(r8)
   22290:	d9403917 	ldw	r5,228(sp)
   22294:	21000044 	addi	r4,r4,1
   22298:	d8c02015 	stw	r3,128(sp)
   2229c:	41400115 	stw	r5,4(r8)
   222a0:	d9001f15 	stw	r4,124(sp)
   222a4:	014001c4 	movi	r5,7
   222a8:	2901ec16 	blt	r5,r4,22a5c <___svfprintf_internal_r+0x1c4c>
   222ac:	42000204 	addi	r8,r8,8
   222b0:	d9003317 	ldw	r4,204(sp)
   222b4:	2085c83a 	sub	r2,r4,r2
   222b8:	8449c83a 	sub	r4,r16,r17
   222bc:	1021883a 	mov	r16,r2
   222c0:	2080010e 	bge	r4,r2,222c8 <___svfprintf_internal_r+0x14b8>
   222c4:	2021883a 	mov	r16,r4
   222c8:	04000a0e 	bge	zero,r16,222f4 <___svfprintf_internal_r+0x14e4>
   222cc:	d9001f17 	ldw	r4,124(sp)
   222d0:	1c07883a 	add	r3,r3,r16
   222d4:	44400015 	stw	r17,0(r8)
   222d8:	21000044 	addi	r4,r4,1
   222dc:	44000115 	stw	r16,4(r8)
   222e0:	d8c02015 	stw	r3,128(sp)
   222e4:	d9001f15 	stw	r4,124(sp)
   222e8:	014001c4 	movi	r5,7
   222ec:	2901f216 	blt	r5,r4,22ab8 <___svfprintf_internal_r+0x1ca8>
   222f0:	42000204 	addi	r8,r8,8
   222f4:	80020a16 	blt	r16,zero,22b20 <___svfprintf_internal_r+0x1d10>
   222f8:	1421c83a 	sub	r16,r2,r16
   222fc:	043cac0e 	bge	zero,r16,215b0 <_gp+0xfffe41b0>
   22300:	04400404 	movi	r17,16
   22304:	d8801f17 	ldw	r2,124(sp)
   22308:	8c3f1a0e 	bge	r17,r16,21f74 <_gp+0xfffe4b74>
   2230c:	014000f4 	movhi	r5,3
   22310:	294d9884 	addi	r5,r5,13922
   22314:	d9402b15 	stw	r5,172(sp)
   22318:	04c001c4 	movi	r19,7
   2231c:	dc802f17 	ldw	r18,188(sp)
   22320:	00000306 	br	22330 <___svfprintf_internal_r+0x1520>
   22324:	42000204 	addi	r8,r8,8
   22328:	843ffc04 	addi	r16,r16,-16
   2232c:	8c3f140e 	bge	r17,r16,21f80 <_gp+0xfffe4b80>
   22330:	18c00404 	addi	r3,r3,16
   22334:	10800044 	addi	r2,r2,1
   22338:	45000015 	stw	r20,0(r8)
   2233c:	44400115 	stw	r17,4(r8)
   22340:	d8c02015 	stw	r3,128(sp)
   22344:	d8801f15 	stw	r2,124(sp)
   22348:	98bff60e 	bge	r19,r2,22324 <_gp+0xfffe4f24>
   2234c:	9009883a 	mov	r4,r18
   22350:	b00b883a 	mov	r5,r22
   22354:	b80d883a 	mov	r6,r23
   22358:	002a2f40 	call	2a2f4 <__ssprint_r>
   2235c:	103b751e 	bne	r2,zero,21134 <_gp+0xfffe3d34>
   22360:	d8c02017 	ldw	r3,128(sp)
   22364:	d8801f17 	ldw	r2,124(sp)
   22368:	da000404 	addi	r8,sp,16
   2236c:	003fee06 	br	22328 <_gp+0xfffe4f28>
   22370:	e088703a 	and	r4,fp,r2
   22374:	203ec81e 	bne	r4,zero,21e98 <_gp+0xfffe4a98>
   22378:	dc001f17 	ldw	r16,124(sp)
   2237c:	d9003117 	ldw	r4,196(sp)
   22380:	40800115 	stw	r2,4(r8)
   22384:	84000044 	addi	r16,r16,1
   22388:	41000015 	stw	r4,0(r8)
   2238c:	d8c02015 	stw	r3,128(sp)
   22390:	dc001f15 	stw	r16,124(sp)
   22394:	008001c4 	movi	r2,7
   22398:	143fa016 	blt	r2,r16,2221c <_gp+0xfffe4e1c>
   2239c:	44400204 	addi	r17,r8,8
   223a0:	003ee806 	br	21f44 <_gp+0xfffe4b44>
   223a4:	d9002f17 	ldw	r4,188(sp)
   223a8:	b00b883a 	mov	r5,r22
   223ac:	b80d883a 	mov	r6,r23
   223b0:	002a2f40 	call	2a2f4 <__ssprint_r>
   223b4:	103b5f1e 	bne	r2,zero,21134 <_gp+0xfffe3d34>
   223b8:	d8c02017 	ldw	r3,128(sp)
   223bc:	dc001f17 	ldw	r16,124(sp)
   223c0:	da000404 	addi	r8,sp,16
   223c4:	003ebf06 	br	21ec4 <_gp+0xfffe4ac4>
   223c8:	d9002f17 	ldw	r4,188(sp)
   223cc:	b00b883a 	mov	r5,r22
   223d0:	b80d883a 	mov	r6,r23
   223d4:	002a2f40 	call	2a2f4 <__ssprint_r>
   223d8:	103b561e 	bne	r2,zero,21134 <_gp+0xfffe3d34>
   223dc:	d8c02017 	ldw	r3,128(sp)
   223e0:	dc001f17 	ldw	r16,124(sp)
   223e4:	dc400404 	addi	r17,sp,16
   223e8:	003ec106 	br	21ef0 <_gp+0xfffe4af0>
   223ec:	d9002f17 	ldw	r4,188(sp)
   223f0:	b00b883a 	mov	r5,r22
   223f4:	b80d883a 	mov	r6,r23
   223f8:	002a2f40 	call	2a2f4 <__ssprint_r>
   223fc:	103b4d1e 	bne	r2,zero,21134 <_gp+0xfffe3d34>
   22400:	d8c02017 	ldw	r3,128(sp)
   22404:	da000404 	addi	r8,sp,16
   22408:	003c2a06 	br	214b4 <_gp+0xfffe40b4>
   2240c:	da004015 	stw	r8,256(sp)
   22410:	da403f15 	stw	r9,252(sp)
   22414:	002a04c0 	call	2a04c <__fpclassifyd>
   22418:	da004017 	ldw	r8,256(sp)
   2241c:	da403f17 	ldw	r9,252(sp)
   22420:	1000a91e 	bne	r2,zero,226c8 <___svfprintf_internal_r+0x18b8>
   22424:	008011c4 	movi	r2,71
   22428:	14011016 	blt	r2,r16,2286c <___svfprintf_internal_r+0x1a5c>
   2242c:	010000f4 	movhi	r4,3
   22430:	210d8a04 	addi	r4,r4,13864
   22434:	d9003115 	stw	r4,196(sp)
   22438:	00c000c4 	movi	r3,3
   2243c:	00bfdfc4 	movi	r2,-129
   22440:	d8c02a15 	stw	r3,168(sp)
   22444:	e0b8703a 	and	fp,fp,r2
   22448:	dcc02783 	ldbu	r19,158(sp)
   2244c:	dc802d15 	stw	r18,180(sp)
   22450:	1823883a 	mov	r17,r3
   22454:	d8003215 	stw	zero,200(sp)
   22458:	d8003415 	stw	zero,208(sp)
   2245c:	003baf06 	br	2131c <_gp+0xfffe3f1c>
   22460:	e0c0100c 	andi	r3,fp,64
   22464:	18012a26 	beq	r3,zero,22910 <___svfprintf_internal_r+0x1b00>
   22468:	d9002d17 	ldw	r4,180(sp)
   2246c:	1480000b 	ldhu	r18,0(r2)
   22470:	002b883a 	mov	r21,zero
   22474:	21000104 	addi	r4,r4,4
   22478:	d9002d15 	stw	r4,180(sp)
   2247c:	003d3206 	br	21948 <_gp+0xfffe4548>
   22480:	e080100c 	andi	r2,fp,64
   22484:	10011326 	beq	r2,zero,228d4 <___svfprintf_internal_r+0x1ac4>
   22488:	d8c02d17 	ldw	r3,180(sp)
   2248c:	002b883a 	mov	r21,zero
   22490:	0005883a 	mov	r2,zero
   22494:	1c80000b 	ldhu	r18,0(r3)
   22498:	18c00104 	addi	r3,r3,4
   2249c:	d8c02d15 	stw	r3,180(sp)
   224a0:	9007883a 	mov	r3,r18
   224a4:	003cbf06 	br	217a4 <_gp+0xfffe43a4>
   224a8:	e080040c 	andi	r2,fp,16
   224ac:	10011e26 	beq	r2,zero,22928 <___svfprintf_internal_r+0x1b18>
   224b0:	d9402d17 	ldw	r5,180(sp)
   224b4:	d8c03017 	ldw	r3,192(sp)
   224b8:	28800017 	ldw	r2,0(r5)
   224bc:	29400104 	addi	r5,r5,4
   224c0:	d9402d15 	stw	r5,180(sp)
   224c4:	10c00015 	stw	r3,0(r2)
   224c8:	003a7d06 	br	20ec0 <_gp+0xfffe3ac0>
   224cc:	e4000007 	ldb	r16,0(fp)
   224d0:	e005883a 	mov	r2,fp
   224d4:	003aa506 	br	20f6c <_gp+0xfffe3b6c>
   224d8:	e080100c 	andi	r2,fp,64
   224dc:	10010526 	beq	r2,zero,228f4 <___svfprintf_internal_r+0x1ae4>
   224e0:	1c80000f 	ldh	r18,0(r3)
   224e4:	d8802d17 	ldw	r2,180(sp)
   224e8:	902bd7fa 	srai	r21,r18,31
   224ec:	10800104 	addi	r2,r2,4
   224f0:	d8802d15 	stw	r2,180(sp)
   224f4:	a805883a 	mov	r2,r21
   224f8:	003b5c06 	br	2126c <_gp+0xfffe3e6c>
   224fc:	e080100c 	andi	r2,fp,64
   22500:	1000ec26 	beq	r2,zero,228b4 <___svfprintf_internal_r+0x1aa4>
   22504:	d8802d17 	ldw	r2,180(sp)
   22508:	002b883a 	mov	r21,zero
   2250c:	1480000b 	ldhu	r18,0(r2)
   22510:	10800104 	addi	r2,r2,4
   22514:	d8802d15 	stw	r2,180(sp)
   22518:	9007883a 	mov	r3,r18
   2251c:	00800044 	movi	r2,1
   22520:	003ca006 	br	217a4 <_gp+0xfffe43a4>
   22524:	00800084 	movi	r2,2
   22528:	003c9e06 	br	217a4 <_gp+0xfffe43a4>
   2252c:	010000f4 	movhi	r4,3
   22530:	210d9884 	addi	r4,r4,13922
   22534:	d9002b15 	stw	r4,172(sp)
   22538:	d9002b17 	ldw	r4,172(sp)
   2253c:	1c47883a 	add	r3,r3,r17
   22540:	10800044 	addi	r2,r2,1
   22544:	41000015 	stw	r4,0(r8)
   22548:	44400115 	stw	r17,4(r8)
   2254c:	d8c02015 	stw	r3,128(sp)
   22550:	d8801f15 	stw	r2,124(sp)
   22554:	010001c4 	movi	r4,7
   22558:	20bf3916 	blt	r4,r2,22240 <_gp+0xfffe4e40>
   2255c:	42000204 	addi	r8,r8,8
   22560:	003f3e06 	br	2225c <_gp+0xfffe4e5c>
   22564:	010000f4 	movhi	r4,3
   22568:	210d9884 	addi	r4,r4,13922
   2256c:	d9002b15 	stw	r4,172(sp)
   22570:	003bf806 	br	21554 <_gp+0xfffe4154>
   22574:	d9002f17 	ldw	r4,188(sp)
   22578:	b00b883a 	mov	r5,r22
   2257c:	b80d883a 	mov	r6,r23
   22580:	002a2f40 	call	2a2f4 <__ssprint_r>
   22584:	103aeb1e 	bne	r2,zero,21134 <_gp+0xfffe3d34>
   22588:	d8c02017 	ldw	r3,128(sp)
   2258c:	da000404 	addi	r8,sp,16
   22590:	003dc806 	br	21cb4 <_gp+0xfffe48b4>
   22594:	d8801f17 	ldw	r2,124(sp)
   22598:	014000f4 	movhi	r5,3
   2259c:	01000044 	movi	r4,1
   225a0:	18c00044 	addi	r3,r3,1
   225a4:	10800044 	addi	r2,r2,1
   225a8:	294d9804 	addi	r5,r5,13920
   225ac:	41000115 	stw	r4,4(r8)
   225b0:	41400015 	stw	r5,0(r8)
   225b4:	d8c02015 	stw	r3,128(sp)
   225b8:	d8801f15 	stw	r2,124(sp)
   225bc:	010001c4 	movi	r4,7
   225c0:	2080ae16 	blt	r4,r2,2287c <___svfprintf_internal_r+0x1a6c>
   225c4:	42000204 	addi	r8,r8,8
   225c8:	8000041e 	bne	r16,zero,225dc <___svfprintf_internal_r+0x17cc>
   225cc:	d8803317 	ldw	r2,204(sp)
   225d0:	1000021e 	bne	r2,zero,225dc <___svfprintf_internal_r+0x17cc>
   225d4:	e080004c 	andi	r2,fp,1
   225d8:	103bf526 	beq	r2,zero,215b0 <_gp+0xfffe41b0>
   225dc:	d9003917 	ldw	r4,228(sp)
   225e0:	d8801f17 	ldw	r2,124(sp)
   225e4:	d9403517 	ldw	r5,212(sp)
   225e8:	1907883a 	add	r3,r3,r4
   225ec:	10800044 	addi	r2,r2,1
   225f0:	41000115 	stw	r4,4(r8)
   225f4:	41400015 	stw	r5,0(r8)
   225f8:	d8c02015 	stw	r3,128(sp)
   225fc:	d8801f15 	stw	r2,124(sp)
   22600:	010001c4 	movi	r4,7
   22604:	2081ac16 	blt	r4,r2,22cb8 <___svfprintf_internal_r+0x1ea8>
   22608:	42000204 	addi	r8,r8,8
   2260c:	0421c83a 	sub	r16,zero,r16
   22610:	0400d60e 	bge	zero,r16,2296c <___svfprintf_internal_r+0x1b5c>
   22614:	04400404 	movi	r17,16
   22618:	8c01190e 	bge	r17,r16,22a80 <___svfprintf_internal_r+0x1c70>
   2261c:	014000f4 	movhi	r5,3
   22620:	294d9884 	addi	r5,r5,13922
   22624:	d9402b15 	stw	r5,172(sp)
   22628:	04c001c4 	movi	r19,7
   2262c:	dc802f17 	ldw	r18,188(sp)
   22630:	00000306 	br	22640 <___svfprintf_internal_r+0x1830>
   22634:	42000204 	addi	r8,r8,8
   22638:	843ffc04 	addi	r16,r16,-16
   2263c:	8c01130e 	bge	r17,r16,22a8c <___svfprintf_internal_r+0x1c7c>
   22640:	18c00404 	addi	r3,r3,16
   22644:	10800044 	addi	r2,r2,1
   22648:	45000015 	stw	r20,0(r8)
   2264c:	44400115 	stw	r17,4(r8)
   22650:	d8c02015 	stw	r3,128(sp)
   22654:	d8801f15 	stw	r2,124(sp)
   22658:	98bff60e 	bge	r19,r2,22634 <_gp+0xfffe5234>
   2265c:	9009883a 	mov	r4,r18
   22660:	b00b883a 	mov	r5,r22
   22664:	b80d883a 	mov	r6,r23
   22668:	002a2f40 	call	2a2f4 <__ssprint_r>
   2266c:	103ab11e 	bne	r2,zero,21134 <_gp+0xfffe3d34>
   22670:	d8c02017 	ldw	r3,128(sp)
   22674:	d8801f17 	ldw	r2,124(sp)
   22678:	da000404 	addi	r8,sp,16
   2267c:	003fee06 	br	22638 <_gp+0xfffe5238>
   22680:	d8802e17 	ldw	r2,184(sp)
   22684:	d8c02d15 	stw	r3,180(sp)
   22688:	0085c83a 	sub	r2,zero,r2
   2268c:	d8802e15 	stw	r2,184(sp)
   22690:	e005883a 	mov	r2,fp
   22694:	003aba06 	br	21180 <_gp+0xfffe3d80>
   22698:	e0800044 	addi	r2,fp,1
   2269c:	9cc00814 	ori	r19,r19,32
   226a0:	e4000047 	ldb	r16,1(fp)
   226a4:	003a3106 	br	20f6c <_gp+0xfffe3b6c>
   226a8:	d9002f17 	ldw	r4,188(sp)
   226ac:	b00b883a 	mov	r5,r22
   226b0:	b80d883a 	mov	r6,r23
   226b4:	002a2f40 	call	2a2f4 <__ssprint_r>
   226b8:	103a9e1e 	bne	r2,zero,21134 <_gp+0xfffe3d34>
   226bc:	d8c02017 	ldw	r3,128(sp)
   226c0:	da000404 	addi	r8,sp,16
   226c4:	003d8d06 	br	21cfc <_gp+0xfffe48fc>
   226c8:	04fff7c4 	movi	r19,-33
   226cc:	00bfffc4 	movi	r2,-1
   226d0:	84e6703a 	and	r19,r16,r19
   226d4:	48807226 	beq	r9,r2,228a0 <___svfprintf_internal_r+0x1a90>
   226d8:	008011c4 	movi	r2,71
   226dc:	98818026 	beq	r19,r2,22ce0 <___svfprintf_internal_r+0x1ed0>
   226e0:	d9003817 	ldw	r4,224(sp)
   226e4:	e0c04014 	ori	r3,fp,256
   226e8:	d8c02d15 	stw	r3,180(sp)
   226ec:	20017f16 	blt	r4,zero,22cec <___svfprintf_internal_r+0x1edc>
   226f0:	dc403817 	ldw	r17,224(sp)
   226f4:	d8002a05 	stb	zero,168(sp)
   226f8:	00801984 	movi	r2,102
   226fc:	8080ad26 	beq	r16,r2,229b4 <___svfprintf_internal_r+0x1ba4>
   22700:	00801184 	movi	r2,70
   22704:	8080ab26 	beq	r16,r2,229b4 <___svfprintf_internal_r+0x1ba4>
   22708:	00801144 	movi	r2,69
   2270c:	98818426 	beq	r19,r2,22d20 <___svfprintf_internal_r+0x1f10>
   22710:	482b883a 	mov	r21,r9
   22714:	d8802604 	addi	r2,sp,152
   22718:	d8800115 	stw	r2,4(sp)
   2271c:	d9002f17 	ldw	r4,188(sp)
   22720:	d8802504 	addi	r2,sp,148
   22724:	d9403717 	ldw	r5,220(sp)
   22728:	d8800215 	stw	r2,8(sp)
   2272c:	d8802104 	addi	r2,sp,132
   22730:	dd400015 	stw	r21,0(sp)
   22734:	d8800315 	stw	r2,12(sp)
   22738:	880d883a 	mov	r6,r17
   2273c:	01c00084 	movi	r7,2
   22740:	da004015 	stw	r8,256(sp)
   22744:	da403f15 	stw	r9,252(sp)
   22748:	00254280 	call	25428 <_dtoa_r>
   2274c:	d8803115 	stw	r2,196(sp)
   22750:	008019c4 	movi	r2,103
   22754:	da004017 	ldw	r8,256(sp)
   22758:	da403f17 	ldw	r9,252(sp)
   2275c:	80800226 	beq	r16,r2,22768 <___svfprintf_internal_r+0x1958>
   22760:	008011c4 	movi	r2,71
   22764:	8080a51e 	bne	r16,r2,229fc <___svfprintf_internal_r+0x1bec>
   22768:	e080004c 	andi	r2,fp,1
   2276c:	10017226 	beq	r2,zero,22d38 <___svfprintf_internal_r+0x1f28>
   22770:	d8c03117 	ldw	r3,196(sp)
   22774:	1d55883a 	add	r10,r3,r21
   22778:	d9003717 	ldw	r4,220(sp)
   2277c:	880b883a 	mov	r5,r17
   22780:	000d883a 	mov	r6,zero
   22784:	000f883a 	mov	r7,zero
   22788:	da004015 	stw	r8,256(sp)
   2278c:	da403f15 	stw	r9,252(sp)
   22790:	da803e15 	stw	r10,248(sp)
   22794:	002f5000 	call	2f500 <__eqdf2>
   22798:	da004017 	ldw	r8,256(sp)
   2279c:	da403f17 	ldw	r9,252(sp)
   227a0:	da803e17 	ldw	r10,248(sp)
   227a4:	1000fd26 	beq	r2,zero,22b9c <___svfprintf_internal_r+0x1d8c>
   227a8:	d8802117 	ldw	r2,132(sp)
   227ac:	1280062e 	bgeu	r2,r10,227c8 <___svfprintf_internal_r+0x19b8>
   227b0:	01000c04 	movi	r4,48
   227b4:	10c00044 	addi	r3,r2,1
   227b8:	d8c02115 	stw	r3,132(sp)
   227bc:	11000005 	stb	r4,0(r2)
   227c0:	d8802117 	ldw	r2,132(sp)
   227c4:	12bffb36 	bltu	r2,r10,227b4 <_gp+0xfffe53b4>
   227c8:	d8c03117 	ldw	r3,196(sp)
   227cc:	10c5c83a 	sub	r2,r2,r3
   227d0:	d8803315 	stw	r2,204(sp)
   227d4:	008011c4 	movi	r2,71
   227d8:	9880e226 	beq	r19,r2,22b64 <___svfprintf_internal_r+0x1d54>
   227dc:	00801944 	movi	r2,101
   227e0:	1401a30e 	bge	r2,r16,22e70 <___svfprintf_internal_r+0x2060>
   227e4:	d8c02617 	ldw	r3,152(sp)
   227e8:	00801984 	movi	r2,102
   227ec:	d8c03415 	stw	r3,208(sp)
   227f0:	80815326 	beq	r16,r2,22d40 <___svfprintf_internal_r+0x1f30>
   227f4:	d8c03417 	ldw	r3,208(sp)
   227f8:	d9003317 	ldw	r4,204(sp)
   227fc:	19013f16 	blt	r3,r4,22cfc <___svfprintf_internal_r+0x1eec>
   22800:	e080004c 	andi	r2,fp,1
   22804:	10014826 	beq	r2,zero,22d28 <___svfprintf_internal_r+0x1f18>
   22808:	d8c03417 	ldw	r3,208(sp)
   2280c:	1c400044 	addi	r17,r3,1
   22810:	8839883a 	mov	fp,r17
   22814:	88014016 	blt	r17,zero,22d18 <___svfprintf_internal_r+0x1f08>
   22818:	dd402a07 	ldb	r21,168(sp)
   2281c:	a800c61e 	bne	r21,zero,22b38 <___svfprintf_internal_r+0x1d28>
   22820:	df002a15 	stw	fp,168(sp)
   22824:	dcc02783 	ldbu	r19,158(sp)
   22828:	df002d17 	ldw	fp,180(sp)
   2282c:	d8003215 	stw	zero,200(sp)
   22830:	dc802d15 	stw	r18,180(sp)
   22834:	003ab906 	br	2131c <_gp+0xfffe3f1c>
   22838:	010000f4 	movhi	r4,3
   2283c:	210d8804 	addi	r4,r4,13856
   22840:	d9003115 	stw	r4,196(sp)
   22844:	003bbe06 	br	21740 <_gp+0xfffe4340>
   22848:	d9002f17 	ldw	r4,188(sp)
   2284c:	04001004 	movi	r16,64
   22850:	800b883a 	mov	r5,r16
   22854:	0027e1c0 	call	27e1c <_malloc_r>
   22858:	b0800015 	stw	r2,0(r22)
   2285c:	b0800415 	stw	r2,16(r22)
   22860:	10017c26 	beq	r2,zero,22e54 <___svfprintf_internal_r+0x2044>
   22864:	b4000515 	stw	r16,20(r22)
   22868:	00398306 	br	20e78 <_gp+0xfffe3a78>
   2286c:	014000f4 	movhi	r5,3
   22870:	294d8b04 	addi	r5,r5,13868
   22874:	d9403115 	stw	r5,196(sp)
   22878:	003eef06 	br	22438 <_gp+0xfffe5038>
   2287c:	d9002f17 	ldw	r4,188(sp)
   22880:	b00b883a 	mov	r5,r22
   22884:	b80d883a 	mov	r6,r23
   22888:	002a2f40 	call	2a2f4 <__ssprint_r>
   2288c:	103a291e 	bne	r2,zero,21134 <_gp+0xfffe3d34>
   22890:	dc002617 	ldw	r16,152(sp)
   22894:	d8c02017 	ldw	r3,128(sp)
   22898:	da000404 	addi	r8,sp,16
   2289c:	003f4a06 	br	225c8 <_gp+0xfffe51c8>
   228a0:	02400184 	movi	r9,6
   228a4:	003f8e06 	br	226e0 <_gp+0xfffe52e0>
   228a8:	d8c03117 	ldw	r3,196(sp)
   228ac:	b8e3c83a 	sub	r17,r23,r3
   228b0:	003a9506 	br	21308 <_gp+0xfffe3f08>
   228b4:	d8c02d17 	ldw	r3,180(sp)
   228b8:	002b883a 	mov	r21,zero
   228bc:	00800044 	movi	r2,1
   228c0:	1c800017 	ldw	r18,0(r3)
   228c4:	18c00104 	addi	r3,r3,4
   228c8:	d8c02d15 	stw	r3,180(sp)
   228cc:	9007883a 	mov	r3,r18
   228d0:	003bb406 	br	217a4 <_gp+0xfffe43a4>
   228d4:	d9002d17 	ldw	r4,180(sp)
   228d8:	002b883a 	mov	r21,zero
   228dc:	0005883a 	mov	r2,zero
   228e0:	24800017 	ldw	r18,0(r4)
   228e4:	21000104 	addi	r4,r4,4
   228e8:	d9002d15 	stw	r4,180(sp)
   228ec:	9007883a 	mov	r3,r18
   228f0:	003bac06 	br	217a4 <_gp+0xfffe43a4>
   228f4:	1c800017 	ldw	r18,0(r3)
   228f8:	d8c02d17 	ldw	r3,180(sp)
   228fc:	902bd7fa 	srai	r21,r18,31
   22900:	18c00104 	addi	r3,r3,4
   22904:	d8c02d15 	stw	r3,180(sp)
   22908:	a805883a 	mov	r2,r21
   2290c:	003a5706 	br	2126c <_gp+0xfffe3e6c>
   22910:	d9402d17 	ldw	r5,180(sp)
   22914:	14800017 	ldw	r18,0(r2)
   22918:	002b883a 	mov	r21,zero
   2291c:	29400104 	addi	r5,r5,4
   22920:	d9402d15 	stw	r5,180(sp)
   22924:	003c0806 	br	21948 <_gp+0xfffe4548>
   22928:	e080100c 	andi	r2,fp,64
   2292c:	10009426 	beq	r2,zero,22b80 <___svfprintf_internal_r+0x1d70>
   22930:	d9002d17 	ldw	r4,180(sp)
   22934:	d9403017 	ldw	r5,192(sp)
   22938:	20800017 	ldw	r2,0(r4)
   2293c:	21000104 	addi	r4,r4,4
   22940:	d9002d15 	stw	r4,180(sp)
   22944:	1140000d 	sth	r5,0(r2)
   22948:	00395d06 	br	20ec0 <_gp+0xfffe3ac0>
   2294c:	d9002f17 	ldw	r4,188(sp)
   22950:	b00b883a 	mov	r5,r22
   22954:	b80d883a 	mov	r6,r23
   22958:	002a2f40 	call	2a2f4 <__ssprint_r>
   2295c:	1039f51e 	bne	r2,zero,21134 <_gp+0xfffe3d34>
   22960:	d8c02017 	ldw	r3,128(sp)
   22964:	d8801f17 	ldw	r2,124(sp)
   22968:	da000404 	addi	r8,sp,16
   2296c:	d9403317 	ldw	r5,204(sp)
   22970:	d9003117 	ldw	r4,196(sp)
   22974:	10800044 	addi	r2,r2,1
   22978:	28c7883a 	add	r3,r5,r3
   2297c:	41000015 	stw	r4,0(r8)
   22980:	41400115 	stw	r5,4(r8)
   22984:	d8c02015 	stw	r3,128(sp)
   22988:	d8801f15 	stw	r2,124(sp)
   2298c:	010001c4 	movi	r4,7
   22990:	20bb060e 	bge	r4,r2,215ac <_gp+0xfffe41ac>
   22994:	003d8306 	br	21fa4 <_gp+0xfffe4ba4>
   22998:	da004015 	stw	r8,256(sp)
   2299c:	0020d780 	call	20d78 <strlen>
   229a0:	1023883a 	mov	r17,r2
   229a4:	da004017 	ldw	r8,256(sp)
   229a8:	883c290e 	bge	r17,zero,21a50 <_gp+0xfffe4650>
   229ac:	0005883a 	mov	r2,zero
   229b0:	003c2706 	br	21a50 <_gp+0xfffe4650>
   229b4:	d8802604 	addi	r2,sp,152
   229b8:	d8800115 	stw	r2,4(sp)
   229bc:	d9002f17 	ldw	r4,188(sp)
   229c0:	d8802504 	addi	r2,sp,148
   229c4:	d9403717 	ldw	r5,220(sp)
   229c8:	d8800215 	stw	r2,8(sp)
   229cc:	d8802104 	addi	r2,sp,132
   229d0:	da400015 	stw	r9,0(sp)
   229d4:	d8800315 	stw	r2,12(sp)
   229d8:	880d883a 	mov	r6,r17
   229dc:	01c000c4 	movi	r7,3
   229e0:	da004015 	stw	r8,256(sp)
   229e4:	da403f15 	stw	r9,252(sp)
   229e8:	00254280 	call	25428 <_dtoa_r>
   229ec:	da403f17 	ldw	r9,252(sp)
   229f0:	da004017 	ldw	r8,256(sp)
   229f4:	d8803115 	stw	r2,196(sp)
   229f8:	482b883a 	mov	r21,r9
   229fc:	d8c03117 	ldw	r3,196(sp)
   22a00:	00801184 	movi	r2,70
   22a04:	1d55883a 	add	r10,r3,r21
   22a08:	98bf5b1e 	bne	r19,r2,22778 <_gp+0xfffe5378>
   22a0c:	19000007 	ldb	r4,0(r3)
   22a10:	00800c04 	movi	r2,48
   22a14:	2080d826 	beq	r4,r2,22d78 <___svfprintf_internal_r+0x1f68>
   22a18:	d8c02617 	ldw	r3,152(sp)
   22a1c:	50d5883a 	add	r10,r10,r3
   22a20:	003f5506 	br	22778 <_gp+0xfffe5378>
   22a24:	010000f4 	movhi	r4,3
   22a28:	210d9c84 	addi	r4,r4,13938
   22a2c:	d9003615 	stw	r4,216(sp)
   22a30:	003a7706 	br	21410 <_gp+0xfffe4010>
   22a34:	0023883a 	mov	r17,zero
   22a38:	003da306 	br	220c8 <_gp+0xfffe4cc8>
   22a3c:	d9002f17 	ldw	r4,188(sp)
   22a40:	b00b883a 	mov	r5,r22
   22a44:	b80d883a 	mov	r6,r23
   22a48:	002a2f40 	call	2a2f4 <__ssprint_r>
   22a4c:	1039b91e 	bne	r2,zero,21134 <_gp+0xfffe3d34>
   22a50:	d8c02017 	ldw	r3,128(sp)
   22a54:	da000404 	addi	r8,sp,16
   22a58:	003d9a06 	br	220c4 <_gp+0xfffe4cc4>
   22a5c:	d9002f17 	ldw	r4,188(sp)
   22a60:	b00b883a 	mov	r5,r22
   22a64:	b80d883a 	mov	r6,r23
   22a68:	002a2f40 	call	2a2f4 <__ssprint_r>
   22a6c:	1039b11e 	bne	r2,zero,21134 <_gp+0xfffe3d34>
   22a70:	d8802617 	ldw	r2,152(sp)
   22a74:	d8c02017 	ldw	r3,128(sp)
   22a78:	da000404 	addi	r8,sp,16
   22a7c:	003e0c06 	br	222b0 <_gp+0xfffe4eb0>
   22a80:	010000f4 	movhi	r4,3
   22a84:	210d9884 	addi	r4,r4,13922
   22a88:	d9002b15 	stw	r4,172(sp)
   22a8c:	d9002b17 	ldw	r4,172(sp)
   22a90:	1c07883a 	add	r3,r3,r16
   22a94:	10800044 	addi	r2,r2,1
   22a98:	41000015 	stw	r4,0(r8)
   22a9c:	44000115 	stw	r16,4(r8)
   22aa0:	d8c02015 	stw	r3,128(sp)
   22aa4:	d8801f15 	stw	r2,124(sp)
   22aa8:	010001c4 	movi	r4,7
   22aac:	20bfa716 	blt	r4,r2,2294c <_gp+0xfffe554c>
   22ab0:	42000204 	addi	r8,r8,8
   22ab4:	003fad06 	br	2296c <_gp+0xfffe556c>
   22ab8:	d9002f17 	ldw	r4,188(sp)
   22abc:	b00b883a 	mov	r5,r22
   22ac0:	b80d883a 	mov	r6,r23
   22ac4:	002a2f40 	call	2a2f4 <__ssprint_r>
   22ac8:	10399a1e 	bne	r2,zero,21134 <_gp+0xfffe3d34>
   22acc:	d8802617 	ldw	r2,152(sp)
   22ad0:	d9403317 	ldw	r5,204(sp)
   22ad4:	d8c02017 	ldw	r3,128(sp)
   22ad8:	da000404 	addi	r8,sp,16
   22adc:	2885c83a 	sub	r2,r5,r2
   22ae0:	003e0406 	br	222f4 <_gp+0xfffe4ef4>
   22ae4:	00800184 	movi	r2,6
   22ae8:	1240012e 	bgeu	r2,r9,22af0 <___svfprintf_internal_r+0x1ce0>
   22aec:	1013883a 	mov	r9,r2
   22af0:	4823883a 	mov	r17,r9
   22af4:	4805883a 	mov	r2,r9
   22af8:	4800b616 	blt	r9,zero,22dd4 <___svfprintf_internal_r+0x1fc4>
   22afc:	014000f4 	movhi	r5,3
   22b00:	294d9604 	addi	r5,r5,13912
   22b04:	d8802a15 	stw	r2,168(sp)
   22b08:	dc802d15 	stw	r18,180(sp)
   22b0c:	d8003215 	stw	zero,200(sp)
   22b10:	d8003415 	stw	zero,208(sp)
   22b14:	d9403115 	stw	r5,196(sp)
   22b18:	0005883a 	mov	r2,zero
   22b1c:	003a0606 	br	21338 <_gp+0xfffe3f38>
   22b20:	0021883a 	mov	r16,zero
   22b24:	003df406 	br	222f8 <_gp+0xfffe4ef8>
   22b28:	014000f4 	movhi	r5,3
   22b2c:	294d9c84 	addi	r5,r5,13938
   22b30:	d9403615 	stw	r5,216(sp)
   22b34:	003ac306 	br	21644 <_gp+0xfffe4244>
   22b38:	00800b44 	movi	r2,45
   22b3c:	d8802785 	stb	r2,158(sp)
   22b40:	df002a15 	stw	fp,168(sp)
   22b44:	d8003215 	stw	zero,200(sp)
   22b48:	df002d17 	ldw	fp,180(sp)
   22b4c:	00800b44 	movi	r2,45
   22b50:	dc802d15 	stw	r18,180(sp)
   22b54:	0039f506 	br	2132c <_gp+0xfffe3f2c>
   22b58:	04c00b44 	movi	r19,45
   22b5c:	dcc02785 	stb	r19,158(sp)
   22b60:	003af206 	br	2172c <_gp+0xfffe432c>
   22b64:	d8c02617 	ldw	r3,152(sp)
   22b68:	00bfff44 	movi	r2,-3
   22b6c:	18801816 	blt	r3,r2,22bd0 <___svfprintf_internal_r+0x1dc0>
   22b70:	48c01716 	blt	r9,r3,22bd0 <___svfprintf_internal_r+0x1dc0>
   22b74:	d8c03415 	stw	r3,208(sp)
   22b78:	040019c4 	movi	r16,103
   22b7c:	003f1d06 	br	227f4 <_gp+0xfffe53f4>
   22b80:	d8c02d17 	ldw	r3,180(sp)
   22b84:	d9003017 	ldw	r4,192(sp)
   22b88:	18800017 	ldw	r2,0(r3)
   22b8c:	18c00104 	addi	r3,r3,4
   22b90:	d8c02d15 	stw	r3,180(sp)
   22b94:	11000015 	stw	r4,0(r2)
   22b98:	0038c906 	br	20ec0 <_gp+0xfffe3ac0>
   22b9c:	5005883a 	mov	r2,r10
   22ba0:	003f0906 	br	227c8 <_gp+0xfffe53c8>
   22ba4:	010000f4 	movhi	r4,3
   22ba8:	210d9884 	addi	r4,r4,13922
   22bac:	d9002b15 	stw	r4,172(sp)
   22bb0:	003c9a06 	br	21e1c <_gp+0xfffe4a1c>
   22bb4:	da402a15 	stw	r9,168(sp)
   22bb8:	dcc02783 	ldbu	r19,158(sp)
   22bbc:	4823883a 	mov	r17,r9
   22bc0:	dc802d15 	stw	r18,180(sp)
   22bc4:	d8003215 	stw	zero,200(sp)
   22bc8:	d8003415 	stw	zero,208(sp)
   22bcc:	0039d306 	br	2131c <_gp+0xfffe3f1c>
   22bd0:	843fff84 	addi	r16,r16,-2
   22bd4:	1d7fffc4 	addi	r21,r3,-1
   22bd8:	dd402615 	stw	r21,152(sp)
   22bdc:	dc0022c5 	stb	r16,139(sp)
   22be0:	a8008f16 	blt	r21,zero,22e20 <___svfprintf_internal_r+0x2010>
   22be4:	00800ac4 	movi	r2,43
   22be8:	d8802305 	stb	r2,140(sp)
   22bec:	00800244 	movi	r2,9
   22bf0:	1540710e 	bge	r2,r21,22db8 <___svfprintf_internal_r+0x1fa8>
   22bf4:	dcc022c4 	addi	r19,sp,139
   22bf8:	dc002b15 	stw	r16,172(sp)
   22bfc:	4023883a 	mov	r17,r8
   22c00:	9821883a 	mov	r16,r19
   22c04:	a809883a 	mov	r4,r21
   22c08:	01400284 	movi	r5,10
   22c0c:	002e2500 	call	2e250 <__modsi3>
   22c10:	10800c04 	addi	r2,r2,48
   22c14:	843fffc4 	addi	r16,r16,-1
   22c18:	a809883a 	mov	r4,r21
   22c1c:	01400284 	movi	r5,10
   22c20:	80800005 	stb	r2,0(r16)
   22c24:	002e1fc0 	call	2e1fc <__divsi3>
   22c28:	01000244 	movi	r4,9
   22c2c:	102b883a 	mov	r21,r2
   22c30:	20bff416 	blt	r4,r2,22c04 <_gp+0xfffe5804>
   22c34:	8811883a 	mov	r8,r17
   22c38:	10800c04 	addi	r2,r2,48
   22c3c:	8023883a 	mov	r17,r16
   22c40:	897fffc4 	addi	r5,r17,-1
   22c44:	88bfffc5 	stb	r2,-1(r17)
   22c48:	dc002b17 	ldw	r16,172(sp)
   22c4c:	2cc08a2e 	bgeu	r5,r19,22e78 <___svfprintf_internal_r+0x2068>
   22c50:	d9802384 	addi	r6,sp,142
   22c54:	344dc83a 	sub	r6,r6,r17
   22c58:	d9002344 	addi	r4,sp,141
   22c5c:	998d883a 	add	r6,r19,r6
   22c60:	00000106 	br	22c68 <___svfprintf_internal_r+0x1e58>
   22c64:	28800003 	ldbu	r2,0(r5)
   22c68:	20800005 	stb	r2,0(r4)
   22c6c:	21000044 	addi	r4,r4,1
   22c70:	29400044 	addi	r5,r5,1
   22c74:	21bffb1e 	bne	r4,r6,22c64 <_gp+0xfffe5864>
   22c78:	d8802304 	addi	r2,sp,140
   22c7c:	1445c83a 	sub	r2,r2,r17
   22c80:	d9402344 	addi	r5,sp,141
   22c84:	2885883a 	add	r2,r5,r2
   22c88:	14e7c83a 	sub	r19,r2,r19
   22c8c:	d8803317 	ldw	r2,204(sp)
   22c90:	d8c03317 	ldw	r3,204(sp)
   22c94:	dcc03a15 	stw	r19,232(sp)
   22c98:	14e3883a 	add	r17,r2,r19
   22c9c:	00800044 	movi	r2,1
   22ca0:	10c0690e 	bge	r2,r3,22e48 <___svfprintf_internal_r+0x2038>
   22ca4:	8c400044 	addi	r17,r17,1
   22ca8:	8839883a 	mov	fp,r17
   22cac:	88006416 	blt	r17,zero,22e40 <___svfprintf_internal_r+0x2030>
   22cb0:	d8003415 	stw	zero,208(sp)
   22cb4:	003ed806 	br	22818 <_gp+0xfffe5418>
   22cb8:	d9002f17 	ldw	r4,188(sp)
   22cbc:	b00b883a 	mov	r5,r22
   22cc0:	b80d883a 	mov	r6,r23
   22cc4:	002a2f40 	call	2a2f4 <__ssprint_r>
   22cc8:	10391a1e 	bne	r2,zero,21134 <_gp+0xfffe3d34>
   22ccc:	dc002617 	ldw	r16,152(sp)
   22cd0:	d8c02017 	ldw	r3,128(sp)
   22cd4:	d8801f17 	ldw	r2,124(sp)
   22cd8:	da000404 	addi	r8,sp,16
   22cdc:	003e4b06 	br	2260c <_gp+0xfffe520c>
   22ce0:	483e7f1e 	bne	r9,zero,226e0 <_gp+0xfffe52e0>
   22ce4:	8813883a 	mov	r9,r17
   22ce8:	003e7d06 	br	226e0 <_gp+0xfffe52e0>
   22cec:	00c00b44 	movi	r3,45
   22cf0:	2460003c 	xorhi	r17,r4,32768
   22cf4:	d8c02a05 	stb	r3,168(sp)
   22cf8:	003e7f06 	br	226f8 <_gp+0xfffe52f8>
   22cfc:	d8c03417 	ldw	r3,208(sp)
   22d00:	00c03e0e 	bge	zero,r3,22dfc <___svfprintf_internal_r+0x1fec>
   22d04:	04400044 	movi	r17,1
   22d08:	d9003317 	ldw	r4,204(sp)
   22d0c:	8923883a 	add	r17,r17,r4
   22d10:	8839883a 	mov	fp,r17
   22d14:	883ec00e 	bge	r17,zero,22818 <_gp+0xfffe5418>
   22d18:	0039883a 	mov	fp,zero
   22d1c:	003ebe06 	br	22818 <_gp+0xfffe5418>
   22d20:	4d400044 	addi	r21,r9,1
   22d24:	003e7b06 	br	22714 <_gp+0xfffe5314>
   22d28:	1839883a 	mov	fp,r3
   22d2c:	18004e16 	blt	r3,zero,22e68 <___svfprintf_internal_r+0x2058>
   22d30:	dc403417 	ldw	r17,208(sp)
   22d34:	003eb806 	br	22818 <_gp+0xfffe5418>
   22d38:	d8802117 	ldw	r2,132(sp)
   22d3c:	003ea206 	br	227c8 <_gp+0xfffe53c8>
   22d40:	00c0310e 	bge	zero,r3,22e08 <___svfprintf_internal_r+0x1ff8>
   22d44:	4800021e 	bne	r9,zero,22d50 <___svfprintf_internal_r+0x1f40>
   22d48:	e080004c 	andi	r2,fp,1
   22d4c:	103ff626 	beq	r2,zero,22d28 <_gp+0xfffe5928>
   22d50:	d8c03417 	ldw	r3,208(sp)
   22d54:	4a400044 	addi	r9,r9,1
   22d58:	1a63883a 	add	r17,r3,r9
   22d5c:	8839883a 	mov	fp,r17
   22d60:	883ead0e 	bge	r17,zero,22818 <_gp+0xfffe5418>
   22d64:	003fec06 	br	22d18 <_gp+0xfffe5918>
   22d68:	010000f4 	movhi	r4,3
   22d6c:	210d9884 	addi	r4,r4,13922
   22d70:	d9002b15 	stw	r4,172(sp)
   22d74:	003d2006 	br	221f8 <_gp+0xfffe4df8>
   22d78:	d9003717 	ldw	r4,220(sp)
   22d7c:	880b883a 	mov	r5,r17
   22d80:	000d883a 	mov	r6,zero
   22d84:	000f883a 	mov	r7,zero
   22d88:	da004015 	stw	r8,256(sp)
   22d8c:	da403f15 	stw	r9,252(sp)
   22d90:	da803e15 	stw	r10,248(sp)
   22d94:	002f5000 	call	2f500 <__eqdf2>
   22d98:	da004017 	ldw	r8,256(sp)
   22d9c:	da403f17 	ldw	r9,252(sp)
   22da0:	da803e17 	ldw	r10,248(sp)
   22da4:	103f1c26 	beq	r2,zero,22a18 <_gp+0xfffe5618>
   22da8:	00800044 	movi	r2,1
   22dac:	1547c83a 	sub	r3,r2,r21
   22db0:	d8c02615 	stw	r3,152(sp)
   22db4:	003f1906 	br	22a1c <_gp+0xfffe561c>
   22db8:	00800c04 	movi	r2,48
   22dbc:	a8c00c04 	addi	r3,r21,48
   22dc0:	d8802345 	stb	r2,141(sp)
   22dc4:	d8c02385 	stb	r3,142(sp)
   22dc8:	d88023c4 	addi	r2,sp,143
   22dcc:	dcc022c4 	addi	r19,sp,139
   22dd0:	003fad06 	br	22c88 <_gp+0xfffe5888>
   22dd4:	0005883a 	mov	r2,zero
   22dd8:	003f4806 	br	22afc <_gp+0xfffe56fc>
   22ddc:	d9402d17 	ldw	r5,180(sp)
   22de0:	2a400017 	ldw	r9,0(r5)
   22de4:	28c00104 	addi	r3,r5,4
   22de8:	d8c02d15 	stw	r3,180(sp)
   22dec:	483e2c0e 	bge	r9,zero,226a0 <_gp+0xfffe52a0>
   22df0:	027fffc4 	movi	r9,-1
   22df4:	e4000047 	ldb	r16,1(fp)
   22df8:	00385c06 	br	20f6c <_gp+0xfffe3b6c>
   22dfc:	04400084 	movi	r17,2
   22e00:	88e3c83a 	sub	r17,r17,r3
   22e04:	003fc006 	br	22d08 <_gp+0xfffe5908>
   22e08:	4800091e 	bne	r9,zero,22e30 <___svfprintf_internal_r+0x2020>
   22e0c:	e080004c 	andi	r2,fp,1
   22e10:	1000071e 	bne	r2,zero,22e30 <___svfprintf_internal_r+0x2020>
   22e14:	07000044 	movi	fp,1
   22e18:	e023883a 	mov	r17,fp
   22e1c:	003e7e06 	br	22818 <_gp+0xfffe5418>
   22e20:	00800b44 	movi	r2,45
   22e24:	056bc83a 	sub	r21,zero,r21
   22e28:	d8802305 	stb	r2,140(sp)
   22e2c:	003f6f06 	br	22bec <_gp+0xfffe57ec>
   22e30:	4c400084 	addi	r17,r9,2
   22e34:	8839883a 	mov	fp,r17
   22e38:	883e770e 	bge	r17,zero,22818 <_gp+0xfffe5418>
   22e3c:	003fb606 	br	22d18 <_gp+0xfffe5918>
   22e40:	0039883a 	mov	fp,zero
   22e44:	003f9a06 	br	22cb0 <_gp+0xfffe58b0>
   22e48:	e084703a 	and	r2,fp,r2
   22e4c:	103f9626 	beq	r2,zero,22ca8 <_gp+0xfffe58a8>
   22e50:	003f9406 	br	22ca4 <_gp+0xfffe58a4>
   22e54:	d8c02f17 	ldw	r3,188(sp)
   22e58:	00800304 	movi	r2,12
   22e5c:	18800015 	stw	r2,0(r3)
   22e60:	00bfffc4 	movi	r2,-1
   22e64:	0038b706 	br	21144 <_gp+0xfffe3d44>
   22e68:	0039883a 	mov	fp,zero
   22e6c:	003fb006 	br	22d30 <_gp+0xfffe5930>
   22e70:	d8c02617 	ldw	r3,152(sp)
   22e74:	003f5706 	br	22bd4 <_gp+0xfffe57d4>
   22e78:	d8802344 	addi	r2,sp,141
   22e7c:	003f8206 	br	22c88 <_gp+0xfffe5888>

00022e80 <___vfprintf_internal_r>:
   22e80:	defeb604 	addi	sp,sp,-1320
   22e84:	dfc14915 	stw	ra,1316(sp)
   22e88:	ddc14715 	stw	r23,1308(sp)
   22e8c:	dd814615 	stw	r22,1304(sp)
   22e90:	202f883a 	mov	r23,r4
   22e94:	282d883a 	mov	r22,r5
   22e98:	d9812a15 	stw	r6,1192(sp)
   22e9c:	d9c12d15 	stw	r7,1204(sp)
   22ea0:	df014815 	stw	fp,1312(sp)
   22ea4:	dd414515 	stw	r21,1300(sp)
   22ea8:	dd014415 	stw	r20,1296(sp)
   22eac:	dcc14315 	stw	r19,1292(sp)
   22eb0:	dc814215 	stw	r18,1288(sp)
   22eb4:	dc414115 	stw	r17,1284(sp)
   22eb8:	dc014015 	stw	r16,1280(sp)
   22ebc:	0027c300 	call	27c30 <_localeconv_r>
   22ec0:	10800017 	ldw	r2,0(r2)
   22ec4:	1009883a 	mov	r4,r2
   22ec8:	d8813515 	stw	r2,1236(sp)
   22ecc:	0020d780 	call	20d78 <strlen>
   22ed0:	d8813815 	stw	r2,1248(sp)
   22ed4:	b8000226 	beq	r23,zero,22ee0 <___vfprintf_internal_r+0x60>
   22ed8:	b8800e17 	ldw	r2,56(r23)
   22edc:	10010526 	beq	r2,zero,232f4 <___vfprintf_internal_r+0x474>
   22ee0:	b0c0030b 	ldhu	r3,12(r22)
   22ee4:	1908000c 	andi	r4,r3,8192
   22ee8:	1805883a 	mov	r2,r3
   22eec:	2000071e 	bne	r4,zero,22f0c <___vfprintf_internal_r+0x8c>
   22ef0:	b1001917 	ldw	r4,100(r22)
   22ef4:	18880014 	ori	r2,r3,8192
   22ef8:	00f7ffc4 	movi	r3,-8193
   22efc:	20c8703a 	and	r4,r4,r3
   22f00:	b080030d 	sth	r2,12(r22)
   22f04:	1007883a 	mov	r3,r2
   22f08:	b1001915 	stw	r4,100(r22)
   22f0c:	1100020c 	andi	r4,r2,8
   22f10:	2000a826 	beq	r4,zero,231b4 <___vfprintf_internal_r+0x334>
   22f14:	b1000417 	ldw	r4,16(r22)
   22f18:	2000a626 	beq	r4,zero,231b4 <___vfprintf_internal_r+0x334>
   22f1c:	1080068c 	andi	r2,r2,26
   22f20:	01000284 	movi	r4,10
   22f24:	1100ac26 	beq	r2,r4,231d8 <___vfprintf_internal_r+0x358>
   22f28:	d8c10e04 	addi	r3,sp,1080
   22f2c:	d9010dc4 	addi	r4,sp,1079
   22f30:	d9400404 	addi	r5,sp,16
   22f34:	050000f4 	movhi	r20,3
   22f38:	1905c83a 	sub	r2,r3,r4
   22f3c:	a50da084 	addi	r20,r20,13954
   22f40:	d8c12815 	stw	r3,1184(sp)
   22f44:	d9012915 	stw	r4,1188(sp)
   22f48:	d9411e15 	stw	r5,1144(sp)
   22f4c:	d8012015 	stw	zero,1152(sp)
   22f50:	d8011f15 	stw	zero,1148(sp)
   22f54:	d8013315 	stw	zero,1228(sp)
   22f58:	d8013715 	stw	zero,1244(sp)
   22f5c:	d8013915 	stw	zero,1252(sp)
   22f60:	d8013b15 	stw	zero,1260(sp)
   22f64:	d8013a15 	stw	zero,1256(sp)
   22f68:	d8012f15 	stw	zero,1212(sp)
   22f6c:	2811883a 	mov	r8,r5
   22f70:	d8813c15 	stw	r2,1264(sp)
   22f74:	d8c12a17 	ldw	r3,1192(sp)
   22f78:	18800007 	ldb	r2,0(r3)
   22f7c:	10021326 	beq	r2,zero,237cc <___vfprintf_internal_r+0x94c>
   22f80:	00c00944 	movi	r3,37
   22f84:	dc012a17 	ldw	r16,1192(sp)
   22f88:	10c0021e 	bne	r2,r3,22f94 <___vfprintf_internal_r+0x114>
   22f8c:	00001606 	br	22fe8 <___vfprintf_internal_r+0x168>
   22f90:	10c08526 	beq	r2,r3,231a8 <___vfprintf_internal_r+0x328>
   22f94:	84000044 	addi	r16,r16,1
   22f98:	80800007 	ldb	r2,0(r16)
   22f9c:	103ffc1e 	bne	r2,zero,22f90 <_gp+0xfffe5b90>
   22fa0:	d9012a17 	ldw	r4,1192(sp)
   22fa4:	8123c83a 	sub	r17,r16,r4
   22fa8:	88000f26 	beq	r17,zero,22fe8 <___vfprintf_internal_r+0x168>
   22fac:	d8812a17 	ldw	r2,1192(sp)
   22fb0:	d8c12017 	ldw	r3,1152(sp)
   22fb4:	44400115 	stw	r17,4(r8)
   22fb8:	40800015 	stw	r2,0(r8)
   22fbc:	d8811f17 	ldw	r2,1148(sp)
   22fc0:	1c47883a 	add	r3,r3,r17
   22fc4:	d8c12015 	stw	r3,1152(sp)
   22fc8:	10800044 	addi	r2,r2,1
   22fcc:	d8811f15 	stw	r2,1148(sp)
   22fd0:	00c001c4 	movi	r3,7
   22fd4:	1880b516 	blt	r3,r2,232ac <___vfprintf_internal_r+0x42c>
   22fd8:	42000204 	addi	r8,r8,8
   22fdc:	d8c12f17 	ldw	r3,1212(sp)
   22fe0:	1c47883a 	add	r3,r3,r17
   22fe4:	d8c12f15 	stw	r3,1212(sp)
   22fe8:	80800007 	ldb	r2,0(r16)
   22fec:	1000b626 	beq	r2,zero,232c8 <___vfprintf_internal_r+0x448>
   22ff0:	80800044 	addi	r2,r16,1
   22ff4:	84000047 	ldb	r16,1(r16)
   22ff8:	0027883a 	mov	r19,zero
   22ffc:	0039883a 	mov	fp,zero
   23000:	dcc12b05 	stb	r19,1196(sp)
   23004:	d8012785 	stb	zero,1182(sp)
   23008:	027fffc4 	movi	r9,-1
   2300c:	d8012e15 	stw	zero,1208(sp)
   23010:	04401604 	movi	r17,88
   23014:	04800244 	movi	r18,9
   23018:	da012a15 	stw	r8,1192(sp)
   2301c:	e027883a 	mov	r19,fp
   23020:	17000044 	addi	fp,r2,1
   23024:	80bff804 	addi	r2,r16,-32
   23028:	88831236 	bltu	r17,r2,23c74 <___vfprintf_internal_r+0xdf4>
   2302c:	100490ba 	slli	r2,r2,2
   23030:	010000b4 	movhi	r4,2
   23034:	210c1104 	addi	r4,r4,12356
   23038:	1105883a 	add	r2,r2,r4
   2303c:	10800017 	ldw	r2,0(r2)
   23040:	1000683a 	jmp	r2
   23044:	00023b90 	cmplti	zero,zero,2286
   23048:	00023c74 	movhi	zero,2289
   2304c:	00023c74 	movhi	zero,2289
   23050:	00023bac 	andhi	zero,zero,2286
   23054:	00023c74 	movhi	zero,2289
   23058:	00023c74 	movhi	zero,2289
   2305c:	00023c74 	movhi	zero,2289
   23060:	00023c74 	movhi	zero,2289
   23064:	00023c74 	movhi	zero,2289
   23068:	00023c74 	movhi	zero,2289
   2306c:	00023bbc 	xorhi	zero,zero,2286
   23070:	00023be4 	muli	zero,zero,2287
   23074:	00023c74 	movhi	zero,2289
   23078:	00023300 	call	2330 <__reset-0x1dcd0>
   2307c:	00023310 	cmplti	zero,zero,2252
   23080:	00023c74 	movhi	zero,2289
   23084:	00023360 	cmpeqi	zero,zero,2253
   23088:	00023370 	cmpltui	zero,zero,2253
   2308c:	00023370 	cmpltui	zero,zero,2253
   23090:	00023370 	cmpltui	zero,zero,2253
   23094:	00023370 	cmpltui	zero,zero,2253
   23098:	00023370 	cmpltui	zero,zero,2253
   2309c:	00023370 	cmpltui	zero,zero,2253
   230a0:	00023370 	cmpltui	zero,zero,2253
   230a4:	00023370 	cmpltui	zero,zero,2253
   230a8:	00023370 	cmpltui	zero,zero,2253
   230ac:	00023c74 	movhi	zero,2289
   230b0:	00023c74 	movhi	zero,2289
   230b4:	00023c74 	movhi	zero,2289
   230b8:	00023c74 	movhi	zero,2289
   230bc:	00023c74 	movhi	zero,2289
   230c0:	00023c74 	movhi	zero,2289
   230c4:	00023c74 	movhi	zero,2289
   230c8:	00023c74 	movhi	zero,2289
   230cc:	00023c74 	movhi	zero,2289
   230d0:	00023c74 	movhi	zero,2289
   230d4:	000233b4 	movhi	zero,2254
   230d8:	000237d4 	movui	zero,2271
   230dc:	00023c74 	movhi	zero,2289
   230e0:	000237d4 	movui	zero,2271
   230e4:	00023c74 	movhi	zero,2289
   230e8:	00023c74 	movhi	zero,2289
   230ec:	00023c74 	movhi	zero,2289
   230f0:	00023c74 	movhi	zero,2289
   230f4:	0002387c 	xorhi	zero,zero,2273
   230f8:	00023c74 	movhi	zero,2289
   230fc:	00023c74 	movhi	zero,2289
   23100:	0002388c 	andi	zero,zero,2274
   23104:	00023c74 	movhi	zero,2289
   23108:	00023c74 	movhi	zero,2289
   2310c:	00023c74 	movhi	zero,2289
   23110:	00023c74 	movhi	zero,2289
   23114:	00023c74 	movhi	zero,2289
   23118:	000238d0 	cmplti	zero,zero,2275
   2311c:	00023c74 	movhi	zero,2289
   23120:	00023c74 	movhi	zero,2289
   23124:	00023908 	cmpgei	zero,zero,2276
   23128:	00023c74 	movhi	zero,2289
   2312c:	00023c74 	movhi	zero,2289
   23130:	00023c74 	movhi	zero,2289
   23134:	00023c74 	movhi	zero,2289
   23138:	00023c74 	movhi	zero,2289
   2313c:	00023c74 	movhi	zero,2289
   23140:	00023c74 	movhi	zero,2289
   23144:	00023c74 	movhi	zero,2289
   23148:	00023c74 	movhi	zero,2289
   2314c:	00023c74 	movhi	zero,2289
   23150:	00023b44 	movi	zero,2285
   23154:	00023af0 	cmpltui	zero,zero,2283
   23158:	000237d4 	movui	zero,2271
   2315c:	000237d4 	movui	zero,2271
   23160:	000237d4 	movui	zero,2271
   23164:	00023b34 	movhi	zero,2284
   23168:	00023af0 	cmpltui	zero,zero,2283
   2316c:	00023c74 	movhi	zero,2289
   23170:	00023c74 	movhi	zero,2289
   23174:	00023a0c 	andi	zero,zero,2280
   23178:	00023c74 	movhi	zero,2289
   2317c:	00023a24 	muli	zero,zero,2280
   23180:	00023a64 	muli	zero,zero,2281
   23184:	00023aa4 	muli	zero,zero,2282
   23188:	00023970 	cmpltui	zero,zero,2277
   2318c:	00023c74 	movhi	zero,2289
   23190:	00023bf8 	rdprs	zero,zero,2287
   23194:	00023c74 	movhi	zero,2289
   23198:	00023980 	call	2398 <__reset-0x1dc68>
   2319c:	00023c74 	movhi	zero,2289
   231a0:	00023c74 	movhi	zero,2289
   231a4:	000239c0 	call	239c <__reset-0x1dc64>
   231a8:	d9412a17 	ldw	r5,1192(sp)
   231ac:	8163c83a 	sub	r17,r16,r5
   231b0:	003f7d06 	br	22fa8 <_gp+0xfffe5ba8>
   231b4:	b809883a 	mov	r4,r23
   231b8:	b00b883a 	mov	r5,r22
   231bc:	00250d00 	call	250d0 <__swsetup_r>
   231c0:	10002d1e 	bne	r2,zero,23278 <___vfprintf_internal_r+0x3f8>
   231c4:	b0c0030b 	ldhu	r3,12(r22)
   231c8:	01000284 	movi	r4,10
   231cc:	1805883a 	mov	r2,r3
   231d0:	1080068c 	andi	r2,r2,26
   231d4:	113f541e 	bne	r2,r4,22f28 <_gp+0xfffe5b28>
   231d8:	b080038b 	ldhu	r2,14(r22)
   231dc:	113fffcc 	andi	r4,r2,65535
   231e0:	2120001c 	xori	r4,r4,32768
   231e4:	21200004 	addi	r4,r4,-32768
   231e8:	203f4f16 	blt	r4,zero,22f28 <_gp+0xfffe5b28>
   231ec:	b2c01917 	ldw	r11,100(r22)
   231f0:	b2800717 	ldw	r10,28(r22)
   231f4:	b2400917 	ldw	r9,36(r22)
   231f8:	d9812a17 	ldw	r6,1192(sp)
   231fc:	d9c12d17 	ldw	r7,1204(sp)
   23200:	02010004 	movi	r8,1024
   23204:	18ffff4c 	andi	r3,r3,65533
   23208:	d881078d 	sth	r2,1054(sp)
   2320c:	b809883a 	mov	r4,r23
   23210:	d8800404 	addi	r2,sp,16
   23214:	d9410404 	addi	r5,sp,1040
   23218:	d8c1070d 	sth	r3,1052(sp)
   2321c:	dac11d15 	stw	r11,1140(sp)
   23220:	da810b15 	stw	r10,1068(sp)
   23224:	da410d15 	stw	r9,1076(sp)
   23228:	d8810415 	stw	r2,1040(sp)
   2322c:	d8810815 	stw	r2,1056(sp)
   23230:	da010615 	stw	r8,1048(sp)
   23234:	da010915 	stw	r8,1060(sp)
   23238:	d8010a15 	stw	zero,1064(sp)
   2323c:	0022e800 	call	22e80 <___vfprintf_internal_r>
   23240:	1021883a 	mov	r16,r2
   23244:	10000416 	blt	r2,zero,23258 <___vfprintf_internal_r+0x3d8>
   23248:	b809883a 	mov	r4,r23
   2324c:	d9410404 	addi	r5,sp,1040
   23250:	0026b500 	call	26b50 <_fflush_r>
   23254:	1007301e 	bne	r2,zero,24f18 <___vfprintf_internal_r+0x2098>
   23258:	d881070b 	ldhu	r2,1052(sp)
   2325c:	1080100c 	andi	r2,r2,64
   23260:	10000326 	beq	r2,zero,23270 <___vfprintf_internal_r+0x3f0>
   23264:	b080030b 	ldhu	r2,12(r22)
   23268:	10801014 	ori	r2,r2,64
   2326c:	b080030d 	sth	r2,12(r22)
   23270:	8005883a 	mov	r2,r16
   23274:	00000106 	br	2327c <___vfprintf_internal_r+0x3fc>
   23278:	00bfffc4 	movi	r2,-1
   2327c:	dfc14917 	ldw	ra,1316(sp)
   23280:	df014817 	ldw	fp,1312(sp)
   23284:	ddc14717 	ldw	r23,1308(sp)
   23288:	dd814617 	ldw	r22,1304(sp)
   2328c:	dd414517 	ldw	r21,1300(sp)
   23290:	dd014417 	ldw	r20,1296(sp)
   23294:	dcc14317 	ldw	r19,1292(sp)
   23298:	dc814217 	ldw	r18,1288(sp)
   2329c:	dc414117 	ldw	r17,1284(sp)
   232a0:	dc014017 	ldw	r16,1280(sp)
   232a4:	dec14a04 	addi	sp,sp,1320
   232a8:	f800283a 	ret
   232ac:	b809883a 	mov	r4,r23
   232b0:	b00b883a 	mov	r5,r22
   232b4:	d9811e04 	addi	r6,sp,1144
   232b8:	002b7880 	call	2b788 <__sprint_r>
   232bc:	1000081e 	bne	r2,zero,232e0 <___vfprintf_internal_r+0x460>
   232c0:	da000404 	addi	r8,sp,16
   232c4:	003f4506 	br	22fdc <_gp+0xfffe5bdc>
   232c8:	d8812017 	ldw	r2,1152(sp)
   232cc:	10000426 	beq	r2,zero,232e0 <___vfprintf_internal_r+0x460>
   232d0:	b809883a 	mov	r4,r23
   232d4:	b00b883a 	mov	r5,r22
   232d8:	d9811e04 	addi	r6,sp,1144
   232dc:	002b7880 	call	2b788 <__sprint_r>
   232e0:	b080030b 	ldhu	r2,12(r22)
   232e4:	1080100c 	andi	r2,r2,64
   232e8:	103fe31e 	bne	r2,zero,23278 <_gp+0xfffe5e78>
   232ec:	d8812f17 	ldw	r2,1212(sp)
   232f0:	003fe206 	br	2327c <_gp+0xfffe5e7c>
   232f4:	b809883a 	mov	r4,r23
   232f8:	002710c0 	call	2710c <__sinit>
   232fc:	003ef806 	br	22ee0 <_gp+0xfffe5ae0>
   23300:	e005883a 	mov	r2,fp
   23304:	9cc00114 	ori	r19,r19,4
   23308:	e4000007 	ldb	r16,0(fp)
   2330c:	003f4406 	br	23020 <_gp+0xfffe5c20>
   23310:	e4000007 	ldb	r16,0(fp)
   23314:	01000a84 	movi	r4,42
   23318:	e0800044 	addi	r2,fp,1
   2331c:	8106f626 	beq	r16,r4,24ef8 <___vfprintf_internal_r+0x2078>
   23320:	857ff404 	addi	r21,r16,-48
   23324:	1039883a 	mov	fp,r2
   23328:	0013883a 	mov	r9,zero
   2332c:	957f3d36 	bltu	r18,r21,23024 <_gp+0xfffe5c24>
   23330:	0009883a 	mov	r4,zero
   23334:	01400284 	movi	r5,10
   23338:	002e2bc0 	call	2e2bc <__mulsi3>
   2333c:	e4000007 	ldb	r16,0(fp)
   23340:	a889883a 	add	r4,r21,r2
   23344:	e7000044 	addi	fp,fp,1
   23348:	857ff404 	addi	r21,r16,-48
   2334c:	957ff92e 	bgeu	r18,r21,23334 <_gp+0xfffe5f34>
   23350:	2013883a 	mov	r9,r4
   23354:	203f330e 	bge	r4,zero,23024 <_gp+0xfffe5c24>
   23358:	027fffc4 	movi	r9,-1
   2335c:	003f3106 	br	23024 <_gp+0xfffe5c24>
   23360:	9cc02014 	ori	r19,r19,128
   23364:	e005883a 	mov	r2,fp
   23368:	e4000007 	ldb	r16,0(fp)
   2336c:	003f2c06 	br	23020 <_gp+0xfffe5c20>
   23370:	857ff404 	addi	r21,r16,-48
   23374:	d8012e15 	stw	zero,1208(sp)
   23378:	e021883a 	mov	r16,fp
   2337c:	0009883a 	mov	r4,zero
   23380:	da412c15 	stw	r9,1200(sp)
   23384:	01400284 	movi	r5,10
   23388:	002e2bc0 	call	2e2bc <__mulsi3>
   2338c:	81400007 	ldb	r5,0(r16)
   23390:	1549883a 	add	r4,r2,r21
   23394:	e7000044 	addi	fp,fp,1
   23398:	2d7ff404 	addi	r21,r5,-48
   2339c:	e021883a 	mov	r16,fp
   233a0:	957ff82e 	bgeu	r18,r21,23384 <_gp+0xfffe5f84>
   233a4:	2821883a 	mov	r16,r5
   233a8:	d9012e15 	stw	r4,1208(sp)
   233ac:	da412c17 	ldw	r9,1200(sp)
   233b0:	003f1c06 	br	23024 <_gp+0xfffe5c24>
   233b4:	da012a17 	ldw	r8,1192(sp)
   233b8:	df012a15 	stw	fp,1192(sp)
   233bc:	9839883a 	mov	fp,r19
   233c0:	dcc12b03 	ldbu	r19,1196(sp)
   233c4:	e7000414 	ori	fp,fp,16
   233c8:	e080080c 	andi	r2,fp,32
   233cc:	dcc12785 	stb	r19,1182(sp)
   233d0:	d8c12d17 	ldw	r3,1204(sp)
   233d4:	1001ce26 	beq	r2,zero,23b10 <___vfprintf_internal_r+0xc90>
   233d8:	d9012d17 	ldw	r4,1204(sp)
   233dc:	18800117 	ldw	r2,4(r3)
   233e0:	1c800017 	ldw	r18,0(r3)
   233e4:	21000204 	addi	r4,r4,8
   233e8:	d9012d15 	stw	r4,1204(sp)
   233ec:	102b883a 	mov	r21,r2
   233f0:	10044916 	blt	r2,zero,24518 <___vfprintf_internal_r+0x1698>
   233f4:	dcc12783 	ldbu	r19,1182(sp)
   233f8:	da413215 	stw	r9,1224(sp)
   233fc:	00800044 	movi	r2,1
   23400:	9546b03a 	or	r3,r18,r21
   23404:	48000216 	blt	r9,zero,23410 <___vfprintf_internal_r+0x590>
   23408:	013fdfc4 	movi	r4,-129
   2340c:	e138703a 	and	fp,fp,r4
   23410:	1802251e 	bne	r3,zero,23ca8 <___vfprintf_internal_r+0xe28>
   23414:	48031726 	beq	r9,zero,24074 <___vfprintf_internal_r+0x11f4>
   23418:	10803fcc 	andi	r2,r2,255
   2341c:	00c00044 	movi	r3,1
   23420:	10c24526 	beq	r2,r3,23d38 <___vfprintf_internal_r+0xeb8>
   23424:	00c00084 	movi	r3,2
   23428:	10c33426 	beq	r2,r3,240fc <___vfprintf_internal_r+0x127c>
   2342c:	d8c10e04 	addi	r3,sp,1080
   23430:	9008d0fa 	srli	r4,r18,3
   23434:	a80a977a 	slli	r5,r21,29
   23438:	a82ad0fa 	srli	r21,r21,3
   2343c:	948001cc 	andi	r18,r18,7
   23440:	90800c04 	addi	r2,r18,48
   23444:	18ffffc4 	addi	r3,r3,-1
   23448:	2924b03a 	or	r18,r5,r4
   2344c:	18800005 	stb	r2,0(r3)
   23450:	9548b03a 	or	r4,r18,r21
   23454:	203ff61e 	bne	r4,zero,23430 <_gp+0xfffe6030>
   23458:	e100004c 	andi	r4,fp,1
   2345c:	d8c13115 	stw	r3,1220(sp)
   23460:	20039a1e 	bne	r4,zero,242cc <___vfprintf_internal_r+0x144c>
   23464:	d8812817 	ldw	r2,1184(sp)
   23468:	10e3c83a 	sub	r17,r2,r3
   2346c:	8805883a 	mov	r2,r17
   23470:	8a40010e 	bge	r17,r9,23478 <___vfprintf_internal_r+0x5f8>
   23474:	4805883a 	mov	r2,r9
   23478:	d8812b15 	stw	r2,1196(sp)
   2347c:	d8013415 	stw	zero,1232(sp)
   23480:	98803fcc 	andi	r2,r19,255
   23484:	1080201c 	xori	r2,r2,128
   23488:	10bfe004 	addi	r2,r2,-128
   2348c:	10000326 	beq	r2,zero,2349c <___vfprintf_internal_r+0x61c>
   23490:	d8c12b17 	ldw	r3,1196(sp)
   23494:	18c00044 	addi	r3,r3,1
   23498:	d8c12b15 	stw	r3,1196(sp)
   2349c:	e0c0008c 	andi	r3,fp,2
   234a0:	d8c12c15 	stw	r3,1200(sp)
   234a4:	18000326 	beq	r3,zero,234b4 <___vfprintf_internal_r+0x634>
   234a8:	d8c12b17 	ldw	r3,1196(sp)
   234ac:	18c00084 	addi	r3,r3,2
   234b0:	d8c12b15 	stw	r3,1196(sp)
   234b4:	e0c0210c 	andi	r3,fp,132
   234b8:	d8c13015 	stw	r3,1216(sp)
   234bc:	1801f81e 	bne	r3,zero,23ca0 <___vfprintf_internal_r+0xe20>
   234c0:	d9012e17 	ldw	r4,1208(sp)
   234c4:	d8c12b17 	ldw	r3,1196(sp)
   234c8:	20ebc83a 	sub	r21,r4,r3
   234cc:	0541f40e 	bge	zero,r21,23ca0 <___vfprintf_internal_r+0xe20>
   234d0:	02400404 	movi	r9,16
   234d4:	d8c12017 	ldw	r3,1152(sp)
   234d8:	d8811f17 	ldw	r2,1148(sp)
   234dc:	4d45750e 	bge	r9,r21,24ab4 <___vfprintf_internal_r+0x1c34>
   234e0:	014000f4 	movhi	r5,3
   234e4:	294da484 	addi	r5,r5,13970
   234e8:	d9413615 	stw	r5,1240(sp)
   234ec:	4827883a 	mov	r19,r9
   234f0:	048001c4 	movi	r18,7
   234f4:	00000306 	br	23504 <___vfprintf_internal_r+0x684>
   234f8:	ad7ffc04 	addi	r21,r21,-16
   234fc:	42000204 	addi	r8,r8,8
   23500:	9d40130e 	bge	r19,r21,23550 <___vfprintf_internal_r+0x6d0>
   23504:	010000f4 	movhi	r4,3
   23508:	18c00404 	addi	r3,r3,16
   2350c:	10800044 	addi	r2,r2,1
   23510:	210da484 	addi	r4,r4,13970
   23514:	41000015 	stw	r4,0(r8)
   23518:	44c00115 	stw	r19,4(r8)
   2351c:	d8c12015 	stw	r3,1152(sp)
   23520:	d8811f15 	stw	r2,1148(sp)
   23524:	90bff40e 	bge	r18,r2,234f8 <_gp+0xfffe60f8>
   23528:	b809883a 	mov	r4,r23
   2352c:	b00b883a 	mov	r5,r22
   23530:	d9811e04 	addi	r6,sp,1144
   23534:	002b7880 	call	2b788 <__sprint_r>
   23538:	103f691e 	bne	r2,zero,232e0 <_gp+0xfffe5ee0>
   2353c:	ad7ffc04 	addi	r21,r21,-16
   23540:	d8c12017 	ldw	r3,1152(sp)
   23544:	d8811f17 	ldw	r2,1148(sp)
   23548:	da000404 	addi	r8,sp,16
   2354c:	9d7fed16 	blt	r19,r21,23504 <_gp+0xfffe6104>
   23550:	d9413617 	ldw	r5,1240(sp)
   23554:	a8c7883a 	add	r3,r21,r3
   23558:	10800044 	addi	r2,r2,1
   2355c:	41400015 	stw	r5,0(r8)
   23560:	45400115 	stw	r21,4(r8)
   23564:	d8c12015 	stw	r3,1152(sp)
   23568:	d8811f15 	stw	r2,1148(sp)
   2356c:	010001c4 	movi	r4,7
   23570:	20832b16 	blt	r4,r2,24220 <___vfprintf_internal_r+0x13a0>
   23574:	d8812787 	ldb	r2,1182(sp)
   23578:	42000204 	addi	r8,r8,8
   2357c:	10000c26 	beq	r2,zero,235b0 <___vfprintf_internal_r+0x730>
   23580:	d8811f17 	ldw	r2,1148(sp)
   23584:	d9012784 	addi	r4,sp,1182
   23588:	18c00044 	addi	r3,r3,1
   2358c:	10800044 	addi	r2,r2,1
   23590:	41000015 	stw	r4,0(r8)
   23594:	01000044 	movi	r4,1
   23598:	41000115 	stw	r4,4(r8)
   2359c:	d8c12015 	stw	r3,1152(sp)
   235a0:	d8811f15 	stw	r2,1148(sp)
   235a4:	010001c4 	movi	r4,7
   235a8:	2082c416 	blt	r4,r2,240bc <___vfprintf_internal_r+0x123c>
   235ac:	42000204 	addi	r8,r8,8
   235b0:	d8812c17 	ldw	r2,1200(sp)
   235b4:	10000c26 	beq	r2,zero,235e8 <___vfprintf_internal_r+0x768>
   235b8:	d8811f17 	ldw	r2,1148(sp)
   235bc:	d9012704 	addi	r4,sp,1180
   235c0:	18c00084 	addi	r3,r3,2
   235c4:	10800044 	addi	r2,r2,1
   235c8:	41000015 	stw	r4,0(r8)
   235cc:	01000084 	movi	r4,2
   235d0:	41000115 	stw	r4,4(r8)
   235d4:	d8c12015 	stw	r3,1152(sp)
   235d8:	d8811f15 	stw	r2,1148(sp)
   235dc:	010001c4 	movi	r4,7
   235e0:	2082be16 	blt	r4,r2,240dc <___vfprintf_internal_r+0x125c>
   235e4:	42000204 	addi	r8,r8,8
   235e8:	d9013017 	ldw	r4,1216(sp)
   235ec:	00802004 	movi	r2,128
   235f0:	20822026 	beq	r4,r2,23e74 <___vfprintf_internal_r+0xff4>
   235f4:	d9413217 	ldw	r5,1224(sp)
   235f8:	2c67c83a 	sub	r19,r5,r17
   235fc:	04c0260e 	bge	zero,r19,23698 <___vfprintf_internal_r+0x818>
   23600:	05400404 	movi	r21,16
   23604:	d8811f17 	ldw	r2,1148(sp)
   23608:	acc4720e 	bge	r21,r19,247d4 <___vfprintf_internal_r+0x1954>
   2360c:	014000f4 	movhi	r5,3
   23610:	294da084 	addi	r5,r5,13954
   23614:	d9412c15 	stw	r5,1200(sp)
   23618:	048001c4 	movi	r18,7
   2361c:	00000306 	br	2362c <___vfprintf_internal_r+0x7ac>
   23620:	9cfffc04 	addi	r19,r19,-16
   23624:	42000204 	addi	r8,r8,8
   23628:	acc0110e 	bge	r21,r19,23670 <___vfprintf_internal_r+0x7f0>
   2362c:	18c00404 	addi	r3,r3,16
   23630:	10800044 	addi	r2,r2,1
   23634:	45000015 	stw	r20,0(r8)
   23638:	45400115 	stw	r21,4(r8)
   2363c:	d8c12015 	stw	r3,1152(sp)
   23640:	d8811f15 	stw	r2,1148(sp)
   23644:	90bff60e 	bge	r18,r2,23620 <_gp+0xfffe6220>
   23648:	b809883a 	mov	r4,r23
   2364c:	b00b883a 	mov	r5,r22
   23650:	d9811e04 	addi	r6,sp,1144
   23654:	002b7880 	call	2b788 <__sprint_r>
   23658:	103f211e 	bne	r2,zero,232e0 <_gp+0xfffe5ee0>
   2365c:	9cfffc04 	addi	r19,r19,-16
   23660:	d8c12017 	ldw	r3,1152(sp)
   23664:	d8811f17 	ldw	r2,1148(sp)
   23668:	da000404 	addi	r8,sp,16
   2366c:	acffef16 	blt	r21,r19,2362c <_gp+0xfffe622c>
   23670:	d9012c17 	ldw	r4,1200(sp)
   23674:	1cc7883a 	add	r3,r3,r19
   23678:	10800044 	addi	r2,r2,1
   2367c:	41000015 	stw	r4,0(r8)
   23680:	44c00115 	stw	r19,4(r8)
   23684:	d8c12015 	stw	r3,1152(sp)
   23688:	d8811f15 	stw	r2,1148(sp)
   2368c:	010001c4 	movi	r4,7
   23690:	20828216 	blt	r4,r2,2409c <___vfprintf_internal_r+0x121c>
   23694:	42000204 	addi	r8,r8,8
   23698:	e080400c 	andi	r2,fp,256
   2369c:	1001ac1e 	bne	r2,zero,23d50 <___vfprintf_internal_r+0xed0>
   236a0:	d8811f17 	ldw	r2,1148(sp)
   236a4:	d9413117 	ldw	r5,1220(sp)
   236a8:	1c47883a 	add	r3,r3,r17
   236ac:	10800044 	addi	r2,r2,1
   236b0:	41400015 	stw	r5,0(r8)
   236b4:	44400115 	stw	r17,4(r8)
   236b8:	d8c12015 	stw	r3,1152(sp)
   236bc:	d8811f15 	stw	r2,1148(sp)
   236c0:	010001c4 	movi	r4,7
   236c4:	20825d16 	blt	r4,r2,2403c <___vfprintf_internal_r+0x11bc>
   236c8:	42000204 	addi	r8,r8,8
   236cc:	e080010c 	andi	r2,fp,4
   236d0:	10003126 	beq	r2,zero,23798 <___vfprintf_internal_r+0x918>
   236d4:	d8812e17 	ldw	r2,1208(sp)
   236d8:	d9012b17 	ldw	r4,1196(sp)
   236dc:	1121c83a 	sub	r16,r2,r4
   236e0:	04002d0e 	bge	zero,r16,23798 <___vfprintf_internal_r+0x918>
   236e4:	04400404 	movi	r17,16
   236e8:	d8811f17 	ldw	r2,1148(sp)
   236ec:	8c05340e 	bge	r17,r16,24bc0 <___vfprintf_internal_r+0x1d40>
   236f0:	010000f4 	movhi	r4,3
   236f4:	210da484 	addi	r4,r4,13970
   236f8:	d9013615 	stw	r4,1240(sp)
   236fc:	048001c4 	movi	r18,7
   23700:	00000306 	br	23710 <___vfprintf_internal_r+0x890>
   23704:	843ffc04 	addi	r16,r16,-16
   23708:	42000204 	addi	r8,r8,8
   2370c:	8c00130e 	bge	r17,r16,2375c <___vfprintf_internal_r+0x8dc>
   23710:	014000f4 	movhi	r5,3
   23714:	18c00404 	addi	r3,r3,16
   23718:	10800044 	addi	r2,r2,1
   2371c:	294da484 	addi	r5,r5,13970
   23720:	41400015 	stw	r5,0(r8)
   23724:	44400115 	stw	r17,4(r8)
   23728:	d8c12015 	stw	r3,1152(sp)
   2372c:	d8811f15 	stw	r2,1148(sp)
   23730:	90bff40e 	bge	r18,r2,23704 <_gp+0xfffe6304>
   23734:	b809883a 	mov	r4,r23
   23738:	b00b883a 	mov	r5,r22
   2373c:	d9811e04 	addi	r6,sp,1144
   23740:	002b7880 	call	2b788 <__sprint_r>
   23744:	103ee61e 	bne	r2,zero,232e0 <_gp+0xfffe5ee0>
   23748:	843ffc04 	addi	r16,r16,-16
   2374c:	d8c12017 	ldw	r3,1152(sp)
   23750:	d8811f17 	ldw	r2,1148(sp)
   23754:	da000404 	addi	r8,sp,16
   23758:	8c3fed16 	blt	r17,r16,23710 <_gp+0xfffe6310>
   2375c:	d9013617 	ldw	r4,1240(sp)
   23760:	1c07883a 	add	r3,r3,r16
   23764:	10800044 	addi	r2,r2,1
   23768:	41000015 	stw	r4,0(r8)
   2376c:	44000115 	stw	r16,4(r8)
   23770:	d8c12015 	stw	r3,1152(sp)
   23774:	d8811f15 	stw	r2,1148(sp)
   23778:	010001c4 	movi	r4,7
   2377c:	2080060e 	bge	r4,r2,23798 <___vfprintf_internal_r+0x918>
   23780:	b809883a 	mov	r4,r23
   23784:	b00b883a 	mov	r5,r22
   23788:	d9811e04 	addi	r6,sp,1144
   2378c:	002b7880 	call	2b788 <__sprint_r>
   23790:	103ed31e 	bne	r2,zero,232e0 <_gp+0xfffe5ee0>
   23794:	d8c12017 	ldw	r3,1152(sp)
   23798:	df012b17 	ldw	fp,1196(sp)
   2379c:	d9412e17 	ldw	r5,1208(sp)
   237a0:	e140010e 	bge	fp,r5,237a8 <___vfprintf_internal_r+0x928>
   237a4:	2839883a 	mov	fp,r5
   237a8:	d8812f17 	ldw	r2,1212(sp)
   237ac:	1705883a 	add	r2,r2,fp
   237b0:	d8812f15 	stw	r2,1212(sp)
   237b4:	1802291e 	bne	r3,zero,2405c <___vfprintf_internal_r+0x11dc>
   237b8:	d8c12a17 	ldw	r3,1192(sp)
   237bc:	d8011f15 	stw	zero,1148(sp)
   237c0:	da000404 	addi	r8,sp,16
   237c4:	18800007 	ldb	r2,0(r3)
   237c8:	103ded1e 	bne	r2,zero,22f80 <_gp+0xfffe5b80>
   237cc:	dc012a17 	ldw	r16,1192(sp)
   237d0:	003e0506 	br	22fe8 <_gp+0xfffe5be8>
   237d4:	d9012d17 	ldw	r4,1204(sp)
   237d8:	d9412d17 	ldw	r5,1204(sp)
   237dc:	da012a17 	ldw	r8,1192(sp)
   237e0:	21000017 	ldw	r4,0(r4)
   237e4:	29400117 	ldw	r5,4(r5)
   237e8:	df012a15 	stw	fp,1192(sp)
   237ec:	9839883a 	mov	fp,r19
   237f0:	dcc12b03 	ldbu	r19,1196(sp)
   237f4:	d9013715 	stw	r4,1244(sp)
   237f8:	d9413915 	stw	r5,1252(sp)
   237fc:	da013f15 	stw	r8,1276(sp)
   23800:	da413e15 	stw	r9,1272(sp)
   23804:	dcc12785 	stb	r19,1182(sp)
   23808:	002a04c0 	call	2a04c <__fpclassifyd>
   2380c:	d8c12d17 	ldw	r3,1204(sp)
   23810:	04400044 	movi	r17,1
   23814:	da013f17 	ldw	r8,1276(sp)
   23818:	1c800204 	addi	r18,r3,8
   2381c:	da413e17 	ldw	r9,1272(sp)
   23820:	d9013717 	ldw	r4,1244(sp)
   23824:	d9413917 	ldw	r5,1252(sp)
   23828:	1443451e 	bne	r2,r17,24540 <___vfprintf_internal_r+0x16c0>
   2382c:	000d883a 	mov	r6,zero
   23830:	000f883a 	mov	r7,zero
   23834:	002f6640 	call	2f664 <__ledf2>
   23838:	da013f17 	ldw	r8,1276(sp)
   2383c:	1004fe16 	blt	r2,zero,24c38 <___vfprintf_internal_r+0x1db8>
   23840:	dcc12783 	ldbu	r19,1182(sp)
   23844:	008011c4 	movi	r2,71
   23848:	14045d0e 	bge	r2,r16,249c0 <___vfprintf_internal_r+0x1b40>
   2384c:	014000f4 	movhi	r5,3
   23850:	294d8904 	addi	r5,r5,13860
   23854:	d9413115 	stw	r5,1220(sp)
   23858:	00c000c4 	movi	r3,3
   2385c:	00bfdfc4 	movi	r2,-129
   23860:	d8c12b15 	stw	r3,1196(sp)
   23864:	e0b8703a 	and	fp,fp,r2
   23868:	dc812d15 	stw	r18,1204(sp)
   2386c:	1823883a 	mov	r17,r3
   23870:	d8013215 	stw	zero,1224(sp)
   23874:	d8013415 	stw	zero,1232(sp)
   23878:	003f0106 	br	23480 <_gp+0xfffe6080>
   2387c:	9cc00214 	ori	r19,r19,8
   23880:	e005883a 	mov	r2,fp
   23884:	e4000007 	ldb	r16,0(fp)
   23888:	003de506 	br	23020 <_gp+0xfffe5c20>
   2388c:	da012a17 	ldw	r8,1192(sp)
   23890:	df012a15 	stw	fp,1192(sp)
   23894:	9f000414 	ori	fp,r19,16
   23898:	e0c0080c 	andi	r3,fp,32
   2389c:	d8812d17 	ldw	r2,1204(sp)
   238a0:	18007626 	beq	r3,zero,23a7c <___vfprintf_internal_r+0xbfc>
   238a4:	d9412d17 	ldw	r5,1204(sp)
   238a8:	14800017 	ldw	r18,0(r2)
   238ac:	15400117 	ldw	r21,4(r2)
   238b0:	29400204 	addi	r5,r5,8
   238b4:	d9412d15 	stw	r5,1204(sp)
   238b8:	0005883a 	mov	r2,zero
   238bc:	9546b03a 	or	r3,r18,r21
   238c0:	d8012785 	stb	zero,1182(sp)
   238c4:	da413215 	stw	r9,1224(sp)
   238c8:	0027883a 	mov	r19,zero
   238cc:	003ecd06 	br	23404 <_gp+0xfffe6004>
   238d0:	da012a17 	ldw	r8,1192(sp)
   238d4:	df012a15 	stw	fp,1192(sp)
   238d8:	9f000414 	ori	fp,r19,16
   238dc:	e0c0080c 	andi	r3,fp,32
   238e0:	d8812d17 	ldw	r2,1204(sp)
   238e4:	18002c26 	beq	r3,zero,23998 <___vfprintf_internal_r+0xb18>
   238e8:	d9012d17 	ldw	r4,1204(sp)
   238ec:	14800017 	ldw	r18,0(r2)
   238f0:	15400117 	ldw	r21,4(r2)
   238f4:	21000204 	addi	r4,r4,8
   238f8:	d9012d15 	stw	r4,1204(sp)
   238fc:	00800044 	movi	r2,1
   23900:	9546b03a 	or	r3,r18,r21
   23904:	003fee06 	br	238c0 <_gp+0xfffe64c0>
   23908:	da012a17 	ldw	r8,1192(sp)
   2390c:	df012a15 	stw	fp,1192(sp)
   23910:	9839883a 	mov	fp,r19
   23914:	dcc12b03 	ldbu	r19,1196(sp)
   23918:	014000f4 	movhi	r5,3
   2391c:	294d8c04 	addi	r5,r5,13872
   23920:	dcc12785 	stb	r19,1182(sp)
   23924:	d9413b15 	stw	r5,1260(sp)
   23928:	e0c0080c 	andi	r3,fp,32
   2392c:	d8812d17 	ldw	r2,1204(sp)
   23930:	18002e26 	beq	r3,zero,239ec <___vfprintf_internal_r+0xb6c>
   23934:	d9412d17 	ldw	r5,1204(sp)
   23938:	14800017 	ldw	r18,0(r2)
   2393c:	15400117 	ldw	r21,4(r2)
   23940:	29400204 	addi	r5,r5,8
   23944:	d9412d15 	stw	r5,1204(sp)
   23948:	e080004c 	andi	r2,fp,1
   2394c:	10025c26 	beq	r2,zero,242c0 <___vfprintf_internal_r+0x1440>
   23950:	9546b03a 	or	r3,r18,r21
   23954:	18038f26 	beq	r3,zero,24794 <___vfprintf_internal_r+0x1914>
   23958:	00800c04 	movi	r2,48
   2395c:	d8812705 	stb	r2,1180(sp)
   23960:	dc012745 	stb	r16,1181(sp)
   23964:	e7000094 	ori	fp,fp,2
   23968:	00800084 	movi	r2,2
   2396c:	003fd406 	br	238c0 <_gp+0xfffe64c0>
   23970:	9cc00814 	ori	r19,r19,32
   23974:	e005883a 	mov	r2,fp
   23978:	e4000007 	ldb	r16,0(fp)
   2397c:	003da806 	br	23020 <_gp+0xfffe5c20>
   23980:	da012a17 	ldw	r8,1192(sp)
   23984:	df012a15 	stw	fp,1192(sp)
   23988:	9839883a 	mov	fp,r19
   2398c:	e0c0080c 	andi	r3,fp,32
   23990:	d8812d17 	ldw	r2,1204(sp)
   23994:	183fd41e 	bne	r3,zero,238e8 <_gp+0xfffe64e8>
   23998:	e0c0040c 	andi	r3,fp,16
   2399c:	18035f26 	beq	r3,zero,2471c <___vfprintf_internal_r+0x189c>
   239a0:	d9412d17 	ldw	r5,1204(sp)
   239a4:	14800017 	ldw	r18,0(r2)
   239a8:	002b883a 	mov	r21,zero
   239ac:	29400104 	addi	r5,r5,4
   239b0:	d9412d15 	stw	r5,1204(sp)
   239b4:	00800044 	movi	r2,1
   239b8:	9007883a 	mov	r3,r18
   239bc:	003fc006 	br	238c0 <_gp+0xfffe64c0>
   239c0:	da012a17 	ldw	r8,1192(sp)
   239c4:	df012a15 	stw	fp,1192(sp)
   239c8:	9839883a 	mov	fp,r19
   239cc:	dcc12b03 	ldbu	r19,1196(sp)
   239d0:	010000f4 	movhi	r4,3
   239d4:	210d9104 	addi	r4,r4,13892
   239d8:	d9013b15 	stw	r4,1260(sp)
   239dc:	dcc12785 	stb	r19,1182(sp)
   239e0:	e0c0080c 	andi	r3,fp,32
   239e4:	d8812d17 	ldw	r2,1204(sp)
   239e8:	183fd21e 	bne	r3,zero,23934 <_gp+0xfffe6534>
   239ec:	e0c0040c 	andi	r3,fp,16
   239f0:	18035426 	beq	r3,zero,24744 <___vfprintf_internal_r+0x18c4>
   239f4:	d8c12d17 	ldw	r3,1204(sp)
   239f8:	14800017 	ldw	r18,0(r2)
   239fc:	002b883a 	mov	r21,zero
   23a00:	18c00104 	addi	r3,r3,4
   23a04:	d8c12d15 	stw	r3,1204(sp)
   23a08:	003fcf06 	br	23948 <_gp+0xfffe6548>
   23a0c:	e4000007 	ldb	r16,0(fp)
   23a10:	00801b04 	movi	r2,108
   23a14:	8083f726 	beq	r16,r2,249f4 <___vfprintf_internal_r+0x1b74>
   23a18:	9cc00414 	ori	r19,r19,16
   23a1c:	e005883a 	mov	r2,fp
   23a20:	003d7f06 	br	23020 <_gp+0xfffe5c20>
   23a24:	da012a17 	ldw	r8,1192(sp)
   23a28:	df012a15 	stw	fp,1192(sp)
   23a2c:	9839883a 	mov	fp,r19
   23a30:	dcc12b03 	ldbu	r19,1196(sp)
   23a34:	e080080c 	andi	r2,fp,32
   23a38:	dcc12785 	stb	r19,1182(sp)
   23a3c:	10032226 	beq	r2,zero,246c8 <___vfprintf_internal_r+0x1848>
   23a40:	d9412d17 	ldw	r5,1204(sp)
   23a44:	d9012f17 	ldw	r4,1212(sp)
   23a48:	28800017 	ldw	r2,0(r5)
   23a4c:	2007d7fa 	srai	r3,r4,31
   23a50:	29400104 	addi	r5,r5,4
   23a54:	d9412d15 	stw	r5,1204(sp)
   23a58:	11000015 	stw	r4,0(r2)
   23a5c:	10c00115 	stw	r3,4(r2)
   23a60:	003d4406 	br	22f74 <_gp+0xfffe5b74>
   23a64:	da012a17 	ldw	r8,1192(sp)
   23a68:	df012a15 	stw	fp,1192(sp)
   23a6c:	9839883a 	mov	fp,r19
   23a70:	e0c0080c 	andi	r3,fp,32
   23a74:	d8812d17 	ldw	r2,1204(sp)
   23a78:	183f8a1e 	bne	r3,zero,238a4 <_gp+0xfffe64a4>
   23a7c:	e0c0040c 	andi	r3,fp,16
   23a80:	18031c26 	beq	r3,zero,246f4 <___vfprintf_internal_r+0x1874>
   23a84:	14800017 	ldw	r18,0(r2)
   23a88:	d8812d17 	ldw	r2,1204(sp)
   23a8c:	002b883a 	mov	r21,zero
   23a90:	9007883a 	mov	r3,r18
   23a94:	10800104 	addi	r2,r2,4
   23a98:	d8812d15 	stw	r2,1204(sp)
   23a9c:	0005883a 	mov	r2,zero
   23aa0:	003f8706 	br	238c0 <_gp+0xfffe64c0>
   23aa4:	d9412d17 	ldw	r5,1204(sp)
   23aa8:	00800c04 	movi	r2,48
   23aac:	d8812705 	stb	r2,1180(sp)
   23ab0:	2c800017 	ldw	r18,0(r5)
   23ab4:	00801e04 	movi	r2,120
   23ab8:	d8812745 	stb	r2,1181(sp)
   23abc:	008000f4 	movhi	r2,3
   23ac0:	108d9104 	addi	r2,r2,13892
   23ac4:	29400104 	addi	r5,r5,4
   23ac8:	da012a17 	ldw	r8,1192(sp)
   23acc:	d8813b15 	stw	r2,1260(sp)
   23ad0:	df012a15 	stw	fp,1192(sp)
   23ad4:	002b883a 	mov	r21,zero
   23ad8:	9f000094 	ori	fp,r19,2
   23adc:	d9412d15 	stw	r5,1204(sp)
   23ae0:	00800084 	movi	r2,2
   23ae4:	04001e04 	movi	r16,120
   23ae8:	9007883a 	mov	r3,r18
   23aec:	003f7406 	br	238c0 <_gp+0xfffe64c0>
   23af0:	da012a17 	ldw	r8,1192(sp)
   23af4:	df012a15 	stw	fp,1192(sp)
   23af8:	9839883a 	mov	fp,r19
   23afc:	dcc12b03 	ldbu	r19,1196(sp)
   23b00:	e080080c 	andi	r2,fp,32
   23b04:	d8c12d17 	ldw	r3,1204(sp)
   23b08:	dcc12785 	stb	r19,1182(sp)
   23b0c:	103e321e 	bne	r2,zero,233d8 <_gp+0xfffe5fd8>
   23b10:	e080040c 	andi	r2,fp,16
   23b14:	10031326 	beq	r2,zero,24764 <___vfprintf_internal_r+0x18e4>
   23b18:	1c800017 	ldw	r18,0(r3)
   23b1c:	d9412d17 	ldw	r5,1204(sp)
   23b20:	902bd7fa 	srai	r21,r18,31
   23b24:	29400104 	addi	r5,r5,4
   23b28:	d9412d15 	stw	r5,1204(sp)
   23b2c:	a805883a 	mov	r2,r21
   23b30:	003e2f06 	br	233f0 <_gp+0xfffe5ff0>
   23b34:	9cc01014 	ori	r19,r19,64
   23b38:	e005883a 	mov	r2,fp
   23b3c:	e4000007 	ldb	r16,0(fp)
   23b40:	003d3706 	br	23020 <_gp+0xfffe5c20>
   23b44:	d8c12d17 	ldw	r3,1204(sp)
   23b48:	d9012d17 	ldw	r4,1204(sp)
   23b4c:	da012a17 	ldw	r8,1192(sp)
   23b50:	18800017 	ldw	r2,0(r3)
   23b54:	21000104 	addi	r4,r4,4
   23b58:	00c00044 	movi	r3,1
   23b5c:	df012a15 	stw	fp,1192(sp)
   23b60:	d8c12b15 	stw	r3,1196(sp)
   23b64:	9839883a 	mov	fp,r19
   23b68:	d8012785 	stb	zero,1182(sp)
   23b6c:	d8810405 	stb	r2,1040(sp)
   23b70:	d9012d15 	stw	r4,1204(sp)
   23b74:	1823883a 	mov	r17,r3
   23b78:	d8c10404 	addi	r3,sp,1040
   23b7c:	d8013215 	stw	zero,1224(sp)
   23b80:	d8013415 	stw	zero,1232(sp)
   23b84:	d8c13115 	stw	r3,1220(sp)
   23b88:	0005883a 	mov	r2,zero
   23b8c:	003e4306 	br	2349c <_gp+0xfffe609c>
   23b90:	d8812b07 	ldb	r2,1196(sp)
   23b94:	1002fc1e 	bne	r2,zero,24788 <___vfprintf_internal_r+0x1908>
   23b98:	00c00804 	movi	r3,32
   23b9c:	d8c12b05 	stb	r3,1196(sp)
   23ba0:	e005883a 	mov	r2,fp
   23ba4:	e4000007 	ldb	r16,0(fp)
   23ba8:	003d1d06 	br	23020 <_gp+0xfffe5c20>
   23bac:	9cc00054 	ori	r19,r19,1
   23bb0:	e005883a 	mov	r2,fp
   23bb4:	e4000007 	ldb	r16,0(fp)
   23bb8:	003d1906 	br	23020 <_gp+0xfffe5c20>
   23bbc:	d9012d17 	ldw	r4,1204(sp)
   23bc0:	d9412d17 	ldw	r5,1204(sp)
   23bc4:	21000017 	ldw	r4,0(r4)
   23bc8:	28c00104 	addi	r3,r5,4
   23bcc:	d9012e15 	stw	r4,1208(sp)
   23bd0:	20038c16 	blt	r4,zero,24a04 <___vfprintf_internal_r+0x1b84>
   23bd4:	d8c12d15 	stw	r3,1204(sp)
   23bd8:	e005883a 	mov	r2,fp
   23bdc:	e4000007 	ldb	r16,0(fp)
   23be0:	003d0f06 	br	23020 <_gp+0xfffe5c20>
   23be4:	00c00ac4 	movi	r3,43
   23be8:	d8c12b05 	stb	r3,1196(sp)
   23bec:	e005883a 	mov	r2,fp
   23bf0:	e4000007 	ldb	r16,0(fp)
   23bf4:	003d0a06 	br	23020 <_gp+0xfffe5c20>
   23bf8:	d8c12d17 	ldw	r3,1204(sp)
   23bfc:	d9012d17 	ldw	r4,1204(sp)
   23c00:	da012a17 	ldw	r8,1192(sp)
   23c04:	18c00017 	ldw	r3,0(r3)
   23c08:	df012a15 	stw	fp,1192(sp)
   23c0c:	d8012785 	stb	zero,1182(sp)
   23c10:	d8c13115 	stw	r3,1220(sp)
   23c14:	9839883a 	mov	fp,r19
   23c18:	24800104 	addi	r18,r4,4
   23c1c:	1803f726 	beq	r3,zero,24bfc <___vfprintf_internal_r+0x1d7c>
   23c20:	d9013117 	ldw	r4,1220(sp)
   23c24:	48038916 	blt	r9,zero,24a4c <___vfprintf_internal_r+0x1bcc>
   23c28:	480d883a 	mov	r6,r9
   23c2c:	000b883a 	mov	r5,zero
   23c30:	da013f15 	stw	r8,1276(sp)
   23c34:	da413e15 	stw	r9,1272(sp)
   23c38:	00285c40 	call	285c4 <memchr>
   23c3c:	da013f17 	ldw	r8,1276(sp)
   23c40:	da413e17 	ldw	r9,1272(sp)
   23c44:	10045926 	beq	r2,zero,24dac <___vfprintf_internal_r+0x1f2c>
   23c48:	d8c13117 	ldw	r3,1220(sp)
   23c4c:	10e3c83a 	sub	r17,r2,r3
   23c50:	4c433516 	blt	r9,r17,24928 <___vfprintf_internal_r+0x1aa8>
   23c54:	8805883a 	mov	r2,r17
   23c58:	88038116 	blt	r17,zero,24a60 <___vfprintf_internal_r+0x1be0>
   23c5c:	dcc12783 	ldbu	r19,1182(sp)
   23c60:	d8812b15 	stw	r2,1196(sp)
   23c64:	dc812d15 	stw	r18,1204(sp)
   23c68:	d8013215 	stw	zero,1224(sp)
   23c6c:	d8013415 	stw	zero,1232(sp)
   23c70:	003e0306 	br	23480 <_gp+0xfffe6080>
   23c74:	da012a17 	ldw	r8,1192(sp)
   23c78:	df012a15 	stw	fp,1192(sp)
   23c7c:	9839883a 	mov	fp,r19
   23c80:	dcc12b03 	ldbu	r19,1196(sp)
   23c84:	dcc12785 	stb	r19,1182(sp)
   23c88:	803d8f26 	beq	r16,zero,232c8 <_gp+0xfffe5ec8>
   23c8c:	00c00044 	movi	r3,1
   23c90:	d8c12b15 	stw	r3,1196(sp)
   23c94:	dc010405 	stb	r16,1040(sp)
   23c98:	d8012785 	stb	zero,1182(sp)
   23c9c:	003fb506 	br	23b74 <_gp+0xfffe6774>
   23ca0:	d8c12017 	ldw	r3,1152(sp)
   23ca4:	003e3506 	br	2357c <_gp+0xfffe617c>
   23ca8:	10803fcc 	andi	r2,r2,255
   23cac:	00c00044 	movi	r3,1
   23cb0:	10fddc1e 	bne	r2,r3,23424 <_gp+0xfffe6024>
   23cb4:	a800021e 	bne	r21,zero,23cc0 <___vfprintf_internal_r+0xe40>
   23cb8:	00800244 	movi	r2,9
   23cbc:	14801e2e 	bgeu	r2,r18,23d38 <___vfprintf_internal_r+0xeb8>
   23cc0:	dc012b15 	stw	r16,1196(sp)
   23cc4:	dc410e04 	addi	r17,sp,1080
   23cc8:	9021883a 	mov	r16,r18
   23ccc:	da012c15 	stw	r8,1200(sp)
   23cd0:	a825883a 	mov	r18,r21
   23cd4:	482b883a 	mov	r21,r9
   23cd8:	8009883a 	mov	r4,r16
   23cdc:	900b883a 	mov	r5,r18
   23ce0:	01800284 	movi	r6,10
   23ce4:	000f883a 	mov	r7,zero
   23ce8:	002db740 	call	2db74 <__umoddi3>
   23cec:	10800c04 	addi	r2,r2,48
   23cf0:	8c7fffc4 	addi	r17,r17,-1
   23cf4:	8009883a 	mov	r4,r16
   23cf8:	900b883a 	mov	r5,r18
   23cfc:	01800284 	movi	r6,10
   23d00:	000f883a 	mov	r7,zero
   23d04:	88800005 	stb	r2,0(r17)
   23d08:	002d5340 	call	2d534 <__udivdi3>
   23d0c:	1021883a 	mov	r16,r2
   23d10:	10c4b03a 	or	r2,r2,r3
   23d14:	1825883a 	mov	r18,r3
   23d18:	103fef1e 	bne	r2,zero,23cd8 <_gp+0xfffe68d8>
   23d1c:	d9012817 	ldw	r4,1184(sp)
   23d20:	dc413115 	stw	r17,1220(sp)
   23d24:	dc012b17 	ldw	r16,1196(sp)
   23d28:	da012c17 	ldw	r8,1200(sp)
   23d2c:	a813883a 	mov	r9,r21
   23d30:	2463c83a 	sub	r17,r4,r17
   23d34:	003dcd06 	br	2346c <_gp+0xfffe606c>
   23d38:	94800c04 	addi	r18,r18,48
   23d3c:	d8c10dc4 	addi	r3,sp,1079
   23d40:	dc810dc5 	stb	r18,1079(sp)
   23d44:	dc413c17 	ldw	r17,1264(sp)
   23d48:	d8c13115 	stw	r3,1220(sp)
   23d4c:	003dc706 	br	2346c <_gp+0xfffe606c>
   23d50:	00801944 	movi	r2,101
   23d54:	1400720e 	bge	r2,r16,23f20 <___vfprintf_internal_r+0x10a0>
   23d58:	d9013717 	ldw	r4,1244(sp)
   23d5c:	d9413917 	ldw	r5,1252(sp)
   23d60:	000d883a 	mov	r6,zero
   23d64:	000f883a 	mov	r7,zero
   23d68:	d8c13d15 	stw	r3,1268(sp)
   23d6c:	da013f15 	stw	r8,1276(sp)
   23d70:	002f5000 	call	2f500 <__eqdf2>
   23d74:	d8c13d17 	ldw	r3,1268(sp)
   23d78:	da013f17 	ldw	r8,1276(sp)
   23d7c:	1000f41e 	bne	r2,zero,24150 <___vfprintf_internal_r+0x12d0>
   23d80:	d8811f17 	ldw	r2,1148(sp)
   23d84:	010000f4 	movhi	r4,3
   23d88:	210d9804 	addi	r4,r4,13920
   23d8c:	18c00044 	addi	r3,r3,1
   23d90:	10800044 	addi	r2,r2,1
   23d94:	41000015 	stw	r4,0(r8)
   23d98:	01000044 	movi	r4,1
   23d9c:	41000115 	stw	r4,4(r8)
   23da0:	d8c12015 	stw	r3,1152(sp)
   23da4:	d8811f15 	stw	r2,1148(sp)
   23da8:	010001c4 	movi	r4,7
   23dac:	20828d16 	blt	r4,r2,247e4 <___vfprintf_internal_r+0x1964>
   23db0:	42000204 	addi	r8,r8,8
   23db4:	d8812617 	ldw	r2,1176(sp)
   23db8:	d9413317 	ldw	r5,1228(sp)
   23dbc:	11400216 	blt	r2,r5,23dc8 <___vfprintf_internal_r+0xf48>
   23dc0:	e080004c 	andi	r2,fp,1
   23dc4:	103e4126 	beq	r2,zero,236cc <_gp+0xfffe62cc>
   23dc8:	d8813817 	ldw	r2,1248(sp)
   23dcc:	d9013517 	ldw	r4,1236(sp)
   23dd0:	d9413817 	ldw	r5,1248(sp)
   23dd4:	1887883a 	add	r3,r3,r2
   23dd8:	d8811f17 	ldw	r2,1148(sp)
   23ddc:	41000015 	stw	r4,0(r8)
   23de0:	41400115 	stw	r5,4(r8)
   23de4:	10800044 	addi	r2,r2,1
   23de8:	d8c12015 	stw	r3,1152(sp)
   23dec:	d8811f15 	stw	r2,1148(sp)
   23df0:	010001c4 	movi	r4,7
   23df4:	20830916 	blt	r4,r2,24a1c <___vfprintf_internal_r+0x1b9c>
   23df8:	42000204 	addi	r8,r8,8
   23dfc:	d8813317 	ldw	r2,1228(sp)
   23e00:	143fffc4 	addi	r16,r2,-1
   23e04:	043e310e 	bge	zero,r16,236cc <_gp+0xfffe62cc>
   23e08:	04400404 	movi	r17,16
   23e0c:	d8811f17 	ldw	r2,1148(sp)
   23e10:	8c007e0e 	bge	r17,r16,2400c <___vfprintf_internal_r+0x118c>
   23e14:	014000f4 	movhi	r5,3
   23e18:	294da084 	addi	r5,r5,13954
   23e1c:	d9412c15 	stw	r5,1200(sp)
   23e20:	04c001c4 	movi	r19,7
   23e24:	00000306 	br	23e34 <___vfprintf_internal_r+0xfb4>
   23e28:	42000204 	addi	r8,r8,8
   23e2c:	843ffc04 	addi	r16,r16,-16
   23e30:	8c00790e 	bge	r17,r16,24018 <___vfprintf_internal_r+0x1198>
   23e34:	18c00404 	addi	r3,r3,16
   23e38:	10800044 	addi	r2,r2,1
   23e3c:	45000015 	stw	r20,0(r8)
   23e40:	44400115 	stw	r17,4(r8)
   23e44:	d8c12015 	stw	r3,1152(sp)
   23e48:	d8811f15 	stw	r2,1148(sp)
   23e4c:	98bff60e 	bge	r19,r2,23e28 <_gp+0xfffe6a28>
   23e50:	b809883a 	mov	r4,r23
   23e54:	b00b883a 	mov	r5,r22
   23e58:	d9811e04 	addi	r6,sp,1144
   23e5c:	002b7880 	call	2b788 <__sprint_r>
   23e60:	103d1f1e 	bne	r2,zero,232e0 <_gp+0xfffe5ee0>
   23e64:	d8c12017 	ldw	r3,1152(sp)
   23e68:	d8811f17 	ldw	r2,1148(sp)
   23e6c:	da000404 	addi	r8,sp,16
   23e70:	003fee06 	br	23e2c <_gp+0xfffe6a2c>
   23e74:	d9412e17 	ldw	r5,1208(sp)
   23e78:	d8812b17 	ldw	r2,1196(sp)
   23e7c:	28a7c83a 	sub	r19,r5,r2
   23e80:	04fddc0e 	bge	zero,r19,235f4 <_gp+0xfffe61f4>
   23e84:	05400404 	movi	r21,16
   23e88:	d8811f17 	ldw	r2,1148(sp)
   23e8c:	acc3870e 	bge	r21,r19,24cac <___vfprintf_internal_r+0x1e2c>
   23e90:	014000f4 	movhi	r5,3
   23e94:	294da084 	addi	r5,r5,13954
   23e98:	d9412c15 	stw	r5,1200(sp)
   23e9c:	048001c4 	movi	r18,7
   23ea0:	00000306 	br	23eb0 <___vfprintf_internal_r+0x1030>
   23ea4:	9cfffc04 	addi	r19,r19,-16
   23ea8:	42000204 	addi	r8,r8,8
   23eac:	acc0110e 	bge	r21,r19,23ef4 <___vfprintf_internal_r+0x1074>
   23eb0:	18c00404 	addi	r3,r3,16
   23eb4:	10800044 	addi	r2,r2,1
   23eb8:	45000015 	stw	r20,0(r8)
   23ebc:	45400115 	stw	r21,4(r8)
   23ec0:	d8c12015 	stw	r3,1152(sp)
   23ec4:	d8811f15 	stw	r2,1148(sp)
   23ec8:	90bff60e 	bge	r18,r2,23ea4 <_gp+0xfffe6aa4>
   23ecc:	b809883a 	mov	r4,r23
   23ed0:	b00b883a 	mov	r5,r22
   23ed4:	d9811e04 	addi	r6,sp,1144
   23ed8:	002b7880 	call	2b788 <__sprint_r>
   23edc:	103d001e 	bne	r2,zero,232e0 <_gp+0xfffe5ee0>
   23ee0:	9cfffc04 	addi	r19,r19,-16
   23ee4:	d8c12017 	ldw	r3,1152(sp)
   23ee8:	d8811f17 	ldw	r2,1148(sp)
   23eec:	da000404 	addi	r8,sp,16
   23ef0:	acffef16 	blt	r21,r19,23eb0 <_gp+0xfffe6ab0>
   23ef4:	d9012c17 	ldw	r4,1200(sp)
   23ef8:	1cc7883a 	add	r3,r3,r19
   23efc:	10800044 	addi	r2,r2,1
   23f00:	41000015 	stw	r4,0(r8)
   23f04:	44c00115 	stw	r19,4(r8)
   23f08:	d8c12015 	stw	r3,1152(sp)
   23f0c:	d8811f15 	stw	r2,1148(sp)
   23f10:	010001c4 	movi	r4,7
   23f14:	20817816 	blt	r4,r2,244f8 <___vfprintf_internal_r+0x1678>
   23f18:	42000204 	addi	r8,r8,8
   23f1c:	003db506 	br	235f4 <_gp+0xfffe61f4>
   23f20:	d9413317 	ldw	r5,1228(sp)
   23f24:	00800044 	movi	r2,1
   23f28:	18c00044 	addi	r3,r3,1
   23f2c:	11413e0e 	bge	r2,r5,24428 <___vfprintf_internal_r+0x15a8>
   23f30:	dc011f17 	ldw	r16,1148(sp)
   23f34:	d8813117 	ldw	r2,1220(sp)
   23f38:	d8c12015 	stw	r3,1152(sp)
   23f3c:	84000044 	addi	r16,r16,1
   23f40:	40800015 	stw	r2,0(r8)
   23f44:	00800044 	movi	r2,1
   23f48:	40800115 	stw	r2,4(r8)
   23f4c:	dc011f15 	stw	r16,1148(sp)
   23f50:	008001c4 	movi	r2,7
   23f54:	14015616 	blt	r2,r16,244b0 <___vfprintf_internal_r+0x1630>
   23f58:	42000204 	addi	r8,r8,8
   23f5c:	d9013817 	ldw	r4,1248(sp)
   23f60:	d9413517 	ldw	r5,1236(sp)
   23f64:	84000044 	addi	r16,r16,1
   23f68:	1907883a 	add	r3,r3,r4
   23f6c:	41400015 	stw	r5,0(r8)
   23f70:	41000115 	stw	r4,4(r8)
   23f74:	d8c12015 	stw	r3,1152(sp)
   23f78:	dc011f15 	stw	r16,1148(sp)
   23f7c:	008001c4 	movi	r2,7
   23f80:	14015416 	blt	r2,r16,244d4 <___vfprintf_internal_r+0x1654>
   23f84:	44400204 	addi	r17,r8,8
   23f88:	d9013717 	ldw	r4,1244(sp)
   23f8c:	d9413917 	ldw	r5,1252(sp)
   23f90:	000d883a 	mov	r6,zero
   23f94:	000f883a 	mov	r7,zero
   23f98:	d8c13d15 	stw	r3,1268(sp)
   23f9c:	002f5000 	call	2f500 <__eqdf2>
   23fa0:	d8c13d17 	ldw	r3,1268(sp)
   23fa4:	1000a726 	beq	r2,zero,24244 <___vfprintf_internal_r+0x13c4>
   23fa8:	d9013317 	ldw	r4,1228(sp)
   23fac:	d9413117 	ldw	r5,1220(sp)
   23fb0:	84000044 	addi	r16,r16,1
   23fb4:	20bfffc4 	addi	r2,r4,-1
   23fb8:	1887883a 	add	r3,r3,r2
   23fbc:	29000044 	addi	r4,r5,1
   23fc0:	88800115 	stw	r2,4(r17)
   23fc4:	89000015 	stw	r4,0(r17)
   23fc8:	d8c12015 	stw	r3,1152(sp)
   23fcc:	dc011f15 	stw	r16,1148(sp)
   23fd0:	008001c4 	movi	r2,7
   23fd4:	14012d16 	blt	r2,r16,2448c <___vfprintf_internal_r+0x160c>
   23fd8:	8c400204 	addi	r17,r17,8
   23fdc:	d9413a17 	ldw	r5,1256(sp)
   23fe0:	dcc122c4 	addi	r19,sp,1163
   23fe4:	84000044 	addi	r16,r16,1
   23fe8:	28c7883a 	add	r3,r5,r3
   23fec:	8cc00015 	stw	r19,0(r17)
   23ff0:	89400115 	stw	r5,4(r17)
   23ff4:	d8c12015 	stw	r3,1152(sp)
   23ff8:	dc011f15 	stw	r16,1148(sp)
   23ffc:	008001c4 	movi	r2,7
   24000:	14000e16 	blt	r2,r16,2403c <___vfprintf_internal_r+0x11bc>
   24004:	8a000204 	addi	r8,r17,8
   24008:	003db006 	br	236cc <_gp+0xfffe62cc>
   2400c:	010000f4 	movhi	r4,3
   24010:	210da084 	addi	r4,r4,13954
   24014:	d9012c15 	stw	r4,1200(sp)
   24018:	d9012c17 	ldw	r4,1200(sp)
   2401c:	1c07883a 	add	r3,r3,r16
   24020:	44000115 	stw	r16,4(r8)
   24024:	41000015 	stw	r4,0(r8)
   24028:	10800044 	addi	r2,r2,1
   2402c:	d8c12015 	stw	r3,1152(sp)
   24030:	d8811f15 	stw	r2,1148(sp)
   24034:	010001c4 	movi	r4,7
   24038:	20bda30e 	bge	r4,r2,236c8 <_gp+0xfffe62c8>
   2403c:	b809883a 	mov	r4,r23
   24040:	b00b883a 	mov	r5,r22
   24044:	d9811e04 	addi	r6,sp,1144
   24048:	002b7880 	call	2b788 <__sprint_r>
   2404c:	103ca41e 	bne	r2,zero,232e0 <_gp+0xfffe5ee0>
   24050:	d8c12017 	ldw	r3,1152(sp)
   24054:	da000404 	addi	r8,sp,16
   24058:	003d9c06 	br	236cc <_gp+0xfffe62cc>
   2405c:	b809883a 	mov	r4,r23
   24060:	b00b883a 	mov	r5,r22
   24064:	d9811e04 	addi	r6,sp,1144
   24068:	002b7880 	call	2b788 <__sprint_r>
   2406c:	103dd226 	beq	r2,zero,237b8 <_gp+0xfffe63b8>
   24070:	003c9b06 	br	232e0 <_gp+0xfffe5ee0>
   24074:	10803fcc 	andi	r2,r2,255
   24078:	1000311e 	bne	r2,zero,24140 <___vfprintf_internal_r+0x12c0>
   2407c:	e080004c 	andi	r2,fp,1
   24080:	10002f26 	beq	r2,zero,24140 <___vfprintf_internal_r+0x12c0>
   24084:	00800c04 	movi	r2,48
   24088:	d8c10dc4 	addi	r3,sp,1079
   2408c:	d8810dc5 	stb	r2,1079(sp)
   24090:	dc413c17 	ldw	r17,1264(sp)
   24094:	d8c13115 	stw	r3,1220(sp)
   24098:	003cf406 	br	2346c <_gp+0xfffe606c>
   2409c:	b809883a 	mov	r4,r23
   240a0:	b00b883a 	mov	r5,r22
   240a4:	d9811e04 	addi	r6,sp,1144
   240a8:	002b7880 	call	2b788 <__sprint_r>
   240ac:	103c8c1e 	bne	r2,zero,232e0 <_gp+0xfffe5ee0>
   240b0:	d8c12017 	ldw	r3,1152(sp)
   240b4:	da000404 	addi	r8,sp,16
   240b8:	003d7706 	br	23698 <_gp+0xfffe6298>
   240bc:	b809883a 	mov	r4,r23
   240c0:	b00b883a 	mov	r5,r22
   240c4:	d9811e04 	addi	r6,sp,1144
   240c8:	002b7880 	call	2b788 <__sprint_r>
   240cc:	103c841e 	bne	r2,zero,232e0 <_gp+0xfffe5ee0>
   240d0:	d8c12017 	ldw	r3,1152(sp)
   240d4:	da000404 	addi	r8,sp,16
   240d8:	003d3506 	br	235b0 <_gp+0xfffe61b0>
   240dc:	b809883a 	mov	r4,r23
   240e0:	b00b883a 	mov	r5,r22
   240e4:	d9811e04 	addi	r6,sp,1144
   240e8:	002b7880 	call	2b788 <__sprint_r>
   240ec:	103c7c1e 	bne	r2,zero,232e0 <_gp+0xfffe5ee0>
   240f0:	d8c12017 	ldw	r3,1152(sp)
   240f4:	da000404 	addi	r8,sp,16
   240f8:	003d3b06 	br	235e8 <_gp+0xfffe61e8>
   240fc:	d9413b17 	ldw	r5,1260(sp)
   24100:	d8c10e04 	addi	r3,sp,1080
   24104:	908003cc 	andi	r2,r18,15
   24108:	a808973a 	slli	r4,r21,28
   2410c:	2885883a 	add	r2,r5,r2
   24110:	9024d13a 	srli	r18,r18,4
   24114:	10800003 	ldbu	r2,0(r2)
   24118:	a82ad13a 	srli	r21,r21,4
   2411c:	18ffffc4 	addi	r3,r3,-1
   24120:	24a4b03a 	or	r18,r4,r18
   24124:	18800005 	stb	r2,0(r3)
   24128:	9544b03a 	or	r2,r18,r21
   2412c:	103ff51e 	bne	r2,zero,24104 <_gp+0xfffe6d04>
   24130:	d9412817 	ldw	r5,1184(sp)
   24134:	d8c13115 	stw	r3,1220(sp)
   24138:	28e3c83a 	sub	r17,r5,r3
   2413c:	003ccb06 	br	2346c <_gp+0xfffe606c>
   24140:	d8c10e04 	addi	r3,sp,1080
   24144:	0023883a 	mov	r17,zero
   24148:	d8c13115 	stw	r3,1220(sp)
   2414c:	003cc706 	br	2346c <_gp+0xfffe606c>
   24150:	dc012617 	ldw	r16,1176(sp)
   24154:	0401ab0e 	bge	zero,r16,24804 <___vfprintf_internal_r+0x1984>
   24158:	d8813317 	ldw	r2,1228(sp)
   2415c:	d9413117 	ldw	r5,1220(sp)
   24160:	d9013417 	ldw	r4,1232(sp)
   24164:	1023883a 	mov	r17,r2
   24168:	28a1883a 	add	r16,r5,r2
   2416c:	2080010e 	bge	r4,r2,24174 <___vfprintf_internal_r+0x12f4>
   24170:	2023883a 	mov	r17,r4
   24174:	04400b0e 	bge	zero,r17,241a4 <___vfprintf_internal_r+0x1324>
   24178:	d8811f17 	ldw	r2,1148(sp)
   2417c:	d9413117 	ldw	r5,1220(sp)
   24180:	1c47883a 	add	r3,r3,r17
   24184:	10800044 	addi	r2,r2,1
   24188:	41400015 	stw	r5,0(r8)
   2418c:	44400115 	stw	r17,4(r8)
   24190:	d8c12015 	stw	r3,1152(sp)
   24194:	d8811f15 	stw	r2,1148(sp)
   24198:	010001c4 	movi	r4,7
   2419c:	20826716 	blt	r4,r2,24b3c <___vfprintf_internal_r+0x1cbc>
   241a0:	42000204 	addi	r8,r8,8
   241a4:	88026316 	blt	r17,zero,24b34 <___vfprintf_internal_r+0x1cb4>
   241a8:	d8813417 	ldw	r2,1232(sp)
   241ac:	1463c83a 	sub	r17,r2,r17
   241b0:	0440590e 	bge	zero,r17,24318 <___vfprintf_internal_r+0x1498>
   241b4:	04c00404 	movi	r19,16
   241b8:	d8811f17 	ldw	r2,1148(sp)
   241bc:	9c41770e 	bge	r19,r17,2479c <___vfprintf_internal_r+0x191c>
   241c0:	014000f4 	movhi	r5,3
   241c4:	294da084 	addi	r5,r5,13954
   241c8:	d9412c15 	stw	r5,1200(sp)
   241cc:	054001c4 	movi	r21,7
   241d0:	00000306 	br	241e0 <___vfprintf_internal_r+0x1360>
   241d4:	42000204 	addi	r8,r8,8
   241d8:	8c7ffc04 	addi	r17,r17,-16
   241dc:	9c41720e 	bge	r19,r17,247a8 <___vfprintf_internal_r+0x1928>
   241e0:	18c00404 	addi	r3,r3,16
   241e4:	10800044 	addi	r2,r2,1
   241e8:	45000015 	stw	r20,0(r8)
   241ec:	44c00115 	stw	r19,4(r8)
   241f0:	d8c12015 	stw	r3,1152(sp)
   241f4:	d8811f15 	stw	r2,1148(sp)
   241f8:	a8bff60e 	bge	r21,r2,241d4 <_gp+0xfffe6dd4>
   241fc:	b809883a 	mov	r4,r23
   24200:	b00b883a 	mov	r5,r22
   24204:	d9811e04 	addi	r6,sp,1144
   24208:	002b7880 	call	2b788 <__sprint_r>
   2420c:	103c341e 	bne	r2,zero,232e0 <_gp+0xfffe5ee0>
   24210:	d8c12017 	ldw	r3,1152(sp)
   24214:	d8811f17 	ldw	r2,1148(sp)
   24218:	da000404 	addi	r8,sp,16
   2421c:	003fee06 	br	241d8 <_gp+0xfffe6dd8>
   24220:	b809883a 	mov	r4,r23
   24224:	b00b883a 	mov	r5,r22
   24228:	d9811e04 	addi	r6,sp,1144
   2422c:	002b7880 	call	2b788 <__sprint_r>
   24230:	103c2b1e 	bne	r2,zero,232e0 <_gp+0xfffe5ee0>
   24234:	d8c12017 	ldw	r3,1152(sp)
   24238:	d8812787 	ldb	r2,1182(sp)
   2423c:	da000404 	addi	r8,sp,16
   24240:	003cce06 	br	2357c <_gp+0xfffe617c>
   24244:	d8813317 	ldw	r2,1228(sp)
   24248:	14ffffc4 	addi	r19,r2,-1
   2424c:	04ff630e 	bge	zero,r19,23fdc <_gp+0xfffe6bdc>
   24250:	05400404 	movi	r21,16
   24254:	acc0810e 	bge	r21,r19,2445c <___vfprintf_internal_r+0x15dc>
   24258:	014000f4 	movhi	r5,3
   2425c:	294da084 	addi	r5,r5,13954
   24260:	d9412c15 	stw	r5,1200(sp)
   24264:	01c001c4 	movi	r7,7
   24268:	00000306 	br	24278 <___vfprintf_internal_r+0x13f8>
   2426c:	8c400204 	addi	r17,r17,8
   24270:	9cfffc04 	addi	r19,r19,-16
   24274:	acc07c0e 	bge	r21,r19,24468 <___vfprintf_internal_r+0x15e8>
   24278:	18c00404 	addi	r3,r3,16
   2427c:	84000044 	addi	r16,r16,1
   24280:	8d000015 	stw	r20,0(r17)
   24284:	8d400115 	stw	r21,4(r17)
   24288:	d8c12015 	stw	r3,1152(sp)
   2428c:	dc011f15 	stw	r16,1148(sp)
   24290:	3c3ff60e 	bge	r7,r16,2426c <_gp+0xfffe6e6c>
   24294:	b809883a 	mov	r4,r23
   24298:	b00b883a 	mov	r5,r22
   2429c:	d9811e04 	addi	r6,sp,1144
   242a0:	d9c13d15 	stw	r7,1268(sp)
   242a4:	002b7880 	call	2b788 <__sprint_r>
   242a8:	d9c13d17 	ldw	r7,1268(sp)
   242ac:	103c0c1e 	bne	r2,zero,232e0 <_gp+0xfffe5ee0>
   242b0:	d8c12017 	ldw	r3,1152(sp)
   242b4:	dc011f17 	ldw	r16,1148(sp)
   242b8:	dc400404 	addi	r17,sp,16
   242bc:	003fec06 	br	24270 <_gp+0xfffe6e70>
   242c0:	00800084 	movi	r2,2
   242c4:	9546b03a 	or	r3,r18,r21
   242c8:	003d7d06 	br	238c0 <_gp+0xfffe64c0>
   242cc:	10803fcc 	andi	r2,r2,255
   242d0:	1080201c 	xori	r2,r2,128
   242d4:	10bfe004 	addi	r2,r2,-128
   242d8:	01000c04 	movi	r4,48
   242dc:	1101d726 	beq	r2,r4,24a3c <___vfprintf_internal_r+0x1bbc>
   242e0:	d9413117 	ldw	r5,1220(sp)
   242e4:	d8812817 	ldw	r2,1184(sp)
   242e8:	193fffc5 	stb	r4,-1(r3)
   242ec:	297fffc4 	addi	r5,r5,-1
   242f0:	d9413115 	stw	r5,1220(sp)
   242f4:	1163c83a 	sub	r17,r2,r5
   242f8:	003c5c06 	br	2346c <_gp+0xfffe606c>
   242fc:	b809883a 	mov	r4,r23
   24300:	b00b883a 	mov	r5,r22
   24304:	d9811e04 	addi	r6,sp,1144
   24308:	002b7880 	call	2b788 <__sprint_r>
   2430c:	103bf41e 	bne	r2,zero,232e0 <_gp+0xfffe5ee0>
   24310:	d8c12017 	ldw	r3,1152(sp)
   24314:	da000404 	addi	r8,sp,16
   24318:	d9413117 	ldw	r5,1220(sp)
   2431c:	d9013417 	ldw	r4,1232(sp)
   24320:	d8812617 	ldw	r2,1176(sp)
   24324:	2923883a 	add	r17,r5,r4
   24328:	d9413317 	ldw	r5,1228(sp)
   2432c:	11400216 	blt	r2,r5,24338 <___vfprintf_internal_r+0x14b8>
   24330:	e100004c 	andi	r4,fp,1
   24334:	20000d26 	beq	r4,zero,2436c <___vfprintf_internal_r+0x14ec>
   24338:	d9013817 	ldw	r4,1248(sp)
   2433c:	d9413517 	ldw	r5,1236(sp)
   24340:	1907883a 	add	r3,r3,r4
   24344:	d9011f17 	ldw	r4,1148(sp)
   24348:	41400015 	stw	r5,0(r8)
   2434c:	d9413817 	ldw	r5,1248(sp)
   24350:	21000044 	addi	r4,r4,1
   24354:	d8c12015 	stw	r3,1152(sp)
   24358:	41400115 	stw	r5,4(r8)
   2435c:	d9011f15 	stw	r4,1148(sp)
   24360:	014001c4 	movi	r5,7
   24364:	2901fd16 	blt	r5,r4,24b5c <___vfprintf_internal_r+0x1cdc>
   24368:	42000204 	addi	r8,r8,8
   2436c:	d9013317 	ldw	r4,1228(sp)
   24370:	2085c83a 	sub	r2,r4,r2
   24374:	8449c83a 	sub	r4,r16,r17
   24378:	1021883a 	mov	r16,r2
   2437c:	2080010e 	bge	r4,r2,24384 <___vfprintf_internal_r+0x1504>
   24380:	2021883a 	mov	r16,r4
   24384:	04000a0e 	bge	zero,r16,243b0 <___vfprintf_internal_r+0x1530>
   24388:	d9011f17 	ldw	r4,1148(sp)
   2438c:	1c07883a 	add	r3,r3,r16
   24390:	44400015 	stw	r17,0(r8)
   24394:	21000044 	addi	r4,r4,1
   24398:	44000115 	stw	r16,4(r8)
   2439c:	d8c12015 	stw	r3,1152(sp)
   243a0:	d9011f15 	stw	r4,1148(sp)
   243a4:	014001c4 	movi	r5,7
   243a8:	29020916 	blt	r5,r4,24bd0 <___vfprintf_internal_r+0x1d50>
   243ac:	42000204 	addi	r8,r8,8
   243b0:	80020116 	blt	r16,zero,24bb8 <___vfprintf_internal_r+0x1d38>
   243b4:	1421c83a 	sub	r16,r2,r16
   243b8:	043cc40e 	bge	zero,r16,236cc <_gp+0xfffe62cc>
   243bc:	04400404 	movi	r17,16
   243c0:	d8811f17 	ldw	r2,1148(sp)
   243c4:	8c3f110e 	bge	r17,r16,2400c <_gp+0xfffe6c0c>
   243c8:	014000f4 	movhi	r5,3
   243cc:	294da084 	addi	r5,r5,13954
   243d0:	d9412c15 	stw	r5,1200(sp)
   243d4:	04c001c4 	movi	r19,7
   243d8:	00000306 	br	243e8 <___vfprintf_internal_r+0x1568>
   243dc:	42000204 	addi	r8,r8,8
   243e0:	843ffc04 	addi	r16,r16,-16
   243e4:	8c3f0c0e 	bge	r17,r16,24018 <_gp+0xfffe6c18>
   243e8:	18c00404 	addi	r3,r3,16
   243ec:	10800044 	addi	r2,r2,1
   243f0:	45000015 	stw	r20,0(r8)
   243f4:	44400115 	stw	r17,4(r8)
   243f8:	d8c12015 	stw	r3,1152(sp)
   243fc:	d8811f15 	stw	r2,1148(sp)
   24400:	98bff60e 	bge	r19,r2,243dc <_gp+0xfffe6fdc>
   24404:	b809883a 	mov	r4,r23
   24408:	b00b883a 	mov	r5,r22
   2440c:	d9811e04 	addi	r6,sp,1144
   24410:	002b7880 	call	2b788 <__sprint_r>
   24414:	103bb21e 	bne	r2,zero,232e0 <_gp+0xfffe5ee0>
   24418:	d8c12017 	ldw	r3,1152(sp)
   2441c:	d8811f17 	ldw	r2,1148(sp)
   24420:	da000404 	addi	r8,sp,16
   24424:	003fee06 	br	243e0 <_gp+0xfffe6fe0>
   24428:	e088703a 	and	r4,fp,r2
   2442c:	203ec01e 	bne	r4,zero,23f30 <_gp+0xfffe6b30>
   24430:	dc011f17 	ldw	r16,1148(sp)
   24434:	d9013117 	ldw	r4,1220(sp)
   24438:	40800115 	stw	r2,4(r8)
   2443c:	84000044 	addi	r16,r16,1
   24440:	41000015 	stw	r4,0(r8)
   24444:	d8c12015 	stw	r3,1152(sp)
   24448:	dc011f15 	stw	r16,1148(sp)
   2444c:	008001c4 	movi	r2,7
   24450:	14000e16 	blt	r2,r16,2448c <___vfprintf_internal_r+0x160c>
   24454:	44400204 	addi	r17,r8,8
   24458:	003ee006 	br	23fdc <_gp+0xfffe6bdc>
   2445c:	010000f4 	movhi	r4,3
   24460:	210da084 	addi	r4,r4,13954
   24464:	d9012c15 	stw	r4,1200(sp)
   24468:	d8812c17 	ldw	r2,1200(sp)
   2446c:	1cc7883a 	add	r3,r3,r19
   24470:	84000044 	addi	r16,r16,1
   24474:	88800015 	stw	r2,0(r17)
   24478:	8cc00115 	stw	r19,4(r17)
   2447c:	d8c12015 	stw	r3,1152(sp)
   24480:	dc011f15 	stw	r16,1148(sp)
   24484:	008001c4 	movi	r2,7
   24488:	143ed30e 	bge	r2,r16,23fd8 <_gp+0xfffe6bd8>
   2448c:	b809883a 	mov	r4,r23
   24490:	b00b883a 	mov	r5,r22
   24494:	d9811e04 	addi	r6,sp,1144
   24498:	002b7880 	call	2b788 <__sprint_r>
   2449c:	103b901e 	bne	r2,zero,232e0 <_gp+0xfffe5ee0>
   244a0:	d8c12017 	ldw	r3,1152(sp)
   244a4:	dc011f17 	ldw	r16,1148(sp)
   244a8:	dc400404 	addi	r17,sp,16
   244ac:	003ecb06 	br	23fdc <_gp+0xfffe6bdc>
   244b0:	b809883a 	mov	r4,r23
   244b4:	b00b883a 	mov	r5,r22
   244b8:	d9811e04 	addi	r6,sp,1144
   244bc:	002b7880 	call	2b788 <__sprint_r>
   244c0:	103b871e 	bne	r2,zero,232e0 <_gp+0xfffe5ee0>
   244c4:	d8c12017 	ldw	r3,1152(sp)
   244c8:	dc011f17 	ldw	r16,1148(sp)
   244cc:	da000404 	addi	r8,sp,16
   244d0:	003ea206 	br	23f5c <_gp+0xfffe6b5c>
   244d4:	b809883a 	mov	r4,r23
   244d8:	b00b883a 	mov	r5,r22
   244dc:	d9811e04 	addi	r6,sp,1144
   244e0:	002b7880 	call	2b788 <__sprint_r>
   244e4:	103b7e1e 	bne	r2,zero,232e0 <_gp+0xfffe5ee0>
   244e8:	d8c12017 	ldw	r3,1152(sp)
   244ec:	dc011f17 	ldw	r16,1148(sp)
   244f0:	dc400404 	addi	r17,sp,16
   244f4:	003ea406 	br	23f88 <_gp+0xfffe6b88>
   244f8:	b809883a 	mov	r4,r23
   244fc:	b00b883a 	mov	r5,r22
   24500:	d9811e04 	addi	r6,sp,1144
   24504:	002b7880 	call	2b788 <__sprint_r>
   24508:	103b751e 	bne	r2,zero,232e0 <_gp+0xfffe5ee0>
   2450c:	d8c12017 	ldw	r3,1152(sp)
   24510:	da000404 	addi	r8,sp,16
   24514:	003c3706 	br	235f4 <_gp+0xfffe61f4>
   24518:	04a5c83a 	sub	r18,zero,r18
   2451c:	9004c03a 	cmpne	r2,r18,zero
   24520:	056bc83a 	sub	r21,zero,r21
   24524:	a8abc83a 	sub	r21,r21,r2
   24528:	04c00b44 	movi	r19,45
   2452c:	dcc12785 	stb	r19,1182(sp)
   24530:	da413215 	stw	r9,1224(sp)
   24534:	00800044 	movi	r2,1
   24538:	9546b03a 	or	r3,r18,r21
   2453c:	003bb106 	br	23404 <_gp+0xfffe6004>
   24540:	da013f15 	stw	r8,1276(sp)
   24544:	da413e15 	stw	r9,1272(sp)
   24548:	002a04c0 	call	2a04c <__fpclassifyd>
   2454c:	da013f17 	ldw	r8,1276(sp)
   24550:	da413e17 	ldw	r9,1272(sp)
   24554:	1000e526 	beq	r2,zero,248ec <___vfprintf_internal_r+0x1a6c>
   24558:	04fff7c4 	movi	r19,-33
   2455c:	00bfffc4 	movi	r2,-1
   24560:	84e6703a 	and	r19,r16,r19
   24564:	48822926 	beq	r9,r2,24e0c <___vfprintf_internal_r+0x1f8c>
   24568:	008011c4 	movi	r2,71
   2456c:	98821626 	beq	r19,r2,24dc8 <___vfprintf_internal_r+0x1f48>
   24570:	d9013917 	ldw	r4,1252(sp)
   24574:	e0c04014 	ori	r3,fp,256
   24578:	d8c12d15 	stw	r3,1204(sp)
   2457c:	20021f16 	blt	r4,zero,24dfc <___vfprintf_internal_r+0x1f7c>
   24580:	dc413917 	ldw	r17,1252(sp)
   24584:	d8012b05 	stb	zero,1196(sp)
   24588:	00801984 	movi	r2,102
   2458c:	80814d26 	beq	r16,r2,24ac4 <___vfprintf_internal_r+0x1c44>
   24590:	00801184 	movi	r2,70
   24594:	80814b26 	beq	r16,r2,24ac4 <___vfprintf_internal_r+0x1c44>
   24598:	00801144 	movi	r2,69
   2459c:	98821d26 	beq	r19,r2,24e14 <___vfprintf_internal_r+0x1f94>
   245a0:	482b883a 	mov	r21,r9
   245a4:	d8812604 	addi	r2,sp,1176
   245a8:	d8800115 	stw	r2,4(sp)
   245ac:	d9413717 	ldw	r5,1244(sp)
   245b0:	d8812504 	addi	r2,sp,1172
   245b4:	d8800215 	stw	r2,8(sp)
   245b8:	d8812104 	addi	r2,sp,1156
   245bc:	dd400015 	stw	r21,0(sp)
   245c0:	d8800315 	stw	r2,12(sp)
   245c4:	b809883a 	mov	r4,r23
   245c8:	880d883a 	mov	r6,r17
   245cc:	01c00084 	movi	r7,2
   245d0:	da013f15 	stw	r8,1276(sp)
   245d4:	da413e15 	stw	r9,1272(sp)
   245d8:	00254280 	call	25428 <_dtoa_r>
   245dc:	d8813115 	stw	r2,1220(sp)
   245e0:	008019c4 	movi	r2,103
   245e4:	da013f17 	ldw	r8,1276(sp)
   245e8:	da413e17 	ldw	r9,1272(sp)
   245ec:	80800226 	beq	r16,r2,245f8 <___vfprintf_internal_r+0x1778>
   245f0:	008011c4 	movi	r2,71
   245f4:	8081451e 	bne	r16,r2,24b0c <___vfprintf_internal_r+0x1c8c>
   245f8:	e080004c 	andi	r2,fp,1
   245fc:	10021e26 	beq	r2,zero,24e78 <___vfprintf_internal_r+0x1ff8>
   24600:	d8c13117 	ldw	r3,1220(sp)
   24604:	1d55883a 	add	r10,r3,r21
   24608:	d9013717 	ldw	r4,1244(sp)
   2460c:	880b883a 	mov	r5,r17
   24610:	000d883a 	mov	r6,zero
   24614:	000f883a 	mov	r7,zero
   24618:	da013f15 	stw	r8,1276(sp)
   2461c:	da413e15 	stw	r9,1272(sp)
   24620:	da813d15 	stw	r10,1268(sp)
   24624:	002f5000 	call	2f500 <__eqdf2>
   24628:	da013f17 	ldw	r8,1276(sp)
   2462c:	da413e17 	ldw	r9,1272(sp)
   24630:	da813d17 	ldw	r10,1268(sp)
   24634:	1001a126 	beq	r2,zero,24cbc <___vfprintf_internal_r+0x1e3c>
   24638:	d8812117 	ldw	r2,1156(sp)
   2463c:	1280062e 	bgeu	r2,r10,24658 <___vfprintf_internal_r+0x17d8>
   24640:	01000c04 	movi	r4,48
   24644:	10c00044 	addi	r3,r2,1
   24648:	d8c12115 	stw	r3,1156(sp)
   2464c:	11000005 	stb	r4,0(r2)
   24650:	d8812117 	ldw	r2,1156(sp)
   24654:	12bffb36 	bltu	r2,r10,24644 <_gp+0xfffe7244>
   24658:	d8c13117 	ldw	r3,1220(sp)
   2465c:	10c5c83a 	sub	r2,r2,r3
   24660:	d8813315 	stw	r2,1228(sp)
   24664:	008011c4 	movi	r2,71
   24668:	98818926 	beq	r19,r2,24c90 <___vfprintf_internal_r+0x1e10>
   2466c:	00801944 	movi	r2,101
   24670:	14023c0e 	bge	r2,r16,24f64 <___vfprintf_internal_r+0x20e4>
   24674:	d8c12617 	ldw	r3,1176(sp)
   24678:	00801984 	movi	r2,102
   2467c:	d8c13415 	stw	r3,1232(sp)
   24680:	8081ef26 	beq	r16,r2,24e40 <___vfprintf_internal_r+0x1fc0>
   24684:	d8c13417 	ldw	r3,1232(sp)
   24688:	d9013317 	ldw	r4,1228(sp)
   2468c:	1901e316 	blt	r3,r4,24e1c <___vfprintf_internal_r+0x1f9c>
   24690:	e080004c 	andi	r2,fp,1
   24694:	1001f426 	beq	r2,zero,24e68 <___vfprintf_internal_r+0x1fe8>
   24698:	d8c13417 	ldw	r3,1232(sp)
   2469c:	1c400044 	addi	r17,r3,1
   246a0:	8839883a 	mov	fp,r17
   246a4:	8801e416 	blt	r17,zero,24e38 <___vfprintf_internal_r+0x1fb8>
   246a8:	dd412b07 	ldb	r21,1196(sp)
   246ac:	a801701e 	bne	r21,zero,24c70 <___vfprintf_internal_r+0x1df0>
   246b0:	df012b15 	stw	fp,1196(sp)
   246b4:	dcc12783 	ldbu	r19,1182(sp)
   246b8:	df012d17 	ldw	fp,1204(sp)
   246bc:	d8013215 	stw	zero,1224(sp)
   246c0:	dc812d15 	stw	r18,1204(sp)
   246c4:	003b6e06 	br	23480 <_gp+0xfffe6080>
   246c8:	e080040c 	andi	r2,fp,16
   246cc:	1000b51e 	bne	r2,zero,249a4 <___vfprintf_internal_r+0x1b24>
   246d0:	e080100c 	andi	r2,fp,64
   246d4:	10015b26 	beq	r2,zero,24c44 <___vfprintf_internal_r+0x1dc4>
   246d8:	d9012d17 	ldw	r4,1204(sp)
   246dc:	d9412f17 	ldw	r5,1212(sp)
   246e0:	20800017 	ldw	r2,0(r4)
   246e4:	21000104 	addi	r4,r4,4
   246e8:	d9012d15 	stw	r4,1204(sp)
   246ec:	1140000d 	sth	r5,0(r2)
   246f0:	003a2006 	br	22f74 <_gp+0xfffe5b74>
   246f4:	e0c0100c 	andi	r3,fp,64
   246f8:	1800a226 	beq	r3,zero,24984 <___vfprintf_internal_r+0x1b04>
   246fc:	d8c12d17 	ldw	r3,1204(sp)
   24700:	1480000b 	ldhu	r18,0(r2)
   24704:	002b883a 	mov	r21,zero
   24708:	18c00104 	addi	r3,r3,4
   2470c:	d8c12d15 	stw	r3,1204(sp)
   24710:	0005883a 	mov	r2,zero
   24714:	9007883a 	mov	r3,r18
   24718:	003c6906 	br	238c0 <_gp+0xfffe64c0>
   2471c:	e0c0100c 	andi	r3,fp,64
   24720:	18009026 	beq	r3,zero,24964 <___vfprintf_internal_r+0x1ae4>
   24724:	1480000b 	ldhu	r18,0(r2)
   24728:	d8812d17 	ldw	r2,1204(sp)
   2472c:	002b883a 	mov	r21,zero
   24730:	9007883a 	mov	r3,r18
   24734:	10800104 	addi	r2,r2,4
   24738:	d8812d15 	stw	r2,1204(sp)
   2473c:	00800044 	movi	r2,1
   24740:	003c5f06 	br	238c0 <_gp+0xfffe64c0>
   24744:	e0c0100c 	andi	r3,fp,64
   24748:	18008026 	beq	r3,zero,2494c <___vfprintf_internal_r+0x1acc>
   2474c:	d9012d17 	ldw	r4,1204(sp)
   24750:	1480000b 	ldhu	r18,0(r2)
   24754:	002b883a 	mov	r21,zero
   24758:	21000104 	addi	r4,r4,4
   2475c:	d9012d15 	stw	r4,1204(sp)
   24760:	003c7906 	br	23948 <_gp+0xfffe6548>
   24764:	e080100c 	andi	r2,fp,64
   24768:	10007126 	beq	r2,zero,24930 <___vfprintf_internal_r+0x1ab0>
   2476c:	1c80000f 	ldh	r18,0(r3)
   24770:	d8812d17 	ldw	r2,1204(sp)
   24774:	902bd7fa 	srai	r21,r18,31
   24778:	10800104 	addi	r2,r2,4
   2477c:	d8812d15 	stw	r2,1204(sp)
   24780:	a805883a 	mov	r2,r21
   24784:	003b1a06 	br	233f0 <_gp+0xfffe5ff0>
   24788:	e4000007 	ldb	r16,0(fp)
   2478c:	e005883a 	mov	r2,fp
   24790:	003a2306 	br	23020 <_gp+0xfffe5c20>
   24794:	00800084 	movi	r2,2
   24798:	003c4906 	br	238c0 <_gp+0xfffe64c0>
   2479c:	010000f4 	movhi	r4,3
   247a0:	210da084 	addi	r4,r4,13954
   247a4:	d9012c15 	stw	r4,1200(sp)
   247a8:	d9012c17 	ldw	r4,1200(sp)
   247ac:	1c47883a 	add	r3,r3,r17
   247b0:	10800044 	addi	r2,r2,1
   247b4:	41000015 	stw	r4,0(r8)
   247b8:	44400115 	stw	r17,4(r8)
   247bc:	d8c12015 	stw	r3,1152(sp)
   247c0:	d8811f15 	stw	r2,1148(sp)
   247c4:	010001c4 	movi	r4,7
   247c8:	20becc16 	blt	r4,r2,242fc <_gp+0xfffe6efc>
   247cc:	42000204 	addi	r8,r8,8
   247d0:	003ed106 	br	24318 <_gp+0xfffe6f18>
   247d4:	010000f4 	movhi	r4,3
   247d8:	210da084 	addi	r4,r4,13954
   247dc:	d9012c15 	stw	r4,1200(sp)
   247e0:	003ba306 	br	23670 <_gp+0xfffe6270>
   247e4:	b809883a 	mov	r4,r23
   247e8:	b00b883a 	mov	r5,r22
   247ec:	d9811e04 	addi	r6,sp,1144
   247f0:	002b7880 	call	2b788 <__sprint_r>
   247f4:	103aba1e 	bne	r2,zero,232e0 <_gp+0xfffe5ee0>
   247f8:	d8c12017 	ldw	r3,1152(sp)
   247fc:	da000404 	addi	r8,sp,16
   24800:	003d6c06 	br	23db4 <_gp+0xfffe69b4>
   24804:	d8811f17 	ldw	r2,1148(sp)
   24808:	014000f4 	movhi	r5,3
   2480c:	01000044 	movi	r4,1
   24810:	18c00044 	addi	r3,r3,1
   24814:	10800044 	addi	r2,r2,1
   24818:	294d9804 	addi	r5,r5,13920
   2481c:	41000115 	stw	r4,4(r8)
   24820:	41400015 	stw	r5,0(r8)
   24824:	d8c12015 	stw	r3,1152(sp)
   24828:	d8811f15 	stw	r2,1148(sp)
   2482c:	010001c4 	movi	r4,7
   24830:	20806716 	blt	r4,r2,249d0 <___vfprintf_internal_r+0x1b50>
   24834:	42000204 	addi	r8,r8,8
   24838:	8000041e 	bne	r16,zero,2484c <___vfprintf_internal_r+0x19cc>
   2483c:	d8813317 	ldw	r2,1228(sp)
   24840:	1000021e 	bne	r2,zero,2484c <___vfprintf_internal_r+0x19cc>
   24844:	e080004c 	andi	r2,fp,1
   24848:	103ba026 	beq	r2,zero,236cc <_gp+0xfffe62cc>
   2484c:	d9013817 	ldw	r4,1248(sp)
   24850:	d8811f17 	ldw	r2,1148(sp)
   24854:	d9413517 	ldw	r5,1236(sp)
   24858:	1907883a 	add	r3,r3,r4
   2485c:	10800044 	addi	r2,r2,1
   24860:	41000115 	stw	r4,4(r8)
   24864:	41400015 	stw	r5,0(r8)
   24868:	d8c12015 	stw	r3,1152(sp)
   2486c:	d8811f15 	stw	r2,1148(sp)
   24870:	010001c4 	movi	r4,7
   24874:	20815716 	blt	r4,r2,24dd4 <___vfprintf_internal_r+0x1f54>
   24878:	42000204 	addi	r8,r8,8
   2487c:	0421c83a 	sub	r16,zero,r16
   24880:	0400810e 	bge	zero,r16,24a88 <___vfprintf_internal_r+0x1c08>
   24884:	04400404 	movi	r17,16
   24888:	8c00bd0e 	bge	r17,r16,24b80 <___vfprintf_internal_r+0x1d00>
   2488c:	014000f4 	movhi	r5,3
   24890:	294da084 	addi	r5,r5,13954
   24894:	d9412c15 	stw	r5,1200(sp)
   24898:	04c001c4 	movi	r19,7
   2489c:	00000306 	br	248ac <___vfprintf_internal_r+0x1a2c>
   248a0:	42000204 	addi	r8,r8,8
   248a4:	843ffc04 	addi	r16,r16,-16
   248a8:	8c00b80e 	bge	r17,r16,24b8c <___vfprintf_internal_r+0x1d0c>
   248ac:	18c00404 	addi	r3,r3,16
   248b0:	10800044 	addi	r2,r2,1
   248b4:	45000015 	stw	r20,0(r8)
   248b8:	44400115 	stw	r17,4(r8)
   248bc:	d8c12015 	stw	r3,1152(sp)
   248c0:	d8811f15 	stw	r2,1148(sp)
   248c4:	98bff60e 	bge	r19,r2,248a0 <_gp+0xfffe74a0>
   248c8:	b809883a 	mov	r4,r23
   248cc:	b00b883a 	mov	r5,r22
   248d0:	d9811e04 	addi	r6,sp,1144
   248d4:	002b7880 	call	2b788 <__sprint_r>
   248d8:	103a811e 	bne	r2,zero,232e0 <_gp+0xfffe5ee0>
   248dc:	d8c12017 	ldw	r3,1152(sp)
   248e0:	d8811f17 	ldw	r2,1148(sp)
   248e4:	da000404 	addi	r8,sp,16
   248e8:	003fee06 	br	248a4 <_gp+0xfffe74a4>
   248ec:	008011c4 	movi	r2,71
   248f0:	1400db16 	blt	r2,r16,24c60 <___vfprintf_internal_r+0x1de0>
   248f4:	010000f4 	movhi	r4,3
   248f8:	210d8a04 	addi	r4,r4,13864
   248fc:	d9013115 	stw	r4,1220(sp)
   24900:	00c000c4 	movi	r3,3
   24904:	00bfdfc4 	movi	r2,-129
   24908:	d8c12b15 	stw	r3,1196(sp)
   2490c:	e0b8703a 	and	fp,fp,r2
   24910:	dcc12783 	ldbu	r19,1182(sp)
   24914:	dc812d15 	stw	r18,1204(sp)
   24918:	1823883a 	mov	r17,r3
   2491c:	d8013215 	stw	zero,1224(sp)
   24920:	d8013415 	stw	zero,1232(sp)
   24924:	003ad606 	br	23480 <_gp+0xfffe6080>
   24928:	4823883a 	mov	r17,r9
   2492c:	003cc906 	br	23c54 <_gp+0xfffe6854>
   24930:	1c800017 	ldw	r18,0(r3)
   24934:	d8c12d17 	ldw	r3,1204(sp)
   24938:	902bd7fa 	srai	r21,r18,31
   2493c:	18c00104 	addi	r3,r3,4
   24940:	d8c12d15 	stw	r3,1204(sp)
   24944:	a805883a 	mov	r2,r21
   24948:	003aa906 	br	233f0 <_gp+0xfffe5ff0>
   2494c:	d9412d17 	ldw	r5,1204(sp)
   24950:	14800017 	ldw	r18,0(r2)
   24954:	002b883a 	mov	r21,zero
   24958:	29400104 	addi	r5,r5,4
   2495c:	d9412d15 	stw	r5,1204(sp)
   24960:	003bf906 	br	23948 <_gp+0xfffe6548>
   24964:	d8c12d17 	ldw	r3,1204(sp)
   24968:	14800017 	ldw	r18,0(r2)
   2496c:	002b883a 	mov	r21,zero
   24970:	18c00104 	addi	r3,r3,4
   24974:	d8c12d15 	stw	r3,1204(sp)
   24978:	00800044 	movi	r2,1
   2497c:	9007883a 	mov	r3,r18
   24980:	003bcf06 	br	238c0 <_gp+0xfffe64c0>
   24984:	d9012d17 	ldw	r4,1204(sp)
   24988:	14800017 	ldw	r18,0(r2)
   2498c:	002b883a 	mov	r21,zero
   24990:	21000104 	addi	r4,r4,4
   24994:	d9012d15 	stw	r4,1204(sp)
   24998:	0005883a 	mov	r2,zero
   2499c:	9007883a 	mov	r3,r18
   249a0:	003bc706 	br	238c0 <_gp+0xfffe64c0>
   249a4:	d9412d17 	ldw	r5,1204(sp)
   249a8:	d8c12f17 	ldw	r3,1212(sp)
   249ac:	28800017 	ldw	r2,0(r5)
   249b0:	29400104 	addi	r5,r5,4
   249b4:	d9412d15 	stw	r5,1204(sp)
   249b8:	10c00015 	stw	r3,0(r2)
   249bc:	00396d06 	br	22f74 <_gp+0xfffe5b74>
   249c0:	010000f4 	movhi	r4,3
   249c4:	210d8804 	addi	r4,r4,13856
   249c8:	d9013115 	stw	r4,1220(sp)
   249cc:	003ba206 	br	23858 <_gp+0xfffe6458>
   249d0:	b809883a 	mov	r4,r23
   249d4:	b00b883a 	mov	r5,r22
   249d8:	d9811e04 	addi	r6,sp,1144
   249dc:	002b7880 	call	2b788 <__sprint_r>
   249e0:	103a3f1e 	bne	r2,zero,232e0 <_gp+0xfffe5ee0>
   249e4:	dc012617 	ldw	r16,1176(sp)
   249e8:	d8c12017 	ldw	r3,1152(sp)
   249ec:	da000404 	addi	r8,sp,16
   249f0:	003f9106 	br	24838 <_gp+0xfffe7438>
   249f4:	e0800044 	addi	r2,fp,1
   249f8:	9cc00814 	ori	r19,r19,32
   249fc:	e4000047 	ldb	r16,1(fp)
   24a00:	00398706 	br	23020 <_gp+0xfffe5c20>
   24a04:	d8812e17 	ldw	r2,1208(sp)
   24a08:	d8c12d15 	stw	r3,1204(sp)
   24a0c:	0085c83a 	sub	r2,zero,r2
   24a10:	d8812e15 	stw	r2,1208(sp)
   24a14:	e005883a 	mov	r2,fp
   24a18:	003a3a06 	br	23304 <_gp+0xfffe5f04>
   24a1c:	b809883a 	mov	r4,r23
   24a20:	b00b883a 	mov	r5,r22
   24a24:	d9811e04 	addi	r6,sp,1144
   24a28:	002b7880 	call	2b788 <__sprint_r>
   24a2c:	103a2c1e 	bne	r2,zero,232e0 <_gp+0xfffe5ee0>
   24a30:	d8c12017 	ldw	r3,1152(sp)
   24a34:	da000404 	addi	r8,sp,16
   24a38:	003cf006 	br	23dfc <_gp+0xfffe69fc>
   24a3c:	d8c12817 	ldw	r3,1184(sp)
   24a40:	d9013117 	ldw	r4,1220(sp)
   24a44:	1923c83a 	sub	r17,r3,r4
   24a48:	003a8806 	br	2346c <_gp+0xfffe606c>
   24a4c:	da013f15 	stw	r8,1276(sp)
   24a50:	0020d780 	call	20d78 <strlen>
   24a54:	1023883a 	mov	r17,r2
   24a58:	da013f17 	ldw	r8,1276(sp)
   24a5c:	883c7f0e 	bge	r17,zero,23c5c <_gp+0xfffe685c>
   24a60:	0005883a 	mov	r2,zero
   24a64:	003c7d06 	br	23c5c <_gp+0xfffe685c>
   24a68:	b809883a 	mov	r4,r23
   24a6c:	b00b883a 	mov	r5,r22
   24a70:	d9811e04 	addi	r6,sp,1144
   24a74:	002b7880 	call	2b788 <__sprint_r>
   24a78:	103a191e 	bne	r2,zero,232e0 <_gp+0xfffe5ee0>
   24a7c:	d8c12017 	ldw	r3,1152(sp)
   24a80:	d8811f17 	ldw	r2,1148(sp)
   24a84:	da000404 	addi	r8,sp,16
   24a88:	d9413317 	ldw	r5,1228(sp)
   24a8c:	d9013117 	ldw	r4,1220(sp)
   24a90:	10800044 	addi	r2,r2,1
   24a94:	28c7883a 	add	r3,r5,r3
   24a98:	41000015 	stw	r4,0(r8)
   24a9c:	41400115 	stw	r5,4(r8)
   24aa0:	d8c12015 	stw	r3,1152(sp)
   24aa4:	d8811f15 	stw	r2,1148(sp)
   24aa8:	010001c4 	movi	r4,7
   24aac:	20bb060e 	bge	r4,r2,236c8 <_gp+0xfffe62c8>
   24ab0:	003d6206 	br	2403c <_gp+0xfffe6c3c>
   24ab4:	010000f4 	movhi	r4,3
   24ab8:	210da484 	addi	r4,r4,13970
   24abc:	d9013615 	stw	r4,1240(sp)
   24ac0:	003aa306 	br	23550 <_gp+0xfffe6150>
   24ac4:	d8812604 	addi	r2,sp,1176
   24ac8:	d8800115 	stw	r2,4(sp)
   24acc:	d9413717 	ldw	r5,1244(sp)
   24ad0:	d8812504 	addi	r2,sp,1172
   24ad4:	d8800215 	stw	r2,8(sp)
   24ad8:	d8812104 	addi	r2,sp,1156
   24adc:	da400015 	stw	r9,0(sp)
   24ae0:	d8800315 	stw	r2,12(sp)
   24ae4:	b809883a 	mov	r4,r23
   24ae8:	880d883a 	mov	r6,r17
   24aec:	01c000c4 	movi	r7,3
   24af0:	da013f15 	stw	r8,1276(sp)
   24af4:	da413e15 	stw	r9,1272(sp)
   24af8:	00254280 	call	25428 <_dtoa_r>
   24afc:	da413e17 	ldw	r9,1272(sp)
   24b00:	da013f17 	ldw	r8,1276(sp)
   24b04:	d8813115 	stw	r2,1220(sp)
   24b08:	482b883a 	mov	r21,r9
   24b0c:	d8c13117 	ldw	r3,1220(sp)
   24b10:	00801184 	movi	r2,70
   24b14:	1d55883a 	add	r10,r3,r21
   24b18:	98bebb1e 	bne	r19,r2,24608 <_gp+0xfffe7208>
   24b1c:	19000007 	ldb	r4,0(r3)
   24b20:	00800c04 	movi	r2,48
   24b24:	2080dd26 	beq	r4,r2,24e9c <___vfprintf_internal_r+0x201c>
   24b28:	d8c12617 	ldw	r3,1176(sp)
   24b2c:	50d5883a 	add	r10,r10,r3
   24b30:	003eb506 	br	24608 <_gp+0xfffe7208>
   24b34:	0023883a 	mov	r17,zero
   24b38:	003d9b06 	br	241a8 <_gp+0xfffe6da8>
   24b3c:	b809883a 	mov	r4,r23
   24b40:	b00b883a 	mov	r5,r22
   24b44:	d9811e04 	addi	r6,sp,1144
   24b48:	002b7880 	call	2b788 <__sprint_r>
   24b4c:	1039e41e 	bne	r2,zero,232e0 <_gp+0xfffe5ee0>
   24b50:	d8c12017 	ldw	r3,1152(sp)
   24b54:	da000404 	addi	r8,sp,16
   24b58:	003d9206 	br	241a4 <_gp+0xfffe6da4>
   24b5c:	b809883a 	mov	r4,r23
   24b60:	b00b883a 	mov	r5,r22
   24b64:	d9811e04 	addi	r6,sp,1144
   24b68:	002b7880 	call	2b788 <__sprint_r>
   24b6c:	1039dc1e 	bne	r2,zero,232e0 <_gp+0xfffe5ee0>
   24b70:	d8812617 	ldw	r2,1176(sp)
   24b74:	d8c12017 	ldw	r3,1152(sp)
   24b78:	da000404 	addi	r8,sp,16
   24b7c:	003dfb06 	br	2436c <_gp+0xfffe6f6c>
   24b80:	010000f4 	movhi	r4,3
   24b84:	210da084 	addi	r4,r4,13954
   24b88:	d9012c15 	stw	r4,1200(sp)
   24b8c:	d9012c17 	ldw	r4,1200(sp)
   24b90:	1c07883a 	add	r3,r3,r16
   24b94:	10800044 	addi	r2,r2,1
   24b98:	41000015 	stw	r4,0(r8)
   24b9c:	44000115 	stw	r16,4(r8)
   24ba0:	d8c12015 	stw	r3,1152(sp)
   24ba4:	d8811f15 	stw	r2,1148(sp)
   24ba8:	010001c4 	movi	r4,7
   24bac:	20bfae16 	blt	r4,r2,24a68 <_gp+0xfffe7668>
   24bb0:	42000204 	addi	r8,r8,8
   24bb4:	003fb406 	br	24a88 <_gp+0xfffe7688>
   24bb8:	0021883a 	mov	r16,zero
   24bbc:	003dfd06 	br	243b4 <_gp+0xfffe6fb4>
   24bc0:	014000f4 	movhi	r5,3
   24bc4:	294da484 	addi	r5,r5,13970
   24bc8:	d9413615 	stw	r5,1240(sp)
   24bcc:	003ae306 	br	2375c <_gp+0xfffe635c>
   24bd0:	b809883a 	mov	r4,r23
   24bd4:	b00b883a 	mov	r5,r22
   24bd8:	d9811e04 	addi	r6,sp,1144
   24bdc:	002b7880 	call	2b788 <__sprint_r>
   24be0:	1039bf1e 	bne	r2,zero,232e0 <_gp+0xfffe5ee0>
   24be4:	d8812617 	ldw	r2,1176(sp)
   24be8:	d9413317 	ldw	r5,1228(sp)
   24bec:	d8c12017 	ldw	r3,1152(sp)
   24bf0:	da000404 	addi	r8,sp,16
   24bf4:	2885c83a 	sub	r2,r5,r2
   24bf8:	003ded06 	br	243b0 <_gp+0xfffe6fb0>
   24bfc:	00800184 	movi	r2,6
   24c00:	1240012e 	bgeu	r2,r9,24c08 <___vfprintf_internal_r+0x1d88>
   24c04:	1013883a 	mov	r9,r2
   24c08:	4823883a 	mov	r17,r9
   24c0c:	4805883a 	mov	r2,r9
   24c10:	4800b216 	blt	r9,zero,24edc <___vfprintf_internal_r+0x205c>
   24c14:	014000f4 	movhi	r5,3
   24c18:	294d9604 	addi	r5,r5,13912
   24c1c:	d8812b15 	stw	r2,1196(sp)
   24c20:	dc812d15 	stw	r18,1204(sp)
   24c24:	d8013215 	stw	zero,1224(sp)
   24c28:	d8013415 	stw	zero,1232(sp)
   24c2c:	d9413115 	stw	r5,1220(sp)
   24c30:	0005883a 	mov	r2,zero
   24c34:	003a1906 	br	2349c <_gp+0xfffe609c>
   24c38:	04c00b44 	movi	r19,45
   24c3c:	dcc12785 	stb	r19,1182(sp)
   24c40:	003b0006 	br	23844 <_gp+0xfffe6444>
   24c44:	d8c12d17 	ldw	r3,1204(sp)
   24c48:	d9012f17 	ldw	r4,1212(sp)
   24c4c:	18800017 	ldw	r2,0(r3)
   24c50:	18c00104 	addi	r3,r3,4
   24c54:	d8c12d15 	stw	r3,1204(sp)
   24c58:	11000015 	stw	r4,0(r2)
   24c5c:	0038c506 	br	22f74 <_gp+0xfffe5b74>
   24c60:	014000f4 	movhi	r5,3
   24c64:	294d8b04 	addi	r5,r5,13868
   24c68:	d9413115 	stw	r5,1220(sp)
   24c6c:	003f2406 	br	24900 <_gp+0xfffe7500>
   24c70:	00800b44 	movi	r2,45
   24c74:	d8812785 	stb	r2,1182(sp)
   24c78:	df012b15 	stw	fp,1196(sp)
   24c7c:	d8013215 	stw	zero,1224(sp)
   24c80:	df012d17 	ldw	fp,1204(sp)
   24c84:	00800b44 	movi	r2,45
   24c88:	dc812d15 	stw	r18,1204(sp)
   24c8c:	003a0006 	br	23490 <_gp+0xfffe6090>
   24c90:	d8c12617 	ldw	r3,1176(sp)
   24c94:	00bfff44 	movi	r2,-3
   24c98:	18800a16 	blt	r3,r2,24cc4 <___vfprintf_internal_r+0x1e44>
   24c9c:	48c00916 	blt	r9,r3,24cc4 <___vfprintf_internal_r+0x1e44>
   24ca0:	d8c13415 	stw	r3,1232(sp)
   24ca4:	040019c4 	movi	r16,103
   24ca8:	003e7606 	br	24684 <_gp+0xfffe7284>
   24cac:	010000f4 	movhi	r4,3
   24cb0:	210da084 	addi	r4,r4,13954
   24cb4:	d9012c15 	stw	r4,1200(sp)
   24cb8:	003c8e06 	br	23ef4 <_gp+0xfffe6af4>
   24cbc:	5005883a 	mov	r2,r10
   24cc0:	003e6506 	br	24658 <_gp+0xfffe7258>
   24cc4:	843fff84 	addi	r16,r16,-2
   24cc8:	1d7fffc4 	addi	r21,r3,-1
   24ccc:	dd412615 	stw	r21,1176(sp)
   24cd0:	dc0122c5 	stb	r16,1163(sp)
   24cd4:	a8009216 	blt	r21,zero,24f20 <___vfprintf_internal_r+0x20a0>
   24cd8:	00800ac4 	movi	r2,43
   24cdc:	d8812305 	stb	r2,1164(sp)
   24ce0:	00800244 	movi	r2,9
   24ce4:	1540660e 	bge	r2,r21,24e80 <___vfprintf_internal_r+0x2000>
   24ce8:	dcc122c4 	addi	r19,sp,1163
   24cec:	dc012c15 	stw	r16,1200(sp)
   24cf0:	4023883a 	mov	r17,r8
   24cf4:	9821883a 	mov	r16,r19
   24cf8:	a809883a 	mov	r4,r21
   24cfc:	01400284 	movi	r5,10
   24d00:	002e2500 	call	2e250 <__modsi3>
   24d04:	10800c04 	addi	r2,r2,48
   24d08:	843fffc4 	addi	r16,r16,-1
   24d0c:	a809883a 	mov	r4,r21
   24d10:	01400284 	movi	r5,10
   24d14:	80800005 	stb	r2,0(r16)
   24d18:	002e1fc0 	call	2e1fc <__divsi3>
   24d1c:	01000244 	movi	r4,9
   24d20:	102b883a 	mov	r21,r2
   24d24:	20bff416 	blt	r4,r2,24cf8 <_gp+0xfffe78f8>
   24d28:	8811883a 	mov	r8,r17
   24d2c:	10800c04 	addi	r2,r2,48
   24d30:	8023883a 	mov	r17,r16
   24d34:	897fffc4 	addi	r5,r17,-1
   24d38:	88bfffc5 	stb	r2,-1(r17)
   24d3c:	dc012c17 	ldw	r16,1200(sp)
   24d40:	2cc08a2e 	bgeu	r5,r19,24f6c <___vfprintf_internal_r+0x20ec>
   24d44:	d9812384 	addi	r6,sp,1166
   24d48:	344dc83a 	sub	r6,r6,r17
   24d4c:	d9012344 	addi	r4,sp,1165
   24d50:	998d883a 	add	r6,r19,r6
   24d54:	00000106 	br	24d5c <___vfprintf_internal_r+0x1edc>
   24d58:	28800003 	ldbu	r2,0(r5)
   24d5c:	20800005 	stb	r2,0(r4)
   24d60:	21000044 	addi	r4,r4,1
   24d64:	29400044 	addi	r5,r5,1
   24d68:	21bffb1e 	bne	r4,r6,24d58 <_gp+0xfffe7958>
   24d6c:	d8812304 	addi	r2,sp,1164
   24d70:	1445c83a 	sub	r2,r2,r17
   24d74:	d9412344 	addi	r5,sp,1165
   24d78:	2885883a 	add	r2,r5,r2
   24d7c:	14e7c83a 	sub	r19,r2,r19
   24d80:	d8813317 	ldw	r2,1228(sp)
   24d84:	d8c13317 	ldw	r3,1228(sp)
   24d88:	dcc13a15 	stw	r19,1256(sp)
   24d8c:	14e3883a 	add	r17,r2,r19
   24d90:	00800044 	movi	r2,1
   24d94:	10c0550e 	bge	r2,r3,24eec <___vfprintf_internal_r+0x206c>
   24d98:	8c400044 	addi	r17,r17,1
   24d9c:	8839883a 	mov	fp,r17
   24da0:	88005016 	blt	r17,zero,24ee4 <___vfprintf_internal_r+0x2064>
   24da4:	d8013415 	stw	zero,1232(sp)
   24da8:	003e3f06 	br	246a8 <_gp+0xfffe72a8>
   24dac:	da412b15 	stw	r9,1196(sp)
   24db0:	dcc12783 	ldbu	r19,1182(sp)
   24db4:	4823883a 	mov	r17,r9
   24db8:	dc812d15 	stw	r18,1204(sp)
   24dbc:	d8013215 	stw	zero,1224(sp)
   24dc0:	d8013415 	stw	zero,1232(sp)
   24dc4:	0039ae06 	br	23480 <_gp+0xfffe6080>
   24dc8:	483de91e 	bne	r9,zero,24570 <_gp+0xfffe7170>
   24dcc:	8813883a 	mov	r9,r17
   24dd0:	003de706 	br	24570 <_gp+0xfffe7170>
   24dd4:	b809883a 	mov	r4,r23
   24dd8:	b00b883a 	mov	r5,r22
   24ddc:	d9811e04 	addi	r6,sp,1144
   24de0:	002b7880 	call	2b788 <__sprint_r>
   24de4:	10393e1e 	bne	r2,zero,232e0 <_gp+0xfffe5ee0>
   24de8:	dc012617 	ldw	r16,1176(sp)
   24dec:	d8c12017 	ldw	r3,1152(sp)
   24df0:	d8811f17 	ldw	r2,1148(sp)
   24df4:	da000404 	addi	r8,sp,16
   24df8:	003ea006 	br	2487c <_gp+0xfffe747c>
   24dfc:	00c00b44 	movi	r3,45
   24e00:	2460003c 	xorhi	r17,r4,32768
   24e04:	d8c12b05 	stb	r3,1196(sp)
   24e08:	003ddf06 	br	24588 <_gp+0xfffe7188>
   24e0c:	02400184 	movi	r9,6
   24e10:	003dd706 	br	24570 <_gp+0xfffe7170>
   24e14:	4d400044 	addi	r21,r9,1
   24e18:	003de206 	br	245a4 <_gp+0xfffe71a4>
   24e1c:	d8c13417 	ldw	r3,1232(sp)
   24e20:	00c0490e 	bge	zero,r3,24f48 <___vfprintf_internal_r+0x20c8>
   24e24:	04400044 	movi	r17,1
   24e28:	d9013317 	ldw	r4,1228(sp)
   24e2c:	8923883a 	add	r17,r17,r4
   24e30:	8839883a 	mov	fp,r17
   24e34:	883e1c0e 	bge	r17,zero,246a8 <_gp+0xfffe72a8>
   24e38:	0039883a 	mov	fp,zero
   24e3c:	003e1a06 	br	246a8 <_gp+0xfffe72a8>
   24e40:	00c03b0e 	bge	zero,r3,24f30 <___vfprintf_internal_r+0x20b0>
   24e44:	4800021e 	bne	r9,zero,24e50 <___vfprintf_internal_r+0x1fd0>
   24e48:	e080004c 	andi	r2,fp,1
   24e4c:	10000626 	beq	r2,zero,24e68 <___vfprintf_internal_r+0x1fe8>
   24e50:	d8c13417 	ldw	r3,1232(sp)
   24e54:	4a400044 	addi	r9,r9,1
   24e58:	1a63883a 	add	r17,r3,r9
   24e5c:	8839883a 	mov	fp,r17
   24e60:	883e110e 	bge	r17,zero,246a8 <_gp+0xfffe72a8>
   24e64:	003ff406 	br	24e38 <_gp+0xfffe7a38>
   24e68:	1839883a 	mov	fp,r3
   24e6c:	18004116 	blt	r3,zero,24f74 <___vfprintf_internal_r+0x20f4>
   24e70:	dc413417 	ldw	r17,1232(sp)
   24e74:	003e0c06 	br	246a8 <_gp+0xfffe72a8>
   24e78:	d8812117 	ldw	r2,1156(sp)
   24e7c:	003df606 	br	24658 <_gp+0xfffe7258>
   24e80:	00800c04 	movi	r2,48
   24e84:	a8c00c04 	addi	r3,r21,48
   24e88:	d8812345 	stb	r2,1165(sp)
   24e8c:	d8c12385 	stb	r3,1166(sp)
   24e90:	d88123c4 	addi	r2,sp,1167
   24e94:	dcc122c4 	addi	r19,sp,1163
   24e98:	003fb806 	br	24d7c <_gp+0xfffe797c>
   24e9c:	d9013717 	ldw	r4,1244(sp)
   24ea0:	880b883a 	mov	r5,r17
   24ea4:	000d883a 	mov	r6,zero
   24ea8:	000f883a 	mov	r7,zero
   24eac:	da013f15 	stw	r8,1276(sp)
   24eb0:	da413e15 	stw	r9,1272(sp)
   24eb4:	da813d15 	stw	r10,1268(sp)
   24eb8:	002f5000 	call	2f500 <__eqdf2>
   24ebc:	da013f17 	ldw	r8,1276(sp)
   24ec0:	da413e17 	ldw	r9,1272(sp)
   24ec4:	da813d17 	ldw	r10,1268(sp)
   24ec8:	103f1726 	beq	r2,zero,24b28 <_gp+0xfffe7728>
   24ecc:	00800044 	movi	r2,1
   24ed0:	1547c83a 	sub	r3,r2,r21
   24ed4:	d8c12615 	stw	r3,1176(sp)
   24ed8:	003f1406 	br	24b2c <_gp+0xfffe772c>
   24edc:	0005883a 	mov	r2,zero
   24ee0:	003f4c06 	br	24c14 <_gp+0xfffe7814>
   24ee4:	0039883a 	mov	fp,zero
   24ee8:	003fae06 	br	24da4 <_gp+0xfffe79a4>
   24eec:	e084703a 	and	r2,fp,r2
   24ef0:	103faa26 	beq	r2,zero,24d9c <_gp+0xfffe799c>
   24ef4:	003fa806 	br	24d98 <_gp+0xfffe7998>
   24ef8:	d9412d17 	ldw	r5,1204(sp)
   24efc:	2a400017 	ldw	r9,0(r5)
   24f00:	28c00104 	addi	r3,r5,4
   24f04:	d8c12d15 	stw	r3,1204(sp)
   24f08:	483ebc0e 	bge	r9,zero,249fc <_gp+0xfffe75fc>
   24f0c:	027fffc4 	movi	r9,-1
   24f10:	e4000047 	ldb	r16,1(fp)
   24f14:	00384206 	br	23020 <_gp+0xfffe5c20>
   24f18:	043fffc4 	movi	r16,-1
   24f1c:	0038ce06 	br	23258 <_gp+0xfffe5e58>
   24f20:	00800b44 	movi	r2,45
   24f24:	056bc83a 	sub	r21,zero,r21
   24f28:	d8812305 	stb	r2,1164(sp)
   24f2c:	003f6c06 	br	24ce0 <_gp+0xfffe78e0>
   24f30:	4800081e 	bne	r9,zero,24f54 <___vfprintf_internal_r+0x20d4>
   24f34:	e080004c 	andi	r2,fp,1
   24f38:	1000061e 	bne	r2,zero,24f54 <___vfprintf_internal_r+0x20d4>
   24f3c:	07000044 	movi	fp,1
   24f40:	e023883a 	mov	r17,fp
   24f44:	003dd806 	br	246a8 <_gp+0xfffe72a8>
   24f48:	04400084 	movi	r17,2
   24f4c:	88e3c83a 	sub	r17,r17,r3
   24f50:	003fb506 	br	24e28 <_gp+0xfffe7a28>
   24f54:	4c400084 	addi	r17,r9,2
   24f58:	8839883a 	mov	fp,r17
   24f5c:	883dd20e 	bge	r17,zero,246a8 <_gp+0xfffe72a8>
   24f60:	003fb506 	br	24e38 <_gp+0xfffe7a38>
   24f64:	d8c12617 	ldw	r3,1176(sp)
   24f68:	003f5706 	br	24cc8 <_gp+0xfffe78c8>
   24f6c:	d8812344 	addi	r2,sp,1165
   24f70:	003f8206 	br	24d7c <_gp+0xfffe797c>
   24f74:	0039883a 	mov	fp,zero
   24f78:	003fbd06 	br	24e70 <_gp+0xfffe7a70>

00024f7c <__vfprintf_internal>:
   24f7c:	2007883a 	mov	r3,r4
   24f80:	010000f4 	movhi	r4,3
   24f84:	21150104 	addi	r4,r4,21508
   24f88:	21000017 	ldw	r4,0(r4)
   24f8c:	2805883a 	mov	r2,r5
   24f90:	300f883a 	mov	r7,r6
   24f94:	180b883a 	mov	r5,r3
   24f98:	100d883a 	mov	r6,r2
   24f9c:	0022e801 	jmpi	22e80 <___vfprintf_internal_r>

00024fa0 <_vsnprintf_r>:
   24fa0:	3005883a 	mov	r2,r6
   24fa4:	30003616 	blt	r6,zero,25080 <_vsnprintf_r+0xe0>
   24fa8:	deffe404 	addi	sp,sp,-112
   24fac:	00c08204 	movi	r3,520
   24fb0:	dc001a15 	stw	r16,104(sp)
   24fb4:	dfc01b15 	stw	ra,108(sp)
   24fb8:	d8c0030d 	sth	r3,12(sp)
   24fbc:	d9400015 	stw	r5,0(sp)
   24fc0:	d9400415 	stw	r5,16(sp)
   24fc4:	380d883a 	mov	r6,r7
   24fc8:	2021883a 	mov	r16,r4
   24fcc:	10001326 	beq	r2,zero,2501c <_vsnprintf_r+0x7c>
   24fd0:	00c000f4 	movhi	r3,3
   24fd4:	18d50104 	addi	r3,r3,21508
   24fd8:	19000017 	ldw	r4,0(r3)
   24fdc:	d9c01c17 	ldw	r7,112(sp)
   24fe0:	10bfffc4 	addi	r2,r2,-1
   24fe4:	d8800215 	stw	r2,8(sp)
   24fe8:	d8800515 	stw	r2,20(sp)
   24fec:	d80b883a 	mov	r5,sp
   24ff0:	00bfffc4 	movi	r2,-1
   24ff4:	d880038d 	sth	r2,14(sp)
   24ff8:	0020e100 	call	20e10 <___svfprintf_internal_r>
   24ffc:	00ffffc4 	movi	r3,-1
   25000:	10c01c16 	blt	r2,r3,25074 <_vsnprintf_r+0xd4>
   25004:	d8c00017 	ldw	r3,0(sp)
   25008:	18000005 	stb	zero,0(r3)
   2500c:	dfc01b17 	ldw	ra,108(sp)
   25010:	dc001a17 	ldw	r16,104(sp)
   25014:	dec01c04 	addi	sp,sp,112
   25018:	f800283a 	ret
   2501c:	008000f4 	movhi	r2,3
   25020:	10950104 	addi	r2,r2,21508
   25024:	11000017 	ldw	r4,0(r2)
   25028:	d9c01c17 	ldw	r7,112(sp)
   2502c:	00bfffc4 	movi	r2,-1
   25030:	d80b883a 	mov	r5,sp
   25034:	d8000215 	stw	zero,8(sp)
   25038:	d8000515 	stw	zero,20(sp)
   2503c:	d880038d 	sth	r2,14(sp)
   25040:	0020e100 	call	20e10 <___svfprintf_internal_r>
   25044:	00ffffc4 	movi	r3,-1
   25048:	10c00416 	blt	r2,r3,2505c <_vsnprintf_r+0xbc>
   2504c:	dfc01b17 	ldw	ra,108(sp)
   25050:	dc001a17 	ldw	r16,104(sp)
   25054:	dec01c04 	addi	sp,sp,112
   25058:	f800283a 	ret
   2505c:	00c022c4 	movi	r3,139
   25060:	80c00015 	stw	r3,0(r16)
   25064:	dfc01b17 	ldw	ra,108(sp)
   25068:	dc001a17 	ldw	r16,104(sp)
   2506c:	dec01c04 	addi	sp,sp,112
   25070:	f800283a 	ret
   25074:	00c022c4 	movi	r3,139
   25078:	80c00015 	stw	r3,0(r16)
   2507c:	003fe106 	br	25004 <_gp+0xfffe7c04>
   25080:	008022c4 	movi	r2,139
   25084:	20800015 	stw	r2,0(r4)
   25088:	00bfffc4 	movi	r2,-1
   2508c:	f800283a 	ret

00025090 <vsnprintf>:
   25090:	008000f4 	movhi	r2,3
   25094:	10950104 	addi	r2,r2,21508
   25098:	2011883a 	mov	r8,r4
   2509c:	11000017 	ldw	r4,0(r2)
   250a0:	defffe04 	addi	sp,sp,-8
   250a4:	2807883a 	mov	r3,r5
   250a8:	3005883a 	mov	r2,r6
   250ac:	d9c00015 	stw	r7,0(sp)
   250b0:	400b883a 	mov	r5,r8
   250b4:	180d883a 	mov	r6,r3
   250b8:	100f883a 	mov	r7,r2
   250bc:	dfc00115 	stw	ra,4(sp)
   250c0:	0024fa00 	call	24fa0 <_vsnprintf_r>
   250c4:	dfc00117 	ldw	ra,4(sp)
   250c8:	dec00204 	addi	sp,sp,8
   250cc:	f800283a 	ret

000250d0 <__swsetup_r>:
   250d0:	008000f4 	movhi	r2,3
   250d4:	defffd04 	addi	sp,sp,-12
   250d8:	10950104 	addi	r2,r2,21508
   250dc:	dc400115 	stw	r17,4(sp)
   250e0:	2023883a 	mov	r17,r4
   250e4:	11000017 	ldw	r4,0(r2)
   250e8:	dc000015 	stw	r16,0(sp)
   250ec:	dfc00215 	stw	ra,8(sp)
   250f0:	2821883a 	mov	r16,r5
   250f4:	20000226 	beq	r4,zero,25100 <__swsetup_r+0x30>
   250f8:	20c00e17 	ldw	r3,56(r4)
   250fc:	18002e26 	beq	r3,zero,251b8 <__swsetup_r+0xe8>
   25100:	8080030b 	ldhu	r2,12(r16)
   25104:	10c0020c 	andi	r3,r2,8
   25108:	100d883a 	mov	r6,r2
   2510c:	18000f26 	beq	r3,zero,2514c <__swsetup_r+0x7c>
   25110:	80c00417 	ldw	r3,16(r16)
   25114:	18001526 	beq	r3,zero,2516c <__swsetup_r+0x9c>
   25118:	1100004c 	andi	r4,r2,1
   2511c:	20001c1e 	bne	r4,zero,25190 <__swsetup_r+0xc0>
   25120:	1080008c 	andi	r2,r2,2
   25124:	1000261e 	bne	r2,zero,251c0 <__swsetup_r+0xf0>
   25128:	80800517 	ldw	r2,20(r16)
   2512c:	80800215 	stw	r2,8(r16)
   25130:	18001c26 	beq	r3,zero,251a4 <__swsetup_r+0xd4>
   25134:	0005883a 	mov	r2,zero
   25138:	dfc00217 	ldw	ra,8(sp)
   2513c:	dc400117 	ldw	r17,4(sp)
   25140:	dc000017 	ldw	r16,0(sp)
   25144:	dec00304 	addi	sp,sp,12
   25148:	f800283a 	ret
   2514c:	3080040c 	andi	r2,r6,16
   25150:	10001726 	beq	r2,zero,251b0 <__swsetup_r+0xe0>
   25154:	3080010c 	andi	r2,r6,4
   25158:	10001b1e 	bne	r2,zero,251c8 <__swsetup_r+0xf8>
   2515c:	80c00417 	ldw	r3,16(r16)
   25160:	30800214 	ori	r2,r6,8
   25164:	8080030d 	sth	r2,12(r16)
   25168:	183feb1e 	bne	r3,zero,25118 <_gp+0xfffe7d18>
   2516c:	1140a00c 	andi	r5,r2,640
   25170:	01008004 	movi	r4,512
   25174:	293fe826 	beq	r5,r4,25118 <_gp+0xfffe7d18>
   25178:	8809883a 	mov	r4,r17
   2517c:	800b883a 	mov	r5,r16
   25180:	0027c640 	call	27c64 <__smakebuf_r>
   25184:	8080030b 	ldhu	r2,12(r16)
   25188:	80c00417 	ldw	r3,16(r16)
   2518c:	003fe206 	br	25118 <_gp+0xfffe7d18>
   25190:	80800517 	ldw	r2,20(r16)
   25194:	80000215 	stw	zero,8(r16)
   25198:	0085c83a 	sub	r2,zero,r2
   2519c:	80800615 	stw	r2,24(r16)
   251a0:	183fe41e 	bne	r3,zero,25134 <_gp+0xfffe7d34>
   251a4:	8080030b 	ldhu	r2,12(r16)
   251a8:	1080200c 	andi	r2,r2,128
   251ac:	103fe226 	beq	r2,zero,25138 <_gp+0xfffe7d38>
   251b0:	00bfffc4 	movi	r2,-1
   251b4:	003fe006 	br	25138 <_gp+0xfffe7d38>
   251b8:	002710c0 	call	2710c <__sinit>
   251bc:	003fd006 	br	25100 <_gp+0xfffe7d00>
   251c0:	0005883a 	mov	r2,zero
   251c4:	003fd906 	br	2512c <_gp+0xfffe7d2c>
   251c8:	81400c17 	ldw	r5,48(r16)
   251cc:	28000626 	beq	r5,zero,251e8 <__swsetup_r+0x118>
   251d0:	80801004 	addi	r2,r16,64
   251d4:	28800326 	beq	r5,r2,251e4 <__swsetup_r+0x114>
   251d8:	8809883a 	mov	r4,r17
   251dc:	00272800 	call	27280 <_free_r>
   251e0:	8180030b 	ldhu	r6,12(r16)
   251e4:	80000c15 	stw	zero,48(r16)
   251e8:	80c00417 	ldw	r3,16(r16)
   251ec:	00bff6c4 	movi	r2,-37
   251f0:	118c703a 	and	r6,r2,r6
   251f4:	80000115 	stw	zero,4(r16)
   251f8:	80c00015 	stw	r3,0(r16)
   251fc:	003fd806 	br	25160 <_gp+0xfffe7d60>

00025200 <quorem>:
   25200:	defff204 	addi	sp,sp,-56
   25204:	ddc00b15 	stw	r23,44(sp)
   25208:	20800417 	ldw	r2,16(r4)
   2520c:	2dc00417 	ldw	r23,16(r5)
   25210:	dfc00d15 	stw	ra,52(sp)
   25214:	df000c15 	stw	fp,48(sp)
   25218:	dd800a15 	stw	r22,40(sp)
   2521c:	dd400915 	stw	r21,36(sp)
   25220:	dd000815 	stw	r20,32(sp)
   25224:	dcc00715 	stw	r19,28(sp)
   25228:	dc800615 	stw	r18,24(sp)
   2522c:	dc400515 	stw	r17,20(sp)
   25230:	dc000415 	stw	r16,16(sp)
   25234:	15c07a16 	blt	r2,r23,25420 <quorem+0x220>
   25238:	bdffffc4 	addi	r23,r23,-1
   2523c:	bde9883a 	add	r20,r23,r23
   25240:	28c00504 	addi	r3,r5,20
   25244:	a529883a 	add	r20,r20,r20
   25248:	1d39883a 	add	fp,r3,r20
   2524c:	24c00504 	addi	r19,r4,20
   25250:	d9400215 	stw	r5,8(sp)
   25254:	9d29883a 	add	r20,r19,r20
   25258:	e1400017 	ldw	r5,0(fp)
   2525c:	d9000015 	stw	r4,0(sp)
   25260:	a1000017 	ldw	r4,0(r20)
   25264:	29400044 	addi	r5,r5,1
   25268:	d8c00115 	stw	r3,4(sp)
   2526c:	dd000315 	stw	r20,12(sp)
   25270:	002e2ac0 	call	2e2ac <__udivsi3>
   25274:	1025883a 	mov	r18,r2
   25278:	10003026 	beq	r2,zero,2533c <quorem+0x13c>
   2527c:	dc400117 	ldw	r17,4(sp)
   25280:	9829883a 	mov	r20,r19
   25284:	002d883a 	mov	r22,zero
   25288:	0021883a 	mov	r16,zero
   2528c:	8d400017 	ldw	r21,0(r17)
   25290:	900b883a 	mov	r5,r18
   25294:	8c400104 	addi	r17,r17,4
   25298:	a93fffcc 	andi	r4,r21,65535
   2529c:	002e2bc0 	call	2e2bc <__mulsi3>
   252a0:	a808d43a 	srli	r4,r21,16
   252a4:	900b883a 	mov	r5,r18
   252a8:	b0ad883a 	add	r22,r22,r2
   252ac:	002e2bc0 	call	2e2bc <__mulsi3>
